	.text
	.syntax unified
	.eabi_attribute	67, "2.09"	@ Tag_conformance
	.cpu	cortex-m33
	.eabi_attribute	6, 17	@ Tag_CPU_arch
	.eabi_attribute	7, 77	@ Tag_CPU_arch_profile
	.eabi_attribute	8, 0	@ Tag_ARM_ISA_use
	.eabi_attribute	9, 3	@ Tag_THUMB_ISA_use
	.fpu	fpv5-sp-d16
	.eabi_attribute	27, 1	@ Tag_ABI_HardFP_use
	.eabi_attribute	36, 1	@ Tag_FP_HP_extension
	.eabi_attribute	46, 1	@ Tag_DSP_extension
	.eabi_attribute	34, 1	@ Tag_CPU_unaligned_access
	.eabi_attribute	17, 1	@ Tag_ABI_PCS_GOT_use
	.eabi_attribute	20, 2	@ Tag_ABI_FP_denormal
	.eabi_attribute	21, 0	@ Tag_ABI_FP_exceptions
	.eabi_attribute	23, 1	@ Tag_ABI_FP_number_model
	.eabi_attribute	24, 1	@ Tag_ABI_align_needed
	.eabi_attribute	25, 1	@ Tag_ABI_align_preserved
	.eabi_attribute	28, 1	@ Tag_ABI_VFP_args
	.eabi_attribute	38, 1	@ Tag_ABI_FP_16bit_format
	.eabi_attribute	18, 2	@ Tag_ABI_PCS_wchar_t
	.eabi_attribute	26, 1	@ Tag_ABI_enum_size
	.eabi_attribute	14, 0	@ Tag_ABI_PCS_R9_use
	.file	"main.c"
	.file	1 "C:\\Users\\oyiben01\\Documents\\SVN\\Content_WorkSpace\\Courses\\Efficient Embedded Education Kit\\Efficient Embedded Education Kit-NUCLEO-144_LATEST\\contents\\5. C Code as Implemented in Assembly Language\\Code\\Listing" "main.c"
	.section	.text.list_init,"ax",%progbits
	.hidden	list_init                       @ -- Begin function list_init
	.globl	list_init
	.p2align	2
	.type	list_init,%function
	.code	16                              @ @list_init
	.thumb_func
list_init:
.Lfunc_begin0:
	.loc	1 7 0                           @ main.c:7:0
	.fnstart
	.cfi_sections .debug_frame
	.cfi_startproc
@ %bb.0:
	.save	{r4, r5, r6, r7, r8, r9, r10, lr}
	push.w	{r4, r5, r6, r7, r8, r9, r10, lr}
	.cfi_def_cfa_offset 32
	.cfi_offset lr, -4
	.cfi_offset r10, -8
	.cfi_offset r9, -12
	.cfi_offset r8, -16
	.cfi_offset r7, -20
	.cfi_offset r6, -24
	.cfi_offset r5, -28
	.cfi_offset r4, -32
.Ltmp0:
	@DEBUG_VALUE: list_init:i <- 0
	.loc	1 11 26 prologue_end            @ main.c:11:26
	movw	r0, :lower16:offset
	movt	r0, :upper16:offset
.Ltmp1:
	@DEBUG_VALUE: list_init:i <- 3
	ldm.w	r0, {r1, r2, r3, r12, lr}
	add.w	r8, r0, #20
	ldm.w	r8, {r4, r5, r8}
	.loc	1 11 24 is_stmt 0               @ main.c:11:24
	rsb.w	r10, r12, #27
.Ltmp2:
	@DEBUG_VALUE: list_init:i <- 4
	.loc	1 0 24                          @ main.c:0:24
	movw	r12, #343
	.loc	1 11 12                         @ main.c:11:12
	movw	r7, :lower16:list
	.loc	1 11 24                         @ main.c:11:24
	rsb.w	r9, r1, #0
	rsb.w	r5, r5, #216
.Ltmp3:
	@DEBUG_VALUE: list_init:i <- 7
	.loc	1 11 12                         @ main.c:11:12
	movt	r7, :upper16:list
	.loc	1 11 24                         @ main.c:11:24
	sub.w	r1, r12, r8
.Ltmp4:
	@DEBUG_VALUE: list_init:i <- 8
	.loc	1 11 12                         @ main.c:11:12
	strd	r5, r1, [r7, #24]
	.loc	1 11 26                         @ main.c:11:26
	ldrd	r1, r0, [r0, #32]
	.loc	1 11 24                         @ main.c:11:24
	rsb.w	r2, r2, #1
	.loc	1 11 12                         @ main.c:11:12
	strd	r9, r2, [r7]
	movw	r2, #729
	.loc	1 11 24                         @ main.c:11:24
	rsb.w	r3, r3, #8
	rsb.w	r6, lr, #64
.Ltmp5:
	@DEBUG_VALUE: list_init:i <- 5
	rsb.w	r4, r4, #125
.Ltmp6:
	@DEBUG_VALUE: list_init:i <- 6
	rsb.w	r1, r1, #512
.Ltmp7:
	@DEBUG_VALUE: list_init:i <- 9
	subs	r0, r2, r0
.Ltmp8:
	@DEBUG_VALUE: list_init:i <- 10
	.loc	1 11 12                         @ main.c:11:12
	strd	r3, r10, [r7, #8]
	strd	r6, r4, [r7, #16]
	strd	r1, r0, [r7, #32]
.Ltmp9:
	.loc	1 16 1 is_stmt 1                @ main.c:16:1
	pop.w	{r4, r5, r6, r7, r8, r9, r10, pc}
.Ltmp10:
.Lfunc_end0:
	.size	list_init, .Lfunc_end0-list_init
	.cfi_endproc
	.cantunwind
	.fnend
                                        @ -- End function
	.section	.text.list_find,"ax",%progbits
	.hidden	list_find                       @ -- Begin function list_find
	.globl	list_find
	.p2align	2
	.type	list_find,%function
	.code	16                              @ @list_find
	.thumb_func
list_find:
.Lfunc_begin1:
	.loc	1 18 0                          @ main.c:18:0
	.fnstart
	.cfi_startproc
@ %bb.0:
	@DEBUG_VALUE: list_find:key <- $r0
	.loc	1 21 7 prologue_end             @ main.c:21:7
	movw	r1, :lower16:list
	movt	r1, :upper16:list
	ldr	r2, [r1]
.Ltmp11:
	@DEBUG_VALUE: list_find:i <- 0
	@DEBUG_VALUE: list_find:key <- $r0
	.loc	1 21 7 is_stmt 0                @ main.c:21:7
	cmp	r2, r0
	itt	eq
	moveq	r0, #0
.Ltmp12:
	@DEBUG_VALUE: list_find:key <- [DW_OP_LLVM_entry_value 1] $r0
	.loc	1 25 1 is_stmt 1                @ main.c:25:1
	bxeq	lr
.Ltmp13:
.LBB1_1:
	@DEBUG_VALUE: list_find:key <- [DW_OP_LLVM_entry_value 1] $r0
	@DEBUG_VALUE: list_find:i <- 0
	@DEBUG_VALUE: list_find:i <- 1
	.loc	1 21 7                          @ main.c:21:7
	ldr	r2, [r1, #4]
.Ltmp14:
	.loc	1 21 7 is_stmt 0                @ main.c:21:7
	cmp	r2, r0
	itt	eq
	moveq	r0, #1
.Ltmp15:
	.loc	1 25 1 is_stmt 1                @ main.c:25:1
	bxeq	lr
.Ltmp16:
.LBB1_2:
	@DEBUG_VALUE: list_find:i <- 1
	@DEBUG_VALUE: list_find:key <- [DW_OP_LLVM_entry_value 1] $r0
	@DEBUG_VALUE: list_find:i <- 2
	.loc	1 21 7                          @ main.c:21:7
	ldr	r2, [r1, #8]
.Ltmp17:
	.loc	1 21 7 is_stmt 0                @ main.c:21:7
	cmp	r2, r0
	itt	eq
	moveq	r0, #2
.Ltmp18:
	.loc	1 25 1 is_stmt 1                @ main.c:25:1
	bxeq	lr
.Ltmp19:
.LBB1_3:
	@DEBUG_VALUE: list_find:i <- 2
	@DEBUG_VALUE: list_find:key <- [DW_OP_LLVM_entry_value 1] $r0
	@DEBUG_VALUE: list_find:i <- 3
	.loc	1 21 7                          @ main.c:21:7
	ldr	r2, [r1, #12]
.Ltmp20:
	.loc	1 21 7 is_stmt 0                @ main.c:21:7
	cmp	r2, r0
	itt	eq
	moveq	r0, #3
.Ltmp21:
	.loc	1 25 1 is_stmt 1                @ main.c:25:1
	bxeq	lr
.Ltmp22:
.LBB1_4:
	@DEBUG_VALUE: list_find:i <- 3
	@DEBUG_VALUE: list_find:key <- [DW_OP_LLVM_entry_value 1] $r0
	@DEBUG_VALUE: list_find:i <- 4
	.loc	1 21 7                          @ main.c:21:7
	ldr	r2, [r1, #16]
.Ltmp23:
	.loc	1 21 7 is_stmt 0                @ main.c:21:7
	cmp	r2, r0
	itt	eq
	moveq	r0, #4
.Ltmp24:
	.loc	1 25 1 is_stmt 1                @ main.c:25:1
	bxeq	lr
.Ltmp25:
.LBB1_5:
	@DEBUG_VALUE: list_find:i <- 4
	@DEBUG_VALUE: list_find:key <- [DW_OP_LLVM_entry_value 1] $r0
	@DEBUG_VALUE: list_find:i <- 5
	.loc	1 21 7                          @ main.c:21:7
	ldr	r2, [r1, #20]
.Ltmp26:
	.loc	1 21 7 is_stmt 0                @ main.c:21:7
	cmp	r2, r0
	itt	eq
	moveq	r0, #5
.Ltmp27:
	.loc	1 25 1 is_stmt 1                @ main.c:25:1
	bxeq	lr
.Ltmp28:
.LBB1_6:
	@DEBUG_VALUE: list_find:i <- 5
	@DEBUG_VALUE: list_find:key <- [DW_OP_LLVM_entry_value 1] $r0
	@DEBUG_VALUE: list_find:i <- 6
	.loc	1 21 7                          @ main.c:21:7
	ldr	r2, [r1, #24]
.Ltmp29:
	.loc	1 21 7 is_stmt 0                @ main.c:21:7
	cmp	r2, r0
	itt	eq
	moveq	r0, #6
.Ltmp30:
	.loc	1 25 1 is_stmt 1                @ main.c:25:1
	bxeq	lr
.Ltmp31:
.LBB1_7:
	@DEBUG_VALUE: list_find:i <- 6
	@DEBUG_VALUE: list_find:key <- [DW_OP_LLVM_entry_value 1] $r0
	@DEBUG_VALUE: list_find:i <- 7
	.loc	1 21 7                          @ main.c:21:7
	ldr	r2, [r1, #28]
.Ltmp32:
	.loc	1 21 7 is_stmt 0                @ main.c:21:7
	cmp	r2, r0
	itt	eq
	moveq	r0, #7
.Ltmp33:
	.loc	1 25 1 is_stmt 1                @ main.c:25:1
	bxeq	lr
.Ltmp34:
.LBB1_8:
	@DEBUG_VALUE: list_find:i <- 7
	@DEBUG_VALUE: list_find:key <- [DW_OP_LLVM_entry_value 1] $r0
	@DEBUG_VALUE: list_find:i <- 8
	.loc	1 21 7                          @ main.c:21:7
	ldr	r2, [r1, #32]
.Ltmp35:
	.loc	1 21 7 is_stmt 0                @ main.c:21:7
	cmp	r2, r0
	itt	eq
	moveq	r0, #8
.Ltmp36:
	.loc	1 25 1 is_stmt 1                @ main.c:25:1
	bxeq	lr
.Ltmp37:
.LBB1_9:
	@DEBUG_VALUE: list_find:i <- 8
	@DEBUG_VALUE: list_find:key <- [DW_OP_LLVM_entry_value 1] $r0
	@DEBUG_VALUE: list_find:i <- 9
	.loc	1 21 7                          @ main.c:21:7
	ldr	r2, [r1, #36]
	mov.w	r1, #-1
.Ltmp38:
	.loc	1 21 7 is_stmt 0                @ main.c:21:7
	cmp	r2, r0
	it	eq
	moveq	r1, #9
	mov	r0, r1
	bx	lr
.Ltmp39:
.Lfunc_end1:
	.size	list_find, .Lfunc_end1-list_find
	.cfi_endproc
	.cantunwind
	.fnend
                                        @ -- End function
	.section	.text.main,"ax",%progbits
	.hidden	main                            @ -- Begin function main
	.globl	main
	.p2align	2
	.type	main,%function
	.code	16                              @ @main
	.thumb_func
main:
.Lfunc_begin2:
	.loc	1 28 0 is_stmt 1                @ main.c:28:0
	.fnstart
	.cfi_startproc
@ %bb.0:
	.pad	#12
	sub	sp, #12
	.cfi_def_cfa_offset 12
.Ltmp40:
	@DEBUG_VALUE: list_init:i <- 0
	.loc	1 11 26 prologue_end            @ main.c:11:26
	movw	r5, :lower16:offset
	movt	r5, :upper16:offset
.Ltmp41:
	@DEBUG_VALUE: list_init:i <- 3
	add.w	r7, r5, #20
	ldm	r7, {r4, r6, r7}
	ldrd	r3, r0, [r5, #12]
	.loc	1 11 24 is_stmt 0               @ main.c:11:24
	rsb.w	r8, r6, #216
.Ltmp42:
	@DEBUG_VALUE: list_init:i <- 7
	.loc	1 0 24                          @ main.c:0:24
	movw	r6, #343
	.loc	1 11 26                         @ main.c:11:26
	ldm.w	r5, {r1, r2, r10}
	.loc	1 11 24                         @ main.c:11:24
	subs	r6, r6, r7
.Ltmp43:
	@DEBUG_VALUE: list_init:i <- 9
	.loc	1 11 26                         @ main.c:11:26
	ldrd	r7, r5, [r5, #32]
	.loc	1 11 12                         @ main.c:11:12
	movw	r12, :lower16:list
	movt	r12, :upper16:list
	.loc	1 11 24                         @ main.c:11:24
	rsbs	r1, r1, #0
	rsb.w	r0, r0, #64
.Ltmp44:
	@DEBUG_VALUE: list_init:i <- 5
	.loc	1 11 12                         @ main.c:11:12
	add.w	lr, r12, #16
	.loc	1 11 24                         @ main.c:11:24
	rsb.w	r9, r7, #512
	movw	r7, #729
	rsb.w	r11, r2, #1
	rsb.w	r2, r10, #8
	rsb.w	r3, r3, #27
.Ltmp45:
	@DEBUG_VALUE: list_init:i <- 4
	rsb.w	r4, r4, #125
.Ltmp46:
	@DEBUG_VALUE: list_init:i <- 6
	.loc	1 11 12                         @ main.c:11:12
	stm.w	lr, {r0, r4, r8}
	.loc	1 11 24                         @ main.c:11:24
	sub.w	lr, r7, r5
.Ltmp47:
	@DEBUG_VALUE: list_init:i <- 10
	.loc	1 21 7 is_stmt 1                @ main.c:21:7
	adds.w	r5, r1, #13
.Ltmp48:
	.loc	1 11 12                         @ main.c:11:12
	strd	r1, r11, [r12]
	strd	r2, r3, [r12, #8]
	str.w	r6, [r12, #28]
	str.w	r9, [r12, #32]
.Ltmp49:
	@DEBUG_VALUE: list_find:i <- 0
	@DEBUG_VALUE: list_find:key <- -13
	str.w	lr, [r12, #36]
.Ltmp50:
	@DEBUG_VALUE: list_init:i <- 10
	@DEBUG_VALUE: list_find:key <- -13
	@DEBUG_VALUE: list_find:i <- 0
	.loc	1 21 7                          @ main.c:21:7
	bne	.LBB2_2
.Ltmp51:
@ %bb.1:
	.loc	1 0 7 is_stmt 0                 @ main.c:0:7
	movs	r7, #0
	.loc	1 33 4 is_stmt 1                @ main.c:33:4
	str	r7, [sp, #8]
	@DEBUG_VALUE: list_find:i <- 0
	@DEBUG_VALUE: list_find:key <- 44
	b	.LBB2_21
	.p2align	2
.LBB2_2:
.Ltmp52:
	@DEBUG_VALUE: list_find:key <- -13
	@DEBUG_VALUE: list_find:i <- 0
	@DEBUG_VALUE: list_find:i <- 1
	.loc	1 21 7                          @ main.c:21:7
	adds.w	r7, r11, #13
	bne	.LBB2_4
.Ltmp53:
@ %bb.3:
	@DEBUG_VALUE: list_find:i <- 1
	@DEBUG_VALUE: list_find:key <- -13
	.loc	1 0 7 is_stmt 0                 @ main.c:0:7
	movs	r5, #1
	b	.LBB2_19
.Ltmp54:
	.p2align	2
.LBB2_4:
	@DEBUG_VALUE: list_find:i <- 1
	@DEBUG_VALUE: list_find:key <- -13
	@DEBUG_VALUE: list_find:i <- 2
	.loc	1 21 7                          @ main.c:21:7
	adds.w	r7, r2, #13
	bne	.LBB2_6
.Ltmp55:
@ %bb.5:
	@DEBUG_VALUE: list_find:i <- 2
	@DEBUG_VALUE: list_find:key <- -13
	.loc	1 0 7                           @ main.c:0:7
	movs	r5, #2
	b	.LBB2_19
.Ltmp56:
	.p2align	2
.LBB2_6:
	@DEBUG_VALUE: list_find:i <- 2
	@DEBUG_VALUE: list_find:key <- -13
	@DEBUG_VALUE: list_find:i <- 3
	.loc	1 21 7                          @ main.c:21:7
	adds.w	r7, r3, #13
	bne	.LBB2_8
.Ltmp57:
@ %bb.7:
	@DEBUG_VALUE: list_find:i <- 3
	@DEBUG_VALUE: list_find:key <- -13
	.loc	1 0 7                           @ main.c:0:7
	movs	r5, #3
	b	.LBB2_19
.Ltmp58:
	.p2align	2
.LBB2_8:
	@DEBUG_VALUE: list_find:i <- 3
	@DEBUG_VALUE: list_find:key <- -13
	@DEBUG_VALUE: list_find:i <- 4
	.loc	1 21 7                          @ main.c:21:7
	adds.w	r7, r0, #13
	bne	.LBB2_10
.Ltmp59:
@ %bb.9:
	@DEBUG_VALUE: list_find:i <- 4
	@DEBUG_VALUE: list_find:key <- -13
	.loc	1 0 7                           @ main.c:0:7
	movs	r5, #4
	b	.LBB2_19
.Ltmp60:
	.p2align	2
.LBB2_10:
	@DEBUG_VALUE: list_find:i <- 4
	@DEBUG_VALUE: list_find:key <- -13
	@DEBUG_VALUE: list_find:i <- 5
	.loc	1 21 7                          @ main.c:21:7
	adds.w	r7, r4, #13
	bne	.LBB2_12
.Ltmp61:
@ %bb.11:
	@DEBUG_VALUE: list_find:i <- 5
	@DEBUG_VALUE: list_find:key <- -13
	.loc	1 0 7                           @ main.c:0:7
	movs	r5, #5
	b	.LBB2_19
.Ltmp62:
	.p2align	2
.LBB2_12:
	@DEBUG_VALUE: list_find:i <- 5
	@DEBUG_VALUE: list_find:key <- -13
	@DEBUG_VALUE: list_find:i <- 6
	.loc	1 21 7                          @ main.c:21:7
	adds.w	r7, r8, #13
	bne	.LBB2_14
.Ltmp63:
@ %bb.13:
	@DEBUG_VALUE: list_find:i <- 6
	@DEBUG_VALUE: list_find:key <- -13
	.loc	1 0 7                           @ main.c:0:7
	movs	r5, #6
	b	.LBB2_19
.Ltmp64:
	.p2align	2
.LBB2_14:
	@DEBUG_VALUE: list_find:i <- 6
	@DEBUG_VALUE: list_find:key <- -13
	@DEBUG_VALUE: list_find:i <- 7
	.loc	1 21 7                          @ main.c:21:7
	adds.w	r7, r6, #13
	bne	.LBB2_16
.Ltmp65:
@ %bb.15:
	@DEBUG_VALUE: list_find:i <- 7
	@DEBUG_VALUE: list_find:key <- -13
	.loc	1 0 7                           @ main.c:0:7
	movs	r5, #7
	b	.LBB2_19
.Ltmp66:
	.p2align	2
.LBB2_16:
	@DEBUG_VALUE: list_find:i <- 7
	@DEBUG_VALUE: list_find:key <- -13
	@DEBUG_VALUE: list_find:i <- 8
	.loc	1 21 7                          @ main.c:21:7
	adds.w	r7, r9, #13
	bne	.LBB2_18
.Ltmp67:
@ %bb.17:
	@DEBUG_VALUE: list_find:i <- 8
	@DEBUG_VALUE: list_find:key <- -13
	.loc	1 0 7                           @ main.c:0:7
	movs	r5, #8
	b	.LBB2_19
.Ltmp68:
	.p2align	2
.LBB2_18:
	@DEBUG_VALUE: list_find:i <- 8
	@DEBUG_VALUE: list_find:key <- -13
	@DEBUG_VALUE: list_find:i <- 9
	mov.w	r5, #-1
	.loc	1 21 7                          @ main.c:21:7
	adds.w	r7, lr, #13
	it	eq
	moveq	r5, #9
.Ltmp69:
.LBB2_19:
	.loc	1 21 7                          @ main.c:21:7
	cmp	r1, #44
.Ltmp70:
	.loc	1 33 4 is_stmt 1                @ main.c:33:4
	str	r5, [sp, #8]
.Ltmp71:
	@DEBUG_VALUE: list_find:i <- 0
	@DEBUG_VALUE: list_find:key <- 44
	.loc	1 21 7                          @ main.c:21:7
	bne	.LBB2_21
.Ltmp72:
@ %bb.20:
	.loc	1 0 7 is_stmt 0                 @ main.c:0:7
	movs	r1, #0
	.loc	1 34 4 is_stmt 1                @ main.c:34:4
	str	r1, [sp, #4]
	@DEBUG_VALUE: list_find:i <- 0
	@DEBUG_VALUE: list_find:key <- 8
	b	.LBB2_40
	.p2align	2
.LBB2_21:
.Ltmp73:
	@DEBUG_VALUE: list_find:key <- 44
	@DEBUG_VALUE: list_find:i <- 0
	@DEBUG_VALUE: list_find:i <- 1
	.loc	1 21 7                          @ main.c:21:7
	cmp.w	r11, #44
	bne	.LBB2_23
.Ltmp74:
@ %bb.22:
	@DEBUG_VALUE: list_find:i <- 1
	@DEBUG_VALUE: list_find:key <- 44
	.loc	1 0 7 is_stmt 0                 @ main.c:0:7
	movs	r2, #1
	b	.LBB2_38
.Ltmp75:
	.p2align	2
.LBB2_23:
	@DEBUG_VALUE: list_find:i <- 1
	@DEBUG_VALUE: list_find:key <- 44
	@DEBUG_VALUE: list_find:i <- 2
	.loc	1 21 7                          @ main.c:21:7
	cmp	r2, #44
	bne	.LBB2_25
.Ltmp76:
@ %bb.24:
	@DEBUG_VALUE: list_find:i <- 2
	@DEBUG_VALUE: list_find:key <- 44
	.loc	1 0 7                           @ main.c:0:7
	movs	r2, #2
	b	.LBB2_38
.Ltmp77:
	.p2align	2
.LBB2_25:
	@DEBUG_VALUE: list_find:i <- 2
	@DEBUG_VALUE: list_find:key <- 44
	@DEBUG_VALUE: list_find:i <- 3
	.loc	1 21 7                          @ main.c:21:7
	cmp	r3, #44
	bne	.LBB2_27
.Ltmp78:
@ %bb.26:
	@DEBUG_VALUE: list_find:i <- 3
	@DEBUG_VALUE: list_find:key <- 44
	.loc	1 0 7                           @ main.c:0:7
	movs	r2, #3
	b	.LBB2_38
.Ltmp79:
	.p2align	2
.LBB2_27:
	@DEBUG_VALUE: list_find:i <- 3
	@DEBUG_VALUE: list_find:key <- 44
	@DEBUG_VALUE: list_find:i <- 4
	.loc	1 21 7                          @ main.c:21:7
	cmp	r0, #44
	bne	.LBB2_29
.Ltmp80:
@ %bb.28:
	@DEBUG_VALUE: list_find:i <- 4
	@DEBUG_VALUE: list_find:key <- 44
	.loc	1 0 7                           @ main.c:0:7
	movs	r2, #4
	b	.LBB2_38
.Ltmp81:
	.p2align	2
.LBB2_29:
	@DEBUG_VALUE: list_find:i <- 4
	@DEBUG_VALUE: list_find:key <- 44
	@DEBUG_VALUE: list_find:i <- 5
	.loc	1 21 7                          @ main.c:21:7
	cmp	r4, #44
	bne	.LBB2_31
.Ltmp82:
@ %bb.30:
	@DEBUG_VALUE: list_find:i <- 5
	@DEBUG_VALUE: list_find:key <- 44
	.loc	1 0 7                           @ main.c:0:7
	movs	r2, #5
	b	.LBB2_38
.Ltmp83:
	.p2align	2
.LBB2_31:
	@DEBUG_VALUE: list_find:i <- 5
	@DEBUG_VALUE: list_find:key <- 44
	@DEBUG_VALUE: list_find:i <- 6
	.loc	1 21 7                          @ main.c:21:7
	cmp.w	r8, #44
	bne	.LBB2_33
.Ltmp84:
@ %bb.32:
	@DEBUG_VALUE: list_find:i <- 6
	@DEBUG_VALUE: list_find:key <- 44
	.loc	1 0 7                           @ main.c:0:7
	movs	r2, #6
	b	.LBB2_38
.Ltmp85:
	.p2align	2
.LBB2_33:
	@DEBUG_VALUE: list_find:i <- 6
	@DEBUG_VALUE: list_find:key <- 44
	@DEBUG_VALUE: list_find:i <- 7
	.loc	1 21 7                          @ main.c:21:7
	cmp	r6, #44
	bne	.LBB2_35
.Ltmp86:
@ %bb.34:
	@DEBUG_VALUE: list_find:i <- 7
	@DEBUG_VALUE: list_find:key <- 44
	.loc	1 0 7                           @ main.c:0:7
	movs	r2, #7
	b	.LBB2_38
.Ltmp87:
	.p2align	2
.LBB2_35:
	@DEBUG_VALUE: list_find:i <- 7
	@DEBUG_VALUE: list_find:key <- 44
	@DEBUG_VALUE: list_find:i <- 8
	.loc	1 21 7                          @ main.c:21:7
	cmp.w	r9, #44
	bne	.LBB2_37
.Ltmp88:
@ %bb.36:
	@DEBUG_VALUE: list_find:i <- 8
	@DEBUG_VALUE: list_find:key <- 44
	.loc	1 0 7                           @ main.c:0:7
	movs	r2, #8
	b	.LBB2_38
.Ltmp89:
	.p2align	2
.LBB2_37:
	@DEBUG_VALUE: list_find:i <- 8
	@DEBUG_VALUE: list_find:key <- 44
	@DEBUG_VALUE: list_find:i <- 9
	mov.w	r2, #-1
	.loc	1 21 7                          @ main.c:21:7
	cmp.w	lr, #44
	it	eq
	moveq	r2, #9
.Ltmp90:
.LBB2_38:
	.loc	1 21 7                          @ main.c:21:7
	cmp	r1, #8
.Ltmp91:
	.loc	1 34 4 is_stmt 1                @ main.c:34:4
	str	r2, [sp, #4]
.Ltmp92:
	@DEBUG_VALUE: list_find:i <- 0
	@DEBUG_VALUE: list_find:key <- 8
	.loc	1 21 7                          @ main.c:21:7
	bne	.LBB2_40
.Ltmp93:
@ %bb.39:
	@DEBUG_VALUE: list_find:key <- 8
	@DEBUG_VALUE: list_find:i <- 0
	.loc	1 0 7 is_stmt 0                 @ main.c:0:7
	movs	r0, #0
	b	.LBB2_57
.Ltmp94:
	.p2align	2
.LBB2_40:
	@DEBUG_VALUE: list_find:key <- 8
	@DEBUG_VALUE: list_find:i <- 0
	@DEBUG_VALUE: list_find:i <- 1
	.loc	1 21 7                          @ main.c:21:7
	cmp.w	r11, #8
	bne	.LBB2_42
.Ltmp95:
@ %bb.41:
	@DEBUG_VALUE: list_find:i <- 1
	@DEBUG_VALUE: list_find:key <- 8
	.loc	1 0 7                           @ main.c:0:7
	movs	r0, #1
	b	.LBB2_57
.Ltmp96:
	.p2align	2
.LBB2_42:
	@DEBUG_VALUE: list_find:i <- 1
	@DEBUG_VALUE: list_find:key <- 8
	@DEBUG_VALUE: list_find:i <- 2
	.loc	1 21 7                          @ main.c:21:7
	cmp.w	r10, #0
	beq	.LBB2_45
.Ltmp97:
@ %bb.43:
	@DEBUG_VALUE: list_find:i <- 2
	@DEBUG_VALUE: list_find:key <- 8
	@DEBUG_VALUE: list_find:i <- 3
	cmp	r3, #8
	bne	.LBB2_46
.Ltmp98:
@ %bb.44:
	@DEBUG_VALUE: list_find:i <- 3
	@DEBUG_VALUE: list_find:key <- 8
	.loc	1 0 7                           @ main.c:0:7
	movs	r0, #3
	b	.LBB2_57
.Ltmp99:
	.p2align	2
.LBB2_45:
	@DEBUG_VALUE: list_find:i <- 2
	@DEBUG_VALUE: list_find:key <- 8
	movs	r0, #2
	b	.LBB2_57
.Ltmp100:
	.p2align	2
.LBB2_46:
	@DEBUG_VALUE: list_find:i <- 3
	@DEBUG_VALUE: list_find:key <- 8
	@DEBUG_VALUE: list_find:i <- 4
	.loc	1 21 7                          @ main.c:21:7
	cmp	r0, #8
	bne	.LBB2_48
.Ltmp101:
@ %bb.47:
	@DEBUG_VALUE: list_find:i <- 4
	@DEBUG_VALUE: list_find:key <- 8
	.loc	1 0 7                           @ main.c:0:7
	movs	r0, #4
	b	.LBB2_57
.Ltmp102:
	.p2align	2
.LBB2_48:
	@DEBUG_VALUE: list_find:i <- 4
	@DEBUG_VALUE: list_find:key <- 8
	@DEBUG_VALUE: list_find:i <- 5
	.loc	1 21 7                          @ main.c:21:7
	cmp	r4, #8
	bne	.LBB2_50
.Ltmp103:
@ %bb.49:
	@DEBUG_VALUE: list_find:i <- 5
	@DEBUG_VALUE: list_find:key <- 8
	.loc	1 0 7                           @ main.c:0:7
	movs	r0, #5
	b	.LBB2_57
.Ltmp104:
	.p2align	2
.LBB2_50:
	@DEBUG_VALUE: list_find:i <- 5
	@DEBUG_VALUE: list_find:key <- 8
	@DEBUG_VALUE: list_find:i <- 6
	.loc	1 21 7                          @ main.c:21:7
	cmp.w	r8, #8
	bne	.LBB2_52
.Ltmp105:
@ %bb.51:
	@DEBUG_VALUE: list_find:i <- 6
	@DEBUG_VALUE: list_find:key <- 8
	.loc	1 0 7                           @ main.c:0:7
	movs	r0, #6
	b	.LBB2_57
.Ltmp106:
	.p2align	2
.LBB2_52:
	@DEBUG_VALUE: list_find:i <- 6
	@DEBUG_VALUE: list_find:key <- 8
	@DEBUG_VALUE: list_find:i <- 7
	.loc	1 21 7                          @ main.c:21:7
	cmp	r6, #8
	bne	.LBB2_54
.Ltmp107:
@ %bb.53:
	@DEBUG_VALUE: list_find:i <- 7
	@DEBUG_VALUE: list_find:key <- 8
	.loc	1 0 7                           @ main.c:0:7
	movs	r0, #7
	b	.LBB2_57
.Ltmp108:
	.p2align	2
.LBB2_54:
	@DEBUG_VALUE: list_find:i <- 7
	@DEBUG_VALUE: list_find:key <- 8
	@DEBUG_VALUE: list_find:i <- 8
	.loc	1 21 7                          @ main.c:21:7
	cmp.w	r9, #8
	bne	.LBB2_56
.Ltmp109:
@ %bb.55:
	@DEBUG_VALUE: list_find:i <- 8
	@DEBUG_VALUE: list_find:key <- 8
	.loc	1 0 7                           @ main.c:0:7
	movs	r0, #8
	b	.LBB2_57
.Ltmp110:
	.p2align	2
.LBB2_56:
	@DEBUG_VALUE: list_find:i <- 8
	@DEBUG_VALUE: list_find:key <- 8
	@DEBUG_VALUE: list_find:i <- 9
	mov.w	r0, #-1
	.loc	1 21 7                          @ main.c:21:7
	cmp.w	lr, #8
	it	eq
	moveq	r0, #9
.Ltmp111:
.LBB2_57:
	.loc	1 35 4 is_stmt 1                @ main.c:35:4
	str	r0, [sp]
.Ltmp112:
	.p2align	2
.LBB2_58:                               @ =>This Inner Loop Header: Depth=1
	.loc	1 0 4 is_stmt 0                 @ main.c:0:4
	b	.LBB2_58
.Lfunc_end2:
	.size	main, .Lfunc_end2-main
	.cfi_endproc
	.cantunwind
	.fnend
                                        @ -- End function
	.hidden	offset                          @ @offset
	.type	offset,%object
	.section	.data.offset,"aw",%progbits
	.globl	offset
	.p2align	2
offset:
	.long	31                              @ 0x1f
	.long	94                              @ 0x5e
	.long	55                              @ 0x37
	.long	19                              @ 0x13
	.long	98                              @ 0x62
	.long	85                              @ 0x55
	.long	38                              @ 0x26
	.long	356                             @ 0x164
	.long	134                             @ 0x86
	.long	15                              @ 0xf
	.size	offset, 40

	.hidden	list                            @ @list
	.type	list,%object
	.section	.bss.list,"aw",%nobits
	.globl	list
	.p2align	2
list:
	.zero	40
	.size	list, 40

	.type	__ARM_use_no_argv,%object       @ @__ARM_use_no_argv
	.section	.ARM.use_no_argv,"aw",%progbits
	.globl	__ARM_use_no_argv
	.p2align	2
__ARM_use_no_argv:
	.long	1                               @ 0x1
	.size	__ARM_use_no_argv, 4

	.globl	__ARM_use_no_argv
	.section	".note.GNU-stack","",%progbits
	.eabi_attribute	30, 2	@ Tag_ABI_optimization_goals
	.ARM_attribute	16, 1	@ Tag_AV_eba