	.text
	.syntax unified
	.eabi_attribute	67, "2.09"	@ Tag_conformance
	.cpu	cortex-m33
	.eabi_attribute	6, 17	@ Tag_CPU_arch
	.eabi_attribute	7, 77	@ Tag_CPU_arch_profile
	.eabi_attribute	8, 0	@ Tag_ARM_ISA_use
	.eabi_attribute	9, 3	@ Tag_THUMB_ISA_use
	.fpu	fpv5-sp-d16
	.eabi_attribute	27, 1	@ Tag_ABI_HardFP_use
	.eabi_attribute	36, 1	@ Tag_FP_HP_extension
	.eabi_attribute	46, 1	@ Tag_DSP_extension
	.eabi_attribute	34, 1	@ Tag_CPU_unaligned_access
	.eabi_attribute	17, 1	@ Tag_ABI_PCS_GOT_use
	.eabi_attribute	20, 2	@ Tag_ABI_FP_denormal
	.eabi_attribute	21, 0	@ Tag_ABI_FP_exceptions
	.eabi_attribute	23, 1	@ Tag_ABI_FP_number_model
	.eabi_attribute	24, 1	@ Tag_ABI_align_needed
	.eabi_attribute	25, 1	@ Tag_ABI_align_preserved
	.eabi_attribute	28, 1	@ Tag_ABI_VFP_args
	.eabi_attribute	38, 1	@ Tag_ABI_FP_16bit_format
	.eabi_attribute	18, 2	@ Tag_ABI_PCS_wchar_t
	.eabi_attribute	26, 1	@ Tag_ABI_enum_size
	.eabi_attribute	14, 0	@ Tag_ABI_PCS_R9_use
	.file	"stm32l5xx_hal_rcc_ex.c"
	.file	1 "c:/Keil_v5\\ARM\\PACK\\Keil\\STM32L5xx_DFP\\1.3.0\\Drivers\\STM32L5xx_HAL_Driver\\Inc" "stm32l5xx_hal_def.h"
	.file	2 "c:/Keil_v5\\ARM\\PACK\\Keil\\STM32L5xx_DFP\\1.3.0\\Drivers\\CMSIS\\Device\\ST\\STM32L5xx\\Include" "stm32l5xx.h"
	.file	3 "c:\\Keil_v5\\ARM\\ARMCLANG\\Bin\\..\\include" "stdint.h"
	.file	4 "c:/Keil_v5\\ARM\\PACK\\Keil\\STM32L5xx_DFP\\1.3.0\\Drivers\\CMSIS\\Device\\ST\\STM32L5xx\\Include" "stm32l552xx.h"
	.section	.text.HAL_RCCEx_PeriphCLKConfig,"ax",%progbits
	.hidden	HAL_RCCEx_PeriphCLKConfig       @ -- Begin function HAL_RCCEx_PeriphCLKConfig
	.globl	HAL_RCCEx_PeriphCLKConfig
	.p2align	2
	.type	HAL_RCCEx_PeriphCLKConfig,%function
	.code	16                              @ @HAL_RCCEx_PeriphCLKConfig
	.thumb_func
HAL_RCCEx_PeriphCLKConfig:
.Lfunc_begin0:
	.file	5 "c:/Keil_v5\\ARM\\PACK\\Keil\\STM32L5xx_DFP\\1.3.0\\Drivers\\STM32L5xx_HAL_Driver\\Src" "stm32l5xx_hal_rcc_ex.c"
	.loc	5 149 0                         @ c:/Keil_v5\ARM\PACK\Keil\STM32L5xx_DFP\1.3.0\Drivers\STM32L5xx_HAL_Driver\Src\stm32l5xx_hal_rcc_ex.c:149:0
	.fnstart
	.cfi_sections .debug_frame
	.cfi_startproc
@ %bb.0:
	@DEBUG_VALUE: HAL_RCCEx_PeriphCLKConfig:PeriphClkInit <- $r0
	.save	{r4, r5, r6, r7, r8, r9, r10, r11, lr}
	push.w	{r4, r5, r6, r7, r8, r9, r10, r11, lr}
	.cfi_def_cfa_offset 36
	.cfi_offset lr, -4
	.cfi_offset r11, -8
	.cfi_offset r10, -12
	.cfi_offset r9, -16
	.cfi_offset r8, -20
	.cfi_offset r7, -24
	.cfi_offset r6, -28
	.cfi_offset r5, -32
	.cfi_offset r4, -36
	.pad	#4
	sub	sp, #4
	.cfi_def_cfa_offset 40
	mov	r4, r0
.Ltmp0:
	@DEBUG_VALUE: HAL_RCCEx_PeriphCLKConfig:PeriphClkInit <- $r4
	.loc	5 159 7 prologue_end            @ c:/Keil_v5\ARM\PACK\Keil\STM32L5xx_DFP\1.3.0\Drivers\STM32L5xx_HAL_Driver\Src\stm32l5xx_hal_rcc_ex.c:159:7
	ldrb	r0, [r0, #1]
	movw	r7, #4232
	lsls	r0, r0, #28
	movt	r7, #16386
.Ltmp1:
	@DEBUG_VALUE: HAL_RCCEx_PeriphCLKConfig:status <- 0
	@DEBUG_VALUE: HAL_RCCEx_PeriphCLKConfig:ret <- 0
	bpl	.LBB0_10
.Ltmp2:
@ %bb.1:
	@DEBUG_VALUE: HAL_RCCEx_PeriphCLKConfig:PeriphClkInit <- $r4
	@DEBUG_VALUE: HAL_RCCEx_PeriphCLKConfig:ret <- 0
	@DEBUG_VALUE: HAL_RCCEx_PeriphCLKConfig:status <- 0
	.loc	5 164 28                        @ c:/Keil_v5\ARM\PACK\Keil\STM32L5xx_DFP\1.3.0\Drivers\STM32L5xx_HAL_Driver\Src\stm32l5xx_hal_rcc_ex.c:164:28
	ldr	r0, [r4, #108]
	.loc	5 164 5 is_stmt 0               @ c:/Keil_v5\ARM\PACK\Keil\STM32L5xx_DFP\1.3.0\Drivers\STM32L5xx_HAL_Driver\Src\stm32l5xx_hal_rcc_ex.c:164:5
	ror.w	r1, r0, #5
	cmp	r1, #4
	bhi	.LBB0_5
.Ltmp3:
@ %bb.2:
	@DEBUG_VALUE: HAL_RCCEx_PeriphCLKConfig:PeriphClkInit <- $r4
	@DEBUG_VALUE: HAL_RCCEx_PeriphCLKConfig:ret <- 0
	@DEBUG_VALUE: HAL_RCCEx_PeriphCLKConfig:status <- 0
	.loc	5 0 5                           @ c:/Keil_v5\ARM\PACK\Keil\STM32L5xx_DFP\1.3.0\Drivers\STM32L5xx_HAL_Driver\Src\stm32l5xx_hal_rcc_ex.c:0:5
.LCPI0_0:
	tbb	[pc, r1]
.Ltmp4:
@ %bb.3:
.LJTI0_0:
	.byte	(.LBB0_4-(.LCPI0_0+4))/2
	.byte	(.LBB0_6-(.LCPI0_0+4))/2
	.byte	(.LBB0_8-(.LCPI0_0+4))/2
	.byte	(.LBB0_9-(.LCPI0_0+4))/2
	.byte	(.LBB0_9-(.LCPI0_0+4))/2
	.p2align	1
	.p2align	2
.LBB0_4:
.Ltmp5:
	@DEBUG_VALUE: HAL_RCCEx_PeriphCLKConfig:PeriphClkInit <- $r4
	@DEBUG_VALUE: HAL_RCCEx_PeriphCLKConfig:ret <- 0
	@DEBUG_VALUE: HAL_RCCEx_PeriphCLKConfig:status <- 0
	.loc	5 174 53 is_stmt 1              @ c:/Keil_v5\ARM\PACK\Keil\STM32L5xx_DFP\1.3.0\Drivers\STM32L5xx_HAL_Driver\Src\stm32l5xx_hal_rcc_ex.c:174:53
	adds	r0, r4, #4
	.loc	5 174 15 is_stmt 0              @ c:/Keil_v5\ARM\PACK\Keil\STM32L5xx_DFP\1.3.0\Drivers\STM32L5xx_HAL_Driver\Src\stm32l5xx_hal_rcc_ex.c:174:15
	movs	r1, #0
	bl	RCCEx_PLLSAI1_Config
	.loc	5 0 0                           @ c:/Keil_v5\ARM\PACK\Keil\STM32L5xx_DFP\1.3.0\Drivers\STM32L5xx_HAL_Driver\Src\stm32l5xx_hal_rcc_ex.c:0:0
	mov	r6, r0
.Ltmp6:
	@DEBUG_VALUE: HAL_RCCEx_PeriphCLKConfig:ret <- undef
	@DEBUG_VALUE: HAL_RCCEx_PeriphCLKConfig:ret <- $r6
	cbnz	r0, .LBB0_11
	b	.LBB0_7
.Ltmp7:
	.p2align	2
.LBB0_5:
	@DEBUG_VALUE: HAL_RCCEx_PeriphCLKConfig:PeriphClkInit <- $r4
	@DEBUG_VALUE: HAL_RCCEx_PeriphCLKConfig:ret <- 0
	@DEBUG_VALUE: HAL_RCCEx_PeriphCLKConfig:status <- 0
	movs	r6, #1
	b	.LBB0_11
.Ltmp8:
	.p2align	2
.LBB0_6:
	@DEBUG_VALUE: HAL_RCCEx_PeriphCLKConfig:PeriphClkInit <- $r4
	@DEBUG_VALUE: HAL_RCCEx_PeriphCLKConfig:ret <- 0
	@DEBUG_VALUE: HAL_RCCEx_PeriphCLKConfig:status <- 0
	.loc	5 180 53 is_stmt 1              @ c:/Keil_v5\ARM\PACK\Keil\STM32L5xx_DFP\1.3.0\Drivers\STM32L5xx_HAL_Driver\Src\stm32l5xx_hal_rcc_ex.c:180:53
	add.w	r0, r4, #32
	.loc	5 180 15 is_stmt 0              @ c:/Keil_v5\ARM\PACK\Keil\STM32L5xx_DFP\1.3.0\Drivers\STM32L5xx_HAL_Driver\Src\stm32l5xx_hal_rcc_ex.c:180:15
	bl	RCCEx_PLLSAI2_Config
	.loc	5 0 0                           @ c:/Keil_v5\ARM\PACK\Keil\STM32L5xx_DFP\1.3.0\Drivers\STM32L5xx_HAL_Driver\Src\stm32l5xx_hal_rcc_ex.c:0:0
	mov	r6, r0
.Ltmp9:
	@DEBUG_VALUE: HAL_RCCEx_PeriphCLKConfig:ret <- undef
	@DEBUG_VALUE: HAL_RCCEx_PeriphCLKConfig:ret <- $r6
	.loc	5 194 9 is_stmt 1               @ c:/Keil_v5\ARM\PACK\Keil\STM32L5xx_DFP\1.3.0\Drivers\STM32L5xx_HAL_Driver\Src\stm32l5xx_hal_rcc_ex.c:194:9
	cbnz	r0, .LBB0_11
.Ltmp10:
.LBB0_7:
	@DEBUG_VALUE: HAL_RCCEx_PeriphCLKConfig:ret <- $r6
	@DEBUG_VALUE: HAL_RCCEx_PeriphCLKConfig:PeriphClkInit <- $r4
	@DEBUG_VALUE: HAL_RCCEx_PeriphCLKConfig:status <- 0
	.loc	5 197 7                         @ c:/Keil_v5\ARM\PACK\Keil\STM32L5xx_DFP\1.3.0\Drivers\STM32L5xx_HAL_Driver\Src\stm32l5xx_hal_rcc_ex.c:197:7
	ldr	r0, [r4, #108]
	b	.LBB0_9
.Ltmp11:
	.p2align	2
.LBB0_8:
	@DEBUG_VALUE: HAL_RCCEx_PeriphCLKConfig:PeriphClkInit <- $r4
	@DEBUG_VALUE: HAL_RCCEx_PeriphCLKConfig:ret <- 0
	@DEBUG_VALUE: HAL_RCCEx_PeriphCLKConfig:status <- 0
	.loc	5 168 9                         @ c:/Keil_v5\ARM\PACK\Keil\STM32L5xx_DFP\1.3.0\Drivers\STM32L5xx_HAL_Driver\Src\stm32l5xx_hal_rcc_ex.c:168:9
	ldr	r1, [r7, #-124]
	orr	r1, r1, #65536
	str	r1, [r7, #-124]
.Ltmp12:
.LBB0_9:
	@DEBUG_VALUE: HAL_RCCEx_PeriphCLKConfig:PeriphClkInit <- $r4
	@DEBUG_VALUE: HAL_RCCEx_PeriphCLKConfig:status <- 0
	.loc	5 197 7                         @ c:/Keil_v5\ARM\PACK\Keil\STM32L5xx_DFP\1.3.0\Drivers\STM32L5xx_HAL_Driver\Src\stm32l5xx_hal_rcc_ex.c:197:7
	ldr	r1, [r7, #20]
	bic	r1, r1, #224
	orrs	r0, r1
	str	r0, [r7, #20]
.Ltmp13:
.LBB0_10:
	@DEBUG_VALUE: HAL_RCCEx_PeriphCLKConfig:PeriphClkInit <- $r4
	@DEBUG_VALUE: HAL_RCCEx_PeriphCLKConfig:status <- 0
	.loc	5 0 7 is_stmt 0                 @ c:/Keil_v5\ARM\PACK\Keil\STM32L5xx_DFP\1.3.0\Drivers\STM32L5xx_HAL_Driver\Src\stm32l5xx_hal_rcc_ex.c:0:7
	movs	r6, #0
.Ltmp14:
.LBB0_11:
	@DEBUG_VALUE: HAL_RCCEx_PeriphCLKConfig:PeriphClkInit <- $r4
	@DEBUG_VALUE: HAL_RCCEx_PeriphCLKConfig:status <- 0
	@DEBUG_VALUE: HAL_RCCEx_PeriphCLKConfig:ret <- $r6
	@DEBUG_VALUE: HAL_RCCEx_PeriphCLKConfig:status <- $r6
	.loc	5 207 7 is_stmt 1               @ c:/Keil_v5\ARM\PACK\Keil\STM32L5xx_DFP\1.3.0\Drivers\STM32L5xx_HAL_Driver\Src\stm32l5xx_hal_rcc_ex.c:207:7
	ldrb	r0, [r4, #1]
	lsls	r0, r0, #27
	bmi	.LBB0_13
.Ltmp15:
@ %bb.12:
	@DEBUG_VALUE: HAL_RCCEx_PeriphCLKConfig:status <- $r6
	@DEBUG_VALUE: HAL_RCCEx_PeriphCLKConfig:ret <- $r6
	@DEBUG_VALUE: HAL_RCCEx_PeriphCLKConfig:PeriphClkInit <- $r4
	.loc	5 0 0 is_stmt 0                 @ c:/Keil_v5\ARM\PACK\Keil\STM32L5xx_DFP\1.3.0\Drivers\STM32L5xx_HAL_Driver\Src\stm32l5xx_hal_rcc_ex.c:0:0
	mov	r8, r6
	b	.LBB0_25
.Ltmp16:
	.p2align	2
.LBB0_13:
	@DEBUG_VALUE: HAL_RCCEx_PeriphCLKConfig:status <- $r6
	@DEBUG_VALUE: HAL_RCCEx_PeriphCLKConfig:ret <- $r6
	@DEBUG_VALUE: HAL_RCCEx_PeriphCLKConfig:PeriphClkInit <- $r4
	.loc	5 212 28 is_stmt 1              @ c:/Keil_v5\ARM\PACK\Keil\STM32L5xx_DFP\1.3.0\Drivers\STM32L5xx_HAL_Driver\Src\stm32l5xx_hal_rcc_ex.c:212:28
	ldr	r0, [r4, #112]
	.loc	5 212 5 is_stmt 0               @ c:/Keil_v5\ARM\PACK\Keil\STM32L5xx_DFP\1.3.0\Drivers\STM32L5xx_HAL_Driver\Src\stm32l5xx_hal_rcc_ex.c:212:5
	ror.w	r0, r0, #8
	cmp	r0, #4
	bhi	.LBB0_17
.Ltmp17:
@ %bb.14:
	@DEBUG_VALUE: HAL_RCCEx_PeriphCLKConfig:status <- $r6
	@DEBUG_VALUE: HAL_RCCEx_PeriphCLKConfig:ret <- $r6
	@DEBUG_VALUE: HAL_RCCEx_PeriphCLKConfig:PeriphClkInit <- $r4
	.loc	5 0 0                           @ c:/Keil_v5\ARM\PACK\Keil\STM32L5xx_DFP\1.3.0\Drivers\STM32L5xx_HAL_Driver\Src\stm32l5xx_hal_rcc_ex.c:0:0
	mov	r8, r6
.LCPI0_1:
	tbb	[pc, r0]
.Ltmp18:
@ %bb.15:
.LJTI0_1:
	.byte	(.LBB0_16-(.LCPI0_1+4))/2
	.byte	(.LBB0_18-(.LCPI0_1+4))/2
	.byte	(.LBB0_23-(.LCPI0_1+4))/2
	.byte	(.LBB0_20-(.LCPI0_1+4))/2
	.byte	(.LBB0_20-(.LCPI0_1+4))/2
	.p2align	1
	.p2align	2
.LBB0_16:
.Ltmp19:
	@DEBUG_VALUE: HAL_RCCEx_PeriphCLKConfig:status <- $r6
	@DEBUG_VALUE: HAL_RCCEx_PeriphCLKConfig:ret <- $r6
	@DEBUG_VALUE: HAL_RCCEx_PeriphCLKConfig:PeriphClkInit <- $r4
	.loc	5 222 53 is_stmt 1              @ c:/Keil_v5\ARM\PACK\Keil\STM32L5xx_DFP\1.3.0\Drivers\STM32L5xx_HAL_Driver\Src\stm32l5xx_hal_rcc_ex.c:222:53
	adds	r0, r4, #4
	.loc	5 222 15 is_stmt 0              @ c:/Keil_v5\ARM\PACK\Keil\STM32L5xx_DFP\1.3.0\Drivers\STM32L5xx_HAL_Driver\Src\stm32l5xx_hal_rcc_ex.c:222:15
	movs	r1, #0
	bl	RCCEx_PLLSAI1_Config
	b	.LBB0_19
.Ltmp20:
	.p2align	2
.LBB0_17:
	@DEBUG_VALUE: HAL_RCCEx_PeriphCLKConfig:status <- $r6
	@DEBUG_VALUE: HAL_RCCEx_PeriphCLKConfig:ret <- $r6
	@DEBUG_VALUE: HAL_RCCEx_PeriphCLKConfig:PeriphClkInit <- $r4
	.loc	5 0 15                          @ c:/Keil_v5\ARM\PACK\Keil\STM32L5xx_DFP\1.3.0\Drivers\STM32L5xx_HAL_Driver\Src\stm32l5xx_hal_rcc_ex.c:0:15
	mov.w	r8, #1
	mov.w	r9, #1
.Ltmp21:
	@DEBUG_VALUE: HAL_RCCEx_PeriphCLKConfig:ret <- $r8
	@DEBUG_VALUE: HAL_RCCEx_PeriphCLKConfig:status <- $r9
	.loc	5 255 7 is_stmt 1               @ c:/Keil_v5\ARM\PACK\Keil\STM32L5xx_DFP\1.3.0\Drivers\STM32L5xx_HAL_Driver\Src\stm32l5xx_hal_rcc_ex.c:255:7
	ldrb	r0, [r4, #2]
	lsls	r0, r0, #30
	bpl	.LBB0_22
	b	.LBB0_26
.Ltmp22:
	.p2align	2
.LBB0_18:
	@DEBUG_VALUE: HAL_RCCEx_PeriphCLKConfig:status <- $r6
	@DEBUG_VALUE: HAL_RCCEx_PeriphCLKConfig:ret <- $r6
	@DEBUG_VALUE: HAL_RCCEx_PeriphCLKConfig:PeriphClkInit <- $r4
	.loc	5 228 53                        @ c:/Keil_v5\ARM\PACK\Keil\STM32L5xx_DFP\1.3.0\Drivers\STM32L5xx_HAL_Driver\Src\stm32l5xx_hal_rcc_ex.c:228:53
	add.w	r0, r4, #32
	.loc	5 228 15 is_stmt 0              @ c:/Keil_v5\ARM\PACK\Keil\STM32L5xx_DFP\1.3.0\Drivers\STM32L5xx_HAL_Driver\Src\stm32l5xx_hal_rcc_ex.c:228:15
	bl	RCCEx_PLLSAI2_Config
.Ltmp23:
.LBB0_19:
	@DEBUG_VALUE: HAL_RCCEx_PeriphCLKConfig:status <- $r6
	@DEBUG_VALUE: HAL_RCCEx_PeriphCLKConfig:ret <- $r6
	@DEBUG_VALUE: HAL_RCCEx_PeriphCLKConfig:PeriphClkInit <- $r4
	.loc	5 0 0                           @ c:/Keil_v5\ARM\PACK\Keil\STM32L5xx_DFP\1.3.0\Drivers\STM32L5xx_HAL_Driver\Src\stm32l5xx_hal_rcc_ex.c:0:0
	mov	r8, r0
.Ltmp24:
	@DEBUG_VALUE: HAL_RCCEx_PeriphCLKConfig:ret <- undef
.LBB0_20:
	@DEBUG_VALUE: HAL_RCCEx_PeriphCLKConfig:status <- $r6
	@DEBUG_VALUE: HAL_RCCEx_PeriphCLKConfig:PeriphClkInit <- $r4
	@DEBUG_VALUE: HAL_RCCEx_PeriphCLKConfig:ret <- $r8
	.loc	5 242 9 is_stmt 1               @ c:/Keil_v5\ARM\PACK\Keil\STM32L5xx_DFP\1.3.0\Drivers\STM32L5xx_HAL_Driver\Src\stm32l5xx_hal_rcc_ex.c:242:9
	cmp.w	r8, #0
.Ltmp25:
	.loc	5 0 0 is_stmt 0                 @ c:/Keil_v5\ARM\PACK\Keil\STM32L5xx_DFP\1.3.0\Drivers\STM32L5xx_HAL_Driver\Src\stm32l5xx_hal_rcc_ex.c:0:0
	mov	r9, r8
.Ltmp26:
	.loc	5 242 9                         @ c:/Keil_v5\ARM\PACK\Keil\STM32L5xx_DFP\1.3.0\Drivers\STM32L5xx_HAL_Driver\Src\stm32l5xx_hal_rcc_ex.c:242:9
	beq	.LBB0_24
.Ltmp27:
.LBB0_21:
	@DEBUG_VALUE: HAL_RCCEx_PeriphCLKConfig:ret <- $r8
	@DEBUG_VALUE: HAL_RCCEx_PeriphCLKConfig:status <- $r6
	@DEBUG_VALUE: HAL_RCCEx_PeriphCLKConfig:PeriphClkInit <- $r4
	@DEBUG_VALUE: HAL_RCCEx_PeriphCLKConfig:ret <- $r8
	@DEBUG_VALUE: HAL_RCCEx_PeriphCLKConfig:status <- $r9
	.loc	5 255 7 is_stmt 1               @ c:/Keil_v5\ARM\PACK\Keil\STM32L5xx_DFP\1.3.0\Drivers\STM32L5xx_HAL_Driver\Src\stm32l5xx_hal_rcc_ex.c:255:7
	ldrb	r0, [r4, #2]
	lsls	r0, r0, #30
	bmi	.LBB0_26
.Ltmp28:
.LBB0_22:
	@DEBUG_VALUE: HAL_RCCEx_PeriphCLKConfig:status <- $r9
	@DEBUG_VALUE: HAL_RCCEx_PeriphCLKConfig:ret <- $r8
	@DEBUG_VALUE: HAL_RCCEx_PeriphCLKConfig:PeriphClkInit <- $r4
	.loc	5 151 21                        @ c:/Keil_v5\ARM\PACK\Keil\STM32L5xx_DFP\1.3.0\Drivers\STM32L5xx_HAL_Driver\Src\stm32l5xx_hal_rcc_ex.c:151:21
	mov	r5, r9
.Ltmp29:
	@DEBUG_VALUE: HAL_RCCEx_PeriphCLKConfig:status <- $r5
	@DEBUG_VALUE: HAL_RCCEx_PeriphCLKConfig:ret <- $r8
	@DEBUG_VALUE: HAL_RCCEx_PeriphCLKConfig:status <- $r5
	.loc	5 342 24                        @ c:/Keil_v5\ARM\PACK\Keil\STM32L5xx_DFP\1.3.0\Drivers\STM32L5xx_HAL_Driver\Src\stm32l5xx_hal_rcc_ex.c:342:24
	ldr	r0, [r4]
.Ltmp30:
	.loc	5 342 7 is_stmt 0               @ c:/Keil_v5\ARM\PACK\Keil\STM32L5xx_DFP\1.3.0\Drivers\STM32L5xx_HAL_Driver\Src\stm32l5xx_hal_rcc_ex.c:342:7
	lsls	r1, r0, #31
	beq	.LBB0_40
	b	.LBB0_50
.Ltmp31:
	.p2align	2
.LBB0_23:
	@DEBUG_VALUE: HAL_RCCEx_PeriphCLKConfig:status <- $r6
	@DEBUG_VALUE: HAL_RCCEx_PeriphCLKConfig:ret <- $r6
	@DEBUG_VALUE: HAL_RCCEx_PeriphCLKConfig:PeriphClkInit <- $r4
	.loc	5 216 9 is_stmt 1               @ c:/Keil_v5\ARM\PACK\Keil\STM32L5xx_DFP\1.3.0\Drivers\STM32L5xx_HAL_Driver\Src\stm32l5xx_hal_rcc_ex.c:216:9
	ldr	r0, [r7, #-124]
.Ltmp32:
	.loc	5 0 0 is_stmt 0                 @ c:/Keil_v5\ARM\PACK\Keil\STM32L5xx_DFP\1.3.0\Drivers\STM32L5xx_HAL_Driver\Src\stm32l5xx_hal_rcc_ex.c:0:0
	mov	r8, r6
.Ltmp33:
	.loc	5 216 9                         @ c:/Keil_v5\ARM\PACK\Keil\STM32L5xx_DFP\1.3.0\Drivers\STM32L5xx_HAL_Driver\Src\stm32l5xx_hal_rcc_ex.c:216:9
	orr	r0, r0, #65536
	str	r0, [r7, #-124]
.Ltmp34:
	@DEBUG_VALUE: HAL_RCCEx_PeriphCLKConfig:ret <- $r8
	.loc	5 242 9 is_stmt 1               @ c:/Keil_v5\ARM\PACK\Keil\STM32L5xx_DFP\1.3.0\Drivers\STM32L5xx_HAL_Driver\Src\stm32l5xx_hal_rcc_ex.c:242:9
	cmp.w	r8, #0
.Ltmp35:
	.loc	5 0 0 is_stmt 0                 @ c:/Keil_v5\ARM\PACK\Keil\STM32L5xx_DFP\1.3.0\Drivers\STM32L5xx_HAL_Driver\Src\stm32l5xx_hal_rcc_ex.c:0:0
	mov	r9, r8
.Ltmp36:
	.loc	5 242 9                         @ c:/Keil_v5\ARM\PACK\Keil\STM32L5xx_DFP\1.3.0\Drivers\STM32L5xx_HAL_Driver\Src\stm32l5xx_hal_rcc_ex.c:242:9
	bne	.LBB0_21
.Ltmp37:
.LBB0_24:
	@DEBUG_VALUE: HAL_RCCEx_PeriphCLKConfig:ret <- $r8
	@DEBUG_VALUE: HAL_RCCEx_PeriphCLKConfig:status <- $r6
	@DEBUG_VALUE: HAL_RCCEx_PeriphCLKConfig:PeriphClkInit <- $r4
	.loc	5 245 7 is_stmt 1               @ c:/Keil_v5\ARM\PACK\Keil\STM32L5xx_DFP\1.3.0\Drivers\STM32L5xx_HAL_Driver\Src\stm32l5xx_hal_rcc_ex.c:245:7
	ldr	r0, [r7, #20]
	ldr	r1, [r4, #112]
	bic	r0, r0, #1792
	orrs	r0, r1
	mov.w	r8, #0
.Ltmp38:
	str	r0, [r7, #20]
.Ltmp39:
.LBB0_25:
	@DEBUG_VALUE: HAL_RCCEx_PeriphCLKConfig:status <- $r6
	@DEBUG_VALUE: HAL_RCCEx_PeriphCLKConfig:PeriphClkInit <- $r4
	.loc	5 0 0 is_stmt 0                 @ c:/Keil_v5\ARM\PACK\Keil\STM32L5xx_DFP\1.3.0\Drivers\STM32L5xx_HAL_Driver\Src\stm32l5xx_hal_rcc_ex.c:0:0
	mov	r9, r6
.Ltmp40:
	@DEBUG_VALUE: HAL_RCCEx_PeriphCLKConfig:status <- $r9
	@DEBUG_VALUE: HAL_RCCEx_PeriphCLKConfig:ret <- $r8
	@DEBUG_VALUE: HAL_RCCEx_PeriphCLKConfig:status <- $r9
	.loc	5 255 7 is_stmt 1               @ c:/Keil_v5\ARM\PACK\Keil\STM32L5xx_DFP\1.3.0\Drivers\STM32L5xx_HAL_Driver\Src\stm32l5xx_hal_rcc_ex.c:255:7
	ldrb	r0, [r4, #2]
	lsls	r0, r0, #30
	bpl	.LBB0_22
.Ltmp41:
.LBB0_26:
	@DEBUG_VALUE: HAL_RCCEx_PeriphCLKConfig:status <- $r9
	@DEBUG_VALUE: HAL_RCCEx_PeriphCLKConfig:ret <- $r8
	@DEBUG_VALUE: HAL_RCCEx_PeriphCLKConfig:PeriphClkInit <- $r4
	@DEBUG_VALUE: pwrclkchanged <- 0
	.loc	5 263 9                         @ c:/Keil_v5\ARM\PACK\Keil\STM32L5xx_DFP\1.3.0\Drivers\STM32L5xx_HAL_Driver\Src\stm32l5xx_hal_rcc_ex.c:263:9
	ldr	r0, [r7, #-48]
	ands	r10, r0, #268435456
.Ltmp42:
	.loc	5 263 9 is_stmt 0               @ c:/Keil_v5\ARM\PACK\Keil\STM32L5xx_DFP\1.3.0\Drivers\STM32L5xx_HAL_Driver\Src\stm32l5xx_hal_rcc_ex.c:263:9
	bne	.LBB0_28
.Ltmp43:
@ %bb.27:
	@DEBUG_VALUE: HAL_RCCEx_PeriphCLKConfig:status <- $r9
	@DEBUG_VALUE: HAL_RCCEx_PeriphCLKConfig:ret <- $r8
	@DEBUG_VALUE: HAL_RCCEx_PeriphCLKConfig:PeriphClkInit <- $r4
	@DEBUG_VALUE: pwrclkchanged <- 0
	.loc	5 265 7 is_stmt 1               @ c:/Keil_v5\ARM\PACK\Keil\STM32L5xx_DFP\1.3.0\Drivers\STM32L5xx_HAL_Driver\Src\stm32l5xx_hal_rcc_ex.c:265:7
	ldr	r0, [r7, #-48]
	orr	r0, r0, #268435456
	str	r0, [r7, #-48]
	ldr	r0, [r7, #-48]
	and	r0, r0, #268435456
	str	r0, [sp]
	ldr	r0, [sp]
.Ltmp44:
	@DEBUG_VALUE: pwrclkchanged <- 1
.LBB0_28:
	@DEBUG_VALUE: HAL_RCCEx_PeriphCLKConfig:status <- $r9
	@DEBUG_VALUE: HAL_RCCEx_PeriphCLKConfig:ret <- $r8
	@DEBUG_VALUE: HAL_RCCEx_PeriphCLKConfig:PeriphClkInit <- $r4
	.loc	5 0 7 is_stmt 0                 @ c:/Keil_v5\ARM\PACK\Keil\STM32L5xx_DFP\1.3.0\Drivers\STM32L5xx_HAL_Driver\Src\stm32l5xx_hal_rcc_ex.c:0:7
	movw	r5, #28672
	movt	r5, #16384
.Ltmp45:
	@DEBUG_VALUE: pwrclkchanged <- undef
	.loc	5 270 5 is_stmt 1               @ c:/Keil_v5\ARM\PACK\Keil\STM32L5xx_DFP\1.3.0\Drivers\STM32L5xx_HAL_Driver\Src\stm32l5xx_hal_rcc_ex.c:270:5
	ldr	r0, [r5]
	orr	r0, r0, #256
	str	r0, [r5]
	.loc	5 273 17                        @ c:/Keil_v5\ARM\PACK\Keil\STM32L5xx_DFP\1.3.0\Drivers\STM32L5xx_HAL_Driver\Src\stm32l5xx_hal_rcc_ex.c:273:17
	bl	HAL_GetTick
	mov	r6, r0
.Ltmp46:
	@DEBUG_VALUE: HAL_RCCEx_PeriphCLKConfig:tickstart <- $r6
	.p2align	2
.LBB0_29:                               @ =>This Inner Loop Header: Depth=1
	@DEBUG_VALUE: HAL_RCCEx_PeriphCLKConfig:status <- $r9
	@DEBUG_VALUE: HAL_RCCEx_PeriphCLKConfig:ret <- $r8
	@DEBUG_VALUE: HAL_RCCEx_PeriphCLKConfig:tickstart <- $r6
	@DEBUG_VALUE: HAL_RCCEx_PeriphCLKConfig:PeriphClkInit <- $r4
	.loc	5 275 18                        @ c:/Keil_v5\ARM\PACK\Keil\STM32L5xx_DFP\1.3.0\Drivers\STM32L5xx_HAL_Driver\Src\stm32l5xx_hal_rcc_ex.c:275:18
	ldr	r0, [r5]
	.loc	5 275 5 is_stmt 0               @ c:/Keil_v5\ARM\PACK\Keil\STM32L5xx_DFP\1.3.0\Drivers\STM32L5xx_HAL_Driver\Src\stm32l5xx_hal_rcc_ex.c:275:5
	lsls	r0, r0, #23
	bmi	.LBB0_32
.Ltmp47:
@ %bb.30:                               @   in Loop: Header=BB0_29 Depth=1
	@DEBUG_VALUE: HAL_RCCEx_PeriphCLKConfig:status <- $r9
	@DEBUG_VALUE: HAL_RCCEx_PeriphCLKConfig:ret <- $r8
	@DEBUG_VALUE: HAL_RCCEx_PeriphCLKConfig:tickstart <- $r6
	@DEBUG_VALUE: HAL_RCCEx_PeriphCLKConfig:PeriphClkInit <- $r4
	.loc	5 277 12 is_stmt 1              @ c:/Keil_v5\ARM\PACK\Keil\STM32L5xx_DFP\1.3.0\Drivers\STM32L5xx_HAL_Driver\Src\stm32l5xx_hal_rcc_ex.c:277:12
	bl	HAL_GetTick
	.loc	5 277 26 is_stmt 0              @ c:/Keil_v5\ARM\PACK\Keil\STM32L5xx_DFP\1.3.0\Drivers\STM32L5xx_HAL_Driver\Src\stm32l5xx_hal_rcc_ex.c:277:26
	subs	r0, r0, r6
.Ltmp48:
	.loc	5 277 11                        @ c:/Keil_v5\ARM\PACK\Keil\STM32L5xx_DFP\1.3.0\Drivers\STM32L5xx_HAL_Driver\Src\stm32l5xx_hal_rcc_ex.c:277:11
	cmp	r0, #2
	bls	.LBB0_29
.Ltmp49:
@ %bb.31:
	@DEBUG_VALUE: HAL_RCCEx_PeriphCLKConfig:status <- $r9
	@DEBUG_VALUE: HAL_RCCEx_PeriphCLKConfig:ret <- $r8
	@DEBUG_VALUE: HAL_RCCEx_PeriphCLKConfig:tickstart <- $r6
	@DEBUG_VALUE: HAL_RCCEx_PeriphCLKConfig:PeriphClkInit <- $r4
	.loc	5 0 11                          @ c:/Keil_v5\ARM\PACK\Keil\STM32L5xx_DFP\1.3.0\Drivers\STM32L5xx_HAL_Driver\Src\stm32l5xx_hal_rcc_ex.c:0:11
	mov.w	r8, #3
.Ltmp50:
	movs	r5, #3
	b	.LBB0_38
.Ltmp51:
	.p2align	2
.LBB0_32:
	@DEBUG_VALUE: HAL_RCCEx_PeriphCLKConfig:status <- $r9
	@DEBUG_VALUE: HAL_RCCEx_PeriphCLKConfig:ret <- $r8
	@DEBUG_VALUE: HAL_RCCEx_PeriphCLKConfig:tickstart <- $r6
	@DEBUG_VALUE: HAL_RCCEx_PeriphCLKConfig:PeriphClkInit <- $r4
	@DEBUG_VALUE: HAL_RCCEx_PeriphCLKConfig:ret <- $r8
	.loc	5 284 9 is_stmt 1               @ c:/Keil_v5\ARM\PACK\Keil\STM32L5xx_DFP\1.3.0\Drivers\STM32L5xx_HAL_Driver\Src\stm32l5xx_hal_rcc_ex.c:284:9
	cmp.w	r8, #0
.Ltmp52:
	.loc	5 0 0 is_stmt 0                 @ c:/Keil_v5\ARM\PACK\Keil\STM32L5xx_DFP\1.3.0\Drivers\STM32L5xx_HAL_Driver\Src\stm32l5xx_hal_rcc_ex.c:0:0
	mov	r5, r8
.Ltmp53:
	.loc	5 284 9                         @ c:/Keil_v5\ARM\PACK\Keil\STM32L5xx_DFP\1.3.0\Drivers\STM32L5xx_HAL_Driver\Src\stm32l5xx_hal_rcc_ex.c:284:9
	bne	.LBB0_38
.Ltmp54:
@ %bb.33:
	@DEBUG_VALUE: HAL_RCCEx_PeriphCLKConfig:status <- $r9
	@DEBUG_VALUE: HAL_RCCEx_PeriphCLKConfig:ret <- $r8
	@DEBUG_VALUE: HAL_RCCEx_PeriphCLKConfig:tickstart <- $r6
	@DEBUG_VALUE: HAL_RCCEx_PeriphCLKConfig:PeriphClkInit <- $r4
	.loc	5 287 21 is_stmt 1              @ c:/Keil_v5\ARM\PACK\Keil\STM32L5xx_DFP\1.3.0\Drivers\STM32L5xx_HAL_Driver\Src\stm32l5xx_hal_rcc_ex.c:287:21
	ldr	r0, [r7, #8]
	ands	r0, r0, #768
.Ltmp55:
	@DEBUG_VALUE: HAL_RCCEx_PeriphCLKConfig:tmpregister <- $r0
	.loc	5 289 50                        @ c:/Keil_v5\ARM\PACK\Keil\STM32L5xx_DFP\1.3.0\Drivers\STM32L5xx_HAL_Driver\Src\stm32l5xx_hal_rcc_ex.c:289:50
	beq	.LBB0_37
.Ltmp56:
@ %bb.34:
	@DEBUG_VALUE: HAL_RCCEx_PeriphCLKConfig:status <- $r9
	@DEBUG_VALUE: HAL_RCCEx_PeriphCLKConfig:ret <- $r8
	@DEBUG_VALUE: HAL_RCCEx_PeriphCLKConfig:tickstart <- $r6
	@DEBUG_VALUE: HAL_RCCEx_PeriphCLKConfig:PeriphClkInit <- $r4
	@DEBUG_VALUE: HAL_RCCEx_PeriphCLKConfig:tmpregister <- $r0
	.loc	5 289 84 is_stmt 0              @ c:/Keil_v5\ARM\PACK\Keil\STM32L5xx_DFP\1.3.0\Drivers\STM32L5xx_HAL_Driver\Src\stm32l5xx_hal_rcc_ex.c:289:84
	ldr.w	r1, [r4, #144]
.Ltmp57:
	.loc	5 289 11                        @ c:/Keil_v5\ARM\PACK\Keil\STM32L5xx_DFP\1.3.0\Drivers\STM32L5xx_HAL_Driver\Src\stm32l5xx_hal_rcc_ex.c:289:11
	cmp	r0, r1
	beq	.LBB0_36
.Ltmp58:
@ %bb.35:
	@DEBUG_VALUE: HAL_RCCEx_PeriphCLKConfig:status <- $r9
	@DEBUG_VALUE: HAL_RCCEx_PeriphCLKConfig:ret <- $r8
	@DEBUG_VALUE: HAL_RCCEx_PeriphCLKConfig:tickstart <- $r6
	@DEBUG_VALUE: HAL_RCCEx_PeriphCLKConfig:PeriphClkInit <- $r4
	@DEBUG_VALUE: HAL_RCCEx_PeriphCLKConfig:tmpregister <- $r0
	.loc	5 292 23 is_stmt 1              @ c:/Keil_v5\ARM\PACK\Keil\STM32L5xx_DFP\1.3.0\Drivers\STM32L5xx_HAL_Driver\Src\stm32l5xx_hal_rcc_ex.c:292:23
	ldr	r0, [r7, #8]
.Ltmp59:
	.loc	5 294 9                         @ c:/Keil_v5\ARM\PACK\Keil\STM32L5xx_DFP\1.3.0\Drivers\STM32L5xx_HAL_Driver\Src\stm32l5xx_hal_rcc_ex.c:294:9
	ldr	r1, [r7, #8]
	.loc	5 292 23                        @ c:/Keil_v5\ARM\PACK\Keil\STM32L5xx_DFP\1.3.0\Drivers\STM32L5xx_HAL_Driver\Src\stm32l5xx_hal_rcc_ex.c:292:23
	bic	r0, r0, #768
.Ltmp60:
	@DEBUG_VALUE: HAL_RCCEx_PeriphCLKConfig:tmpregister <- $r0
	.loc	5 294 9                         @ c:/Keil_v5\ARM\PACK\Keil\STM32L5xx_DFP\1.3.0\Drivers\STM32L5xx_HAL_Driver\Src\stm32l5xx_hal_rcc_ex.c:294:9
	orr	r1, r1, #65536
	str	r1, [r7, #8]
	.loc	5 295 9                         @ c:/Keil_v5\ARM\PACK\Keil\STM32L5xx_DFP\1.3.0\Drivers\STM32L5xx_HAL_Driver\Src\stm32l5xx_hal_rcc_ex.c:295:9
	ldr	r1, [r7, #8]
	bic	r1, r1, #65536
	str	r1, [r7, #8]
	.loc	5 297 19                        @ c:/Keil_v5\ARM\PACK\Keil\STM32L5xx_DFP\1.3.0\Drivers\STM32L5xx_HAL_Driver\Src\stm32l5xx_hal_rcc_ex.c:297:19
	str	r0, [r7, #8]
.Ltmp61:
.LBB0_36:
	@DEBUG_VALUE: HAL_RCCEx_PeriphCLKConfig:status <- $r9
	@DEBUG_VALUE: HAL_RCCEx_PeriphCLKConfig:ret <- $r8
	@DEBUG_VALUE: HAL_RCCEx_PeriphCLKConfig:tickstart <- $r6
	@DEBUG_VALUE: HAL_RCCEx_PeriphCLKConfig:PeriphClkInit <- $r4
	@DEBUG_VALUE: HAL_RCCEx_PeriphCLKConfig:tmpregister <- $r0
	@DEBUG_VALUE: HAL_RCCEx_PeriphCLKConfig:tmpregister <- $r0
	.loc	5 301 11                        @ c:/Keil_v5\ARM\PACK\Keil\STM32L5xx_DFP\1.3.0\Drivers\STM32L5xx_HAL_Driver\Src\stm32l5xx_hal_rcc_ex.c:301:11
	lsls	r0, r0, #31
.Ltmp62:
	bne.w	.LBB0_105
.Ltmp63:
.LBB0_37:
	@DEBUG_VALUE: HAL_RCCEx_PeriphCLKConfig:status <- $r9
	@DEBUG_VALUE: HAL_RCCEx_PeriphCLKConfig:tickstart <- $r6
	@DEBUG_VALUE: HAL_RCCEx_PeriphCLKConfig:PeriphClkInit <- $r4
	.loc	5 320 9                         @ c:/Keil_v5\ARM\PACK\Keil\STM32L5xx_DFP\1.3.0\Drivers\STM32L5xx_HAL_Driver\Src\stm32l5xx_hal_rcc_ex.c:320:9
	ldr	r0, [r7, #8]
	ldr.w	r1, [r4, #144]
	bic	r0, r0, #768
	orrs	r0, r1
	mov.w	r8, #0
.Ltmp64:
	.loc	5 0 0 is_stmt 0                 @ c:/Keil_v5\ARM\PACK\Keil\STM32L5xx_DFP\1.3.0\Drivers\STM32L5xx_HAL_Driver\Src\stm32l5xx_hal_rcc_ex.c:0:0
	mov	r5, r9
.Ltmp65:
	@DEBUG_VALUE: HAL_RCCEx_PeriphCLKConfig:status <- $r5
	.loc	5 320 9                         @ c:/Keil_v5\ARM\PACK\Keil\STM32L5xx_DFP\1.3.0\Drivers\STM32L5xx_HAL_Driver\Src\stm32l5xx_hal_rcc_ex.c:320:9
	str	r0, [r7, #8]
.Ltmp66:
.LBB0_38:
	@DEBUG_VALUE: HAL_RCCEx_PeriphCLKConfig:tickstart <- $r6
	@DEBUG_VALUE: HAL_RCCEx_PeriphCLKConfig:PeriphClkInit <- $r4
	@DEBUG_VALUE: HAL_RCCEx_PeriphCLKConfig:ret <- $r8
	@DEBUG_VALUE: HAL_RCCEx_PeriphCLKConfig:status <- $r5
	.loc	5 335 9 is_stmt 1               @ c:/Keil_v5\ARM\PACK\Keil\STM32L5xx_DFP\1.3.0\Drivers\STM32L5xx_HAL_Driver\Src\stm32l5xx_hal_rcc_ex.c:335:9
	cmp.w	r10, #0
	beq	.LBB0_49
.Ltmp67:
@ %bb.39:
	@DEBUG_VALUE: HAL_RCCEx_PeriphCLKConfig:ret <- $r8
	@DEBUG_VALUE: HAL_RCCEx_PeriphCLKConfig:tickstart <- $r6
	@DEBUG_VALUE: HAL_RCCEx_PeriphCLKConfig:status <- $r5
	@DEBUG_VALUE: HAL_RCCEx_PeriphCLKConfig:PeriphClkInit <- $r4
	@DEBUG_VALUE: HAL_RCCEx_PeriphCLKConfig:ret <- $r8
	@DEBUG_VALUE: HAL_RCCEx_PeriphCLKConfig:status <- $r5
	.loc	5 342 24                        @ c:/Keil_v5\ARM\PACK\Keil\STM32L5xx_DFP\1.3.0\Drivers\STM32L5xx_HAL_Driver\Src\stm32l5xx_hal_rcc_ex.c:342:24
	ldr	r0, [r4]
.Ltmp68:
	.loc	5 342 7 is_stmt 0               @ c:/Keil_v5\ARM\PACK\Keil\STM32L5xx_DFP\1.3.0\Drivers\STM32L5xx_HAL_Driver\Src\stm32l5xx_hal_rcc_ex.c:342:7
	lsls	r1, r0, #31
	bne	.LBB0_50
.Ltmp69:
.LBB0_40:
	@DEBUG_VALUE: HAL_RCCEx_PeriphCLKConfig:ret <- $r8
	@DEBUG_VALUE: HAL_RCCEx_PeriphCLKConfig:status <- $r5
	@DEBUG_VALUE: HAL_RCCEx_PeriphCLKConfig:PeriphClkInit <- $r4
	.loc	5 352 7 is_stmt 1               @ c:/Keil_v5\ARM\PACK\Keil\STM32L5xx_DFP\1.3.0\Drivers\STM32L5xx_HAL_Driver\Src\stm32l5xx_hal_rcc_ex.c:352:7
	lsls	r1, r0, #30
	bmi	.LBB0_51
.Ltmp70:
.LBB0_41:
	@DEBUG_VALUE: HAL_RCCEx_PeriphCLKConfig:ret <- $r8
	@DEBUG_VALUE: HAL_RCCEx_PeriphCLKConfig:status <- $r5
	@DEBUG_VALUE: HAL_RCCEx_PeriphCLKConfig:PeriphClkInit <- $r4
	.loc	5 362 7                         @ c:/Keil_v5\ARM\PACK\Keil\STM32L5xx_DFP\1.3.0\Drivers\STM32L5xx_HAL_Driver\Src\stm32l5xx_hal_rcc_ex.c:362:7
	lsls	r1, r0, #29
	bmi	.LBB0_52
.Ltmp71:
.LBB0_42:
	@DEBUG_VALUE: HAL_RCCEx_PeriphCLKConfig:ret <- $r8
	@DEBUG_VALUE: HAL_RCCEx_PeriphCLKConfig:status <- $r5
	@DEBUG_VALUE: HAL_RCCEx_PeriphCLKConfig:PeriphClkInit <- $r4
	.loc	5 372 7                         @ c:/Keil_v5\ARM\PACK\Keil\STM32L5xx_DFP\1.3.0\Drivers\STM32L5xx_HAL_Driver\Src\stm32l5xx_hal_rcc_ex.c:372:7
	lsls	r1, r0, #28
	bmi	.LBB0_53
.Ltmp72:
.LBB0_43:
	@DEBUG_VALUE: HAL_RCCEx_PeriphCLKConfig:ret <- $r8
	@DEBUG_VALUE: HAL_RCCEx_PeriphCLKConfig:status <- $r5
	@DEBUG_VALUE: HAL_RCCEx_PeriphCLKConfig:PeriphClkInit <- $r4
	.loc	5 382 7                         @ c:/Keil_v5\ARM\PACK\Keil\STM32L5xx_DFP\1.3.0\Drivers\STM32L5xx_HAL_Driver\Src\stm32l5xx_hal_rcc_ex.c:382:7
	lsls	r1, r0, #27
	bmi	.LBB0_54
.Ltmp73:
.LBB0_44:
	@DEBUG_VALUE: HAL_RCCEx_PeriphCLKConfig:ret <- $r8
	@DEBUG_VALUE: HAL_RCCEx_PeriphCLKConfig:status <- $r5
	@DEBUG_VALUE: HAL_RCCEx_PeriphCLKConfig:PeriphClkInit <- $r4
	.loc	5 392 7                         @ c:/Keil_v5\ARM\PACK\Keil\STM32L5xx_DFP\1.3.0\Drivers\STM32L5xx_HAL_Driver\Src\stm32l5xx_hal_rcc_ex.c:392:7
	lsls	r1, r0, #26
	bmi	.LBB0_55
.Ltmp74:
.LBB0_45:
	@DEBUG_VALUE: HAL_RCCEx_PeriphCLKConfig:ret <- $r8
	@DEBUG_VALUE: HAL_RCCEx_PeriphCLKConfig:status <- $r5
	@DEBUG_VALUE: HAL_RCCEx_PeriphCLKConfig:PeriphClkInit <- $r4
	.loc	5 402 7                         @ c:/Keil_v5\ARM\PACK\Keil\STM32L5xx_DFP\1.3.0\Drivers\STM32L5xx_HAL_Driver\Src\stm32l5xx_hal_rcc_ex.c:402:7
	lsls	r1, r0, #22
	bmi	.LBB0_56
.Ltmp75:
.LBB0_46:
	@DEBUG_VALUE: HAL_RCCEx_PeriphCLKConfig:ret <- $r8
	@DEBUG_VALUE: HAL_RCCEx_PeriphCLKConfig:status <- $r5
	@DEBUG_VALUE: HAL_RCCEx_PeriphCLKConfig:PeriphClkInit <- $r4
	.loc	5 412 7                         @ c:/Keil_v5\ARM\PACK\Keil\STM32L5xx_DFP\1.3.0\Drivers\STM32L5xx_HAL_Driver\Src\stm32l5xx_hal_rcc_ex.c:412:7
	lsls	r1, r0, #21
	bmi	.LBB0_57
.Ltmp76:
.LBB0_47:
	@DEBUG_VALUE: HAL_RCCEx_PeriphCLKConfig:ret <- $r8
	@DEBUG_VALUE: HAL_RCCEx_PeriphCLKConfig:status <- $r5
	@DEBUG_VALUE: HAL_RCCEx_PeriphCLKConfig:PeriphClkInit <- $r4
	.loc	5 422 7                         @ c:/Keil_v5\ARM\PACK\Keil\STM32L5xx_DFP\1.3.0\Drivers\STM32L5xx_HAL_Driver\Src\stm32l5xx_hal_rcc_ex.c:422:7
	lsls	r1, r0, #9
	bmi	.LBB0_58
.Ltmp77:
.LBB0_48:
	@DEBUG_VALUE: HAL_RCCEx_PeriphCLKConfig:ret <- $r8
	@DEBUG_VALUE: HAL_RCCEx_PeriphCLKConfig:status <- $r5
	@DEBUG_VALUE: HAL_RCCEx_PeriphCLKConfig:PeriphClkInit <- $r4
	.loc	5 432 7                         @ c:/Keil_v5\ARM\PACK\Keil\STM32L5xx_DFP\1.3.0\Drivers\STM32L5xx_HAL_Driver\Src\stm32l5xx_hal_rcc_ex.c:432:7
	lsls	r0, r0, #6
	bmi	.LBB0_59
	b	.LBB0_71
.Ltmp78:
	.p2align	2
.LBB0_49:
	@DEBUG_VALUE: HAL_RCCEx_PeriphCLKConfig:ret <- $r8
	@DEBUG_VALUE: HAL_RCCEx_PeriphCLKConfig:tickstart <- $r6
	@DEBUG_VALUE: HAL_RCCEx_PeriphCLKConfig:status <- $r5
	@DEBUG_VALUE: HAL_RCCEx_PeriphCLKConfig:PeriphClkInit <- $r4
	.loc	5 337 7                         @ c:/Keil_v5\ARM\PACK\Keil\STM32L5xx_DFP\1.3.0\Drivers\STM32L5xx_HAL_Driver\Src\stm32l5xx_hal_rcc_ex.c:337:7
	ldr	r0, [r7, #-48]
	bic	r0, r0, #268435456
	str	r0, [r7, #-48]
.Ltmp79:
	@DEBUG_VALUE: HAL_RCCEx_PeriphCLKConfig:ret <- $r8
	@DEBUG_VALUE: HAL_RCCEx_PeriphCLKConfig:status <- $r5
	.loc	5 342 24                        @ c:/Keil_v5\ARM\PACK\Keil\STM32L5xx_DFP\1.3.0\Drivers\STM32L5xx_HAL_Driver\Src\stm32l5xx_hal_rcc_ex.c:342:24
	ldr	r0, [r4]
.Ltmp80:
	.loc	5 342 7 is_stmt 0               @ c:/Keil_v5\ARM\PACK\Keil\STM32L5xx_DFP\1.3.0\Drivers\STM32L5xx_HAL_Driver\Src\stm32l5xx_hal_rcc_ex.c:342:7
	lsls	r1, r0, #31
	beq	.LBB0_40
.Ltmp81:
.LBB0_50:
	@DEBUG_VALUE: HAL_RCCEx_PeriphCLKConfig:ret <- $r8
	@DEBUG_VALUE: HAL_RCCEx_PeriphCLKConfig:status <- $r5
	@DEBUG_VALUE: HAL_RCCEx_PeriphCLKConfig:PeriphClkInit <- $r4
	.loc	5 348 5 is_stmt 1               @ c:/Keil_v5\ARM\PACK\Keil\STM32L5xx_DFP\1.3.0\Drivers\STM32L5xx_HAL_Driver\Src\stm32l5xx_hal_rcc_ex.c:348:5
	ldr	r1, [r7]
	ldr	r2, [r4, #52]
	bic	r1, r1, #3
	orrs	r1, r2
	str	r1, [r7]
.Ltmp82:
	.loc	5 352 7                         @ c:/Keil_v5\ARM\PACK\Keil\STM32L5xx_DFP\1.3.0\Drivers\STM32L5xx_HAL_Driver\Src\stm32l5xx_hal_rcc_ex.c:352:7
	lsls	r1, r0, #30
	bpl	.LBB0_41
.Ltmp83:
.LBB0_51:
	@DEBUG_VALUE: HAL_RCCEx_PeriphCLKConfig:ret <- $r8
	@DEBUG_VALUE: HAL_RCCEx_PeriphCLKConfig:status <- $r5
	@DEBUG_VALUE: HAL_RCCEx_PeriphCLKConfig:PeriphClkInit <- $r4
	.loc	5 358 5                         @ c:/Keil_v5\ARM\PACK\Keil\STM32L5xx_DFP\1.3.0\Drivers\STM32L5xx_HAL_Driver\Src\stm32l5xx_hal_rcc_ex.c:358:5
	ldr	r1, [r7]
	ldr	r2, [r4, #56]
	bic	r1, r1, #12
	orrs	r1, r2
	str	r1, [r7]
.Ltmp84:
	.loc	5 362 7                         @ c:/Keil_v5\ARM\PACK\Keil\STM32L5xx_DFP\1.3.0\Drivers\STM32L5xx_HAL_Driver\Src\stm32l5xx_hal_rcc_ex.c:362:7
	lsls	r1, r0, #29
	bpl	.LBB0_42
.Ltmp85:
.LBB0_52:
	@DEBUG_VALUE: HAL_RCCEx_PeriphCLKConfig:ret <- $r8
	@DEBUG_VALUE: HAL_RCCEx_PeriphCLKConfig:status <- $r5
	@DEBUG_VALUE: HAL_RCCEx_PeriphCLKConfig:PeriphClkInit <- $r4
	.loc	5 368 5                         @ c:/Keil_v5\ARM\PACK\Keil\STM32L5xx_DFP\1.3.0\Drivers\STM32L5xx_HAL_Driver\Src\stm32l5xx_hal_rcc_ex.c:368:5
	ldr	r1, [r7]
	ldr	r2, [r4, #60]
	bic	r1, r1, #48
	orrs	r1, r2
	str	r1, [r7]
.Ltmp86:
	.loc	5 372 7                         @ c:/Keil_v5\ARM\PACK\Keil\STM32L5xx_DFP\1.3.0\Drivers\STM32L5xx_HAL_Driver\Src\stm32l5xx_hal_rcc_ex.c:372:7
	lsls	r1, r0, #28
	bpl	.LBB0_43
.Ltmp87:
.LBB0_53:
	@DEBUG_VALUE: HAL_RCCEx_PeriphCLKConfig:ret <- $r8
	@DEBUG_VALUE: HAL_RCCEx_PeriphCLKConfig:status <- $r5
	@DEBUG_VALUE: HAL_RCCEx_PeriphCLKConfig:PeriphClkInit <- $r4
	.loc	5 378 5                         @ c:/Keil_v5\ARM\PACK\Keil\STM32L5xx_DFP\1.3.0\Drivers\STM32L5xx_HAL_Driver\Src\stm32l5xx_hal_rcc_ex.c:378:5
	ldr	r1, [r7]
	ldr	r2, [r4, #64]
	bic	r1, r1, #192
	orrs	r1, r2
	str	r1, [r7]
.Ltmp88:
	.loc	5 382 7                         @ c:/Keil_v5\ARM\PACK\Keil\STM32L5xx_DFP\1.3.0\Drivers\STM32L5xx_HAL_Driver\Src\stm32l5xx_hal_rcc_ex.c:382:7
	lsls	r1, r0, #27
	bpl	.LBB0_44
.Ltmp89:
.LBB0_54:
	@DEBUG_VALUE: HAL_RCCEx_PeriphCLKConfig:ret <- $r8
	@DEBUG_VALUE: HAL_RCCEx_PeriphCLKConfig:status <- $r5
	@DEBUG_VALUE: HAL_RCCEx_PeriphCLKConfig:PeriphClkInit <- $r4
	.loc	5 388 5                         @ c:/Keil_v5\ARM\PACK\Keil\STM32L5xx_DFP\1.3.0\Drivers\STM32L5xx_HAL_Driver\Src\stm32l5xx_hal_rcc_ex.c:388:5
	ldr	r1, [r7]
	ldr	r2, [r4, #68]
	bic	r1, r1, #768
	orrs	r1, r2
	str	r1, [r7]
.Ltmp90:
	.loc	5 392 7                         @ c:/Keil_v5\ARM\PACK\Keil\STM32L5xx_DFP\1.3.0\Drivers\STM32L5xx_HAL_Driver\Src\stm32l5xx_hal_rcc_ex.c:392:7
	lsls	r1, r0, #26
	bpl	.LBB0_45
.Ltmp91:
.LBB0_55:
	@DEBUG_VALUE: HAL_RCCEx_PeriphCLKConfig:ret <- $r8
	@DEBUG_VALUE: HAL_RCCEx_PeriphCLKConfig:status <- $r5
	@DEBUG_VALUE: HAL_RCCEx_PeriphCLKConfig:PeriphClkInit <- $r4
	.loc	5 398 5                         @ c:/Keil_v5\ARM\PACK\Keil\STM32L5xx_DFP\1.3.0\Drivers\STM32L5xx_HAL_Driver\Src\stm32l5xx_hal_rcc_ex.c:398:5
	ldr	r1, [r7]
	ldr	r2, [r4, #72]
	bic	r1, r1, #3072
	orrs	r1, r2
	str	r1, [r7]
.Ltmp92:
	.loc	5 402 7                         @ c:/Keil_v5\ARM\PACK\Keil\STM32L5xx_DFP\1.3.0\Drivers\STM32L5xx_HAL_Driver\Src\stm32l5xx_hal_rcc_ex.c:402:7
	lsls	r1, r0, #22
	bpl	.LBB0_46
.Ltmp93:
.LBB0_56:
	@DEBUG_VALUE: HAL_RCCEx_PeriphCLKConfig:ret <- $r8
	@DEBUG_VALUE: HAL_RCCEx_PeriphCLKConfig:status <- $r5
	@DEBUG_VALUE: HAL_RCCEx_PeriphCLKConfig:PeriphClkInit <- $r4
	.loc	5 408 5                         @ c:/Keil_v5\ARM\PACK\Keil\STM32L5xx_DFP\1.3.0\Drivers\STM32L5xx_HAL_Driver\Src\stm32l5xx_hal_rcc_ex.c:408:5
	ldr	r1, [r7]
	ldr	r2, [r4, #92]
	bic	r1, r1, #786432
	orrs	r1, r2
	str	r1, [r7]
.Ltmp94:
	.loc	5 412 7                         @ c:/Keil_v5\ARM\PACK\Keil\STM32L5xx_DFP\1.3.0\Drivers\STM32L5xx_HAL_Driver\Src\stm32l5xx_hal_rcc_ex.c:412:7
	lsls	r1, r0, #21
	bpl	.LBB0_47
.Ltmp95:
.LBB0_57:
	@DEBUG_VALUE: HAL_RCCEx_PeriphCLKConfig:ret <- $r8
	@DEBUG_VALUE: HAL_RCCEx_PeriphCLKConfig:status <- $r5
	@DEBUG_VALUE: HAL_RCCEx_PeriphCLKConfig:PeriphClkInit <- $r4
	.loc	5 418 5                         @ c:/Keil_v5\ARM\PACK\Keil\STM32L5xx_DFP\1.3.0\Drivers\STM32L5xx_HAL_Driver\Src\stm32l5xx_hal_rcc_ex.c:418:5
	ldr	r1, [r7]
	ldr	r2, [r4, #96]
	bic	r1, r1, #3145728
	orrs	r1, r2
	str	r1, [r7]
.Ltmp96:
	.loc	5 422 7                         @ c:/Keil_v5\ARM\PACK\Keil\STM32L5xx_DFP\1.3.0\Drivers\STM32L5xx_HAL_Driver\Src\stm32l5xx_hal_rcc_ex.c:422:7
	lsls	r1, r0, #9
	bpl	.LBB0_48
.Ltmp97:
.LBB0_58:
	@DEBUG_VALUE: HAL_RCCEx_PeriphCLKConfig:ret <- $r8
	@DEBUG_VALUE: HAL_RCCEx_PeriphCLKConfig:status <- $r5
	@DEBUG_VALUE: HAL_RCCEx_PeriphCLKConfig:PeriphClkInit <- $r4
	.loc	5 428 5                         @ c:/Keil_v5\ARM\PACK\Keil\STM32L5xx_DFP\1.3.0\Drivers\STM32L5xx_HAL_Driver\Src\stm32l5xx_hal_rcc_ex.c:428:5
	ldr	r1, [r7]
	ldr	r2, [r4, #100]
	bic	r1, r1, #12582912
	orrs	r1, r2
	str	r1, [r7]
.Ltmp98:
	.loc	5 432 7                         @ c:/Keil_v5\ARM\PACK\Keil\STM32L5xx_DFP\1.3.0\Drivers\STM32L5xx_HAL_Driver\Src\stm32l5xx_hal_rcc_ex.c:432:7
	lsls	r0, r0, #6
	bpl	.LBB0_71
.Ltmp99:
.LBB0_59:
	@DEBUG_VALUE: HAL_RCCEx_PeriphCLKConfig:ret <- $r8
	@DEBUG_VALUE: HAL_RCCEx_PeriphCLKConfig:status <- $r5
	@DEBUG_VALUE: HAL_RCCEx_PeriphCLKConfig:PeriphClkInit <- $r4
	.loc	5 438 28                        @ c:/Keil_v5\ARM\PACK\Keil\STM32L5xx_DFP\1.3.0\Drivers\STM32L5xx_HAL_Driver\Src\stm32l5xx_hal_rcc_ex.c:438:28
	ldr	r0, [r4, #104]
	.loc	5 438 5 is_stmt 0               @ c:/Keil_v5\ARM\PACK\Keil\STM32L5xx_DFP\1.3.0\Drivers\STM32L5xx_HAL_Driver\Src\stm32l5xx_hal_rcc_ex.c:438:5
	cbz	r0, .LBB0_63
.Ltmp100:
@ %bb.60:
	@DEBUG_VALUE: HAL_RCCEx_PeriphCLKConfig:ret <- $r8
	@DEBUG_VALUE: HAL_RCCEx_PeriphCLKConfig:status <- $r5
	@DEBUG_VALUE: HAL_RCCEx_PeriphCLKConfig:PeriphClkInit <- $r4
	cmp.w	r0, #33554432
	beq	.LBB0_69
.Ltmp101:
@ %bb.61:
	@DEBUG_VALUE: HAL_RCCEx_PeriphCLKConfig:ret <- $r8
	@DEBUG_VALUE: HAL_RCCEx_PeriphCLKConfig:status <- $r5
	@DEBUG_VALUE: HAL_RCCEx_PeriphCLKConfig:PeriphClkInit <- $r4
	cmp.w	r0, #16777216
	bne.w	.LBB0_86
.Ltmp102:
@ %bb.62:
	@DEBUG_VALUE: HAL_RCCEx_PeriphCLKConfig:ret <- $r8
	@DEBUG_VALUE: HAL_RCCEx_PeriphCLKConfig:status <- $r5
	@DEBUG_VALUE: HAL_RCCEx_PeriphCLKConfig:PeriphClkInit <- $r4
	.loc	5 446 9 is_stmt 1               @ c:/Keil_v5\ARM\PACK\Keil\STM32L5xx_DFP\1.3.0\Drivers\STM32L5xx_HAL_Driver\Src\stm32l5xx_hal_rcc_ex.c:446:9
	ldr	r0, [r7, #-124]
	orr	r0, r0, #1048576
	str	r0, [r7, #-124]
.Ltmp103:
.LBB0_63:
	@DEBUG_VALUE: HAL_RCCEx_PeriphCLKConfig:ret <- $r8
	@DEBUG_VALUE: HAL_RCCEx_PeriphCLKConfig:status <- $r5
	@DEBUG_VALUE: HAL_RCCEx_PeriphCLKConfig:PeriphClkInit <- $r4
	@DEBUG_VALUE: HAL_RCCEx_PeriphCLKConfig:ret <- $r8
	.loc	5 461 9                         @ c:/Keil_v5\ARM\PACK\Keil\STM32L5xx_DFP\1.3.0\Drivers\STM32L5xx_HAL_Driver\Src\stm32l5xx_hal_rcc_ex.c:461:9
	cmp.w	r8, #0
	beq	.LBB0_70
.Ltmp104:
.LBB0_64:
	@DEBUG_VALUE: HAL_RCCEx_PeriphCLKConfig:ret <- $r8
	@DEBUG_VALUE: HAL_RCCEx_PeriphCLKConfig:status <- $r5
	@DEBUG_VALUE: HAL_RCCEx_PeriphCLKConfig:PeriphClkInit <- $r4
	@DEBUG_VALUE: HAL_RCCEx_PeriphCLKConfig:status <- $r8
	.loc	5 474 24                        @ c:/Keil_v5\ARM\PACK\Keil\STM32L5xx_DFP\1.3.0\Drivers\STM32L5xx_HAL_Driver\Src\stm32l5xx_hal_rcc_ex.c:474:24
	ldr	r1, [r4]
.Ltmp105:
	.loc	5 474 7 is_stmt 0               @ c:/Keil_v5\ARM\PACK\Keil\STM32L5xx_DFP\1.3.0\Drivers\STM32L5xx_HAL_Driver\Src\stm32l5xx_hal_rcc_ex.c:474:7
	lsls	r0, r1, #25
	bmi	.LBB0_72
.Ltmp106:
.LBB0_65:
	@DEBUG_VALUE: HAL_RCCEx_PeriphCLKConfig:status <- $r8
	@DEBUG_VALUE: HAL_RCCEx_PeriphCLKConfig:PeriphClkInit <- $r4
	.loc	5 484 7 is_stmt 1               @ c:/Keil_v5\ARM\PACK\Keil\STM32L5xx_DFP\1.3.0\Drivers\STM32L5xx_HAL_Driver\Src\stm32l5xx_hal_rcc_ex.c:484:7
	lsls	r0, r1, #24
	bmi	.LBB0_73
.Ltmp107:
.LBB0_66:
	@DEBUG_VALUE: HAL_RCCEx_PeriphCLKConfig:status <- $r8
	@DEBUG_VALUE: HAL_RCCEx_PeriphCLKConfig:PeriphClkInit <- $r4
	.loc	5 494 7                         @ c:/Keil_v5\ARM\PACK\Keil\STM32L5xx_DFP\1.3.0\Drivers\STM32L5xx_HAL_Driver\Src\stm32l5xx_hal_rcc_ex.c:494:7
	lsls	r0, r1, #23
	bmi	.LBB0_74
.Ltmp108:
.LBB0_67:
	@DEBUG_VALUE: HAL_RCCEx_PeriphCLKConfig:status <- $r8
	@DEBUG_VALUE: HAL_RCCEx_PeriphCLKConfig:PeriphClkInit <- $r4
	.loc	5 504 7                         @ c:/Keil_v5\ARM\PACK\Keil\STM32L5xx_DFP\1.3.0\Drivers\STM32L5xx_HAL_Driver\Src\stm32l5xx_hal_rcc_ex.c:504:7
	lsls	r0, r1, #11
	bmi	.LBB0_75
.Ltmp109:
.LBB0_68:
	@DEBUG_VALUE: HAL_RCCEx_PeriphCLKConfig:status <- $r8
	@DEBUG_VALUE: HAL_RCCEx_PeriphCLKConfig:PeriphClkInit <- $r4
	.loc	5 516 7                         @ c:/Keil_v5\ARM\PACK\Keil\STM32L5xx_DFP\1.3.0\Drivers\STM32L5xx_HAL_Driver\Src\stm32l5xx_hal_rcc_ex.c:516:7
	lsls	r0, r1, #18
	bmi	.LBB0_76
	b	.LBB0_79
.Ltmp110:
	.p2align	2
.LBB0_69:
	@DEBUG_VALUE: HAL_RCCEx_PeriphCLKConfig:ret <- $r8
	@DEBUG_VALUE: HAL_RCCEx_PeriphCLKConfig:status <- $r5
	@DEBUG_VALUE: HAL_RCCEx_PeriphCLKConfig:PeriphClkInit <- $r4
	.loc	5 452 53                        @ c:/Keil_v5\ARM\PACK\Keil\STM32L5xx_DFP\1.3.0\Drivers\STM32L5xx_HAL_Driver\Src\stm32l5xx_hal_rcc_ex.c:452:53
	adds	r0, r4, #4
	.loc	5 452 15 is_stmt 0              @ c:/Keil_v5\ARM\PACK\Keil\STM32L5xx_DFP\1.3.0\Drivers\STM32L5xx_HAL_Driver\Src\stm32l5xx_hal_rcc_ex.c:452:15
	movs	r1, #0
	bl	RCCEx_PLLSAI1_Config
	mov	r8, r0
.Ltmp111:
	@DEBUG_VALUE: HAL_RCCEx_PeriphCLKConfig:ret <- undef
	@DEBUG_VALUE: HAL_RCCEx_PeriphCLKConfig:ret <- $r8
	.loc	5 461 9 is_stmt 1               @ c:/Keil_v5\ARM\PACK\Keil\STM32L5xx_DFP\1.3.0\Drivers\STM32L5xx_HAL_Driver\Src\stm32l5xx_hal_rcc_ex.c:461:9
	cmp.w	r8, #0
	bne	.LBB0_64
.Ltmp112:
.LBB0_70:
	@DEBUG_VALUE: HAL_RCCEx_PeriphCLKConfig:ret <- $r8
	@DEBUG_VALUE: HAL_RCCEx_PeriphCLKConfig:status <- $r5
	@DEBUG_VALUE: HAL_RCCEx_PeriphCLKConfig:PeriphClkInit <- $r4
	.loc	5 464 7                         @ c:/Keil_v5\ARM\PACK\Keil\STM32L5xx_DFP\1.3.0\Drivers\STM32L5xx_HAL_Driver\Src\stm32l5xx_hal_rcc_ex.c:464:7
	ldr	r0, [r7]
	ldr	r1, [r4, #104]
	bic	r0, r0, #50331648
	orrs	r0, r1
	str	r0, [r7]
.Ltmp113:
.LBB0_71:
	@DEBUG_VALUE: HAL_RCCEx_PeriphCLKConfig:ret <- $r8
	@DEBUG_VALUE: HAL_RCCEx_PeriphCLKConfig:status <- $r5
	@DEBUG_VALUE: HAL_RCCEx_PeriphCLKConfig:PeriphClkInit <- $r4
	.loc	5 0 0 is_stmt 0                 @ c:/Keil_v5\ARM\PACK\Keil\STM32L5xx_DFP\1.3.0\Drivers\STM32L5xx_HAL_Driver\Src\stm32l5xx_hal_rcc_ex.c:0:0
	mov	r8, r5
.Ltmp114:
	@DEBUG_VALUE: HAL_RCCEx_PeriphCLKConfig:status <- $r8
	@DEBUG_VALUE: HAL_RCCEx_PeriphCLKConfig:status <- $r8
	.loc	5 474 24 is_stmt 1              @ c:/Keil_v5\ARM\PACK\Keil\STM32L5xx_DFP\1.3.0\Drivers\STM32L5xx_HAL_Driver\Src\stm32l5xx_hal_rcc_ex.c:474:24
	ldr	r1, [r4]
.Ltmp115:
	.loc	5 474 7 is_stmt 0               @ c:/Keil_v5\ARM\PACK\Keil\STM32L5xx_DFP\1.3.0\Drivers\STM32L5xx_HAL_Driver\Src\stm32l5xx_hal_rcc_ex.c:474:7
	lsls	r0, r1, #25
	bpl	.LBB0_65
.Ltmp116:
.LBB0_72:
	@DEBUG_VALUE: HAL_RCCEx_PeriphCLKConfig:status <- $r8
	@DEBUG_VALUE: HAL_RCCEx_PeriphCLKConfig:PeriphClkInit <- $r4
	.loc	5 480 5 is_stmt 1               @ c:/Keil_v5\ARM\PACK\Keil\STM32L5xx_DFP\1.3.0\Drivers\STM32L5xx_HAL_Driver\Src\stm32l5xx_hal_rcc_ex.c:480:5
	ldr	r0, [r7]
	ldr	r2, [r4, #76]
	bic	r0, r0, #12288
	orrs	r0, r2
	str	r0, [r7]
.Ltmp117:
	.loc	5 484 7                         @ c:/Keil_v5\ARM\PACK\Keil\STM32L5xx_DFP\1.3.0\Drivers\STM32L5xx_HAL_Driver\Src\stm32l5xx_hal_rcc_ex.c:484:7
	lsls	r0, r1, #24
	bpl	.LBB0_66
.Ltmp118:
.LBB0_73:
	@DEBUG_VALUE: HAL_RCCEx_PeriphCLKConfig:status <- $r8
	@DEBUG_VALUE: HAL_RCCEx_PeriphCLKConfig:PeriphClkInit <- $r4
	.loc	5 490 5                         @ c:/Keil_v5\ARM\PACK\Keil\STM32L5xx_DFP\1.3.0\Drivers\STM32L5xx_HAL_Driver\Src\stm32l5xx_hal_rcc_ex.c:490:5
	ldr	r0, [r7]
	ldr	r2, [r4, #80]
	bic	r0, r0, #49152
	orrs	r0, r2
	str	r0, [r7]
.Ltmp119:
	.loc	5 494 7                         @ c:/Keil_v5\ARM\PACK\Keil\STM32L5xx_DFP\1.3.0\Drivers\STM32L5xx_HAL_Driver\Src\stm32l5xx_hal_rcc_ex.c:494:7
	lsls	r0, r1, #23
	bpl	.LBB0_67
.Ltmp120:
.LBB0_74:
	@DEBUG_VALUE: HAL_RCCEx_PeriphCLKConfig:status <- $r8
	@DEBUG_VALUE: HAL_RCCEx_PeriphCLKConfig:PeriphClkInit <- $r4
	.loc	5 500 5                         @ c:/Keil_v5\ARM\PACK\Keil\STM32L5xx_DFP\1.3.0\Drivers\STM32L5xx_HAL_Driver\Src\stm32l5xx_hal_rcc_ex.c:500:5
	ldr	r0, [r7]
	ldr	r2, [r4, #84]
	bic	r0, r0, #196608
	orrs	r0, r2
	str	r0, [r7]
.Ltmp121:
	.loc	5 504 7                         @ c:/Keil_v5\ARM\PACK\Keil\STM32L5xx_DFP\1.3.0\Drivers\STM32L5xx_HAL_Driver\Src\stm32l5xx_hal_rcc_ex.c:504:7
	lsls	r0, r1, #11
	bpl	.LBB0_68
.Ltmp122:
.LBB0_75:
	@DEBUG_VALUE: HAL_RCCEx_PeriphCLKConfig:status <- $r8
	@DEBUG_VALUE: HAL_RCCEx_PeriphCLKConfig:PeriphClkInit <- $r4
	.loc	5 510 5                         @ c:/Keil_v5\ARM\PACK\Keil\STM32L5xx_DFP\1.3.0\Drivers\STM32L5xx_HAL_Driver\Src\stm32l5xx_hal_rcc_ex.c:510:5
	ldr	r0, [r7, #20]
	ldr	r2, [r4, #88]
	bic	r0, r0, #3
	orrs	r0, r2
	str	r0, [r7, #20]
.Ltmp123:
	.loc	5 516 7                         @ c:/Keil_v5\ARM\PACK\Keil\STM32L5xx_DFP\1.3.0\Drivers\STM32L5xx_HAL_Driver\Src\stm32l5xx_hal_rcc_ex.c:516:7
	lsls	r0, r1, #18
	bpl	.LBB0_79
.Ltmp124:
.LBB0_76:
	@DEBUG_VALUE: HAL_RCCEx_PeriphCLKConfig:status <- $r8
	@DEBUG_VALUE: HAL_RCCEx_PeriphCLKConfig:PeriphClkInit <- $r4
	.loc	5 522 5                         @ c:/Keil_v5\ARM\PACK\Keil\STM32L5xx_DFP\1.3.0\Drivers\STM32L5xx_HAL_Driver\Src\stm32l5xx_hal_rcc_ex.c:522:5
	ldr	r2, [r7]
	ldr	r0, [r4, #116]
	bic	r2, r2, #201326592
	orrs	r2, r0
	.loc	5 524 9                         @ c:/Keil_v5\ARM\PACK\Keil\STM32L5xx_DFP\1.3.0\Drivers\STM32L5xx_HAL_Driver\Src\stm32l5xx_hal_rcc_ex.c:524:9
	cmp.w	r0, #67108864
	.loc	5 522 5                         @ c:/Keil_v5\ARM\PACK\Keil\STM32L5xx_DFP\1.3.0\Drivers\STM32L5xx_HAL_Driver\Src\stm32l5xx_hal_rcc_ex.c:522:5
	str	r2, [r7]
	.loc	5 524 9                         @ c:/Keil_v5\ARM\PACK\Keil\STM32L5xx_DFP\1.3.0\Drivers\STM32L5xx_HAL_Driver\Src\stm32l5xx_hal_rcc_ex.c:524:9
	beq	.LBB0_85
.Ltmp125:
@ %bb.77:
	@DEBUG_VALUE: HAL_RCCEx_PeriphCLKConfig:status <- $r8
	@DEBUG_VALUE: HAL_RCCEx_PeriphCLKConfig:PeriphClkInit <- $r4
	cmp.w	r0, #134217728
	bne	.LBB0_79
.Ltmp126:
@ %bb.78:
	@DEBUG_VALUE: HAL_RCCEx_PeriphCLKConfig:status <- $r8
	@DEBUG_VALUE: HAL_RCCEx_PeriphCLKConfig:PeriphClkInit <- $r4
	.loc	5 527 7                         @ c:/Keil_v5\ARM\PACK\Keil\STM32L5xx_DFP\1.3.0\Drivers\STM32L5xx_HAL_Driver\Src\stm32l5xx_hal_rcc_ex.c:527:7
	ldr	r0, [r7, #-124]
	orr	r0, r0, #1048576
	str	r0, [r7, #-124]
.Ltmp127:
.LBB0_79:
	@DEBUG_VALUE: HAL_RCCEx_PeriphCLKConfig:status <- $r8
	@DEBUG_VALUE: HAL_RCCEx_PeriphCLKConfig:PeriphClkInit <- $r4
	@DEBUG_VALUE: HAL_RCCEx_PeriphCLKConfig:status <- $r8
	.loc	5 548 7                         @ c:/Keil_v5\ARM\PACK\Keil\STM32L5xx_DFP\1.3.0\Drivers\STM32L5xx_HAL_Driver\Src\stm32l5xx_hal_rcc_ex.c:548:7
	lsls	r0, r1, #12
	bpl	.LBB0_89
.Ltmp128:
.LBB0_80:
	@DEBUG_VALUE: HAL_RCCEx_PeriphCLKConfig:status <- $r8
	@DEBUG_VALUE: HAL_RCCEx_PeriphCLKConfig:PeriphClkInit <- $r4
	.loc	5 554 5                         @ c:/Keil_v5\ARM\PACK\Keil\STM32L5xx_DFP\1.3.0\Drivers\STM32L5xx_HAL_Driver\Src\stm32l5xx_hal_rcc_ex.c:554:5
	ldr	r0, [r4, #120]
.Ltmp129:
	.loc	5 554 5 is_stmt 0               @ c:/Keil_v5\ARM\PACK\Keil\STM32L5xx_DFP\1.3.0\Drivers\STM32L5xx_HAL_Driver\Src\stm32l5xx_hal_rcc_ex.c:554:5
	cmp.w	r0, #16384
	bne	.LBB0_82
.Ltmp130:
@ %bb.81:
	@DEBUG_VALUE: HAL_RCCEx_PeriphCLKConfig:status <- $r8
	@DEBUG_VALUE: HAL_RCCEx_PeriphCLKConfig:PeriphClkInit <- $r4
	.loc	5 554 5                         @ c:/Keil_v5\ARM\PACK\Keil\STM32L5xx_DFP\1.3.0\Drivers\STM32L5xx_HAL_Driver\Src\stm32l5xx_hal_rcc_ex.c:554:5
	ldr	r0, [r7, #20]
	orr	r0, r0, #16384
	str	r0, [r7, #20]
.Ltmp131:
	.loc	5 575 7 is_stmt 1               @ c:/Keil_v5\ARM\PACK\Keil\STM32L5xx_DFP\1.3.0\Drivers\STM32L5xx_HAL_Driver\Src\stm32l5xx_hal_rcc_ex.c:575:7
	ldr	r0, [r7, #-124]
	orr	r0, r0, #65536
	b	.LBB0_88
.Ltmp132:
	.p2align	2
.LBB0_82:
	@DEBUG_VALUE: HAL_RCCEx_PeriphCLKConfig:status <- $r8
	@DEBUG_VALUE: HAL_RCCEx_PeriphCLKConfig:PeriphClkInit <- $r4
	.loc	5 554 5                         @ c:/Keil_v5\ARM\PACK\Keil\STM32L5xx_DFP\1.3.0\Drivers\STM32L5xx_HAL_Driver\Src\stm32l5xx_hal_rcc_ex.c:554:5
	ldr	r2, [r7]
.Ltmp133:
	.loc	5 556 9                         @ c:/Keil_v5\ARM\PACK\Keil\STM32L5xx_DFP\1.3.0\Drivers\STM32L5xx_HAL_Driver\Src\stm32l5xx_hal_rcc_ex.c:556:9
	cmp.w	r0, #134217728
.Ltmp134:
	.loc	5 554 5                         @ c:/Keil_v5\ARM\PACK\Keil\STM32L5xx_DFP\1.3.0\Drivers\STM32L5xx_HAL_Driver\Src\stm32l5xx_hal_rcc_ex.c:554:5
	bic	r2, r2, #201326592
	orr.w	r2, r2, r0
	str	r2, [r7]
	ldr	r2, [r7, #20]
	bic	r2, r2, #16384
	str	r2, [r7, #20]
.Ltmp135:
	.loc	5 556 9                         @ c:/Keil_v5\ARM\PACK\Keil\STM32L5xx_DFP\1.3.0\Drivers\STM32L5xx_HAL_Driver\Src\stm32l5xx_hal_rcc_ex.c:556:9
	beq	.LBB0_87
.Ltmp136:
@ %bb.83:
	@DEBUG_VALUE: HAL_RCCEx_PeriphCLKConfig:status <- $r8
	@DEBUG_VALUE: HAL_RCCEx_PeriphCLKConfig:PeriphClkInit <- $r4
	cmp.w	r0, #67108864
	bne	.LBB0_89
.Ltmp137:
@ %bb.84:
	@DEBUG_VALUE: HAL_RCCEx_PeriphCLKConfig:status <- $r8
	@DEBUG_VALUE: HAL_RCCEx_PeriphCLKConfig:PeriphClkInit <- $r4
	.loc	5 559 51                        @ c:/Keil_v5\ARM\PACK\Keil\STM32L5xx_DFP\1.3.0\Drivers\STM32L5xx_HAL_Driver\Src\stm32l5xx_hal_rcc_ex.c:559:51
	adds	r0, r4, #4
	.loc	5 559 13 is_stmt 0              @ c:/Keil_v5\ARM\PACK\Keil\STM32L5xx_DFP\1.3.0\Drivers\STM32L5xx_HAL_Driver\Src\stm32l5xx_hal_rcc_ex.c:559:13
	movs	r1, #1
	bl	RCCEx_PLLSAI1_Config
.Ltmp138:
	@DEBUG_VALUE: HAL_RCCEx_PeriphCLKConfig:ret <- $r0
	.loc	5 584 24 is_stmt 1              @ c:/Keil_v5\ARM\PACK\Keil\STM32L5xx_DFP\1.3.0\Drivers\STM32L5xx_HAL_Driver\Src\stm32l5xx_hal_rcc_ex.c:584:24
	ldr	r1, [r4]
.Ltmp139:
	.loc	5 561 11                        @ c:/Keil_v5\ARM\PACK\Keil\STM32L5xx_DFP\1.3.0\Drivers\STM32L5xx_HAL_Driver\Src\stm32l5xx_hal_rcc_ex.c:561:11
	cmp	r0, #0
	it	ne
	movne	r8, r0
.Ltmp140:
	@DEBUG_VALUE: HAL_RCCEx_PeriphCLKConfig:ret <- $r8
	.loc	5 0 11 is_stmt 0                @ c:/Keil_v5\ARM\PACK\Keil\STM32L5xx_DFP\1.3.0\Drivers\STM32L5xx_HAL_Driver\Src\stm32l5xx_hal_rcc_ex.c:0:11
	b	.LBB0_89
.Ltmp141:
	.p2align	2
.LBB0_85:
	@DEBUG_VALUE: HAL_RCCEx_PeriphCLKConfig:status <- $r8
	@DEBUG_VALUE: HAL_RCCEx_PeriphCLKConfig:PeriphClkInit <- $r4
	.loc	5 534 53 is_stmt 1              @ c:/Keil_v5\ARM\PACK\Keil\STM32L5xx_DFP\1.3.0\Drivers\STM32L5xx_HAL_Driver\Src\stm32l5xx_hal_rcc_ex.c:534:53
	adds	r0, r4, #4
	.loc	5 534 15 is_stmt 0              @ c:/Keil_v5\ARM\PACK\Keil\STM32L5xx_DFP\1.3.0\Drivers\STM32L5xx_HAL_Driver\Src\stm32l5xx_hal_rcc_ex.c:534:15
	movs	r1, #1
	bl	RCCEx_PLLSAI1_Config
.Ltmp142:
	@DEBUG_VALUE: HAL_RCCEx_PeriphCLKConfig:ret <- $r0
	.loc	5 548 24 is_stmt 1              @ c:/Keil_v5\ARM\PACK\Keil\STM32L5xx_DFP\1.3.0\Drivers\STM32L5xx_HAL_Driver\Src\stm32l5xx_hal_rcc_ex.c:548:24
	ldr	r1, [r4]
.Ltmp143:
	.loc	5 536 13                        @ c:/Keil_v5\ARM\PACK\Keil\STM32L5xx_DFP\1.3.0\Drivers\STM32L5xx_HAL_Driver\Src\stm32l5xx_hal_rcc_ex.c:536:13
	cmp	r0, #0
	it	ne
	movne	r8, r0
.Ltmp144:
	@DEBUG_VALUE: HAL_RCCEx_PeriphCLKConfig:ret <- $r8
	@DEBUG_VALUE: HAL_RCCEx_PeriphCLKConfig:status <- $r8
	.loc	5 548 7                         @ c:/Keil_v5\ARM\PACK\Keil\STM32L5xx_DFP\1.3.0\Drivers\STM32L5xx_HAL_Driver\Src\stm32l5xx_hal_rcc_ex.c:548:7
	lsls	r0, r1, #12
	bmi	.LBB0_80
	b	.LBB0_89
.Ltmp145:
	.p2align	2
.LBB0_86:
	@DEBUG_VALUE: HAL_RCCEx_PeriphCLKConfig:ret <- $r8
	@DEBUG_VALUE: HAL_RCCEx_PeriphCLKConfig:status <- $r5
	@DEBUG_VALUE: HAL_RCCEx_PeriphCLKConfig:PeriphClkInit <- $r4
	.loc	5 0 7 is_stmt 0                 @ c:/Keil_v5\ARM\PACK\Keil\STM32L5xx_DFP\1.3.0\Drivers\STM32L5xx_HAL_Driver\Src\stm32l5xx_hal_rcc_ex.c:0:7
	mov.w	r8, #1
.Ltmp146:
	@DEBUG_VALUE: HAL_RCCEx_PeriphCLKConfig:status <- $r8
	.loc	5 474 24 is_stmt 1              @ c:/Keil_v5\ARM\PACK\Keil\STM32L5xx_DFP\1.3.0\Drivers\STM32L5xx_HAL_Driver\Src\stm32l5xx_hal_rcc_ex.c:474:24
	ldr	r1, [r4]
.Ltmp147:
	.loc	5 474 7 is_stmt 0               @ c:/Keil_v5\ARM\PACK\Keil\STM32L5xx_DFP\1.3.0\Drivers\STM32L5xx_HAL_Driver\Src\stm32l5xx_hal_rcc_ex.c:474:7
	lsls	r0, r1, #25
	bpl.w	.LBB0_65
	b	.LBB0_72
.Ltmp148:
	.p2align	2
.LBB0_87:
	@DEBUG_VALUE: HAL_RCCEx_PeriphCLKConfig:status <- $r8
	@DEBUG_VALUE: HAL_RCCEx_PeriphCLKConfig:PeriphClkInit <- $r4
	.loc	5 570 7 is_stmt 1               @ c:/Keil_v5\ARM\PACK\Keil\STM32L5xx_DFP\1.3.0\Drivers\STM32L5xx_HAL_Driver\Src\stm32l5xx_hal_rcc_ex.c:570:7
	ldr	r0, [r7, #-124]
	orr	r0, r0, #1048576
.Ltmp149:
.LBB0_88:
	@DEBUG_VALUE: HAL_RCCEx_PeriphCLKConfig:status <- $r8
	@DEBUG_VALUE: HAL_RCCEx_PeriphCLKConfig:PeriphClkInit <- $r4
	.loc	5 0 0 is_stmt 0                 @ c:/Keil_v5\ARM\PACK\Keil\STM32L5xx_DFP\1.3.0\Drivers\STM32L5xx_HAL_Driver\Src\stm32l5xx_hal_rcc_ex.c:0:0
	str	r0, [r7, #-124]
.Ltmp150:
.LBB0_89:
	@DEBUG_VALUE: HAL_RCCEx_PeriphCLKConfig:PeriphClkInit <- $r4
	@DEBUG_VALUE: HAL_RCCEx_PeriphCLKConfig:status <- $r8
	.loc	5 584 7 is_stmt 1               @ c:/Keil_v5\ARM\PACK\Keil\STM32L5xx_DFP\1.3.0\Drivers\STM32L5xx_HAL_Driver\Src\stm32l5xx_hal_rcc_ex.c:584:7
	lsls	r0, r1, #13
	bpl	.LBB0_93
.Ltmp151:
@ %bb.90:
	@DEBUG_VALUE: HAL_RCCEx_PeriphCLKConfig:status <- $r8
	@DEBUG_VALUE: HAL_RCCEx_PeriphCLKConfig:PeriphClkInit <- $r4
	.loc	5 590 5                         @ c:/Keil_v5\ARM\PACK\Keil\STM32L5xx_DFP\1.3.0\Drivers\STM32L5xx_HAL_Driver\Src\stm32l5xx_hal_rcc_ex.c:590:5
	ldr	r2, [r7]
	ldr	r0, [r4, #124]
	bic	r2, r2, #201326592
	orrs	r2, r0
	.loc	5 592 9                         @ c:/Keil_v5\ARM\PACK\Keil\STM32L5xx_DFP\1.3.0\Drivers\STM32L5xx_HAL_Driver\Src\stm32l5xx_hal_rcc_ex.c:592:9
	cmp.w	r0, #67108864
	.loc	5 590 5                         @ c:/Keil_v5\ARM\PACK\Keil\STM32L5xx_DFP\1.3.0\Drivers\STM32L5xx_HAL_Driver\Src\stm32l5xx_hal_rcc_ex.c:590:5
	str	r2, [r7]
	.loc	5 592 9                         @ c:/Keil_v5\ARM\PACK\Keil\STM32L5xx_DFP\1.3.0\Drivers\STM32L5xx_HAL_Driver\Src\stm32l5xx_hal_rcc_ex.c:592:9
	beq	.LBB0_96
.Ltmp152:
@ %bb.91:
	@DEBUG_VALUE: HAL_RCCEx_PeriphCLKConfig:status <- $r8
	@DEBUG_VALUE: HAL_RCCEx_PeriphCLKConfig:PeriphClkInit <- $r4
	cmp.w	r0, #134217728
	bne	.LBB0_93
.Ltmp153:
@ %bb.92:
	@DEBUG_VALUE: HAL_RCCEx_PeriphCLKConfig:status <- $r8
	@DEBUG_VALUE: HAL_RCCEx_PeriphCLKConfig:PeriphClkInit <- $r4
	.loc	5 595 7                         @ c:/Keil_v5\ARM\PACK\Keil\STM32L5xx_DFP\1.3.0\Drivers\STM32L5xx_HAL_Driver\Src\stm32l5xx_hal_rcc_ex.c:595:7
	ldr	r0, [r7, #-124]
	orr	r0, r0, #1048576
	str	r0, [r7, #-124]
.Ltmp154:
.LBB0_93:
	@DEBUG_VALUE: HAL_RCCEx_PeriphCLKConfig:status <- $r8
	@DEBUG_VALUE: HAL_RCCEx_PeriphCLKConfig:PeriphClkInit <- $r4
	@DEBUG_VALUE: HAL_RCCEx_PeriphCLKConfig:status <- $r8
	.loc	5 615 7                         @ c:/Keil_v5\ARM\PACK\Keil\STM32L5xx_DFP\1.3.0\Drivers\STM32L5xx_HAL_Driver\Src\stm32l5xx_hal_rcc_ex.c:615:7
	lsls	r0, r1, #17
	bpl	.LBB0_97
.Ltmp155:
.LBB0_94:
	@DEBUG_VALUE: HAL_RCCEx_PeriphCLKConfig:status <- $r8
	@DEBUG_VALUE: HAL_RCCEx_PeriphCLKConfig:PeriphClkInit <- $r4
	.loc	5 621 5                         @ c:/Keil_v5\ARM\PACK\Keil\STM32L5xx_DFP\1.3.0\Drivers\STM32L5xx_HAL_Driver\Src\stm32l5xx_hal_rcc_ex.c:621:5
	ldr	r0, [r7]
	ldr.w	r2, [r4, #128]
	bic	r0, r0, #805306368
	orrs	r0, r2
	.loc	5 623 9                         @ c:/Keil_v5\ARM\PACK\Keil\STM32L5xx_DFP\1.3.0\Drivers\STM32L5xx_HAL_Driver\Src\stm32l5xx_hal_rcc_ex.c:623:9
	cmp.w	r2, #268435456
	.loc	5 621 5                         @ c:/Keil_v5\ARM\PACK\Keil\STM32L5xx_DFP\1.3.0\Drivers\STM32L5xx_HAL_Driver\Src\stm32l5xx_hal_rcc_ex.c:621:5
	str	r0, [r7]
	.loc	5 623 9                         @ c:/Keil_v5\ARM\PACK\Keil\STM32L5xx_DFP\1.3.0\Drivers\STM32L5xx_HAL_Driver\Src\stm32l5xx_hal_rcc_ex.c:623:9
	bne	.LBB0_97
.Ltmp156:
@ %bb.95:
	@DEBUG_VALUE: HAL_RCCEx_PeriphCLKConfig:status <- $r8
	@DEBUG_VALUE: HAL_RCCEx_PeriphCLKConfig:PeriphClkInit <- $r4
	.loc	5 626 51                        @ c:/Keil_v5\ARM\PACK\Keil\STM32L5xx_DFP\1.3.0\Drivers\STM32L5xx_HAL_Driver\Src\stm32l5xx_hal_rcc_ex.c:626:51
	adds	r0, r4, #4
	.loc	5 626 13 is_stmt 0              @ c:/Keil_v5\ARM\PACK\Keil\STM32L5xx_DFP\1.3.0\Drivers\STM32L5xx_HAL_Driver\Src\stm32l5xx_hal_rcc_ex.c:626:13
	movs	r1, #2
	bl	RCCEx_PLLSAI1_Config
.Ltmp157:
	@DEBUG_VALUE: HAL_RCCEx_PeriphCLKConfig:ret <- $r0
	.loc	5 637 24 is_stmt 1              @ c:/Keil_v5\ARM\PACK\Keil\STM32L5xx_DFP\1.3.0\Drivers\STM32L5xx_HAL_Driver\Src\stm32l5xx_hal_rcc_ex.c:637:24
	ldr	r1, [r4]
.Ltmp158:
	.loc	5 628 11                        @ c:/Keil_v5\ARM\PACK\Keil\STM32L5xx_DFP\1.3.0\Drivers\STM32L5xx_HAL_Driver\Src\stm32l5xx_hal_rcc_ex.c:628:11
	cmp	r0, #0
	it	ne
	movne	r8, r0
.Ltmp159:
	@DEBUG_VALUE: HAL_RCCEx_PeriphCLKConfig:ret <- $r8
	.loc	5 0 11 is_stmt 0                @ c:/Keil_v5\ARM\PACK\Keil\STM32L5xx_DFP\1.3.0\Drivers\STM32L5xx_HAL_Driver\Src\stm32l5xx_hal_rcc_ex.c:0:11
	b	.LBB0_97
.Ltmp160:
	.p2align	2
.LBB0_96:
	@DEBUG_VALUE: HAL_RCCEx_PeriphCLKConfig:status <- $r8
	@DEBUG_VALUE: HAL_RCCEx_PeriphCLKConfig:PeriphClkInit <- $r4
	.loc	5 600 51 is_stmt 1              @ c:/Keil_v5\ARM\PACK\Keil\STM32L5xx_DFP\1.3.0\Drivers\STM32L5xx_HAL_Driver\Src\stm32l5xx_hal_rcc_ex.c:600:51
	adds	r0, r4, #4
	.loc	5 600 13 is_stmt 0              @ c:/Keil_v5\ARM\PACK\Keil\STM32L5xx_DFP\1.3.0\Drivers\STM32L5xx_HAL_Driver\Src\stm32l5xx_hal_rcc_ex.c:600:13
	movs	r1, #1
	bl	RCCEx_PLLSAI1_Config
.Ltmp161:
	@DEBUG_VALUE: HAL_RCCEx_PeriphCLKConfig:ret <- $r0
	.loc	5 615 24 is_stmt 1              @ c:/Keil_v5\ARM\PACK\Keil\STM32L5xx_DFP\1.3.0\Drivers\STM32L5xx_HAL_Driver\Src\stm32l5xx_hal_rcc_ex.c:615:24
	ldr	r1, [r4]
.Ltmp162:
	.loc	5 602 11                        @ c:/Keil_v5\ARM\PACK\Keil\STM32L5xx_DFP\1.3.0\Drivers\STM32L5xx_HAL_Driver\Src\stm32l5xx_hal_rcc_ex.c:602:11
	cmp	r0, #0
	it	ne
	movne	r8, r0
.Ltmp163:
	@DEBUG_VALUE: HAL_RCCEx_PeriphCLKConfig:ret <- $r8
	@DEBUG_VALUE: HAL_RCCEx_PeriphCLKConfig:status <- $r8
	.loc	5 615 7                         @ c:/Keil_v5\ARM\PACK\Keil\STM32L5xx_DFP\1.3.0\Drivers\STM32L5xx_HAL_Driver\Src\stm32l5xx_hal_rcc_ex.c:615:7
	lsls	r0, r1, #17
	bmi	.LBB0_94
.Ltmp164:
.LBB0_97:
	@DEBUG_VALUE: HAL_RCCEx_PeriphCLKConfig:PeriphClkInit <- $r4
	@DEBUG_VALUE: HAL_RCCEx_PeriphCLKConfig:status <- $r8
	.loc	5 637 7                         @ c:/Keil_v5\ARM\PACK\Keil\STM32L5xx_DFP\1.3.0\Drivers\STM32L5xx_HAL_Driver\Src\stm32l5xx_hal_rcc_ex.c:637:7
	lsls	r0, r1, #15
	bmi	.LBB0_101
.Ltmp165:
@ %bb.98:
	@DEBUG_VALUE: HAL_RCCEx_PeriphCLKConfig:status <- $r8
	@DEBUG_VALUE: HAL_RCCEx_PeriphCLKConfig:PeriphClkInit <- $r4
	.loc	5 647 7                         @ c:/Keil_v5\ARM\PACK\Keil\STM32L5xx_DFP\1.3.0\Drivers\STM32L5xx_HAL_Driver\Src\stm32l5xx_hal_rcc_ex.c:647:7
	lsls	r0, r1, #10
	bmi	.LBB0_102
.Ltmp166:
.LBB0_99:
	@DEBUG_VALUE: HAL_RCCEx_PeriphCLKConfig:status <- $r8
	@DEBUG_VALUE: HAL_RCCEx_PeriphCLKConfig:PeriphClkInit <- $r4
	.loc	5 657 7                         @ c:/Keil_v5\ARM\PACK\Keil\STM32L5xx_DFP\1.3.0\Drivers\STM32L5xx_HAL_Driver\Src\stm32l5xx_hal_rcc_ex.c:657:7
	lsls	r0, r1, #7
	bmi	.LBB0_103
.Ltmp167:
.LBB0_100:
	@DEBUG_VALUE: HAL_RCCEx_PeriphCLKConfig:status <- $r8
	@DEBUG_VALUE: HAL_RCCEx_PeriphCLKConfig:PeriphClkInit <- $r4
	.loc	5 672 3                         @ c:/Keil_v5\ARM\PACK\Keil\STM32L5xx_DFP\1.3.0\Drivers\STM32L5xx_HAL_Driver\Src\stm32l5xx_hal_rcc_ex.c:672:3
	mov	r0, r8
	add	sp, #4
	pop.w	{r4, r5, r6, r7, r8, r9, r10, r11, pc}
.Ltmp168:
	.p2align	2
.LBB0_101:
	@DEBUG_VALUE: HAL_RCCEx_PeriphCLKConfig:status <- $r8
	@DEBUG_VALUE: HAL_RCCEx_PeriphCLKConfig:PeriphClkInit <- $r4
	.loc	5 643 5                         @ c:/Keil_v5\ARM\PACK\Keil\STM32L5xx_DFP\1.3.0\Drivers\STM32L5xx_HAL_Driver\Src\stm32l5xx_hal_rcc_ex.c:643:5
	ldr	r0, [r7, #20]
	ldr.w	r2, [r4, #132]
	bic	r0, r0, #4
	orrs	r0, r2
	str	r0, [r7, #20]
.Ltmp169:
	.loc	5 647 7                         @ c:/Keil_v5\ARM\PACK\Keil\STM32L5xx_DFP\1.3.0\Drivers\STM32L5xx_HAL_Driver\Src\stm32l5xx_hal_rcc_ex.c:647:7
	lsls	r0, r1, #10
	bpl	.LBB0_99
.Ltmp170:
.LBB0_102:
	@DEBUG_VALUE: HAL_RCCEx_PeriphCLKConfig:status <- $r8
	@DEBUG_VALUE: HAL_RCCEx_PeriphCLKConfig:PeriphClkInit <- $r4
	.loc	5 653 5                         @ c:/Keil_v5\ARM\PACK\Keil\STM32L5xx_DFP\1.3.0\Drivers\STM32L5xx_HAL_Driver\Src\stm32l5xx_hal_rcc_ex.c:653:5
	ldr	r0, [r7, #20]
	ldr.w	r2, [r4, #136]
	bic	r0, r0, #24
	orrs	r0, r2
	str	r0, [r7, #20]
.Ltmp171:
	.loc	5 657 7                         @ c:/Keil_v5\ARM\PACK\Keil\STM32L5xx_DFP\1.3.0\Drivers\STM32L5xx_HAL_Driver\Src\stm32l5xx_hal_rcc_ex.c:657:7
	lsls	r0, r1, #7
	bpl	.LBB0_100
.Ltmp172:
.LBB0_103:
	@DEBUG_VALUE: HAL_RCCEx_PeriphCLKConfig:status <- $r8
	@DEBUG_VALUE: HAL_RCCEx_PeriphCLKConfig:PeriphClkInit <- $r4
	.loc	5 663 5                         @ c:/Keil_v5\ARM\PACK\Keil\STM32L5xx_DFP\1.3.0\Drivers\STM32L5xx_HAL_Driver\Src\stm32l5xx_hal_rcc_ex.c:663:5
	ldr	r0, [r7, #20]
	ldr.w	r1, [r4, #140]
	bic	r0, r0, #3145728
	orrs	r0, r1
	.loc	5 665 9                         @ c:/Keil_v5\ARM\PACK\Keil\STM32L5xx_DFP\1.3.0\Drivers\STM32L5xx_HAL_Driver\Src\stm32l5xx_hal_rcc_ex.c:665:9
	cmp.w	r1, #2097152
	.loc	5 663 5                         @ c:/Keil_v5\ARM\PACK\Keil\STM32L5xx_DFP\1.3.0\Drivers\STM32L5xx_HAL_Driver\Src\stm32l5xx_hal_rcc_ex.c:663:5
	str	r0, [r7, #20]
	.loc	5 665 9                         @ c:/Keil_v5\ARM\PACK\Keil\STM32L5xx_DFP\1.3.0\Drivers\STM32L5xx_HAL_Driver\Src\stm32l5xx_hal_rcc_ex.c:665:9
	bne	.LBB0_100
.Ltmp173:
@ %bb.104:
	@DEBUG_VALUE: HAL_RCCEx_PeriphCLKConfig:status <- $r8
	@DEBUG_VALUE: HAL_RCCEx_PeriphCLKConfig:PeriphClkInit <- $r4
	.loc	5 668 7                         @ c:/Keil_v5\ARM\PACK\Keil\STM32L5xx_DFP\1.3.0\Drivers\STM32L5xx_HAL_Driver\Src\stm32l5xx_hal_rcc_ex.c:668:7
	ldr	r0, [r7, #-124]
	orr	r0, r0, #1048576
	str	r0, [r7, #-124]
.Ltmp174:
	.loc	5 672 3                         @ c:/Keil_v5\ARM\PACK\Keil\STM32L5xx_DFP\1.3.0\Drivers\STM32L5xx_HAL_Driver\Src\stm32l5xx_hal_rcc_ex.c:672:3
	mov	r0, r8
	add	sp, #4
	pop.w	{r4, r5, r6, r7, r8, r9, r10, r11, pc}
.Ltmp175:
	.p2align	2
.LBB0_105:
	@DEBUG_VALUE: HAL_RCCEx_PeriphCLKConfig:status <- $r9
	@DEBUG_VALUE: HAL_RCCEx_PeriphCLKConfig:ret <- $r8
	@DEBUG_VALUE: HAL_RCCEx_PeriphCLKConfig:tickstart <- $r6
	@DEBUG_VALUE: HAL_RCCEx_PeriphCLKConfig:PeriphClkInit <- $r4
	.loc	5 304 21                        @ c:/Keil_v5\ARM\PACK\Keil\STM32L5xx_DFP\1.3.0\Drivers\STM32L5xx_HAL_Driver\Src\stm32l5xx_hal_rcc_ex.c:304:21
	bl	HAL_GetTick
	mov	r6, r0
.Ltmp176:
	@DEBUG_VALUE: HAL_RCCEx_PeriphCLKConfig:tickstart <- $r6
	.loc	5 0 21 is_stmt 0                @ c:/Keil_v5\ARM\PACK\Keil\STM32L5xx_DFP\1.3.0\Drivers\STM32L5xx_HAL_Driver\Src\stm32l5xx_hal_rcc_ex.c:0:21
	movw	r11, #5000
	mov.w	r8, #3
.Ltmp177:
	movs	r5, #3
.Ltmp178:
	.p2align	2
.LBB0_106:                              @ =>This Inner Loop Header: Depth=1
	@DEBUG_VALUE: HAL_RCCEx_PeriphCLKConfig:status <- $r9
	@DEBUG_VALUE: HAL_RCCEx_PeriphCLKConfig:tickstart <- $r6
	@DEBUG_VALUE: HAL_RCCEx_PeriphCLKConfig:PeriphClkInit <- $r4
	.loc	5 307 16 is_stmt 1              @ c:/Keil_v5\ARM\PACK\Keil\STM32L5xx_DFP\1.3.0\Drivers\STM32L5xx_HAL_Driver\Src\stm32l5xx_hal_rcc_ex.c:307:16
	ldr	r0, [r7, #8]
	.loc	5 307 9 is_stmt 0               @ c:/Keil_v5\ARM\PACK\Keil\STM32L5xx_DFP\1.3.0\Drivers\STM32L5xx_HAL_Driver\Src\stm32l5xx_hal_rcc_ex.c:307:9
	lsls	r0, r0, #30
	bmi.w	.LBB0_37
.Ltmp179:
@ %bb.107:                              @   in Loop: Header=BB0_106 Depth=1
	@DEBUG_VALUE: HAL_RCCEx_PeriphCLKConfig:status <- $r9
	@DEBUG_VALUE: HAL_RCCEx_PeriphCLKConfig:tickstart <- $r6
	@DEBUG_VALUE: HAL_RCCEx_PeriphCLKConfig:PeriphClkInit <- $r4
	.loc	5 309 16 is_stmt 1              @ c:/Keil_v5\ARM\PACK\Keil\STM32L5xx_DFP\1.3.0\Drivers\STM32L5xx_HAL_Driver\Src\stm32l5xx_hal_rcc_ex.c:309:16
	bl	HAL_GetTick
	.loc	5 309 30 is_stmt 0              @ c:/Keil_v5\ARM\PACK\Keil\STM32L5xx_DFP\1.3.0\Drivers\STM32L5xx_HAL_Driver\Src\stm32l5xx_hal_rcc_ex.c:309:30
	subs	r0, r0, r6
.Ltmp180:
	.loc	5 309 15                        @ c:/Keil_v5\ARM\PACK\Keil\STM32L5xx_DFP\1.3.0\Drivers\STM32L5xx_HAL_Driver\Src\stm32l5xx_hal_rcc_ex.c:309:15
	cmp	r0, r11
	bls	.LBB0_106
	b	.LBB0_38
.Ltmp181:
.Lfunc_end0:
	.size	HAL_RCCEx_PeriphCLKConfig, .Lfunc_end0-HAL_RCCEx_PeriphCLKConfig
	.cfi_endproc
	.cantunwind
	.fnend
                                        @ -- End function
	.section	.text.RCCEx_PLLSAI1_Config,"ax",%progbits
	.p2align	2                               @ -- Begin function RCCEx_PLLSAI1_Config
	.type	RCCEx_PLLSAI1_Config,%function
	.code	16                              @ @RCCEx_PLLSAI1_Config
	.thumb_func
RCCEx_PLLSAI1_Config:
.Lfunc_begin1:
	.loc	5 2476 0 is_stmt 1              @ c:/Keil_v5\ARM\PACK\Keil\STM32L5xx_DFP\1.3.0\Drivers\STM32L5xx_HAL_Driver\Src\stm32l5xx_hal_rcc_ex.c:2476:0
	.fnstart
	.cfi_startproc
@ %bb.0:
	@DEBUG_VALUE: RCCEx_PLLSAI1_Config:pPllSai1 <- $r0
	@DEBUG_VALUE: RCCEx_PLLSAI1_Config:Divider <- $r1
	.save	{r4, r5, r6, r7, r8, lr}
	push.w	{r4, r5, r6, r7, r8, lr}
	.cfi_def_cfa_offset 24
	.cfi_offset lr, -4
	.cfi_offset r8, -8
	.cfi_offset r7, -12
	.cfi_offset r6, -16
	.cfi_offset r5, -20
	.cfi_offset r4, -24
	mov	r8, r0
.Ltmp182:
	@DEBUG_VALUE: RCCEx_PLLSAI1_Config:pPllSai1 <- $r8
	.loc	5 2488 21 prologue_end          @ c:/Keil_v5\ARM\PACK\Keil\STM32L5xx_DFP\1.3.0\Drivers\STM32L5xx_HAL_Driver\Src\stm32l5xx_hal_rcc_ex.c:2488:21
	ldr	r0, [r0]
	movw	r4, #4096
	.loc	5 2488 3 is_stmt 0              @ c:/Keil_v5\ARM\PACK\Keil\STM32L5xx_DFP\1.3.0\Drivers\STM32L5xx_HAL_Driver\Src\stm32l5xx_hal_rcc_ex.c:2488:3
	cmp	r0, #3
	mov	r5, r1
.Ltmp183:
	@DEBUG_VALUE: RCCEx_PLLSAI1_Config:Divider <- $r5
	@DEBUG_VALUE: RCCEx_PLLSAI1_Config:Divider <- $r5
	.loc	5 0 3                           @ c:/Keil_v5\ARM\PACK\Keil\STM32L5xx_DFP\1.3.0\Drivers\STM32L5xx_HAL_Driver\Src\stm32l5xx_hal_rcc_ex.c:0:3
	movt	r4, #16386
.Ltmp184:
	@DEBUG_VALUE: RCCEx_PLLSAI1_Config:status <- 0
	.loc	5 2488 3                        @ c:/Keil_v5\ARM\PACK\Keil\STM32L5xx_DFP\1.3.0\Drivers\STM32L5xx_HAL_Driver\Src\stm32l5xx_hal_rcc_ex.c:2488:3
	beq	.LBB1_5
.Ltmp185:
@ %bb.1:
	@DEBUG_VALUE: RCCEx_PLLSAI1_Config:pPllSai1 <- $r8
	@DEBUG_VALUE: RCCEx_PLLSAI1_Config:Divider <- $r5
	@DEBUG_VALUE: RCCEx_PLLSAI1_Config:status <- 0
	cmp	r0, #2
	beq	.LBB1_8
.Ltmp186:
@ %bb.2:
	@DEBUG_VALUE: RCCEx_PLLSAI1_Config:pPllSai1 <- $r8
	@DEBUG_VALUE: RCCEx_PLLSAI1_Config:Divider <- $r5
	@DEBUG_VALUE: RCCEx_PLLSAI1_Config:status <- 0
	cmp	r0, #1
	bne	.LBB1_7
.Ltmp187:
@ %bb.3:
	@DEBUG_VALUE: RCCEx_PLLSAI1_Config:pPllSai1 <- $r8
	@DEBUG_VALUE: RCCEx_PLLSAI1_Config:Divider <- $r5
	@DEBUG_VALUE: RCCEx_PLLSAI1_Config:status <- 0
	.loc	5 2491 11 is_stmt 1             @ c:/Keil_v5\ARM\PACK\Keil\STM32L5xx_DFP\1.3.0\Drivers\STM32L5xx_HAL_Driver\Src\stm32l5xx_hal_rcc_ex.c:2491:11
	ldr	r0, [r4]
	movs	r1, #1
	ands	r0, r0, #2
.Ltmp188:
	.loc	5 2491 11 is_stmt 0             @ c:/Keil_v5\ARM\PACK\Keil\STM32L5xx_DFP\1.3.0\Drivers\STM32L5xx_HAL_Driver\Src\stm32l5xx_hal_rcc_ex.c:2491:11
	eor.w	r6, r1, r0, lsr #1
.Ltmp189:
	@DEBUG_VALUE: RCCEx_PLLSAI1_Config:status <- undef
	.loc	5 2513 7 is_stmt 1              @ c:/Keil_v5\ARM\PACK\Keil\STM32L5xx_DFP\1.3.0\Drivers\STM32L5xx_HAL_Driver\Src\stm32l5xx_hal_rcc_ex.c:2513:7
	bne	.LBB1_9
.Ltmp190:
.LBB1_4:
	@DEBUG_VALUE: RCCEx_PLLSAI1_Config:pPllSai1 <- $r8
	@DEBUG_VALUE: RCCEx_PLLSAI1_Config:Divider <- $r5
	@DEBUG_VALUE: RCCEx_PLLSAI1_Config:status <- $r6
	.loc	5 2594 3                        @ c:/Keil_v5\ARM\PACK\Keil\STM32L5xx_DFP\1.3.0\Drivers\STM32L5xx_HAL_Driver\Src\stm32l5xx_hal_rcc_ex.c:2594:3
	mov	r0, r6
	pop.w	{r4, r5, r6, r7, r8, pc}
.Ltmp191:
	.p2align	2
.LBB1_5:
	@DEBUG_VALUE: RCCEx_PLLSAI1_Config:pPllSai1 <- $r8
	@DEBUG_VALUE: RCCEx_PLLSAI1_Config:Divider <- $r5
	@DEBUG_VALUE: RCCEx_PLLSAI1_Config:status <- 0
	.loc	5 2503 11                       @ c:/Keil_v5\ARM\PACK\Keil\STM32L5xx_DFP\1.3.0\Drivers\STM32L5xx_HAL_Driver\Src\stm32l5xx_hal_rcc_ex.c:2503:11
	ldr	r0, [r4]
.Ltmp192:
	@DEBUG_VALUE: RCCEx_PLLSAI1_Config:status <- undef
	.loc	5 2513 7                        @ c:/Keil_v5\ARM\PACK\Keil\STM32L5xx_DFP\1.3.0\Drivers\STM32L5xx_HAL_Driver\Src\stm32l5xx_hal_rcc_ex.c:2513:7
	tst.w	r0, #393216
	beq	.LBB1_7
.Ltmp193:
@ %bb.6:
	@DEBUG_VALUE: RCCEx_PLLSAI1_Config:pPllSai1 <- $r8
	@DEBUG_VALUE: RCCEx_PLLSAI1_Config:Divider <- $r5
	.loc	5 0 7 is_stmt 0                 @ c:/Keil_v5\ARM\PACK\Keil\STM32L5xx_DFP\1.3.0\Drivers\STM32L5xx_HAL_Driver\Src\stm32l5xx_hal_rcc_ex.c:0:7
	movs	r6, #0
	b	.LBB1_9
.Ltmp194:
	.p2align	2
.LBB1_7:
	@DEBUG_VALUE: RCCEx_PLLSAI1_Config:pPllSai1 <- $r8
	@DEBUG_VALUE: RCCEx_PLLSAI1_Config:Divider <- $r5
	movs	r6, #1
.Ltmp195:
	@DEBUG_VALUE: RCCEx_PLLSAI1_Config:status <- $r6
	.loc	5 2594 3 is_stmt 1              @ c:/Keil_v5\ARM\PACK\Keil\STM32L5xx_DFP\1.3.0\Drivers\STM32L5xx_HAL_Driver\Src\stm32l5xx_hal_rcc_ex.c:2594:3
	mov	r0, r6
	pop.w	{r4, r5, r6, r7, r8, pc}
.Ltmp196:
	.p2align	2
.LBB1_8:
	@DEBUG_VALUE: RCCEx_PLLSAI1_Config:pPllSai1 <- $r8
	@DEBUG_VALUE: RCCEx_PLLSAI1_Config:Divider <- $r5
	@DEBUG_VALUE: RCCEx_PLLSAI1_Config:status <- 0
	.loc	5 2497 11                       @ c:/Keil_v5\ARM\PACK\Keil\STM32L5xx_DFP\1.3.0\Drivers\STM32L5xx_HAL_Driver\Src\stm32l5xx_hal_rcc_ex.c:2497:11
	ldr	r0, [r4]
	movs	r1, #1
	ands	r0, r0, #1024
.Ltmp197:
	.loc	5 2497 11 is_stmt 0             @ c:/Keil_v5\ARM\PACK\Keil\STM32L5xx_DFP\1.3.0\Drivers\STM32L5xx_HAL_Driver\Src\stm32l5xx_hal_rcc_ex.c:2497:11
	eor.w	r6, r1, r0, lsr #10
.Ltmp198:
	@DEBUG_VALUE: RCCEx_PLLSAI1_Config:status <- undef
	.loc	5 2513 7 is_stmt 1              @ c:/Keil_v5\ARM\PACK\Keil\STM32L5xx_DFP\1.3.0\Drivers\STM32L5xx_HAL_Driver\Src\stm32l5xx_hal_rcc_ex.c:2513:7
	beq	.LBB1_4
.Ltmp199:
.LBB1_9:
	@DEBUG_VALUE: RCCEx_PLLSAI1_Config:pPllSai1 <- $r8
	@DEBUG_VALUE: RCCEx_PLLSAI1_Config:Divider <- $r5
	.loc	5 2516 5                        @ c:/Keil_v5\ARM\PACK\Keil\STM32L5xx_DFP\1.3.0\Drivers\STM32L5xx_HAL_Driver\Src\stm32l5xx_hal_rcc_ex.c:2516:5
	ldr	r0, [r4]
	bic	r0, r0, #67108864
	str	r0, [r4]
	.loc	5 2519 17                       @ c:/Keil_v5\ARM\PACK\Keil\STM32L5xx_DFP\1.3.0\Drivers\STM32L5xx_HAL_Driver\Src\stm32l5xx_hal_rcc_ex.c:2519:17
	bl	HAL_GetTick
	mov	r7, r0
.Ltmp200:
	@DEBUG_VALUE: RCCEx_PLLSAI1_Config:tickstart <- $r7
	.p2align	2
.LBB1_10:                               @ =>This Inner Loop Header: Depth=1
	@DEBUG_VALUE: RCCEx_PLLSAI1_Config:pPllSai1 <- $r8
	@DEBUG_VALUE: RCCEx_PLLSAI1_Config:tickstart <- $r7
	@DEBUG_VALUE: RCCEx_PLLSAI1_Config:Divider <- $r5
	.loc	5 2522 12                       @ c:/Keil_v5\ARM\PACK\Keil\STM32L5xx_DFP\1.3.0\Drivers\STM32L5xx_HAL_Driver\Src\stm32l5xx_hal_rcc_ex.c:2522:12
	ldr	r0, [r4]
	.loc	5 2522 5 is_stmt 0              @ c:/Keil_v5\ARM\PACK\Keil\STM32L5xx_DFP\1.3.0\Drivers\STM32L5xx_HAL_Driver\Src\stm32l5xx_hal_rcc_ex.c:2522:5
	lsls	r0, r0, #4
	bpl	.LBB1_13
.Ltmp201:
@ %bb.11:                               @   in Loop: Header=BB1_10 Depth=1
	@DEBUG_VALUE: RCCEx_PLLSAI1_Config:pPllSai1 <- $r8
	@DEBUG_VALUE: RCCEx_PLLSAI1_Config:tickstart <- $r7
	@DEBUG_VALUE: RCCEx_PLLSAI1_Config:Divider <- $r5
	.loc	5 2524 12 is_stmt 1             @ c:/Keil_v5\ARM\PACK\Keil\STM32L5xx_DFP\1.3.0\Drivers\STM32L5xx_HAL_Driver\Src\stm32l5xx_hal_rcc_ex.c:2524:12
	bl	HAL_GetTick
	.loc	5 2524 26 is_stmt 0             @ c:/Keil_v5\ARM\PACK\Keil\STM32L5xx_DFP\1.3.0\Drivers\STM32L5xx_HAL_Driver\Src\stm32l5xx_hal_rcc_ex.c:2524:26
	subs	r0, r0, r7
.Ltmp202:
	.loc	5 2524 11                       @ c:/Keil_v5\ARM\PACK\Keil\STM32L5xx_DFP\1.3.0\Drivers\STM32L5xx_HAL_Driver\Src\stm32l5xx_hal_rcc_ex.c:2524:11
	cmp	r0, #2
	bls	.LBB1_10
.Ltmp203:
.LBB1_12:
	@DEBUG_VALUE: RCCEx_PLLSAI1_Config:pPllSai1 <- $r8
	.loc	5 0 11                          @ c:/Keil_v5\ARM\PACK\Keil\STM32L5xx_DFP\1.3.0\Drivers\STM32L5xx_HAL_Driver\Src\stm32l5xx_hal_rcc_ex.c:0:11
	movs	r6, #3
.Ltmp204:
	@DEBUG_VALUE: RCCEx_PLLSAI1_Config:status <- $r6
	.loc	5 2594 3 is_stmt 1              @ c:/Keil_v5\ARM\PACK\Keil\STM32L5xx_DFP\1.3.0\Drivers\STM32L5xx_HAL_Driver\Src\stm32l5xx_hal_rcc_ex.c:2594:3
	mov	r0, r6
	pop.w	{r4, r5, r6, r7, r8, pc}
.Ltmp205:
	.p2align	2
.LBB1_13:
	@DEBUG_VALUE: RCCEx_PLLSAI1_Config:pPllSai1 <- $r8
	@DEBUG_VALUE: RCCEx_PLLSAI1_Config:tickstart <- $r7
	@DEBUG_VALUE: RCCEx_PLLSAI1_Config:Divider <- $r5
	@DEBUG_VALUE: RCCEx_PLLSAI1_Config:status <- $r6
	.loc	5 2531 9                        @ c:/Keil_v5\ARM\PACK\Keil\STM32L5xx_DFP\1.3.0\Drivers\STM32L5xx_HAL_Driver\Src\stm32l5xx_hal_rcc_ex.c:2531:9
	cmp	r6, #0
	bne	.LBB1_4
.Ltmp206:
@ %bb.14:
	@DEBUG_VALUE: RCCEx_PLLSAI1_Config:pPllSai1 <- $r8
	@DEBUG_VALUE: RCCEx_PLLSAI1_Config:tickstart <- $r7
	@DEBUG_VALUE: RCCEx_PLLSAI1_Config:status <- $r6
	@DEBUG_VALUE: RCCEx_PLLSAI1_Config:Divider <- $r5
	.loc	5 2533 11                       @ c:/Keil_v5\ARM\PACK\Keil\STM32L5xx_DFP\1.3.0\Drivers\STM32L5xx_HAL_Driver\Src\stm32l5xx_hal_rcc_ex.c:2533:11
	cmp	r5, #1
	beq	.LBB1_17
.Ltmp207:
@ %bb.15:
	@DEBUG_VALUE: RCCEx_PLLSAI1_Config:pPllSai1 <- $r8
	@DEBUG_VALUE: RCCEx_PLLSAI1_Config:tickstart <- $r7
	@DEBUG_VALUE: RCCEx_PLLSAI1_Config:status <- $r6
	@DEBUG_VALUE: RCCEx_PLLSAI1_Config:Divider <- $r5
	cbnz	r5, .LBB1_18
.Ltmp208:
@ %bb.16:
	@DEBUG_VALUE: RCCEx_PLLSAI1_Config:pPllSai1 <- $r8
	@DEBUG_VALUE: RCCEx_PLLSAI1_Config:tickstart <- $r7
	@DEBUG_VALUE: RCCEx_PLLSAI1_Config:status <- $r6
	@DEBUG_VALUE: RCCEx_PLLSAI1_Config:Divider <- $r5
	.loc	5 2538 9                        @ c:/Keil_v5\ARM\PACK\Keil\STM32L5xx_DFP\1.3.0\Drivers\STM32L5xx_HAL_Driver\Src\stm32l5xx_hal_rcc_ex.c:2538:9
	ldr	r0, [r4, #16]
	ldrd	r2, r3, [r8, #8]
	movw	r1, #32780
	movt	r1, #2047
	ands	r0, r1
	ldr.w	r1, [r8]
	orr.w	r2, r0, r2, lsl #8
	lsls	r0, r3, #27
	b	.LBB1_19
.Ltmp209:
	.p2align	2
.LBB1_17:
	@DEBUG_VALUE: RCCEx_PLLSAI1_Config:pPllSai1 <- $r8
	@DEBUG_VALUE: RCCEx_PLLSAI1_Config:tickstart <- $r7
	@DEBUG_VALUE: RCCEx_PLLSAI1_Config:status <- $r6
	@DEBUG_VALUE: RCCEx_PLLSAI1_Config:Divider <- $r5
	.loc	5 0 9 is_stmt 0                 @ c:/Keil_v5\ARM\PACK\Keil\STM32L5xx_DFP\1.3.0\Drivers\STM32L5xx_HAL_Driver\Src\stm32l5xx_hal_rcc_ex.c:0:9
	movw	r1, #32780
.Ltmp210:
	.loc	5 2550 9 is_stmt 1              @ c:/Keil_v5\ARM\PACK\Keil\STM32L5xx_DFP\1.3.0\Drivers\STM32L5xx_HAL_Driver\Src\stm32l5xx_hal_rcc_ex.c:2550:9
	ldr	r0, [r4, #16]
	movt	r1, #63999
	add.w	r1, r1, #94371840
	and.w	r2, r0, r1
	ldr.w	r1, [r8, #16]
	movs	r7, #0
.Ltmp211:
	.loc	5 0 9 is_stmt 0                 @ c:/Keil_v5\ARM\PACK\Keil\STM32L5xx_DFP\1.3.0\Drivers\STM32L5xx_HAL_Driver\Src\stm32l5xx_hal_rcc_ex.c:0:9
	movt	r7, #65504
	.loc	5 2550 9                        @ c:/Keil_v5\ARM\PACK\Keil\STM32L5xx_DFP\1.3.0\Drivers\STM32L5xx_HAL_Driver\Src\stm32l5xx_hal_rcc_ex.c:2550:9
	ldr.w	r3, [r8, #8]
	add.w	r1, r7, r1, lsl #20
	ldr.w	r0, [r8]
	orr.w	r2, r2, r3, lsl #8
	bfc	r1, #0, #21
	b	.LBB1_19
.Ltmp212:
	.p2align	2
.LBB1_18:
	@DEBUG_VALUE: RCCEx_PLLSAI1_Config:pPllSai1 <- $r8
	@DEBUG_VALUE: RCCEx_PLLSAI1_Config:tickstart <- $r7
	@DEBUG_VALUE: RCCEx_PLLSAI1_Config:status <- $r6
	@DEBUG_VALUE: RCCEx_PLLSAI1_Config:Divider <- $r5
	.loc	5 2562 9 is_stmt 1              @ c:/Keil_v5\ARM\PACK\Keil\STM32L5xx_DFP\1.3.0\Drivers\STM32L5xx_HAL_Driver\Src\stm32l5xx_hal_rcc_ex.c:2562:9
	ldr	r0, [r4, #16]
	movw	r1, #32780
	ldr.w	r3, [r8, #20]
	movt	r1, #63999
	ldr.w	r2, [r8, #8]
	mov.w	r7, #-33554432
.Ltmp213:
	ands	r1, r0
	add.w	r3, r7, r3, lsl #24
	ldr.w	r0, [r8]
	orr.w	r2, r1, r2, lsl #8
	and	r1, r3, #-33554432
.Ltmp214:
.LBB1_19:
	@DEBUG_VALUE: RCCEx_PLLSAI1_Config:pPllSai1 <- $r8
	@DEBUG_VALUE: RCCEx_PLLSAI1_Config:status <- $r6
	@DEBUG_VALUE: RCCEx_PLLSAI1_Config:Divider <- $r5
	.loc	5 0 0 is_stmt 0                 @ c:/Keil_v5\ARM\PACK\Keil\STM32L5xx_DFP\1.3.0\Drivers\STM32L5xx_HAL_Driver\Src\stm32l5xx_hal_rcc_ex.c:0:0
	ldr.w	r3, [r8, #4]
	mvn	r7, #15
	add.w	r3, r7, r3, lsl #4
	orrs	r0, r2
	orrs	r0, r1
	orrs	r0, r3
	str	r0, [r4, #16]
.Ltmp215:
	.loc	5 2571 7 is_stmt 1              @ c:/Keil_v5\ARM\PACK\Keil\STM32L5xx_DFP\1.3.0\Drivers\STM32L5xx_HAL_Driver\Src\stm32l5xx_hal_rcc_ex.c:2571:7
	ldr	r0, [r4]
	orr	r0, r0, #67108864
	str	r0, [r4]
	.loc	5 2574 19                       @ c:/Keil_v5\ARM\PACK\Keil\STM32L5xx_DFP\1.3.0\Drivers\STM32L5xx_HAL_Driver\Src\stm32l5xx_hal_rcc_ex.c:2574:19
	bl	HAL_GetTick
	mov	r5, r0
.Ltmp216:
	@DEBUG_VALUE: RCCEx_PLLSAI1_Config:Divider <- [DW_OP_LLVM_entry_value 1] $r1
	@DEBUG_VALUE: RCCEx_PLLSAI1_Config:tickstart <- $r5
	.p2align	2
.LBB1_20:                               @ =>This Inner Loop Header: Depth=1
	@DEBUG_VALUE: RCCEx_PLLSAI1_Config:pPllSai1 <- $r8
	@DEBUG_VALUE: RCCEx_PLLSAI1_Config:status <- $r6
	@DEBUG_VALUE: RCCEx_PLLSAI1_Config:tickstart <- $r5
	@DEBUG_VALUE: RCCEx_PLLSAI1_Config:Divider <- [DW_OP_LLVM_entry_value 1] $r1
	.loc	5 2577 14                       @ c:/Keil_v5\ARM\PACK\Keil\STM32L5xx_DFP\1.3.0\Drivers\STM32L5xx_HAL_Driver\Src\stm32l5xx_hal_rcc_ex.c:2577:14
	ldr	r0, [r4]
	.loc	5 2577 7 is_stmt 0              @ c:/Keil_v5\ARM\PACK\Keil\STM32L5xx_DFP\1.3.0\Drivers\STM32L5xx_HAL_Driver\Src\stm32l5xx_hal_rcc_ex.c:2577:7
	lsls	r0, r0, #4
	bmi	.LBB1_22
.Ltmp217:
@ %bb.21:                               @   in Loop: Header=BB1_20 Depth=1
	@DEBUG_VALUE: RCCEx_PLLSAI1_Config:pPllSai1 <- $r8
	@DEBUG_VALUE: RCCEx_PLLSAI1_Config:status <- $r6
	@DEBUG_VALUE: RCCEx_PLLSAI1_Config:tickstart <- $r5
	@DEBUG_VALUE: RCCEx_PLLSAI1_Config:Divider <- [DW_OP_LLVM_entry_value 1] $r1
	.loc	5 2579 14 is_stmt 1             @ c:/Keil_v5\ARM\PACK\Keil\STM32L5xx_DFP\1.3.0\Drivers\STM32L5xx_HAL_Driver\Src\stm32l5xx_hal_rcc_ex.c:2579:14
	bl	HAL_GetTick
	.loc	5 2579 28 is_stmt 0             @ c:/Keil_v5\ARM\PACK\Keil\STM32L5xx_DFP\1.3.0\Drivers\STM32L5xx_HAL_Driver\Src\stm32l5xx_hal_rcc_ex.c:2579:28
	subs	r0, r0, r5
.Ltmp218:
	.loc	5 2579 13                       @ c:/Keil_v5\ARM\PACK\Keil\STM32L5xx_DFP\1.3.0\Drivers\STM32L5xx_HAL_Driver\Src\stm32l5xx_hal_rcc_ex.c:2579:13
	cmp	r0, #2
	bls	.LBB1_20
	b	.LBB1_12
.Ltmp219:
	.p2align	2
.LBB1_22:
	@DEBUG_VALUE: RCCEx_PLLSAI1_Config:pPllSai1 <- $r8
	@DEBUG_VALUE: RCCEx_PLLSAI1_Config:status <- $r6
	@DEBUG_VALUE: RCCEx_PLLSAI1_Config:tickstart <- $r5
	@DEBUG_VALUE: RCCEx_PLLSAI1_Config:Divider <- [DW_OP_LLVM_entry_value 1] $r1
	@DEBUG_VALUE: RCCEx_PLLSAI1_Config:status <- undef
	.loc	5 2589 9 is_stmt 1              @ c:/Keil_v5\ARM\PACK\Keil\STM32L5xx_DFP\1.3.0\Drivers\STM32L5xx_HAL_Driver\Src\stm32l5xx_hal_rcc_ex.c:2589:9
	ldr.w	r0, [r8, #24]
	ldr	r1, [r4, #16]
	movs	r6, #0
	orrs	r0, r1
	str	r0, [r4, #16]
.Ltmp220:
	@DEBUG_VALUE: RCCEx_PLLSAI1_Config:status <- $r6
	.loc	5 2594 3                        @ c:/Keil_v5\ARM\PACK\Keil\STM32L5xx_DFP\1.3.0\Drivers\STM32L5xx_HAL_Driver\Src\stm32l5xx_hal_rcc_ex.c:2594:3
	mov	r0, r6
	pop.w	{r4, r5, r6, r7, r8, pc}
.Ltmp221:
.Lfunc_end1:
	.size	RCCEx_PLLSAI1_Config, .Lfunc_end1-RCCEx_PLLSAI1_Config
	.cfi_endproc
	.cantunwind
	.fnend
                                        @ -- End function
	.section	.text.RCCEx_PLLSAI2_Config,"ax",%progbits
	.p2align	2                               @ -- Begin function RCCEx_PLLSAI2_Config
	.type	RCCEx_PLLSAI2_Config,%function
	.code	16                              @ @RCCEx_PLLSAI2_Config
	.thumb_func
RCCEx_PLLSAI2_Config:
.Lfunc_begin2:
	.loc	5 2608 0                        @ c:/Keil_v5\ARM\PACK\Keil\STM32L5xx_DFP\1.3.0\Drivers\STM32L5xx_HAL_Driver\Src\stm32l5xx_hal_rcc_ex.c:2608:0
	.fnstart
	.cfi_startproc
@ %bb.0:
	@DEBUG_VALUE: RCCEx_PLLSAI2_Config:pPllSai2 <- $r0
	.save	{r4, r5, r6, r7, lr}
	push	{r4, r5, r6, r7, lr}
	.cfi_def_cfa_offset 20
	.cfi_offset lr, -4
	.cfi_offset r7, -8
	.cfi_offset r6, -12
	.cfi_offset r5, -16
	.cfi_offset r4, -20
	.pad	#4
	sub	sp, #4
	.cfi_def_cfa_offset 24
	mov	r4, r0
.Ltmp222:
	@DEBUG_VALUE: RCCEx_PLLSAI2_Config:pPllSai2 <- $r4
	.loc	5 2620 21 prologue_end          @ c:/Keil_v5\ARM\PACK\Keil\STM32L5xx_DFP\1.3.0\Drivers\STM32L5xx_HAL_Driver\Src\stm32l5xx_hal_rcc_ex.c:2620:21
	ldr	r0, [r0]
	movw	r7, #4096
	.loc	5 2620 3 is_stmt 0              @ c:/Keil_v5\ARM\PACK\Keil\STM32L5xx_DFP\1.3.0\Drivers\STM32L5xx_HAL_Driver\Src\stm32l5xx_hal_rcc_ex.c:2620:3
	cmp	r0, #3
	movt	r7, #16386
.Ltmp223:
	@DEBUG_VALUE: RCCEx_PLLSAI2_Config:status <- 0
	@DEBUG_VALUE: RCCEx_PLLSAI2_Config:Divider <- 0
	beq	.LBB2_4
.Ltmp224:
@ %bb.1:
	@DEBUG_VALUE: RCCEx_PLLSAI2_Config:pPllSai2 <- $r4
	@DEBUG_VALUE: RCCEx_PLLSAI2_Config:Divider <- 0
	@DEBUG_VALUE: RCCEx_PLLSAI2_Config:status <- 0
	cmp	r0, #2
	beq	.LBB2_7
.Ltmp225:
@ %bb.2:
	@DEBUG_VALUE: RCCEx_PLLSAI2_Config:pPllSai2 <- $r4
	@DEBUG_VALUE: RCCEx_PLLSAI2_Config:Divider <- 0
	@DEBUG_VALUE: RCCEx_PLLSAI2_Config:status <- 0
	cmp	r0, #1
	bne	.LBB2_6
.Ltmp226:
@ %bb.3:
	@DEBUG_VALUE: RCCEx_PLLSAI2_Config:pPllSai2 <- $r4
	@DEBUG_VALUE: RCCEx_PLLSAI2_Config:Divider <- 0
	@DEBUG_VALUE: RCCEx_PLLSAI2_Config:status <- 0
	.loc	5 2623 11 is_stmt 1             @ c:/Keil_v5\ARM\PACK\Keil\STM32L5xx_DFP\1.3.0\Drivers\STM32L5xx_HAL_Driver\Src\stm32l5xx_hal_rcc_ex.c:2623:11
	ldr	r0, [r7]
	movs	r1, #1
	ands	r0, r0, #2
.Ltmp227:
	.loc	5 2623 11 is_stmt 0             @ c:/Keil_v5\ARM\PACK\Keil\STM32L5xx_DFP\1.3.0\Drivers\STM32L5xx_HAL_Driver\Src\stm32l5xx_hal_rcc_ex.c:2623:11
	eor.w	r5, r1, r0, lsr #1
.Ltmp228:
	@DEBUG_VALUE: RCCEx_PLLSAI2_Config:status <- undef
	.loc	5 2645 7 is_stmt 1              @ c:/Keil_v5\ARM\PACK\Keil\STM32L5xx_DFP\1.3.0\Drivers\STM32L5xx_HAL_Driver\Src\stm32l5xx_hal_rcc_ex.c:2645:7
	bne	.LBB2_8
	b	.LBB2_13
.Ltmp229:
	.p2align	2
.LBB2_4:
	@DEBUG_VALUE: RCCEx_PLLSAI2_Config:pPllSai2 <- $r4
	@DEBUG_VALUE: RCCEx_PLLSAI2_Config:Divider <- 0
	@DEBUG_VALUE: RCCEx_PLLSAI2_Config:status <- 0
	.loc	5 2635 11                       @ c:/Keil_v5\ARM\PACK\Keil\STM32L5xx_DFP\1.3.0\Drivers\STM32L5xx_HAL_Driver\Src\stm32l5xx_hal_rcc_ex.c:2635:11
	ldr	r0, [r7]
.Ltmp230:
	@DEBUG_VALUE: RCCEx_PLLSAI2_Config:status <- undef
	.loc	5 2645 7                        @ c:/Keil_v5\ARM\PACK\Keil\STM32L5xx_DFP\1.3.0\Drivers\STM32L5xx_HAL_Driver\Src\stm32l5xx_hal_rcc_ex.c:2645:7
	tst.w	r0, #393216
	beq	.LBB2_6
.Ltmp231:
@ %bb.5:
	@DEBUG_VALUE: RCCEx_PLLSAI2_Config:pPllSai2 <- $r4
	@DEBUG_VALUE: RCCEx_PLLSAI2_Config:Divider <- 0
	.loc	5 0 7 is_stmt 0                 @ c:/Keil_v5\ARM\PACK\Keil\STM32L5xx_DFP\1.3.0\Drivers\STM32L5xx_HAL_Driver\Src\stm32l5xx_hal_rcc_ex.c:0:7
	movs	r5, #0
	b	.LBB2_8
.Ltmp232:
	.p2align	2
.LBB2_6:
	@DEBUG_VALUE: RCCEx_PLLSAI2_Config:pPllSai2 <- $r4
	@DEBUG_VALUE: RCCEx_PLLSAI2_Config:Divider <- 0
	movs	r5, #1
.Ltmp233:
	@DEBUG_VALUE: RCCEx_PLLSAI2_Config:status <- $r5
	.loc	5 2703 3 is_stmt 1              @ c:/Keil_v5\ARM\PACK\Keil\STM32L5xx_DFP\1.3.0\Drivers\STM32L5xx_HAL_Driver\Src\stm32l5xx_hal_rcc_ex.c:2703:3
	mov	r0, r5
	add	sp, #4
	pop	{r4, r5, r6, r7, pc}
.Ltmp234:
	.p2align	2
.LBB2_7:
	@DEBUG_VALUE: RCCEx_PLLSAI2_Config:pPllSai2 <- $r4
	@DEBUG_VALUE: RCCEx_PLLSAI2_Config:Divider <- 0
	@DEBUG_VALUE: RCCEx_PLLSAI2_Config:status <- 0
	.loc	5 2629 11                       @ c:/Keil_v5\ARM\PACK\Keil\STM32L5xx_DFP\1.3.0\Drivers\STM32L5xx_HAL_Driver\Src\stm32l5xx_hal_rcc_ex.c:2629:11
	ldr	r0, [r7]
	movs	r1, #1
	ands	r0, r0, #1024
.Ltmp235:
	.loc	5 2629 11 is_stmt 0             @ c:/Keil_v5\ARM\PACK\Keil\STM32L5xx_DFP\1.3.0\Drivers\STM32L5xx_HAL_Driver\Src\stm32l5xx_hal_rcc_ex.c:2629:11
	eor.w	r5, r1, r0, lsr #10
.Ltmp236:
	@DEBUG_VALUE: RCCEx_PLLSAI2_Config:status <- undef
	.loc	5 2645 7 is_stmt 1              @ c:/Keil_v5\ARM\PACK\Keil\STM32L5xx_DFP\1.3.0\Drivers\STM32L5xx_HAL_Driver\Src\stm32l5xx_hal_rcc_ex.c:2645:7
	beq	.LBB2_13
.Ltmp237:
.LBB2_8:
	@DEBUG_VALUE: RCCEx_PLLSAI2_Config:pPllSai2 <- $r4
	@DEBUG_VALUE: RCCEx_PLLSAI2_Config:Divider <- 0
	.loc	5 2648 5                        @ c:/Keil_v5\ARM\PACK\Keil\STM32L5xx_DFP\1.3.0\Drivers\STM32L5xx_HAL_Driver\Src\stm32l5xx_hal_rcc_ex.c:2648:5
	ldr	r0, [r7]
	bic	r0, r0, #268435456
	str	r0, [r7]
	.loc	5 2651 17                       @ c:/Keil_v5\ARM\PACK\Keil\STM32L5xx_DFP\1.3.0\Drivers\STM32L5xx_HAL_Driver\Src\stm32l5xx_hal_rcc_ex.c:2651:17
	bl	HAL_GetTick
	mov	r6, r0
.Ltmp238:
	@DEBUG_VALUE: RCCEx_PLLSAI2_Config:tickstart <- $r6
	.p2align	2
.LBB2_9:                                @ =>This Inner Loop Header: Depth=1
	@DEBUG_VALUE: RCCEx_PLLSAI2_Config:tickstart <- $r6
	@DEBUG_VALUE: RCCEx_PLLSAI2_Config:pPllSai2 <- $r4
	@DEBUG_VALUE: RCCEx_PLLSAI2_Config:Divider <- 0
	.loc	5 2654 12                       @ c:/Keil_v5\ARM\PACK\Keil\STM32L5xx_DFP\1.3.0\Drivers\STM32L5xx_HAL_Driver\Src\stm32l5xx_hal_rcc_ex.c:2654:12
	ldr	r0, [r7]
	.loc	5 2654 5 is_stmt 0              @ c:/Keil_v5\ARM\PACK\Keil\STM32L5xx_DFP\1.3.0\Drivers\STM32L5xx_HAL_Driver\Src\stm32l5xx_hal_rcc_ex.c:2654:5
	lsls	r0, r0, #2
	bpl	.LBB2_12
.Ltmp239:
@ %bb.10:                               @   in Loop: Header=BB2_9 Depth=1
	@DEBUG_VALUE: RCCEx_PLLSAI2_Config:tickstart <- $r6
	@DEBUG_VALUE: RCCEx_PLLSAI2_Config:pPllSai2 <- $r4
	@DEBUG_VALUE: RCCEx_PLLSAI2_Config:Divider <- 0
	.loc	5 2656 12 is_stmt 1             @ c:/Keil_v5\ARM\PACK\Keil\STM32L5xx_DFP\1.3.0\Drivers\STM32L5xx_HAL_Driver\Src\stm32l5xx_hal_rcc_ex.c:2656:12
	bl	HAL_GetTick
	.loc	5 2656 26 is_stmt 0             @ c:/Keil_v5\ARM\PACK\Keil\STM32L5xx_DFP\1.3.0\Drivers\STM32L5xx_HAL_Driver\Src\stm32l5xx_hal_rcc_ex.c:2656:26
	subs	r0, r0, r6
.Ltmp240:
	.loc	5 2656 11                       @ c:/Keil_v5\ARM\PACK\Keil\STM32L5xx_DFP\1.3.0\Drivers\STM32L5xx_HAL_Driver\Src\stm32l5xx_hal_rcc_ex.c:2656:11
	cmp	r0, #2
	bls	.LBB2_9
.Ltmp241:
@ %bb.11:
	@DEBUG_VALUE: RCCEx_PLLSAI2_Config:tickstart <- $r6
	@DEBUG_VALUE: RCCEx_PLLSAI2_Config:pPllSai2 <- $r4
	@DEBUG_VALUE: RCCEx_PLLSAI2_Config:Divider <- 0
	.loc	5 0 11                          @ c:/Keil_v5\ARM\PACK\Keil\STM32L5xx_DFP\1.3.0\Drivers\STM32L5xx_HAL_Driver\Src\stm32l5xx_hal_rcc_ex.c:0:11
	movs	r5, #3
.Ltmp242:
	@DEBUG_VALUE: RCCEx_PLLSAI2_Config:status <- $r5
	.loc	5 2703 3 is_stmt 1              @ c:/Keil_v5\ARM\PACK\Keil\STM32L5xx_DFP\1.3.0\Drivers\STM32L5xx_HAL_Driver\Src\stm32l5xx_hal_rcc_ex.c:2703:3
	mov	r0, r5
	add	sp, #4
	pop	{r4, r5, r6, r7, pc}
.Ltmp243:
	.p2align	2
.LBB2_12:
	@DEBUG_VALUE: RCCEx_PLLSAI2_Config:tickstart <- $r6
	@DEBUG_VALUE: RCCEx_PLLSAI2_Config:pPllSai2 <- $r4
	@DEBUG_VALUE: RCCEx_PLLSAI2_Config:Divider <- 0
	@DEBUG_VALUE: RCCEx_PLLSAI2_Config:status <- $r5
	.loc	5 2663 9                        @ c:/Keil_v5\ARM\PACK\Keil\STM32L5xx_DFP\1.3.0\Drivers\STM32L5xx_HAL_Driver\Src\stm32l5xx_hal_rcc_ex.c:2663:9
	cbz	r5, .LBB2_14
.Ltmp244:
.LBB2_13:
	@DEBUG_VALUE: RCCEx_PLLSAI2_Config:pPllSai2 <- $r4
	@DEBUG_VALUE: RCCEx_PLLSAI2_Config:Divider <- 0
	@DEBUG_VALUE: RCCEx_PLLSAI2_Config:status <- $r5
	.loc	5 2703 3                        @ c:/Keil_v5\ARM\PACK\Keil\STM32L5xx_DFP\1.3.0\Drivers\STM32L5xx_HAL_Driver\Src\stm32l5xx_hal_rcc_ex.c:2703:3
	mov	r0, r5
	add	sp, #4
	pop	{r4, r5, r6, r7, pc}
.Ltmp245:
	.p2align	2
.LBB2_14:
	@DEBUG_VALUE: RCCEx_PLLSAI2_Config:tickstart <- $r6
	@DEBUG_VALUE: RCCEx_PLLSAI2_Config:status <- $r5
	@DEBUG_VALUE: RCCEx_PLLSAI2_Config:pPllSai2 <- $r4
	@DEBUG_VALUE: RCCEx_PLLSAI2_Config:Divider <- 0
	.loc	5 2670 9                        @ c:/Keil_v5\ARM\PACK\Keil\STM32L5xx_DFP\1.3.0\Drivers\STM32L5xx_HAL_Driver\Src\stm32l5xx_hal_rcc_ex.c:2670:9
	ldr	r0, [r7, #20]
	movw	r1, #32780
	movt	r1, #2047
	ands	r0, r1
	ldm.w	r4, {r1, r2, r3, r6}
.Ltmp246:
	orr.w	r0, r0, r3, lsl #8
	mvn	r3, #15
	orr.w	r0, r0, r6, lsl #27
	add.w	r2, r3, r2, lsl #4
	orrs	r0, r1
	orrs	r0, r2
	str	r0, [r7, #20]
.Ltmp247:
	.loc	5 2680 7                        @ c:/Keil_v5\ARM\PACK\Keil\STM32L5xx_DFP\1.3.0\Drivers\STM32L5xx_HAL_Driver\Src\stm32l5xx_hal_rcc_ex.c:2680:7
	ldr	r0, [r7]
	orr	r0, r0, #268435456
	str	r0, [r7]
	.loc	5 2683 19                       @ c:/Keil_v5\ARM\PACK\Keil\STM32L5xx_DFP\1.3.0\Drivers\STM32L5xx_HAL_Driver\Src\stm32l5xx_hal_rcc_ex.c:2683:19
	bl	HAL_GetTick
	mov	r5, r0
.Ltmp248:
	@DEBUG_VALUE: RCCEx_PLLSAI2_Config:tickstart <- $r5
	.p2align	2
.LBB2_15:                               @ =>This Inner Loop Header: Depth=1
	@DEBUG_VALUE: RCCEx_PLLSAI2_Config:tickstart <- $r5
	@DEBUG_VALUE: RCCEx_PLLSAI2_Config:pPllSai2 <- $r4
	@DEBUG_VALUE: RCCEx_PLLSAI2_Config:Divider <- 0
	.loc	5 2686 14                       @ c:/Keil_v5\ARM\PACK\Keil\STM32L5xx_DFP\1.3.0\Drivers\STM32L5xx_HAL_Driver\Src\stm32l5xx_hal_rcc_ex.c:2686:14
	ldr	r0, [r7]
	.loc	5 2686 7 is_stmt 0              @ c:/Keil_v5\ARM\PACK\Keil\STM32L5xx_DFP\1.3.0\Drivers\STM32L5xx_HAL_Driver\Src\stm32l5xx_hal_rcc_ex.c:2686:7
	lsls	r0, r0, #2
	bmi	.LBB2_18
.Ltmp249:
@ %bb.16:                               @   in Loop: Header=BB2_15 Depth=1
	@DEBUG_VALUE: RCCEx_PLLSAI2_Config:tickstart <- $r5
	@DEBUG_VALUE: RCCEx_PLLSAI2_Config:pPllSai2 <- $r4
	@DEBUG_VALUE: RCCEx_PLLSAI2_Config:Divider <- 0
	.loc	5 2688 14 is_stmt 1             @ c:/Keil_v5\ARM\PACK\Keil\STM32L5xx_DFP\1.3.0\Drivers\STM32L5xx_HAL_Driver\Src\stm32l5xx_hal_rcc_ex.c:2688:14
	bl	HAL_GetTick
	.loc	5 2688 28 is_stmt 0             @ c:/Keil_v5\ARM\PACK\Keil\STM32L5xx_DFP\1.3.0\Drivers\STM32L5xx_HAL_Driver\Src\stm32l5xx_hal_rcc_ex.c:2688:28
	subs	r0, r0, r5
.Ltmp250:
	.loc	5 2688 13                       @ c:/Keil_v5\ARM\PACK\Keil\STM32L5xx_DFP\1.3.0\Drivers\STM32L5xx_HAL_Driver\Src\stm32l5xx_hal_rcc_ex.c:2688:13
	cmp	r0, #2
	bls	.LBB2_15
.Ltmp251:
@ %bb.17:
	@DEBUG_VALUE: RCCEx_PLLSAI2_Config:tickstart <- $r5
	@DEBUG_VALUE: RCCEx_PLLSAI2_Config:pPllSai2 <- $r4
	@DEBUG_VALUE: RCCEx_PLLSAI2_Config:Divider <- 0
	.loc	5 0 13                          @ c:/Keil_v5\ARM\PACK\Keil\STM32L5xx_DFP\1.3.0\Drivers\STM32L5xx_HAL_Driver\Src\stm32l5xx_hal_rcc_ex.c:0:13
	movs	r5, #3
.Ltmp252:
	@DEBUG_VALUE: RCCEx_PLLSAI2_Config:status <- $r5
	.loc	5 2703 3 is_stmt 1              @ c:/Keil_v5\ARM\PACK\Keil\STM32L5xx_DFP\1.3.0\Drivers\STM32L5xx_HAL_Driver\Src\stm32l5xx_hal_rcc_ex.c:2703:3
	mov	r0, r5
	add	sp, #4
	pop	{r4, r5, r6, r7, pc}
.Ltmp253:
	.p2align	2
.LBB2_18:
	@DEBUG_VALUE: RCCEx_PLLSAI2_Config:tickstart <- $r5
	@DEBUG_VALUE: RCCEx_PLLSAI2_Config:pPllSai2 <- $r4
	@DEBUG_VALUE: RCCEx_PLLSAI2_Config:Divider <- 0
	@DEBUG_VALUE: RCCEx_PLLSAI2_Config:status <- undef
	.loc	5 2698 9                        @ c:/Keil_v5\ARM\PACK\Keil\STM32L5xx_DFP\1.3.0\Drivers\STM32L5xx_HAL_Driver\Src\stm32l5xx_hal_rcc_ex.c:2698:9
	ldr	r0, [r4, #16]
	ldr	r1, [r7, #20]
	movs	r5, #0
.Ltmp254:
	orrs	r0, r1
	str	r0, [r7, #20]
.Ltmp255:
	@DEBUG_VALUE: RCCEx_PLLSAI2_Config:status <- $r5
	.loc	5 2703 3                        @ c:/Keil_v5\ARM\PACK\Keil\STM32L5xx_DFP\1.3.0\Drivers\STM32L5xx_HAL_Driver\Src\stm32l5xx_hal_rcc_ex.c:2703:3
	mov	r0, r5
	add	sp, #4
	pop	{r4, r5, r6, r7, pc}
.Ltmp256:
.Lfunc_end2:
	.size	RCCEx_PLLSAI2_Config, .Lfunc_end2-RCCEx_PLLSAI2_Config
	.cfi_endproc
	.cantunwind
	.fnend
                                        @ -- End function
	.section	.text.HAL_RCCEx_GetPeriphCLKConfig,"ax",%progbits
	.hidden	HAL_RCCEx_GetPeriphCLKConfig    @ -- Begin function HAL_RCCEx_GetPeriphCLKConfig
	.globl	HAL_RCCEx_GetPeriphCLKConfig
	.p2align	2
	.type	HAL_RCCEx_GetPeriphCLKConfig,%function
	.code	16                              @ @HAL_RCCEx_GetPeriphCLKConfig
	.thumb_func
HAL_RCCEx_GetPeriphCLKConfig:
.Lfunc_begin3:
	.loc	5 684 0                         @ c:/Keil_v5\ARM\PACK\Keil\STM32L5xx_DFP\1.3.0\Drivers\STM32L5xx_HAL_Driver\Src\stm32l5xx_hal_rcc_ex.c:684:0
	.fnstart
	.cfi_startproc
@ %bb.0:
	@DEBUG_VALUE: HAL_RCCEx_GetPeriphCLKConfig:PeriphClkInit <- $r0
	movw	r2, #32767
	movt	r2, #895
	movw	r1, #4232
	movt	r1, #16386
	@DEBUG_VALUE: HAL_RCCEx_GetPeriphCLKConfig:PeriphClkInit <- $r0
.Ltmp257:
	.loc	5 686 39 prologue_end           @ c:/Keil_v5\ARM\PACK\Keil\STM32L5xx_DFP\1.3.0\Drivers\STM32L5xx_HAL_Driver\Src\stm32l5xx_hal_rcc_ex.c:686:39
	str	r2, [r0]
	.loc	5 693 59                        @ c:/Keil_v5\ARM\PACK\Keil\STM32L5xx_DFP\1.3.0\Drivers\STM32L5xx_HAL_Driver\Src\stm32l5xx_hal_rcc_ex.c:693:59
	ldr	r2, [r1, #-120]
	mov.w	r12, #16
	.loc	5 693 71 is_stmt 0              @ c:/Keil_v5\ARM\PACK\Keil\STM32L5xx_DFP\1.3.0\Drivers\STM32L5xx_HAL_Driver\Src\stm32l5xx_hal_rcc_ex.c:693:71
	and	r2, r2, #3
	.loc	5 693 40                        @ c:/Keil_v5\ARM\PACK\Keil\STM32L5xx_DFP\1.3.0\Drivers\STM32L5xx_HAL_Driver\Src\stm32l5xx_hal_rcc_ex.c:693:40
	str	r2, [r0, #4]
	.loc	5 694 54 is_stmt 1              @ c:/Keil_v5\ARM\PACK\Keil\STM32L5xx_DFP\1.3.0\Drivers\STM32L5xx_HAL_Driver\Src\stm32l5xx_hal_rcc_ex.c:694:54
	ldr	r2, [r1, #-120]
	movs	r3, #2
	.loc	5 694 94 is_stmt 0              @ c:/Keil_v5\ARM\PACK\Keil\STM32L5xx_DFP\1.3.0\Drivers\STM32L5xx_HAL_Driver\Src\stm32l5xx_hal_rcc_ex.c:694:94
	ubfx	r2, r2, #4, #4
	.loc	5 694 127                       @ c:/Keil_v5\ARM\PACK\Keil\STM32L5xx_DFP\1.3.0\Drivers\STM32L5xx_HAL_Driver\Src\stm32l5xx_hal_rcc_ex.c:694:127
	adds	r2, #1
	.loc	5 694 35                        @ c:/Keil_v5\ARM\PACK\Keil\STM32L5xx_DFP\1.3.0\Drivers\STM32L5xx_HAL_Driver\Src\stm32l5xx_hal_rcc_ex.c:694:35
	str	r2, [r0, #8]
	.loc	5 695 54 is_stmt 1              @ c:/Keil_v5\ARM\PACK\Keil\STM32L5xx_DFP\1.3.0\Drivers\STM32L5xx_HAL_Driver\Src\stm32l5xx_hal_rcc_ex.c:695:54
	ldr	r2, [r1, #-120]
	.loc	5 695 94 is_stmt 0              @ c:/Keil_v5\ARM\PACK\Keil\STM32L5xx_DFP\1.3.0\Drivers\STM32L5xx_HAL_Driver\Src\stm32l5xx_hal_rcc_ex.c:695:94
	ubfx	r2, r2, #8, #7
	.loc	5 695 35                        @ c:/Keil_v5\ARM\PACK\Keil\STM32L5xx_DFP\1.3.0\Drivers\STM32L5xx_HAL_Driver\Src\stm32l5xx_hal_rcc_ex.c:695:35
	str	r2, [r0, #12]
	.loc	5 696 55 is_stmt 1              @ c:/Keil_v5\ARM\PACK\Keil\STM32L5xx_DFP\1.3.0\Drivers\STM32L5xx_HAL_Driver\Src\stm32l5xx_hal_rcc_ex.c:696:55
	ldr	r2, [r1, #-120]
	.loc	5 696 128 is_stmt 0             @ c:/Keil_v5\ARM\PACK\Keil\STM32L5xx_DFP\1.3.0\Drivers\STM32L5xx_HAL_Driver\Src\stm32l5xx_hal_rcc_ex.c:696:128
	and.w	r2, r12, r2, lsr #13
	.loc	5 696 135                       @ c:/Keil_v5\ARM\PACK\Keil\STM32L5xx_DFP\1.3.0\Drivers\STM32L5xx_HAL_Driver\Src\stm32l5xx_hal_rcc_ex.c:696:135
	adds	r2, #7
	.loc	5 696 35                        @ c:/Keil_v5\ARM\PACK\Keil\STM32L5xx_DFP\1.3.0\Drivers\STM32L5xx_HAL_Driver\Src\stm32l5xx_hal_rcc_ex.c:696:35
	str	r2, [r0, #16]
	.loc	5 697 55 is_stmt 1              @ c:/Keil_v5\ARM\PACK\Keil\STM32L5xx_DFP\1.3.0\Drivers\STM32L5xx_HAL_Driver\Src\stm32l5xx_hal_rcc_ex.c:697:55
	ldr	r2, [r1, #-120]
	.loc	5 697 134 is_stmt 0             @ c:/Keil_v5\ARM\PACK\Keil\STM32L5xx_DFP\1.3.0\Drivers\STM32L5xx_HAL_Driver\Src\stm32l5xx_hal_rcc_ex.c:697:134
	ubfx	r2, r2, #21, #2
	add.w	r2, r3, r2, lsl #1
	.loc	5 697 35                        @ c:/Keil_v5\ARM\PACK\Keil\STM32L5xx_DFP\1.3.0\Drivers\STM32L5xx_HAL_Driver\Src\stm32l5xx_hal_rcc_ex.c:697:35
	str	r2, [r0, #20]
	.loc	5 698 55 is_stmt 1              @ c:/Keil_v5\ARM\PACK\Keil\STM32L5xx_DFP\1.3.0\Drivers\STM32L5xx_HAL_Driver\Src\stm32l5xx_hal_rcc_ex.c:698:55
	ldr	r2, [r1, #-120]
	.loc	5 698 134 is_stmt 0             @ c:/Keil_v5\ARM\PACK\Keil\STM32L5xx_DFP\1.3.0\Drivers\STM32L5xx_HAL_Driver\Src\stm32l5xx_hal_rcc_ex.c:698:134
	ubfx	r2, r2, #25, #2
	add.w	r2, r3, r2, lsl #1
	.loc	5 698 35                        @ c:/Keil_v5\ARM\PACK\Keil\STM32L5xx_DFP\1.3.0\Drivers\STM32L5xx_HAL_Driver\Src\stm32l5xx_hal_rcc_ex.c:698:35
	str	r2, [r0, #24]
	.loc	5 701 59 is_stmt 1              @ c:/Keil_v5\ARM\PACK\Keil\STM32L5xx_DFP\1.3.0\Drivers\STM32L5xx_HAL_Driver\Src\stm32l5xx_hal_rcc_ex.c:701:59
	ldr	r2, [r1, #-116]
	.loc	5 701 71 is_stmt 0              @ c:/Keil_v5\ARM\PACK\Keil\STM32L5xx_DFP\1.3.0\Drivers\STM32L5xx_HAL_Driver\Src\stm32l5xx_hal_rcc_ex.c:701:71
	and	r2, r2, #3
	.loc	5 701 40                        @ c:/Keil_v5\ARM\PACK\Keil\STM32L5xx_DFP\1.3.0\Drivers\STM32L5xx_HAL_Driver\Src\stm32l5xx_hal_rcc_ex.c:701:40
	str	r2, [r0, #32]
	.loc	5 702 54 is_stmt 1              @ c:/Keil_v5\ARM\PACK\Keil\STM32L5xx_DFP\1.3.0\Drivers\STM32L5xx_HAL_Driver\Src\stm32l5xx_hal_rcc_ex.c:702:54
	ldr	r2, [r1, #-116]
	.loc	5 702 94 is_stmt 0              @ c:/Keil_v5\ARM\PACK\Keil\STM32L5xx_DFP\1.3.0\Drivers\STM32L5xx_HAL_Driver\Src\stm32l5xx_hal_rcc_ex.c:702:94
	ubfx	r2, r2, #4, #4
	.loc	5 702 127                       @ c:/Keil_v5\ARM\PACK\Keil\STM32L5xx_DFP\1.3.0\Drivers\STM32L5xx_HAL_Driver\Src\stm32l5xx_hal_rcc_ex.c:702:127
	adds	r2, #1
	.loc	5 702 35                        @ c:/Keil_v5\ARM\PACK\Keil\STM32L5xx_DFP\1.3.0\Drivers\STM32L5xx_HAL_Driver\Src\stm32l5xx_hal_rcc_ex.c:702:35
	str	r2, [r0, #36]
	.loc	5 703 54 is_stmt 1              @ c:/Keil_v5\ARM\PACK\Keil\STM32L5xx_DFP\1.3.0\Drivers\STM32L5xx_HAL_Driver\Src\stm32l5xx_hal_rcc_ex.c:703:54
	ldr	r2, [r1, #-116]
	.loc	5 703 94 is_stmt 0              @ c:/Keil_v5\ARM\PACK\Keil\STM32L5xx_DFP\1.3.0\Drivers\STM32L5xx_HAL_Driver\Src\stm32l5xx_hal_rcc_ex.c:703:94
	ubfx	r2, r2, #8, #7
	.loc	5 703 35                        @ c:/Keil_v5\ARM\PACK\Keil\STM32L5xx_DFP\1.3.0\Drivers\STM32L5xx_HAL_Driver\Src\stm32l5xx_hal_rcc_ex.c:703:35
	str	r2, [r0, #40]
	.loc	5 704 55 is_stmt 1              @ c:/Keil_v5\ARM\PACK\Keil\STM32L5xx_DFP\1.3.0\Drivers\STM32L5xx_HAL_Driver\Src\stm32l5xx_hal_rcc_ex.c:704:55
	ldr	r2, [r1, #-116]
	.loc	5 704 128 is_stmt 0             @ c:/Keil_v5\ARM\PACK\Keil\STM32L5xx_DFP\1.3.0\Drivers\STM32L5xx_HAL_Driver\Src\stm32l5xx_hal_rcc_ex.c:704:128
	and.w	r2, r12, r2, lsr #13
	.loc	5 704 135                       @ c:/Keil_v5\ARM\PACK\Keil\STM32L5xx_DFP\1.3.0\Drivers\STM32L5xx_HAL_Driver\Src\stm32l5xx_hal_rcc_ex.c:704:135
	adds	r2, #7
	.loc	5 704 35                        @ c:/Keil_v5\ARM\PACK\Keil\STM32L5xx_DFP\1.3.0\Drivers\STM32L5xx_HAL_Driver\Src\stm32l5xx_hal_rcc_ex.c:704:35
	str	r2, [r0, #44]
	.loc	5 707 42 is_stmt 1              @ c:/Keil_v5\ARM\PACK\Keil\STM32L5xx_DFP\1.3.0\Drivers\STM32L5xx_HAL_Driver\Src\stm32l5xx_hal_rcc_ex.c:707:42
	ldr	r2, [r1]
	and	r2, r2, #3
	.loc	5 707 40 is_stmt 0              @ c:/Keil_v5\ARM\PACK\Keil\STM32L5xx_DFP\1.3.0\Drivers\STM32L5xx_HAL_Driver\Src\stm32l5xx_hal_rcc_ex.c:707:40
	str	r2, [r0, #52]
	.loc	5 710 42 is_stmt 1              @ c:/Keil_v5\ARM\PACK\Keil\STM32L5xx_DFP\1.3.0\Drivers\STM32L5xx_HAL_Driver\Src\stm32l5xx_hal_rcc_ex.c:710:42
	ldr	r2, [r1]
	and	r2, r2, #12
	.loc	5 710 40 is_stmt 0              @ c:/Keil_v5\ARM\PACK\Keil\STM32L5xx_DFP\1.3.0\Drivers\STM32L5xx_HAL_Driver\Src\stm32l5xx_hal_rcc_ex.c:710:40
	str	r2, [r0, #56]
	.loc	5 713 42 is_stmt 1              @ c:/Keil_v5\ARM\PACK\Keil\STM32L5xx_DFP\1.3.0\Drivers\STM32L5xx_HAL_Driver\Src\stm32l5xx_hal_rcc_ex.c:713:42
	ldr	r2, [r1]
	and	r2, r2, #48
	.loc	5 713 40 is_stmt 0              @ c:/Keil_v5\ARM\PACK\Keil\STM32L5xx_DFP\1.3.0\Drivers\STM32L5xx_HAL_Driver\Src\stm32l5xx_hal_rcc_ex.c:713:40
	str	r2, [r0, #60]
	.loc	5 716 42 is_stmt 1              @ c:/Keil_v5\ARM\PACK\Keil\STM32L5xx_DFP\1.3.0\Drivers\STM32L5xx_HAL_Driver\Src\stm32l5xx_hal_rcc_ex.c:716:42
	ldr	r2, [r1]
	and	r2, r2, #192
	.loc	5 716 40 is_stmt 0              @ c:/Keil_v5\ARM\PACK\Keil\STM32L5xx_DFP\1.3.0\Drivers\STM32L5xx_HAL_Driver\Src\stm32l5xx_hal_rcc_ex.c:716:40
	str	r2, [r0, #64]
	.loc	5 719 42 is_stmt 1              @ c:/Keil_v5\ARM\PACK\Keil\STM32L5xx_DFP\1.3.0\Drivers\STM32L5xx_HAL_Driver\Src\stm32l5xx_hal_rcc_ex.c:719:42
	ldr	r2, [r1]
	and	r2, r2, #768
	.loc	5 719 40 is_stmt 0              @ c:/Keil_v5\ARM\PACK\Keil\STM32L5xx_DFP\1.3.0\Drivers\STM32L5xx_HAL_Driver\Src\stm32l5xx_hal_rcc_ex.c:719:40
	str	r2, [r0, #68]
	.loc	5 722 42 is_stmt 1              @ c:/Keil_v5\ARM\PACK\Keil\STM32L5xx_DFP\1.3.0\Drivers\STM32L5xx_HAL_Driver\Src\stm32l5xx_hal_rcc_ex.c:722:42
	ldr	r2, [r1]
	and	r2, r2, #3072
	.loc	5 722 40 is_stmt 0              @ c:/Keil_v5\ARM\PACK\Keil\STM32L5xx_DFP\1.3.0\Drivers\STM32L5xx_HAL_Driver\Src\stm32l5xx_hal_rcc_ex.c:722:40
	str	r2, [r0, #72]
	.loc	5 725 42 is_stmt 1              @ c:/Keil_v5\ARM\PACK\Keil\STM32L5xx_DFP\1.3.0\Drivers\STM32L5xx_HAL_Driver\Src\stm32l5xx_hal_rcc_ex.c:725:42
	ldr	r2, [r1]
	and	r2, r2, #12288
	.loc	5 725 40 is_stmt 0              @ c:/Keil_v5\ARM\PACK\Keil\STM32L5xx_DFP\1.3.0\Drivers\STM32L5xx_HAL_Driver\Src\stm32l5xx_hal_rcc_ex.c:725:40
	str	r2, [r0, #76]
	.loc	5 728 42 is_stmt 1              @ c:/Keil_v5\ARM\PACK\Keil\STM32L5xx_DFP\1.3.0\Drivers\STM32L5xx_HAL_Driver\Src\stm32l5xx_hal_rcc_ex.c:728:42
	ldr	r2, [r1]
	and	r2, r2, #49152
	.loc	5 728 40 is_stmt 0              @ c:/Keil_v5\ARM\PACK\Keil\STM32L5xx_DFP\1.3.0\Drivers\STM32L5xx_HAL_Driver\Src\stm32l5xx_hal_rcc_ex.c:728:40
	str	r2, [r0, #80]
	.loc	5 731 42 is_stmt 1              @ c:/Keil_v5\ARM\PACK\Keil\STM32L5xx_DFP\1.3.0\Drivers\STM32L5xx_HAL_Driver\Src\stm32l5xx_hal_rcc_ex.c:731:42
	ldr	r2, [r1]
	and	r2, r2, #196608
	.loc	5 731 40 is_stmt 0              @ c:/Keil_v5\ARM\PACK\Keil\STM32L5xx_DFP\1.3.0\Drivers\STM32L5xx_HAL_Driver\Src\stm32l5xx_hal_rcc_ex.c:731:40
	str	r2, [r0, #84]
	.loc	5 734 42 is_stmt 1              @ c:/Keil_v5\ARM\PACK\Keil\STM32L5xx_DFP\1.3.0\Drivers\STM32L5xx_HAL_Driver\Src\stm32l5xx_hal_rcc_ex.c:734:42
	ldr	r2, [r1, #20]
	and	r2, r2, #3
	.loc	5 734 40 is_stmt 0              @ c:/Keil_v5\ARM\PACK\Keil\STM32L5xx_DFP\1.3.0\Drivers\STM32L5xx_HAL_Driver\Src\stm32l5xx_hal_rcc_ex.c:734:40
	str	r2, [r0, #88]
	.loc	5 737 42 is_stmt 1              @ c:/Keil_v5\ARM\PACK\Keil\STM32L5xx_DFP\1.3.0\Drivers\STM32L5xx_HAL_Driver\Src\stm32l5xx_hal_rcc_ex.c:737:42
	ldr	r2, [r1]
	and	r2, r2, #786432
	.loc	5 737 40 is_stmt 0              @ c:/Keil_v5\ARM\PACK\Keil\STM32L5xx_DFP\1.3.0\Drivers\STM32L5xx_HAL_Driver\Src\stm32l5xx_hal_rcc_ex.c:737:40
	str	r2, [r0, #92]
	.loc	5 740 42 is_stmt 1              @ c:/Keil_v5\ARM\PACK\Keil\STM32L5xx_DFP\1.3.0\Drivers\STM32L5xx_HAL_Driver\Src\stm32l5xx_hal_rcc_ex.c:740:42
	ldr	r2, [r1]
	and	r2, r2, #3145728
	.loc	5 740 40 is_stmt 0              @ c:/Keil_v5\ARM\PACK\Keil\STM32L5xx_DFP\1.3.0\Drivers\STM32L5xx_HAL_Driver\Src\stm32l5xx_hal_rcc_ex.c:740:40
	str	r2, [r0, #96]
	.loc	5 743 42 is_stmt 1              @ c:/Keil_v5\ARM\PACK\Keil\STM32L5xx_DFP\1.3.0\Drivers\STM32L5xx_HAL_Driver\Src\stm32l5xx_hal_rcc_ex.c:743:42
	ldr	r2, [r1]
	and	r2, r2, #12582912
	.loc	5 743 40 is_stmt 0              @ c:/Keil_v5\ARM\PACK\Keil\STM32L5xx_DFP\1.3.0\Drivers\STM32L5xx_HAL_Driver\Src\stm32l5xx_hal_rcc_ex.c:743:40
	str	r2, [r0, #100]
	.loc	5 746 41 is_stmt 1              @ c:/Keil_v5\ARM\PACK\Keil\STM32L5xx_DFP\1.3.0\Drivers\STM32L5xx_HAL_Driver\Src\stm32l5xx_hal_rcc_ex.c:746:41
	ldr	r2, [r1]
	and	r2, r2, #50331648
	.loc	5 746 39 is_stmt 0              @ c:/Keil_v5\ARM\PACK\Keil\STM32L5xx_DFP\1.3.0\Drivers\STM32L5xx_HAL_Driver\Src\stm32l5xx_hal_rcc_ex.c:746:39
	str	r2, [r0, #104]
	.loc	5 749 42 is_stmt 1              @ c:/Keil_v5\ARM\PACK\Keil\STM32L5xx_DFP\1.3.0\Drivers\STM32L5xx_HAL_Driver\Src\stm32l5xx_hal_rcc_ex.c:749:42
	ldr	r2, [r1, #20]
	and	r2, r2, #224
	.loc	5 749 40 is_stmt 0              @ c:/Keil_v5\ARM\PACK\Keil\STM32L5xx_DFP\1.3.0\Drivers\STM32L5xx_HAL_Driver\Src\stm32l5xx_hal_rcc_ex.c:749:40
	str	r2, [r0, #108]
	.loc	5 752 42 is_stmt 1              @ c:/Keil_v5\ARM\PACK\Keil\STM32L5xx_DFP\1.3.0\Drivers\STM32L5xx_HAL_Driver\Src\stm32l5xx_hal_rcc_ex.c:752:42
	ldr	r2, [r1, #20]
	and	r2, r2, #1792
	.loc	5 752 40 is_stmt 0              @ c:/Keil_v5\ARM\PACK\Keil\STM32L5xx_DFP\1.3.0\Drivers\STM32L5xx_HAL_Driver\Src\stm32l5xx_hal_rcc_ex.c:752:40
	str	r2, [r0, #112]
	.loc	5 755 42 is_stmt 1              @ c:/Keil_v5\ARM\PACK\Keil\STM32L5xx_DFP\1.3.0\Drivers\STM32L5xx_HAL_Driver\Src\stm32l5xx_hal_rcc_ex.c:755:42
	ldr	r2, [r1, #8]
	and	r2, r2, #768
	.loc	5 755 40 is_stmt 0              @ c:/Keil_v5\ARM\PACK\Keil\STM32L5xx_DFP\1.3.0\Drivers\STM32L5xx_HAL_Driver\Src\stm32l5xx_hal_rcc_ex.c:755:40
	str.w	r2, [r0, #144]
	.loc	5 759 40 is_stmt 1              @ c:/Keil_v5\ARM\PACK\Keil\STM32L5xx_DFP\1.3.0\Drivers\STM32L5xx_HAL_Driver\Src\stm32l5xx_hal_rcc_ex.c:759:40
	ldr	r2, [r1]
	and	r2, r2, #201326592
	.loc	5 759 38 is_stmt 0              @ c:/Keil_v5\ARM\PACK\Keil\STM32L5xx_DFP\1.3.0\Drivers\STM32L5xx_HAL_Driver\Src\stm32l5xx_hal_rcc_ex.c:759:38
	str	r2, [r0, #116]
	.loc	5 763 43 is_stmt 1              @ c:/Keil_v5\ARM\PACK\Keil\STM32L5xx_DFP\1.3.0\Drivers\STM32L5xx_HAL_Driver\Src\stm32l5xx_hal_rcc_ex.c:763:43
	ldr	r2, [r1, #20]
	lsls	r2, r2, #17
	itte	pl
	ldrpl	r2, [r1]
	andpl	r2, r2, #201326592
	movmi.w	r2, #16384
	.loc	5 763 41 is_stmt 0              @ c:/Keil_v5\ARM\PACK\Keil\STM32L5xx_DFP\1.3.0\Drivers\STM32L5xx_HAL_Driver\Src\stm32l5xx_hal_rcc_ex.c:763:41
	str	r2, [r0, #120]
	.loc	5 766 40 is_stmt 1              @ c:/Keil_v5\ARM\PACK\Keil\STM32L5xx_DFP\1.3.0\Drivers\STM32L5xx_HAL_Driver\Src\stm32l5xx_hal_rcc_ex.c:766:40
	ldr	r2, [r1]
	and	r2, r2, #201326592
	.loc	5 766 38 is_stmt 0              @ c:/Keil_v5\ARM\PACK\Keil\STM32L5xx_DFP\1.3.0\Drivers\STM32L5xx_HAL_Driver\Src\stm32l5xx_hal_rcc_ex.c:766:38
	str	r2, [r0, #124]
	.loc	5 769 42 is_stmt 1              @ c:/Keil_v5\ARM\PACK\Keil\STM32L5xx_DFP\1.3.0\Drivers\STM32L5xx_HAL_Driver\Src\stm32l5xx_hal_rcc_ex.c:769:42
	ldr	r2, [r1]
	and	r2, r2, #805306368
	.loc	5 769 40 is_stmt 0              @ c:/Keil_v5\ARM\PACK\Keil\STM32L5xx_DFP\1.3.0\Drivers\STM32L5xx_HAL_Driver\Src\stm32l5xx_hal_rcc_ex.c:769:40
	str.w	r2, [r0, #128]
	.loc	5 772 42 is_stmt 1              @ c:/Keil_v5\ARM\PACK\Keil\STM32L5xx_DFP\1.3.0\Drivers\STM32L5xx_HAL_Driver\Src\stm32l5xx_hal_rcc_ex.c:772:42
	ldr	r2, [r1, #20]
	and	r2, r2, #4
	.loc	5 772 40 is_stmt 0              @ c:/Keil_v5\ARM\PACK\Keil\STM32L5xx_DFP\1.3.0\Drivers\STM32L5xx_HAL_Driver\Src\stm32l5xx_hal_rcc_ex.c:772:40
	str.w	r2, [r0, #132]
	.loc	5 775 47 is_stmt 1              @ c:/Keil_v5\ARM\PACK\Keil\STM32L5xx_DFP\1.3.0\Drivers\STM32L5xx_HAL_Driver\Src\stm32l5xx_hal_rcc_ex.c:775:47
	ldr	r2, [r1, #20]
	and	r2, r2, #24
	.loc	5 775 45 is_stmt 0              @ c:/Keil_v5\ARM\PACK\Keil\STM32L5xx_DFP\1.3.0\Drivers\STM32L5xx_HAL_Driver\Src\stm32l5xx_hal_rcc_ex.c:775:45
	str.w	r2, [r0, #136]
	.loc	5 778 39 is_stmt 1              @ c:/Keil_v5\ARM\PACK\Keil\STM32L5xx_DFP\1.3.0\Drivers\STM32L5xx_HAL_Driver\Src\stm32l5xx_hal_rcc_ex.c:778:39
	ldr	r1, [r1, #20]
	and	r1, r1, #3145728
	.loc	5 778 37 is_stmt 0              @ c:/Keil_v5\ARM\PACK\Keil\STM32L5xx_DFP\1.3.0\Drivers\STM32L5xx_HAL_Driver\Src\stm32l5xx_hal_rcc_ex.c:778:37
	str.w	r1, [r0, #140]
	.loc	5 779 1 is_stmt 1               @ c:/Keil_v5\ARM\PACK\Keil\STM32L5xx_DFP\1.3.0\Drivers\STM32L5xx_HAL_Driver\Src\stm32l5xx_hal_rcc_ex.c:779:1
	bx	lr
.Ltmp258:
.Lfunc_end3:
	.size	HAL_RCCEx_GetPeriphCLKConfig, .Lfunc_end3-HAL_RCCEx_GetPeriphCLKConfig
	.cfi_endproc
	.cantunwind
	.fnend
                                        @ -- End function
	.section	.text.HAL_RCCEx_GetPeriphCLKFreq,"ax",%progbits
	.hidden	HAL_RCCEx_GetPeriphCLKFreq      @ -- Begin function HAL_RCCEx_GetPeriphCLKFreq
	.globl	HAL_RCCEx_GetPeriphCLKFreq
	.p2align	2
	.type	HAL_RCCEx_GetPeriphCLKFreq,%function
	.code	16                              @ @HAL_RCCEx_GetPeriphCLKFreq
	.thumb_func
HAL_RCCEx_GetPeriphCLKFreq:
.Lfunc_begin4:
	.loc	5 811 0                         @ c:/Keil_v5\ARM\PACK\Keil\STM32L5xx_DFP\1.3.0\Drivers\STM32L5xx_HAL_Driver\Src\stm32l5xx_hal_rcc_ex.c:811:0
	.fnstart
	.cfi_startproc
@ %bb.0:
	@DEBUG_VALUE: HAL_RCCEx_GetPeriphCLKFreq:PeriphClk <- $r0
	@DEBUG_VALUE: HAL_RCCEx_GetPeriphCLKFreq:PeriphClk <- $r0
	.save	{r7, lr}
	push	{r7, lr}
	.cfi_def_cfa_offset 8
	.cfi_offset lr, -4
	.cfi_offset r7, -8
	movw	r3, #4096
.Ltmp259:
	.loc	5 820 7 prologue_end            @ c:/Keil_v5\ARM\PACK\Keil\STM32L5xx_DFP\1.3.0\Drivers\STM32L5xx_HAL_Driver\Src\stm32l5xx_hal_rcc_ex.c:820:7
	cmp.w	r0, #131072
	movt	r3, #16386
.Ltmp260:
	@DEBUG_VALUE: HAL_RCCEx_GetPeriphCLKFreq:frequency <- 0
	bne	.LBB4_5
.Ltmp261:
@ %bb.1:
	@DEBUG_VALUE: HAL_RCCEx_GetPeriphCLKFreq:PeriphClk <- $r0
	@DEBUG_VALUE: HAL_RCCEx_GetPeriphCLKFreq:frequency <- 0
	.loc	5 823 14                        @ c:/Keil_v5\ARM\PACK\Keil\STM32L5xx_DFP\1.3.0\Drivers\STM32L5xx_HAL_Driver\Src\stm32l5xx_hal_rcc_ex.c:823:14
	ldr.w	r0, [r3, #144]
.Ltmp262:
	@DEBUG_VALUE: HAL_RCCEx_GetPeriphCLKFreq:PeriphClk <- [DW_OP_LLVM_entry_value 1] $r0
	and	r0, r0, #768
.Ltmp263:
	@DEBUG_VALUE: HAL_RCCEx_GetPeriphCLKFreq:srcclk <- $r0
	.loc	5 825 5                         @ c:/Keil_v5\ARM\PACK\Keil\STM32L5xx_DFP\1.3.0\Drivers\STM32L5xx_HAL_Driver\Src\stm32l5xx_hal_rcc_ex.c:825:5
	cmp.w	r0, #768
	beq	.LBB4_19
.Ltmp264:
@ %bb.2:
	@DEBUG_VALUE: HAL_RCCEx_GetPeriphCLKFreq:srcclk <- $r0
	@DEBUG_VALUE: HAL_RCCEx_GetPeriphCLKFreq:PeriphClk <- [DW_OP_LLVM_entry_value 1] $r0
	@DEBUG_VALUE: HAL_RCCEx_GetPeriphCLKFreq:frequency <- 0
	cmp.w	r0, #512
	beq.w	.LBB4_114
.Ltmp265:
@ %bb.3:
	@DEBUG_VALUE: HAL_RCCEx_GetPeriphCLKFreq:srcclk <- $r0
	@DEBUG_VALUE: HAL_RCCEx_GetPeriphCLKFreq:PeriphClk <- [DW_OP_LLVM_entry_value 1] $r0
	@DEBUG_VALUE: HAL_RCCEx_GetPeriphCLKFreq:frequency <- 0
	cmp.w	r0, #256
	bne.w	.LBB4_151
.Ltmp266:
.LBB4_4:
	@DEBUG_VALUE: HAL_RCCEx_GetPeriphCLKFreq:frequency <- 0
	.loc	5 0 0 is_stmt 0                 @ c:/Keil_v5\ARM\PACK\Keil\STM32L5xx_DFP\1.3.0\Drivers\STM32L5xx_HAL_Driver\Src\stm32l5xx_hal_rcc_ex.c:0:0
	ldr.w	r0, [r3, #144]
	mov.w	r1, #32768
	and.w	r0, r1, r0, lsl #14
.Ltmp267:
	@DEBUG_VALUE: HAL_RCCEx_GetPeriphCLKFreq:frequency <- $r0
	.loc	5 1592 3 is_stmt 1              @ c:/Keil_v5\ARM\PACK\Keil\STM32L5xx_DFP\1.3.0\Drivers\STM32L5xx_HAL_Driver\Src\stm32l5xx_hal_rcc_ex.c:1592:3
	pop	{r7, pc}
.Ltmp268:
	.p2align	2
.LBB4_5:
	@DEBUG_VALUE: HAL_RCCEx_GetPeriphCLKFreq:PeriphClk <- $r0
	@DEBUG_VALUE: HAL_RCCEx_GetPeriphCLKFreq:frequency <- 0
	.loc	5 0 3 is_stmt 0                 @ c:/Keil_v5\ARM\PACK\Keil\STM32L5xx_DFP\1.3.0\Drivers\STM32L5xx_HAL_Driver\Src\stm32l5xx_hal_rcc_ex.c:0:3
	mov	r2, r0
.Ltmp269:
	@DEBUG_VALUE: HAL_RCCEx_GetPeriphCLKFreq:PeriphClk <- $r2
	.loc	5 856 21 is_stmt 1              @ c:/Keil_v5\ARM\PACK\Keil\STM32L5xx_DFP\1.3.0\Drivers\STM32L5xx_HAL_Driver\Src\stm32l5xx_hal_rcc_ex.c:856:21
	ldr	r0, [r3, #12]
	and	r0, r0, #3
.Ltmp270:
	@DEBUG_VALUE: HAL_RCCEx_GetPeriphCLKFreq:pll_oscsource <- $r0
	.loc	5 859 5                         @ c:/Keil_v5\ARM\PACK\Keil\STM32L5xx_DFP\1.3.0\Drivers\STM32L5xx_HAL_Driver\Src\stm32l5xx_hal_rcc_ex.c:859:5
	cmp	r0, #3
	beq	.LBB4_20
.Ltmp271:
@ %bb.6:
	@DEBUG_VALUE: HAL_RCCEx_GetPeriphCLKFreq:PeriphClk <- $r2
	@DEBUG_VALUE: HAL_RCCEx_GetPeriphCLKFreq:pll_oscsource <- $r0
	@DEBUG_VALUE: HAL_RCCEx_GetPeriphCLKFreq:frequency <- 0
	cmp	r0, #2
	beq	.LBB4_21
.Ltmp272:
@ %bb.7:
	@DEBUG_VALUE: HAL_RCCEx_GetPeriphCLKFreq:PeriphClk <- $r2
	@DEBUG_VALUE: HAL_RCCEx_GetPeriphCLKFreq:pll_oscsource <- $r0
	@DEBUG_VALUE: HAL_RCCEx_GetPeriphCLKFreq:frequency <- 0
	cmp	r0, #1
	bne	.LBB4_9
.Ltmp273:
@ %bb.8:
	@DEBUG_VALUE: HAL_RCCEx_GetPeriphCLKFreq:PeriphClk <- $r2
	@DEBUG_VALUE: HAL_RCCEx_GetPeriphCLKFreq:pll_oscsource <- $r0
	@DEBUG_VALUE: HAL_RCCEx_GetPeriphCLKFreq:frequency <- 0
	.loc	5 862 13                        @ c:/Keil_v5\ARM\PACK\Keil\STM32L5xx_DFP\1.3.0\Drivers\STM32L5xx_HAL_Driver\Src\stm32l5xx_hal_rcc_ex.c:862:13
	ldr	r0, [r3]
.Ltmp274:
	.loc	5 862 13 is_stmt 0              @ c:/Keil_v5\ARM\PACK\Keil\STM32L5xx_DFP\1.3.0\Drivers\STM32L5xx_HAL_Driver\Src\stm32l5xx_hal_rcc_ex.c:862:13
	lsls	r0, r0, #30
	bmi.w	.LBB4_50
.Ltmp275:
.LBB4_9:
	@DEBUG_VALUE: HAL_RCCEx_GetPeriphCLKFreq:PeriphClk <- $r2
	@DEBUG_VALUE: HAL_RCCEx_GetPeriphCLKFreq:frequency <- 0
	.loc	5 0 13                          @ c:/Keil_v5\ARM\PACK\Keil\STM32L5xx_DFP\1.3.0\Drivers\STM32L5xx_HAL_Driver\Src\stm32l5xx_hal_rcc_ex.c:0:13
	movs	r1, #0
	.loc	5 898 5 is_stmt 1               @ c:/Keil_v5\ARM\PACK\Keil\STM32L5xx_DFP\1.3.0\Drivers\STM32L5xx_HAL_Driver\Src\stm32l5xx_hal_rcc_ex.c:898:5
	cmp.w	r2, #2048
	mov.w	r0, #0
.Ltmp276:
	@DEBUG_VALUE: HAL_RCCEx_GetPeriphCLKFreq:pllvco <- $r1
	.loc	5 0 5 is_stmt 0                 @ c:/Keil_v5\ARM\PACK\Keil\STM32L5xx_DFP\1.3.0\Drivers\STM32L5xx_HAL_Driver\Src\stm32l5xx_hal_rcc_ex.c:0:5
	blt	.LBB4_23
.Ltmp277:
.LBB4_10:
	@DEBUG_VALUE: HAL_RCCEx_GetPeriphCLKFreq:PeriphClk <- $r2
	@DEBUG_VALUE: HAL_RCCEx_GetPeriphCLKFreq:pllvco <- $r1
	@DEBUG_VALUE: HAL_RCCEx_GetPeriphCLKFreq:frequency <- 0
	.loc	5 898 5                         @ c:/Keil_v5\ARM\PACK\Keil\STM32L5xx_DFP\1.3.0\Drivers\STM32L5xx_HAL_Driver\Src\stm32l5xx_hal_rcc_ex.c:898:5
	cmp.w	r2, #262144
	blt.w	.LBB4_31
.Ltmp278:
@ %bb.11:
	@DEBUG_VALUE: HAL_RCCEx_GetPeriphCLKFreq:PeriphClk <- $r2
	@DEBUG_VALUE: HAL_RCCEx_GetPeriphCLKFreq:pllvco <- $r1
	@DEBUG_VALUE: HAL_RCCEx_GetPeriphCLKFreq:frequency <- 0
	cmp.w	r2, #2097152
	bge.w	.LBB4_43
.Ltmp279:
@ %bb.12:
	@DEBUG_VALUE: HAL_RCCEx_GetPeriphCLKFreq:PeriphClk <- $r2
	@DEBUG_VALUE: HAL_RCCEx_GetPeriphCLKFreq:pllvco <- $r1
	@DEBUG_VALUE: HAL_RCCEx_GetPeriphCLKFreq:frequency <- 0
	cmp.w	r2, #262144
	beq.w	.LBB4_60
.Ltmp280:
@ %bb.13:
	@DEBUG_VALUE: HAL_RCCEx_GetPeriphCLKFreq:PeriphClk <- $r2
	@DEBUG_VALUE: HAL_RCCEx_GetPeriphCLKFreq:pllvco <- $r1
	@DEBUG_VALUE: HAL_RCCEx_GetPeriphCLKFreq:frequency <- 0
	cmp.w	r2, #524288
	beq.w	.LBB4_102
.Ltmp281:
@ %bb.14:
	@DEBUG_VALUE: HAL_RCCEx_GetPeriphCLKFreq:PeriphClk <- $r2
	@DEBUG_VALUE: HAL_RCCEx_GetPeriphCLKFreq:pllvco <- $r1
	@DEBUG_VALUE: HAL_RCCEx_GetPeriphCLKFreq:frequency <- 0
	cmp.w	r2, #1048576
	bne.w	.LBB4_178
.Ltmp282:
@ %bb.15:
	@DEBUG_VALUE: HAL_RCCEx_GetPeriphCLKFreq:PeriphClk <- $r2
	@DEBUG_VALUE: HAL_RCCEx_GetPeriphCLKFreq:pllvco <- $r1
	@DEBUG_VALUE: HAL_RCCEx_GetPeriphCLKFreq:frequency <- 0
	.loc	5 1398 18 is_stmt 1             @ c:/Keil_v5\ARM\PACK\Keil\STM32L5xx_DFP\1.3.0\Drivers\STM32L5xx_HAL_Driver\Src\stm32l5xx_hal_rcc_ex.c:1398:18
	ldr.w	r0, [r3, #156]
	and	r0, r0, #3
.Ltmp283:
	@DEBUG_VALUE: HAL_RCCEx_GetPeriphCLKFreq:srcclk <- $r0
	.loc	5 1400 9                        @ c:/Keil_v5\ARM\PACK\Keil\STM32L5xx_DFP\1.3.0\Drivers\STM32L5xx_HAL_Driver\Src\stm32l5xx_hal_rcc_ex.c:1400:9
	cmp	r0, #2
	beq.w	.LBB4_115
.Ltmp284:
@ %bb.16:
	@DEBUG_VALUE: HAL_RCCEx_GetPeriphCLKFreq:PeriphClk <- $r2
	@DEBUG_VALUE: HAL_RCCEx_GetPeriphCLKFreq:pllvco <- $r1
	@DEBUG_VALUE: HAL_RCCEx_GetPeriphCLKFreq:srcclk <- $r0
	@DEBUG_VALUE: HAL_RCCEx_GetPeriphCLKFreq:frequency <- 0
	cmp	r0, #1
	beq.w	.LBB4_97
.Ltmp285:
@ %bb.17:
	@DEBUG_VALUE: HAL_RCCEx_GetPeriphCLKFreq:PeriphClk <- $r2
	@DEBUG_VALUE: HAL_RCCEx_GetPeriphCLKFreq:pllvco <- $r1
	@DEBUG_VALUE: HAL_RCCEx_GetPeriphCLKFreq:srcclk <- $r0
	@DEBUG_VALUE: HAL_RCCEx_GetPeriphCLKFreq:frequency <- 0
	cmp	r0, #0
	itt	ne
	movne	r0, #0
.Ltmp286:
	@DEBUG_VALUE: HAL_RCCEx_GetPeriphCLKFreq:frequency <- $r0
	.loc	5 1592 3                        @ c:/Keil_v5\ARM\PACK\Keil\STM32L5xx_DFP\1.3.0\Drivers\STM32L5xx_HAL_Driver\Src\stm32l5xx_hal_rcc_ex.c:1592:3
	popne	{r7, pc}
.Ltmp287:
.LBB4_18:
	.loc	5 0 0 is_stmt 0                 @ c:/Keil_v5\ARM\PACK\Keil\STM32L5xx_DFP\1.3.0\Drivers\STM32L5xx_HAL_Driver\Src\stm32l5xx_hal_rcc_ex.c:0:0
	pop.w	{r7, lr}
	b	HAL_RCC_GetPCLK1Freq
.Ltmp288:
	.p2align	2
.LBB4_19:
	@DEBUG_VALUE: HAL_RCCEx_GetPeriphCLKFreq:srcclk <- $r0
	@DEBUG_VALUE: HAL_RCCEx_GetPeriphCLKFreq:PeriphClk <- [DW_OP_LLVM_entry_value 1] $r0
	@DEBUG_VALUE: HAL_RCCEx_GetPeriphCLKFreq:frequency <- 0
	.loc	5 843 13 is_stmt 1              @ c:/Keil_v5\ARM\PACK\Keil\STM32L5xx_DFP\1.3.0\Drivers\STM32L5xx_HAL_Driver\Src\stm32l5xx_hal_rcc_ex.c:843:13
	ldr	r0, [r3]
.Ltmp289:
	.loc	5 0 13 is_stmt 0                @ c:/Keil_v5\ARM\PACK\Keil\STM32L5xx_DFP\1.3.0\Drivers\STM32L5xx_HAL_Driver\Src\stm32l5xx_hal_rcc_ex.c:0:13
	movw	r1, #41248
	.loc	5 843 13                        @ c:/Keil_v5\ARM\PACK\Keil\STM32L5xx_DFP\1.3.0\Drivers\STM32L5xx_HAL_Driver\Src\stm32l5xx_hal_rcc_ex.c:843:13
	lsls	r0, r0, #14
	movt	r1, #7
.Ltmp290:
	.loc	5 843 13                        @ c:/Keil_v5\ARM\PACK\Keil\STM32L5xx_DFP\1.3.0\Drivers\STM32L5xx_HAL_Driver\Src\stm32l5xx_hal_rcc_ex.c:843:13
	and.w	r0, r1, r0, asr #31
	pop	{r7, pc}
.Ltmp291:
	.p2align	2
.LBB4_20:
	@DEBUG_VALUE: HAL_RCCEx_GetPeriphCLKFreq:PeriphClk <- $r2
	@DEBUG_VALUE: HAL_RCCEx_GetPeriphCLKFreq:pll_oscsource <- $r0
	@DEBUG_VALUE: HAL_RCCEx_GetPeriphCLKFreq:frequency <- 0
	.loc	5 883 13 is_stmt 1              @ c:/Keil_v5\ARM\PACK\Keil\STM32L5xx_DFP\1.3.0\Drivers\STM32L5xx_HAL_Driver\Src\stm32l5xx_hal_rcc_ex.c:883:13
	ldr	r0, [r3]
.Ltmp292:
	lsls	r0, r0, #14
	b	.LBB4_22
.Ltmp293:
	.p2align	2
.LBB4_21:
	@DEBUG_VALUE: HAL_RCCEx_GetPeriphCLKFreq:PeriphClk <- $r2
	@DEBUG_VALUE: HAL_RCCEx_GetPeriphCLKFreq:pll_oscsource <- $r0
	@DEBUG_VALUE: HAL_RCCEx_GetPeriphCLKFreq:frequency <- 0
	.loc	5 873 13                        @ c:/Keil_v5\ARM\PACK\Keil\STM32L5xx_DFP\1.3.0\Drivers\STM32L5xx_HAL_Driver\Src\stm32l5xx_hal_rcc_ex.c:873:13
	ldr	r0, [r3]
.Ltmp294:
	lsls	r0, r0, #21
.Ltmp295:
.LBB4_22:
	@DEBUG_VALUE: HAL_RCCEx_GetPeriphCLKFreq:PeriphClk <- $r2
	@DEBUG_VALUE: HAL_RCCEx_GetPeriphCLKFreq:frequency <- 0
	.loc	5 0 13 is_stmt 0                @ c:/Keil_v5\ARM\PACK\Keil\STM32L5xx_DFP\1.3.0\Drivers\STM32L5xx_HAL_Driver\Src\stm32l5xx_hal_rcc_ex.c:0:13
	movw	r1, #9216
	movt	r1, #244
	and.w	r1, r1, r0, asr #31
.Ltmp296:
	.loc	5 898 5 is_stmt 1               @ c:/Keil_v5\ARM\PACK\Keil\STM32L5xx_DFP\1.3.0\Drivers\STM32L5xx_HAL_Driver\Src\stm32l5xx_hal_rcc_ex.c:898:5
	cmp.w	r2, #2048
	mov.w	r0, #0
.Ltmp297:
	@DEBUG_VALUE: HAL_RCCEx_GetPeriphCLKFreq:pllvco <- $r1
	bge	.LBB4_10
.Ltmp298:
.LBB4_23:
	@DEBUG_VALUE: HAL_RCCEx_GetPeriphCLKFreq:PeriphClk <- $r2
	@DEBUG_VALUE: HAL_RCCEx_GetPeriphCLKFreq:pllvco <- $r1
	@DEBUG_VALUE: HAL_RCCEx_GetPeriphCLKFreq:frequency <- 0
	cmp	r2, #127
	bgt.w	.LBB4_36
.Ltmp299:
@ %bb.24:
	@DEBUG_VALUE: HAL_RCCEx_GetPeriphCLKFreq:PeriphClk <- $r2
	@DEBUG_VALUE: HAL_RCCEx_GetPeriphCLKFreq:pllvco <- $r1
	@DEBUG_VALUE: HAL_RCCEx_GetPeriphCLKFreq:frequency <- 0
	.loc	5 0 5 is_stmt 0                 @ c:/Keil_v5\ARM\PACK\Keil\STM32L5xx_DFP\1.3.0\Drivers\STM32L5xx_HAL_Driver\Src\stm32l5xx_hal_rcc_ex.c:0:5
	subs	r1, r2, #1
.Ltmp300:
	cmp	r1, #63
	bhi.w	.LBB4_178
.Ltmp301:
@ %bb.25:
	@DEBUG_VALUE: HAL_RCCEx_GetPeriphCLKFreq:PeriphClk <- $r2
	@DEBUG_VALUE: HAL_RCCEx_GetPeriphCLKFreq:frequency <- 0
.LCPI4_0:
	tbh	[pc, r1, lsl #1]
.Ltmp302:
@ %bb.26:
.LJTI4_0:
	.short	(.LBB4_27-(.LCPI4_0+4))/2
	.short	(.LBB4_69-(.LCPI4_0+4))/2
	.short	(.LBB4_178-(.LCPI4_0+4))/2
	.short	(.LBB4_73-(.LCPI4_0+4))/2
	.short	(.LBB4_178-(.LCPI4_0+4))/2
	.short	(.LBB4_178-(.LCPI4_0+4))/2
	.short	(.LBB4_178-(.LCPI4_0+4))/2
	.short	(.LBB4_77-(.LCPI4_0+4))/2
	.short	(.LBB4_178-(.LCPI4_0+4))/2
	.short	(.LBB4_178-(.LCPI4_0+4))/2
	.short	(.LBB4_178-(.LCPI4_0+4))/2
	.short	(.LBB4_178-(.LCPI4_0+4))/2
	.short	(.LBB4_178-(.LCPI4_0+4))/2
	.short	(.LBB4_178-(.LCPI4_0+4))/2
	.short	(.LBB4_178-(.LCPI4_0+4))/2
	.short	(.LBB4_81-(.LCPI4_0+4))/2
	.short	(.LBB4_178-(.LCPI4_0+4))/2
	.short	(.LBB4_178-(.LCPI4_0+4))/2
	.short	(.LBB4_178-(.LCPI4_0+4))/2
	.short	(.LBB4_178-(.LCPI4_0+4))/2
	.short	(.LBB4_178-(.LCPI4_0+4))/2
	.short	(.LBB4_178-(.LCPI4_0+4))/2
	.short	(.LBB4_178-(.LCPI4_0+4))/2
	.short	(.LBB4_178-(.LCPI4_0+4))/2
	.short	(.LBB4_178-(.LCPI4_0+4))/2
	.short	(.LBB4_178-(.LCPI4_0+4))/2
	.short	(.LBB4_178-(.LCPI4_0+4))/2
	.short	(.LBB4_178-(.LCPI4_0+4))/2
	.short	(.LBB4_178-(.LCPI4_0+4))/2
	.short	(.LBB4_178-(.LCPI4_0+4))/2
	.short	(.LBB4_178-(.LCPI4_0+4))/2
	.short	(.LBB4_85-(.LCPI4_0+4))/2
	.short	(.LBB4_178-(.LCPI4_0+4))/2
	.short	(.LBB4_178-(.LCPI4_0+4))/2
	.short	(.LBB4_178-(.LCPI4_0+4))/2
	.short	(.LBB4_178-(.LCPI4_0+4))/2
	.short	(.LBB4_178-(.LCPI4_0+4))/2
	.short	(.LBB4_178-(.LCPI4_0+4))/2
	.short	(.LBB4_178-(.LCPI4_0+4))/2
	.short	(.LBB4_178-(.LCPI4_0+4))/2
	.short	(.LBB4_178-(.LCPI4_0+4))/2
	.short	(.LBB4_178-(.LCPI4_0+4))/2
	.short	(.LBB4_178-(.LCPI4_0+4))/2
	.short	(.LBB4_178-(.LCPI4_0+4))/2
	.short	(.LBB4_178-(.LCPI4_0+4))/2
	.short	(.LBB4_178-(.LCPI4_0+4))/2
	.short	(.LBB4_178-(.LCPI4_0+4))/2
	.short	(.LBB4_178-(.LCPI4_0+4))/2
	.short	(.LBB4_178-(.LCPI4_0+4))/2
	.short	(.LBB4_178-(.LCPI4_0+4))/2
	.short	(.LBB4_178-(.LCPI4_0+4))/2
	.short	(.LBB4_178-(.LCPI4_0+4))/2
	.short	(.LBB4_178-(.LCPI4_0+4))/2
	.short	(.LBB4_178-(.LCPI4_0+4))/2
	.short	(.LBB4_178-(.LCPI4_0+4))/2
	.short	(.LBB4_178-(.LCPI4_0+4))/2
	.short	(.LBB4_178-(.LCPI4_0+4))/2
	.short	(.LBB4_178-(.LCPI4_0+4))/2
	.short	(.LBB4_178-(.LCPI4_0+4))/2
	.short	(.LBB4_178-(.LCPI4_0+4))/2
	.short	(.LBB4_178-(.LCPI4_0+4))/2
	.short	(.LBB4_178-(.LCPI4_0+4))/2
	.short	(.LBB4_178-(.LCPI4_0+4))/2
	.short	(.LBB4_89-(.LCPI4_0+4))/2
	.p2align	1
	.p2align	2
.LBB4_27:
.Ltmp303:
	@DEBUG_VALUE: HAL_RCCEx_GetPeriphCLKFreq:frequency <- 0
	.loc	5 1054 18 is_stmt 1             @ c:/Keil_v5\ARM\PACK\Keil\STM32L5xx_DFP\1.3.0\Drivers\STM32L5xx_HAL_Driver\Src\stm32l5xx_hal_rcc_ex.c:1054:18
	ldr.w	r0, [r3, #136]
	and	r0, r0, #3
.Ltmp304:
	@DEBUG_VALUE: HAL_RCCEx_GetPeriphCLKFreq:srcclk <- $r0
	.loc	5 0 18 is_stmt 0                @ c:/Keil_v5\ARM\PACK\Keil\STM32L5xx_DFP\1.3.0\Drivers\STM32L5xx_HAL_Driver\Src\stm32l5xx_hal_rcc_ex.c:0:18
.LCPI4_1:
	tbh	[pc, r0, lsl #1]
.Ltmp305:
@ %bb.28:
.LJTI4_9:
	.short	(.LBB4_30-(.LCPI4_1+4))/2
	.short	(.LBB4_97-(.LCPI4_1+4))/2
	.short	(.LBB4_115-(.LCPI4_1+4))/2
	.short	(.LBB4_29-(.LCPI4_1+4))/2
	.p2align	1
	.p2align	2
.LBB4_29:
	b	.LBB4_4
	.p2align	2
.LBB4_30:
.Ltmp306:
	@DEBUG_VALUE: HAL_RCCEx_GetPeriphCLKFreq:srcclk <- $r0
	@DEBUG_VALUE: HAL_RCCEx_GetPeriphCLKFreq:frequency <- 0
	.loc	5 1059 25 is_stmt 1             @ c:/Keil_v5\ARM\PACK\Keil\STM32L5xx_DFP\1.3.0\Drivers\STM32L5xx_HAL_Driver\Src\stm32l5xx_hal_rcc_ex.c:1059:25
	pop.w	{r7, lr}
	b	HAL_RCC_GetPCLK2Freq
.Ltmp307:
	.p2align	2
.LBB4_31:
	@DEBUG_VALUE: HAL_RCCEx_GetPeriphCLKFreq:PeriphClk <- $r2
	@DEBUG_VALUE: HAL_RCCEx_GetPeriphCLKFreq:pllvco <- $r1
	@DEBUG_VALUE: HAL_RCCEx_GetPeriphCLKFreq:frequency <- 0
	.loc	5 898 5                         @ c:/Keil_v5\ARM\PACK\Keil\STM32L5xx_DFP\1.3.0\Drivers\STM32L5xx_HAL_Driver\Src\stm32l5xx_hal_rcc_ex.c:898:5
	cmp.w	r2, #8192
	blt	.LBB4_51
.Ltmp308:
@ %bb.32:
	@DEBUG_VALUE: HAL_RCCEx_GetPeriphCLKFreq:PeriphClk <- $r2
	@DEBUG_VALUE: HAL_RCCEx_GetPeriphCLKFreq:pllvco <- $r1
	@DEBUG_VALUE: HAL_RCCEx_GetPeriphCLKFreq:frequency <- 0
	beq.w	.LBB4_60
.Ltmp309:
@ %bb.33:
	@DEBUG_VALUE: HAL_RCCEx_GetPeriphCLKFreq:PeriphClk <- $r2
	@DEBUG_VALUE: HAL_RCCEx_GetPeriphCLKFreq:pllvco <- $r1
	@DEBUG_VALUE: HAL_RCCEx_GetPeriphCLKFreq:frequency <- 0
	cmp.w	r2, #16384
	beq.w	.LBB4_92
.Ltmp310:
@ %bb.34:
	@DEBUG_VALUE: HAL_RCCEx_GetPeriphCLKFreq:PeriphClk <- $r2
	@DEBUG_VALUE: HAL_RCCEx_GetPeriphCLKFreq:pllvco <- $r1
	@DEBUG_VALUE: HAL_RCCEx_GetPeriphCLKFreq:frequency <- 0
	cmp.w	r2, #65536
	bne.w	.LBB4_178
.Ltmp311:
@ %bb.35:
	@DEBUG_VALUE: HAL_RCCEx_GetPeriphCLKFreq:PeriphClk <- $r2
	@DEBUG_VALUE: HAL_RCCEx_GetPeriphCLKFreq:pllvco <- $r1
	@DEBUG_VALUE: HAL_RCCEx_GetPeriphCLKFreq:frequency <- 0
	.loc	5 1275 18                       @ c:/Keil_v5\ARM\PACK\Keil\STM32L5xx_DFP\1.3.0\Drivers\STM32L5xx_HAL_Driver\Src\stm32l5xx_hal_rcc_ex.c:1275:18
	ldr.w	r0, [r3, #156]
	.loc	5 1277 13                       @ c:/Keil_v5\ARM\PACK\Keil\STM32L5xx_DFP\1.3.0\Drivers\STM32L5xx_HAL_Driver\Src\stm32l5xx_hal_rcc_ex.c:1277:13
	lsls	r0, r0, #29
.Ltmp312:
	@DEBUG_VALUE: HAL_RCCEx_GetPeriphCLKFreq:srcclk <- $r0
	.loc	5 1279 23                       @ c:/Keil_v5\ARM\PACK\Keil\STM32L5xx_DFP\1.3.0\Drivers\STM32L5xx_HAL_Driver\Src\stm32l5xx_hal_rcc_ex.c:1279:23
	pop.w	{r7, lr}
	it	pl
	bpl	HAL_RCC_GetPCLK2Freq
.Ltmp313:
	.loc	5 1283 23                       @ c:/Keil_v5\ARM\PACK\Keil\STM32L5xx_DFP\1.3.0\Drivers\STM32L5xx_HAL_Driver\Src\stm32l5xx_hal_rcc_ex.c:1283:23
	b	HAL_RCC_GetSysClockFreq
.Ltmp314:
	.p2align	2
.LBB4_36:
	@DEBUG_VALUE: HAL_RCCEx_GetPeriphCLKFreq:PeriphClk <- $r2
	@DEBUG_VALUE: HAL_RCCEx_GetPeriphCLKFreq:pllvco <- $r1
	@DEBUG_VALUE: HAL_RCCEx_GetPeriphCLKFreq:frequency <- 0
	.loc	5 898 5                         @ c:/Keil_v5\ARM\PACK\Keil\STM32L5xx_DFP\1.3.0\Drivers\STM32L5xx_HAL_Driver\Src\stm32l5xx_hal_rcc_ex.c:898:5
	cmp.w	r2, #512
	bge	.LBB4_54
.Ltmp315:
@ %bb.37:
	@DEBUG_VALUE: HAL_RCCEx_GetPeriphCLKFreq:PeriphClk <- $r2
	@DEBUG_VALUE: HAL_RCCEx_GetPeriphCLKFreq:pllvco <- $r1
	@DEBUG_VALUE: HAL_RCCEx_GetPeriphCLKFreq:frequency <- 0
	cmp	r2, #128
	beq.w	.LBB4_94
.Ltmp316:
@ %bb.38:
	@DEBUG_VALUE: HAL_RCCEx_GetPeriphCLKFreq:PeriphClk <- $r2
	@DEBUG_VALUE: HAL_RCCEx_GetPeriphCLKFreq:pllvco <- $r1
	@DEBUG_VALUE: HAL_RCCEx_GetPeriphCLKFreq:frequency <- 0
	cmp.w	r2, #256
	bne.w	.LBB4_178
.Ltmp317:
@ %bb.39:
	@DEBUG_VALUE: HAL_RCCEx_GetPeriphCLKFreq:PeriphClk <- $r2
	@DEBUG_VALUE: HAL_RCCEx_GetPeriphCLKFreq:pllvco <- $r1
	@DEBUG_VALUE: HAL_RCCEx_GetPeriphCLKFreq:frequency <- 0
	.loc	5 1373 18                       @ c:/Keil_v5\ARM\PACK\Keil\STM32L5xx_DFP\1.3.0\Drivers\STM32L5xx_HAL_Driver\Src\stm32l5xx_hal_rcc_ex.c:1373:18
	ldr.w	r0, [r3, #136]
	and	r0, r0, #196608
.Ltmp318:
	@DEBUG_VALUE: HAL_RCCEx_GetPeriphCLKFreq:srcclk <- $r0
	.loc	5 1375 9                        @ c:/Keil_v5\ARM\PACK\Keil\STM32L5xx_DFP\1.3.0\Drivers\STM32L5xx_HAL_Driver\Src\stm32l5xx_hal_rcc_ex.c:1375:9
	cmp.w	r0, #131072
	beq.w	.LBB4_115
.Ltmp319:
@ %bb.40:
	@DEBUG_VALUE: HAL_RCCEx_GetPeriphCLKFreq:PeriphClk <- $r2
	@DEBUG_VALUE: HAL_RCCEx_GetPeriphCLKFreq:pllvco <- $r1
	@DEBUG_VALUE: HAL_RCCEx_GetPeriphCLKFreq:srcclk <- $r0
	@DEBUG_VALUE: HAL_RCCEx_GetPeriphCLKFreq:frequency <- 0
	cmp.w	r0, #65536
	beq.w	.LBB4_97
.Ltmp320:
@ %bb.41:
	@DEBUG_VALUE: HAL_RCCEx_GetPeriphCLKFreq:PeriphClk <- $r2
	@DEBUG_VALUE: HAL_RCCEx_GetPeriphCLKFreq:pllvco <- $r1
	@DEBUG_VALUE: HAL_RCCEx_GetPeriphCLKFreq:srcclk <- $r0
	@DEBUG_VALUE: HAL_RCCEx_GetPeriphCLKFreq:frequency <- 0
	cmp	r0, #0
	itt	ne
	movne	r0, #0
.Ltmp321:
	@DEBUG_VALUE: HAL_RCCEx_GetPeriphCLKFreq:frequency <- $r0
	.loc	5 1592 3                        @ c:/Keil_v5\ARM\PACK\Keil\STM32L5xx_DFP\1.3.0\Drivers\STM32L5xx_HAL_Driver\Src\stm32l5xx_hal_rcc_ex.c:1592:3
	popne	{r7, pc}
.Ltmp322:
.LBB4_42:
	@DEBUG_VALUE: HAL_RCCEx_GetPeriphCLKFreq:PeriphClk <- $r2
	@DEBUG_VALUE: HAL_RCCEx_GetPeriphCLKFreq:pllvco <- $r1
	@DEBUG_VALUE: HAL_RCCEx_GetPeriphCLKFreq:frequency <- $r0
	.loc	5 1378 25                       @ c:/Keil_v5\ARM\PACK\Keil\STM32L5xx_DFP\1.3.0\Drivers\STM32L5xx_HAL_Driver\Src\stm32l5xx_hal_rcc_ex.c:1378:25
	b	.LBB4_18
.Ltmp323:
	.p2align	2
.LBB4_43:
	@DEBUG_VALUE: HAL_RCCEx_GetPeriphCLKFreq:PeriphClk <- $r2
	@DEBUG_VALUE: HAL_RCCEx_GetPeriphCLKFreq:pllvco <- $r1
	@DEBUG_VALUE: HAL_RCCEx_GetPeriphCLKFreq:frequency <- 0
	.loc	5 898 5                         @ c:/Keil_v5\ARM\PACK\Keil\STM32L5xx_DFP\1.3.0\Drivers\STM32L5xx_HAL_Driver\Src\stm32l5xx_hal_rcc_ex.c:898:5
	beq.w	.LBB4_106
.Ltmp324:
@ %bb.44:
	@DEBUG_VALUE: HAL_RCCEx_GetPeriphCLKFreq:PeriphClk <- $r2
	@DEBUG_VALUE: HAL_RCCEx_GetPeriphCLKFreq:pllvco <- $r1
	@DEBUG_VALUE: HAL_RCCEx_GetPeriphCLKFreq:frequency <- 0
	cmp.w	r2, #4194304
	beq.w	.LBB4_110
.Ltmp325:
@ %bb.45:
	@DEBUG_VALUE: HAL_RCCEx_GetPeriphCLKFreq:PeriphClk <- $r2
	@DEBUG_VALUE: HAL_RCCEx_GetPeriphCLKFreq:pllvco <- $r1
	@DEBUG_VALUE: HAL_RCCEx_GetPeriphCLKFreq:frequency <- 0
	cmp.w	r2, #33554432
	bne.w	.LBB4_178
.Ltmp326:
@ %bb.46:
	@DEBUG_VALUE: HAL_RCCEx_GetPeriphCLKFreq:PeriphClk <- $r2
	@DEBUG_VALUE: HAL_RCCEx_GetPeriphCLKFreq:pllvco <- $r1
	@DEBUG_VALUE: HAL_RCCEx_GetPeriphCLKFreq:frequency <- 0
	.loc	5 1529 18                       @ c:/Keil_v5\ARM\PACK\Keil\STM32L5xx_DFP\1.3.0\Drivers\STM32L5xx_HAL_Driver\Src\stm32l5xx_hal_rcc_ex.c:1529:18
	ldr.w	r0, [r3, #136]
	and	r0, r0, #50331648
.Ltmp327:
	@DEBUG_VALUE: HAL_RCCEx_GetPeriphCLKFreq:srcclk <- $r0
	.loc	5 1531 9                        @ c:/Keil_v5\ARM\PACK\Keil\STM32L5xx_DFP\1.3.0\Drivers\STM32L5xx_HAL_Driver\Src\stm32l5xx_hal_rcc_ex.c:1531:9
	cmp.w	r0, #33554432
	beq.w	.LBB4_130
.Ltmp328:
@ %bb.47:
	@DEBUG_VALUE: HAL_RCCEx_GetPeriphCLKFreq:PeriphClk <- $r2
	@DEBUG_VALUE: HAL_RCCEx_GetPeriphCLKFreq:pllvco <- $r1
	@DEBUG_VALUE: HAL_RCCEx_GetPeriphCLKFreq:srcclk <- $r0
	@DEBUG_VALUE: HAL_RCCEx_GetPeriphCLKFreq:frequency <- 0
	cmp.w	r0, #16777216
	beq.w	.LBB4_136
.Ltmp329:
@ %bb.48:
	@DEBUG_VALUE: HAL_RCCEx_GetPeriphCLKFreq:PeriphClk <- $r2
	@DEBUG_VALUE: HAL_RCCEx_GetPeriphCLKFreq:pllvco <- $r1
	@DEBUG_VALUE: HAL_RCCEx_GetPeriphCLKFreq:srcclk <- $r0
	@DEBUG_VALUE: HAL_RCCEx_GetPeriphCLKFreq:frequency <- 0
	cmp	r0, #0
	itt	ne
	movne	r0, #0
.Ltmp330:
	@DEBUG_VALUE: HAL_RCCEx_GetPeriphCLKFreq:frequency <- $r0
	.loc	5 1592 3                        @ c:/Keil_v5\ARM\PACK\Keil\STM32L5xx_DFP\1.3.0\Drivers\STM32L5xx_HAL_Driver\Src\stm32l5xx_hal_rcc_ex.c:1592:3
	popne	{r7, pc}
.Ltmp331:
.LBB4_49:
	@DEBUG_VALUE: HAL_RCCEx_GetPeriphCLKFreq:PeriphClk <- $r2
	@DEBUG_VALUE: HAL_RCCEx_GetPeriphCLKFreq:pllvco <- $r1
	@DEBUG_VALUE: HAL_RCCEx_GetPeriphCLKFreq:frequency <- $r0
	.loc	5 1534 17                       @ c:/Keil_v5\ARM\PACK\Keil\STM32L5xx_DFP\1.3.0\Drivers\STM32L5xx_HAL_Driver\Src\stm32l5xx_hal_rcc_ex.c:1534:17
	ldr	r0, [r3]
.Ltmp332:
	lsls	r0, r0, #14
	b	.LBB4_116
.Ltmp333:
	.p2align	2
.LBB4_50:
	@DEBUG_VALUE: HAL_RCCEx_GetPeriphCLKFreq:PeriphClk <- $r2
	@DEBUG_VALUE: HAL_RCCEx_GetPeriphCLKFreq:frequency <- 0
	.loc	5 865 35                        @ c:/Keil_v5\ARM\PACK\Keil\STM32L5xx_DFP\1.3.0\Drivers\STM32L5xx_HAL_Driver\Src\stm32l5xx_hal_rcc_ex.c:865:35
	ldr	r0, [r3]
	movs	r1, #60
	lsls	r0, r0, #28
	itte	pl
	ldrpl.w	r0, [r3, #148]
	lsrpl	r0, r0, #4
	ldrmi	r0, [r3]
	.loc	5 865 20 is_stmt 0              @ c:/Keil_v5\ARM\PACK\Keil\STM32L5xx_DFP\1.3.0\Drivers\STM32L5xx_HAL_Driver\Src\stm32l5xx_hal_rcc_ex.c:865:20
	and.w	r0, r1, r0, lsr #2
	movw	r1, :lower16:MSIRangeTable
	movt	r1, :upper16:MSIRangeTable
	ldr	r1, [r1, r0]
.Ltmp334:
	@DEBUG_VALUE: HAL_RCCEx_GetPeriphCLKFreq:pllvco <- $r1
	.loc	5 898 5 is_stmt 1               @ c:/Keil_v5\ARM\PACK\Keil\STM32L5xx_DFP\1.3.0\Drivers\STM32L5xx_HAL_Driver\Src\stm32l5xx_hal_rcc_ex.c:898:5
	cmp.w	r2, #2048
	mov.w	r0, #0
	@DEBUG_VALUE: HAL_RCCEx_GetPeriphCLKFreq:pllvco <- $r1
	blt.w	.LBB4_23
	b	.LBB4_10
.Ltmp335:
	.p2align	2
.LBB4_51:
	@DEBUG_VALUE: HAL_RCCEx_GetPeriphCLKFreq:PeriphClk <- $r2
	@DEBUG_VALUE: HAL_RCCEx_GetPeriphCLKFreq:pllvco <- $r1
	@DEBUG_VALUE: HAL_RCCEx_GetPeriphCLKFreq:frequency <- 0
	cmp.w	r2, #2048
	beq.w	.LBB4_109
.Ltmp336:
@ %bb.52:
	@DEBUG_VALUE: HAL_RCCEx_GetPeriphCLKFreq:PeriphClk <- $r2
	@DEBUG_VALUE: HAL_RCCEx_GetPeriphCLKFreq:pllvco <- $r1
	@DEBUG_VALUE: HAL_RCCEx_GetPeriphCLKFreq:frequency <- 0
	cmp.w	r2, #4096
	bne.w	.LBB4_178
.Ltmp337:
@ %bb.53:
	@DEBUG_VALUE: HAL_RCCEx_GetPeriphCLKFreq:PeriphClk <- $r2
	@DEBUG_VALUE: HAL_RCCEx_GetPeriphCLKFreq:pllvco <- $r1
	@DEBUG_VALUE: HAL_RCCEx_GetPeriphCLKFreq:frequency <- 0
	.loc	5 905 21                        @ c:/Keil_v5\ARM\PACK\Keil\STM32L5xx_DFP\1.3.0\Drivers\STM32L5xx_HAL_Driver\Src\stm32l5xx_hal_rcc_ex.c:905:21
	mov.w	r0, #4096
	pop.w	{r7, lr}
	b	RCCEx_GetSAIxPeriphCLKFreq
.Ltmp338:
	.p2align	2
.LBB4_54:
	@DEBUG_VALUE: HAL_RCCEx_GetPeriphCLKFreq:PeriphClk <- $r2
	@DEBUG_VALUE: HAL_RCCEx_GetPeriphCLKFreq:pllvco <- $r1
	@DEBUG_VALUE: HAL_RCCEx_GetPeriphCLKFreq:frequency <- 0
	.loc	5 898 5                         @ c:/Keil_v5\ARM\PACK\Keil\STM32L5xx_DFP\1.3.0\Drivers\STM32L5xx_HAL_Driver\Src\stm32l5xx_hal_rcc_ex.c:898:5
	beq.w	.LBB4_98
.Ltmp339:
@ %bb.55:
	@DEBUG_VALUE: HAL_RCCEx_GetPeriphCLKFreq:PeriphClk <- $r2
	@DEBUG_VALUE: HAL_RCCEx_GetPeriphCLKFreq:pllvco <- $r1
	@DEBUG_VALUE: HAL_RCCEx_GetPeriphCLKFreq:frequency <- 0
	cmp.w	r2, #1024
	bne.w	.LBB4_178
.Ltmp340:
@ %bb.56:
	@DEBUG_VALUE: HAL_RCCEx_GetPeriphCLKFreq:PeriphClk <- $r2
	@DEBUG_VALUE: HAL_RCCEx_GetPeriphCLKFreq:pllvco <- $r1
	@DEBUG_VALUE: HAL_RCCEx_GetPeriphCLKFreq:frequency <- 0
	.loc	5 1459 18                       @ c:/Keil_v5\ARM\PACK\Keil\STM32L5xx_DFP\1.3.0\Drivers\STM32L5xx_HAL_Driver\Src\stm32l5xx_hal_rcc_ex.c:1459:18
	ldr.w	r0, [r3, #136]
.Ltmp341:
	@DEBUG_VALUE: HAL_RCCEx_GetPeriphCLKFreq:srcclk <- [DW_OP_constu 3145728, DW_OP_and, DW_OP_stack_value] $r0
	.loc	5 1461 9                        @ c:/Keil_v5\ARM\PACK\Keil\STM32L5xx_DFP\1.3.0\Drivers\STM32L5xx_HAL_Driver\Src\stm32l5xx_hal_rcc_ex.c:1461:9
	ubfx	r0, r0, #20, #2
.Ltmp342:
	.loc	5 0 9 is_stmt 0                 @ c:/Keil_v5\ARM\PACK\Keil\STM32L5xx_DFP\1.3.0\Drivers\STM32L5xx_HAL_Driver\Src\stm32l5xx_hal_rcc_ex.c:0:9
.LCPI4_2:
	tbh	[pc, r0, lsl #1]
.Ltmp343:
@ %bb.57:
.LJTI4_2:
	.short	(.LBB4_59-(.LCPI4_2+4))/2
	.short	(.LBB4_114-(.LCPI4_2+4))/2
	.short	(.LBB4_115-(.LCPI4_2+4))/2
	.short	(.LBB4_58-(.LCPI4_2+4))/2
	.p2align	1
	.p2align	2
.LBB4_58:
	b	.LBB4_4
	.p2align	2
.LBB4_59:
	b	.LBB4_18
	.p2align	2
.LBB4_60:
.Ltmp344:
	@DEBUG_VALUE: HAL_RCCEx_GetPeriphCLKFreq:PeriphClk <- $r2
	@DEBUG_VALUE: HAL_RCCEx_GetPeriphCLKFreq:pllvco <- $r1
	@DEBUG_VALUE: HAL_RCCEx_GetPeriphCLKFreq:frequency <- 0
	.loc	5 916 18 is_stmt 1              @ c:/Keil_v5\ARM\PACK\Keil\STM32L5xx_DFP\1.3.0\Drivers\STM32L5xx_HAL_Driver\Src\stm32l5xx_hal_rcc_ex.c:916:18
	ldr.w	r0, [r3, #136]
.Ltmp345:
	@DEBUG_VALUE: HAL_RCCEx_GetPeriphCLKFreq:srcclk <- [DW_OP_constu 201326592, DW_OP_and, DW_OP_stack_value] $r0
	.loc	5 918 9                         @ c:/Keil_v5\ARM\PACK\Keil\STM32L5xx_DFP\1.3.0\Drivers\STM32L5xx_HAL_Driver\Src\stm32l5xx_hal_rcc_ex.c:918:9
	ubfx	r0, r0, #26, #2
.Ltmp346:
	.loc	5 0 9 is_stmt 0                 @ c:/Keil_v5\ARM\PACK\Keil\STM32L5xx_DFP\1.3.0\Drivers\STM32L5xx_HAL_Driver\Src\stm32l5xx_hal_rcc_ex.c:0:9
.LCPI4_3:
	tbh	[pc, r0, lsl #1]
.Ltmp347:
@ %bb.61:
.LJTI4_11:
	.short	(.LBB4_105-(.LCPI4_3+4))/2
	.short	(.LBB4_62-(.LCPI4_3+4))/2
	.short	(.LBB4_117-(.LCPI4_3+4))/2
	.short	(.LBB4_118-(.LCPI4_3+4))/2
	.p2align	1
	.p2align	2
.LBB4_62:
.Ltmp348:
	@DEBUG_VALUE: HAL_RCCEx_GetPeriphCLKFreq:pllvco <- $r1
	@DEBUG_VALUE: HAL_RCCEx_GetPeriphCLKFreq:frequency <- 0
	.loc	5 941 17 is_stmt 1              @ c:/Keil_v5\ARM\PACK\Keil\STM32L5xx_DFP\1.3.0\Drivers\STM32L5xx_HAL_Driver\Src\stm32l5xx_hal_rcc_ex.c:941:17
	ldr	r0, [r3]
.Ltmp349:
	.loc	5 941 17 is_stmt 0              @ c:/Keil_v5\ARM\PACK\Keil\STM32L5xx_DFP\1.3.0\Drivers\STM32L5xx_HAL_Driver\Src\stm32l5xx_hal_rcc_ex.c:941:17
	lsls	r0, r0, #4
.Ltmp350:
	.loc	5 943 19 is_stmt 1              @ c:/Keil_v5\ARM\PACK\Keil\STM32L5xx_DFP\1.3.0\Drivers\STM32L5xx_HAL_Driver\Src\stm32l5xx_hal_rcc_ex.c:943:19
	itt	mi
	ldrmi	r0, [r3, #16]
.Ltmp351:
	.loc	5 943 19 is_stmt 0              @ c:/Keil_v5\ARM\PACK\Keil\STM32L5xx_DFP\1.3.0\Drivers\STM32L5xx_HAL_Driver\Src\stm32l5xx_hal_rcc_ex.c:943:19
	lslsmi.w	r0, r0, #11
	bpl.w	.LBB4_151
.Ltmp352:
@ %bb.63:
	@DEBUG_VALUE: HAL_RCCEx_GetPeriphCLKFreq:pllvco <- $r1
	@DEBUG_VALUE: HAL_RCCEx_GetPeriphCLKFreq:frequency <- 0
	@DEBUG_VALUE: RCCEx_PLLSAI1_GetVCOFreq:pllvco <- 0
	.loc	5 2714 11 is_stmt 1             @ c:/Keil_v5\ARM\PACK\Keil\STM32L5xx_DFP\1.3.0\Drivers\STM32L5xx_HAL_Driver\Src\stm32l5xx_hal_rcc_ex.c:2714:11
	ldr	r0, [r3, #16]
	and	r0, r0, #3
	.loc	5 2714 3 is_stmt 0              @ c:/Keil_v5\ARM\PACK\Keil\STM32L5xx_DFP\1.3.0\Drivers\STM32L5xx_HAL_Driver\Src\stm32l5xx_hal_rcc_ex.c:2714:3
	cmp	r0, #3
	beq.w	.LBB4_161
.Ltmp353:
@ %bb.64:
	@DEBUG_VALUE: HAL_RCCEx_GetPeriphCLKFreq:pllvco <- $r1
	@DEBUG_VALUE: RCCEx_PLLSAI1_GetVCOFreq:pllvco <- 0
	@DEBUG_VALUE: HAL_RCCEx_GetPeriphCLKFreq:frequency <- 0
	cmp	r0, #2
	beq.w	.LBB4_162
.Ltmp354:
@ %bb.65:
	@DEBUG_VALUE: HAL_RCCEx_GetPeriphCLKFreq:pllvco <- $r1
	@DEBUG_VALUE: RCCEx_PLLSAI1_GetVCOFreq:pllvco <- 0
	@DEBUG_VALUE: HAL_RCCEx_GetPeriphCLKFreq:frequency <- 0
	cmp	r0, #1
	bne.w	.LBB4_146
.Ltmp355:
@ %bb.66:
	@DEBUG_VALUE: HAL_RCCEx_GetPeriphCLKFreq:pllvco <- $r1
	@DEBUG_VALUE: RCCEx_PLLSAI1_GetVCOFreq:pllvco <- 0
	@DEBUG_VALUE: HAL_RCCEx_GetPeriphCLKFreq:frequency <- 0
	.loc	5 2717 11 is_stmt 1             @ c:/Keil_v5\ARM\PACK\Keil\STM32L5xx_DFP\1.3.0\Drivers\STM32L5xx_HAL_Driver\Src\stm32l5xx_hal_rcc_ex.c:2717:11
	ldr	r0, [r3]
.Ltmp356:
	.loc	5 2717 11 is_stmt 0             @ c:/Keil_v5\ARM\PACK\Keil\STM32L5xx_DFP\1.3.0\Drivers\STM32L5xx_HAL_Driver\Src\stm32l5xx_hal_rcc_ex.c:2717:11
	lsls	r0, r0, #30
	bpl.w	.LBB4_146
.Ltmp357:
.LBB4_67:
	@DEBUG_VALUE: HAL_RCCEx_GetPeriphCLKFreq:pllvco <- $r1
	@DEBUG_VALUE: HAL_RCCEx_GetPeriphCLKFreq:frequency <- 0
	.loc	5 0 0                           @ c:/Keil_v5\ARM\PACK\Keil\STM32L5xx_DFP\1.3.0\Drivers\STM32L5xx_HAL_Driver\Src\stm32l5xx_hal_rcc_ex.c:0:0
	ldr	r0, [r3]
	lsls	r0, r0, #28
	bmi.w	.LBB4_179
.Ltmp358:
@ %bb.68:
	@DEBUG_VALUE: HAL_RCCEx_GetPeriphCLKFreq:pllvco <- $r1
	@DEBUG_VALUE: HAL_RCCEx_GetPeriphCLKFreq:frequency <- 0
	ldr.w	r0, [r3, #148]
	lsrs	r0, r0, #4
	b	.LBB4_180
.Ltmp359:
	.p2align	2
.LBB4_69:
	@DEBUG_VALUE: HAL_RCCEx_GetPeriphCLKFreq:frequency <- 0
	.loc	5 1086 18 is_stmt 1             @ c:/Keil_v5\ARM\PACK\Keil\STM32L5xx_DFP\1.3.0\Drivers\STM32L5xx_HAL_Driver\Src\stm32l5xx_hal_rcc_ex.c:1086:18
	ldr.w	r0, [r3, #136]
.Ltmp360:
	@DEBUG_VALUE: HAL_RCCEx_GetPeriphCLKFreq:srcclk <- [DW_OP_constu 12, DW_OP_and, DW_OP_stack_value] $r0
	.loc	5 1088 9                        @ c:/Keil_v5\ARM\PACK\Keil\STM32L5xx_DFP\1.3.0\Drivers\STM32L5xx_HAL_Driver\Src\stm32l5xx_hal_rcc_ex.c:1088:9
	ubfx	r0, r0, #2, #2
.Ltmp361:
	.loc	5 0 9 is_stmt 0                 @ c:/Keil_v5\ARM\PACK\Keil\STM32L5xx_DFP\1.3.0\Drivers\STM32L5xx_HAL_Driver\Src\stm32l5xx_hal_rcc_ex.c:0:9
.LCPI4_4:
	tbh	[pc, r0, lsl #1]
.Ltmp362:
@ %bb.70:
.LJTI4_8:
	.short	(.LBB4_72-(.LCPI4_4+4))/2
	.short	(.LBB4_97-(.LCPI4_4+4))/2
	.short	(.LBB4_115-(.LCPI4_4+4))/2
	.short	(.LBB4_71-(.LCPI4_4+4))/2
	.p2align	1
	.p2align	2
.LBB4_71:
	b	.LBB4_4
	.p2align	2
.LBB4_72:
	b	.LBB4_18
	.p2align	2
.LBB4_73:
.Ltmp363:
	@DEBUG_VALUE: HAL_RCCEx_GetPeriphCLKFreq:frequency <- 0
	.loc	5 1118 18 is_stmt 1             @ c:/Keil_v5\ARM\PACK\Keil\STM32L5xx_DFP\1.3.0\Drivers\STM32L5xx_HAL_Driver\Src\stm32l5xx_hal_rcc_ex.c:1118:18
	ldr.w	r0, [r3, #136]
.Ltmp364:
	@DEBUG_VALUE: HAL_RCCEx_GetPeriphCLKFreq:srcclk <- [DW_OP_constu 48, DW_OP_and, DW_OP_stack_value] $r0
	.loc	5 1120 9                        @ c:/Keil_v5\ARM\PACK\Keil\STM32L5xx_DFP\1.3.0\Drivers\STM32L5xx_HAL_Driver\Src\stm32l5xx_hal_rcc_ex.c:1120:9
	ubfx	r0, r0, #4, #2
.Ltmp365:
	.loc	5 0 9 is_stmt 0                 @ c:/Keil_v5\ARM\PACK\Keil\STM32L5xx_DFP\1.3.0\Drivers\STM32L5xx_HAL_Driver\Src\stm32l5xx_hal_rcc_ex.c:0:9
.LCPI4_5:
	tbb	[pc, r0]
.Ltmp366:
@ %bb.74:
.LJTI4_7:
	.byte	(.LBB4_76-(.LCPI4_5+4))/2
	.byte	(.LBB4_97-(.LCPI4_5+4))/2
	.byte	(.LBB4_115-(.LCPI4_5+4))/2
	.byte	(.LBB4_75-(.LCPI4_5+4))/2
	.p2align	1
	.p2align	2
.LBB4_75:
	b	.LBB4_4
	.p2align	2
.LBB4_76:
	b	.LBB4_18
	.p2align	2
.LBB4_77:
.Ltmp367:
	@DEBUG_VALUE: HAL_RCCEx_GetPeriphCLKFreq:frequency <- 0
	.loc	5 1150 18 is_stmt 1             @ c:/Keil_v5\ARM\PACK\Keil\STM32L5xx_DFP\1.3.0\Drivers\STM32L5xx_HAL_Driver\Src\stm32l5xx_hal_rcc_ex.c:1150:18
	ldr.w	r0, [r3, #136]
.Ltmp368:
	@DEBUG_VALUE: HAL_RCCEx_GetPeriphCLKFreq:srcclk <- [DW_OP_constu 192, DW_OP_and, DW_OP_stack_value] $r0
	.loc	5 1152 9                        @ c:/Keil_v5\ARM\PACK\Keil\STM32L5xx_DFP\1.3.0\Drivers\STM32L5xx_HAL_Driver\Src\stm32l5xx_hal_rcc_ex.c:1152:9
	ubfx	r0, r0, #6, #2
.Ltmp369:
	.loc	5 0 9 is_stmt 0                 @ c:/Keil_v5\ARM\PACK\Keil\STM32L5xx_DFP\1.3.0\Drivers\STM32L5xx_HAL_Driver\Src\stm32l5xx_hal_rcc_ex.c:0:9
.LCPI4_6:
	tbb	[pc, r0]
.Ltmp370:
@ %bb.78:
.LJTI4_6:
	.byte	(.LBB4_80-(.LCPI4_6+4))/2
	.byte	(.LBB4_97-(.LCPI4_6+4))/2
	.byte	(.LBB4_115-(.LCPI4_6+4))/2
	.byte	(.LBB4_79-(.LCPI4_6+4))/2
	.p2align	1
	.p2align	2
.LBB4_79:
	b	.LBB4_4
	.p2align	2
.LBB4_80:
	b	.LBB4_18
	.p2align	2
.LBB4_81:
.Ltmp371:
	@DEBUG_VALUE: HAL_RCCEx_GetPeriphCLKFreq:frequency <- 0
	.loc	5 1182 18 is_stmt 1             @ c:/Keil_v5\ARM\PACK\Keil\STM32L5xx_DFP\1.3.0\Drivers\STM32L5xx_HAL_Driver\Src\stm32l5xx_hal_rcc_ex.c:1182:18
	ldr.w	r0, [r3, #136]
.Ltmp372:
	@DEBUG_VALUE: HAL_RCCEx_GetPeriphCLKFreq:srcclk <- [DW_OP_constu 768, DW_OP_and, DW_OP_stack_value] $r0
	.loc	5 1184 9                        @ c:/Keil_v5\ARM\PACK\Keil\STM32L5xx_DFP\1.3.0\Drivers\STM32L5xx_HAL_Driver\Src\stm32l5xx_hal_rcc_ex.c:1184:9
	ubfx	r0, r0, #8, #2
.Ltmp373:
	.loc	5 0 9 is_stmt 0                 @ c:/Keil_v5\ARM\PACK\Keil\STM32L5xx_DFP\1.3.0\Drivers\STM32L5xx_HAL_Driver\Src\stm32l5xx_hal_rcc_ex.c:0:9
.LCPI4_7:
	tbb	[pc, r0]
.Ltmp374:
@ %bb.82:
.LJTI4_5:
	.byte	(.LBB4_84-(.LCPI4_7+4))/2
	.byte	(.LBB4_97-(.LCPI4_7+4))/2
	.byte	(.LBB4_115-(.LCPI4_7+4))/2
	.byte	(.LBB4_83-(.LCPI4_7+4))/2
	.p2align	1
	.p2align	2
.LBB4_83:
	b	.LBB4_4
	.p2align	2
.LBB4_84:
	b	.LBB4_18
	.p2align	2
.LBB4_85:
.Ltmp375:
	@DEBUG_VALUE: HAL_RCCEx_GetPeriphCLKFreq:frequency <- 0
	.loc	5 1214 18 is_stmt 1             @ c:/Keil_v5\ARM\PACK\Keil\STM32L5xx_DFP\1.3.0\Drivers\STM32L5xx_HAL_Driver\Src\stm32l5xx_hal_rcc_ex.c:1214:18
	ldr.w	r0, [r3, #136]
.Ltmp376:
	@DEBUG_VALUE: HAL_RCCEx_GetPeriphCLKFreq:srcclk <- [DW_OP_constu 3072, DW_OP_and, DW_OP_stack_value] $r0
	.loc	5 1216 9                        @ c:/Keil_v5\ARM\PACK\Keil\STM32L5xx_DFP\1.3.0\Drivers\STM32L5xx_HAL_Driver\Src\stm32l5xx_hal_rcc_ex.c:1216:9
	ubfx	r0, r0, #10, #2
.Ltmp377:
	.loc	5 0 9 is_stmt 0                 @ c:/Keil_v5\ARM\PACK\Keil\STM32L5xx_DFP\1.3.0\Drivers\STM32L5xx_HAL_Driver\Src\stm32l5xx_hal_rcc_ex.c:0:9
.LCPI4_8:
	tbb	[pc, r0]
.Ltmp378:
@ %bb.86:
.LJTI4_4:
	.byte	(.LBB4_88-(.LCPI4_8+4))/2
	.byte	(.LBB4_97-(.LCPI4_8+4))/2
	.byte	(.LBB4_115-(.LCPI4_8+4))/2
	.byte	(.LBB4_87-(.LCPI4_8+4))/2
	.p2align	1
	.p2align	2
.LBB4_87:
	b	.LBB4_4
	.p2align	2
.LBB4_88:
	b	.LBB4_18
	.p2align	2
.LBB4_89:
.Ltmp379:
	@DEBUG_VALUE: HAL_RCCEx_GetPeriphCLKFreq:frequency <- 0
	.loc	5 1321 18 is_stmt 1             @ c:/Keil_v5\ARM\PACK\Keil\STM32L5xx_DFP\1.3.0\Drivers\STM32L5xx_HAL_Driver\Src\stm32l5xx_hal_rcc_ex.c:1321:18
	ldr.w	r0, [r3, #136]
	and	r0, r0, #12288
.Ltmp380:
	@DEBUG_VALUE: HAL_RCCEx_GetPeriphCLKFreq:srcclk <- $r0
	.loc	5 1323 9                        @ c:/Keil_v5\ARM\PACK\Keil\STM32L5xx_DFP\1.3.0\Drivers\STM32L5xx_HAL_Driver\Src\stm32l5xx_hal_rcc_ex.c:1323:9
	cmp.w	r0, #8192
	beq.w	.LBB4_115
.Ltmp381:
@ %bb.90:
	@DEBUG_VALUE: HAL_RCCEx_GetPeriphCLKFreq:srcclk <- $r0
	@DEBUG_VALUE: HAL_RCCEx_GetPeriphCLKFreq:frequency <- 0
	cmp.w	r0, #4096
	beq	.LBB4_97
.Ltmp382:
@ %bb.91:
	@DEBUG_VALUE: HAL_RCCEx_GetPeriphCLKFreq:srcclk <- $r0
	@DEBUG_VALUE: HAL_RCCEx_GetPeriphCLKFreq:frequency <- 0
	cmp	r0, #0
	bne.w	.LBB4_151
	b	.LBB4_18
.Ltmp383:
	.p2align	2
.LBB4_92:
	@DEBUG_VALUE: HAL_RCCEx_GetPeriphCLKFreq:PeriphClk <- $r2
	@DEBUG_VALUE: HAL_RCCEx_GetPeriphCLKFreq:pllvco <- $r1
	@DEBUG_VALUE: HAL_RCCEx_GetPeriphCLKFreq:frequency <- 0
	.loc	5 1246 18                       @ c:/Keil_v5\ARM\PACK\Keil\STM32L5xx_DFP\1.3.0\Drivers\STM32L5xx_HAL_Driver\Src\stm32l5xx_hal_rcc_ex.c:1246:18
	ldr.w	r0, [r3, #136]
	and	r0, r0, #805306368
.Ltmp384:
	@DEBUG_VALUE: HAL_RCCEx_GetPeriphCLKFreq:srcclk <- $r0
	.loc	5 1248 9                        @ c:/Keil_v5\ARM\PACK\Keil\STM32L5xx_DFP\1.3.0\Drivers\STM32L5xx_HAL_Driver\Src\stm32l5xx_hal_rcc_ex.c:1248:9
	cmp.w	r0, #268435456
	beq.w	.LBB4_124
.Ltmp385:
@ %bb.93:
	@DEBUG_VALUE: HAL_RCCEx_GetPeriphCLKFreq:PeriphClk <- $r2
	@DEBUG_VALUE: HAL_RCCEx_GetPeriphCLKFreq:pllvco <- $r1
	@DEBUG_VALUE: HAL_RCCEx_GetPeriphCLKFreq:srcclk <- $r0
	@DEBUG_VALUE: HAL_RCCEx_GetPeriphCLKFreq:frequency <- 0
	cmp.w	r0, #805306368
	beq	.LBB4_97
	b	.LBB4_151
.Ltmp386:
	.p2align	2
.LBB4_94:
	@DEBUG_VALUE: HAL_RCCEx_GetPeriphCLKFreq:PeriphClk <- $r2
	@DEBUG_VALUE: HAL_RCCEx_GetPeriphCLKFreq:pllvco <- $r1
	@DEBUG_VALUE: HAL_RCCEx_GetPeriphCLKFreq:frequency <- 0
	.loc	5 1347 18                       @ c:/Keil_v5\ARM\PACK\Keil\STM32L5xx_DFP\1.3.0\Drivers\STM32L5xx_HAL_Driver\Src\stm32l5xx_hal_rcc_ex.c:1347:18
	ldr.w	r0, [r3, #136]
.Ltmp387:
	@DEBUG_VALUE: HAL_RCCEx_GetPeriphCLKFreq:srcclk <- [DW_OP_constu 49152, DW_OP_and, DW_OP_stack_value] $r0
	.loc	5 1349 9                        @ c:/Keil_v5\ARM\PACK\Keil\STM32L5xx_DFP\1.3.0\Drivers\STM32L5xx_HAL_Driver\Src\stm32l5xx_hal_rcc_ex.c:1349:9
	and	r0, r0, #49152
.Ltmp388:
	cmp.w	r0, #32768
	beq	.LBB4_115
.Ltmp389:
@ %bb.95:
	@DEBUG_VALUE: HAL_RCCEx_GetPeriphCLKFreq:PeriphClk <- $r2
	@DEBUG_VALUE: HAL_RCCEx_GetPeriphCLKFreq:pllvco <- $r1
	@DEBUG_VALUE: HAL_RCCEx_GetPeriphCLKFreq:frequency <- 0
	cmp.w	r0, #16384
	beq	.LBB4_97
.Ltmp390:
@ %bb.96:
	@DEBUG_VALUE: HAL_RCCEx_GetPeriphCLKFreq:PeriphClk <- $r2
	@DEBUG_VALUE: HAL_RCCEx_GetPeriphCLKFreq:pllvco <- $r1
	@DEBUG_VALUE: HAL_RCCEx_GetPeriphCLKFreq:frequency <- 0
	cmp	r0, #0
	bne.w	.LBB4_151
	b	.LBB4_18
.Ltmp391:
	.p2align	2
.LBB4_97:
	@DEBUG_VALUE: HAL_RCCEx_GetPeriphCLKFreq:frequency <- 0
	.loc	5 0 0 is_stmt 0                 @ c:/Keil_v5\ARM\PACK\Keil\STM32L5xx_DFP\1.3.0\Drivers\STM32L5xx_HAL_Driver\Src\stm32l5xx_hal_rcc_ex.c:0:0
	pop.w	{r7, lr}
	b	HAL_RCC_GetSysClockFreq
.Ltmp392:
	.p2align	2
.LBB4_98:
	@DEBUG_VALUE: HAL_RCCEx_GetPeriphCLKFreq:PeriphClk <- $r2
	@DEBUG_VALUE: HAL_RCCEx_GetPeriphCLKFreq:pllvco <- $r1
	@DEBUG_VALUE: HAL_RCCEx_GetPeriphCLKFreq:frequency <- 0
	.loc	5 1424 18 is_stmt 1             @ c:/Keil_v5\ARM\PACK\Keil\STM32L5xx_DFP\1.3.0\Drivers\STM32L5xx_HAL_Driver\Src\stm32l5xx_hal_rcc_ex.c:1424:18
	ldr.w	r0, [r3, #136]
.Ltmp393:
	@DEBUG_VALUE: HAL_RCCEx_GetPeriphCLKFreq:srcclk <- [DW_OP_constu 786432, DW_OP_and, DW_OP_stack_value] $r0
	.loc	5 1426 9                        @ c:/Keil_v5\ARM\PACK\Keil\STM32L5xx_DFP\1.3.0\Drivers\STM32L5xx_HAL_Driver\Src\stm32l5xx_hal_rcc_ex.c:1426:9
	ubfx	r0, r0, #18, #2
.Ltmp394:
	.loc	5 0 9 is_stmt 0                 @ c:/Keil_v5\ARM\PACK\Keil\STM32L5xx_DFP\1.3.0\Drivers\STM32L5xx_HAL_Driver\Src\stm32l5xx_hal_rcc_ex.c:0:9
.LCPI4_9:
	tbb	[pc, r0]
.Ltmp395:
@ %bb.99:
.LJTI4_3:
	.byte	(.LBB4_101-(.LCPI4_9+4))/2
	.byte	(.LBB4_114-(.LCPI4_9+4))/2
	.byte	(.LBB4_115-(.LCPI4_9+4))/2
	.byte	(.LBB4_100-(.LCPI4_9+4))/2
	.p2align	1
	.p2align	2
.LBB4_100:
	b	.LBB4_4
	.p2align	2
.LBB4_101:
	b	.LBB4_18
	.p2align	2
.LBB4_102:
.Ltmp396:
	@DEBUG_VALUE: HAL_RCCEx_GetPeriphCLKFreq:PeriphClk <- $r2
	@DEBUG_VALUE: HAL_RCCEx_GetPeriphCLKFreq:pllvco <- $r1
	@DEBUG_VALUE: HAL_RCCEx_GetPeriphCLKFreq:frequency <- 0
	.loc	5 970 13 is_stmt 1              @ c:/Keil_v5\ARM\PACK\Keil\STM32L5xx_DFP\1.3.0\Drivers\STM32L5xx_HAL_Driver\Src\stm32l5xx_hal_rcc_ex.c:970:13
	ldr.w	r0, [r3, #156]
.Ltmp397:
	.loc	5 970 13 is_stmt 0              @ c:/Keil_v5\ARM\PACK\Keil\STM32L5xx_DFP\1.3.0\Drivers\STM32L5xx_HAL_Driver\Src\stm32l5xx_hal_rcc_ex.c:970:13
	lsls	r0, r0, #17
	bmi	.LBB4_120
.Ltmp398:
@ %bb.103:
	@DEBUG_VALUE: HAL_RCCEx_GetPeriphCLKFreq:PeriphClk <- $r2
	@DEBUG_VALUE: HAL_RCCEx_GetPeriphCLKFreq:pllvco <- $r1
	@DEBUG_VALUE: HAL_RCCEx_GetPeriphCLKFreq:frequency <- 0
	.loc	5 998 20 is_stmt 1              @ c:/Keil_v5\ARM\PACK\Keil\STM32L5xx_DFP\1.3.0\Drivers\STM32L5xx_HAL_Driver\Src\stm32l5xx_hal_rcc_ex.c:998:20
	ldr.w	r0, [r3, #136]
.Ltmp399:
	@DEBUG_VALUE: HAL_RCCEx_GetPeriphCLKFreq:srcclk <- [DW_OP_constu 201326592, DW_OP_and, DW_OP_stack_value] $r0
	.loc	5 1000 11                       @ c:/Keil_v5\ARM\PACK\Keil\STM32L5xx_DFP\1.3.0\Drivers\STM32L5xx_HAL_Driver\Src\stm32l5xx_hal_rcc_ex.c:1000:11
	ubfx	r0, r0, #26, #2
.Ltmp400:
	.loc	5 0 11 is_stmt 0                @ c:/Keil_v5\ARM\PACK\Keil\STM32L5xx_DFP\1.3.0\Drivers\STM32L5xx_HAL_Driver\Src\stm32l5xx_hal_rcc_ex.c:0:11
.LCPI4_10:
	tbb	[pc, r0]
.Ltmp401:
@ %bb.104:
.LJTI4_10:
	.byte	(.LBB4_105-(.LCPI4_10+4))/2
	.byte	(.LBB4_141-(.LCPI4_10+4))/2
	.byte	(.LBB4_147-(.LCPI4_10+4))/2
	.byte	(.LBB4_150-(.LCPI4_10+4))/2
	.p2align	1
	.p2align	2
.LBB4_105:
.Ltmp402:
	@DEBUG_VALUE: HAL_RCCEx_GetPeriphCLKFreq:pllvco <- $r1
	@DEBUG_VALUE: HAL_RCCEx_GetPeriphCLKFreq:frequency <- 0
	ldr.w	r0, [r3, #152]
	movw	r1, #27648
.Ltmp403:
	lsls	r0, r0, #30
	movt	r1, #732
	and.w	r0, r1, r0, asr #31
.Ltmp404:
	@DEBUG_VALUE: HAL_RCCEx_GetPeriphCLKFreq:frequency <- $r0
	.loc	5 1592 3 is_stmt 1              @ c:/Keil_v5\ARM\PACK\Keil\STM32L5xx_DFP\1.3.0\Drivers\STM32L5xx_HAL_Driver\Src\stm32l5xx_hal_rcc_ex.c:1592:3
	pop	{r7, pc}
.Ltmp405:
	.p2align	2
.LBB4_106:
	@DEBUG_VALUE: HAL_RCCEx_GetPeriphCLKFreq:PeriphClk <- $r2
	@DEBUG_VALUE: HAL_RCCEx_GetPeriphCLKFreq:pllvco <- $r1
	@DEBUG_VALUE: HAL_RCCEx_GetPeriphCLKFreq:frequency <- 0
	.loc	5 1291 18                       @ c:/Keil_v5\ARM\PACK\Keil\STM32L5xx_DFP\1.3.0\Drivers\STM32L5xx_HAL_Driver\Src\stm32l5xx_hal_rcc_ex.c:1291:18
	ldr.w	r0, [r3, #156]
	and	r0, r0, #24
.Ltmp406:
	@DEBUG_VALUE: HAL_RCCEx_GetPeriphCLKFreq:srcclk <- $r0
	.loc	5 1293 9                        @ c:/Keil_v5\ARM\PACK\Keil\STM32L5xx_DFP\1.3.0\Drivers\STM32L5xx_HAL_Driver\Src\stm32l5xx_hal_rcc_ex.c:1293:9
	cmp	r0, #16
	beq.w	.LBB4_138
.Ltmp407:
@ %bb.107:
	@DEBUG_VALUE: HAL_RCCEx_GetPeriphCLKFreq:PeriphClk <- $r2
	@DEBUG_VALUE: HAL_RCCEx_GetPeriphCLKFreq:pllvco <- $r1
	@DEBUG_VALUE: HAL_RCCEx_GetPeriphCLKFreq:srcclk <- $r0
	@DEBUG_VALUE: HAL_RCCEx_GetPeriphCLKFreq:frequency <- 0
	cmp	r0, #8
	beq	.LBB4_115
.Ltmp408:
@ %bb.108:
	@DEBUG_VALUE: HAL_RCCEx_GetPeriphCLKFreq:PeriphClk <- $r2
	@DEBUG_VALUE: HAL_RCCEx_GetPeriphCLKFreq:pllvco <- $r1
	@DEBUG_VALUE: HAL_RCCEx_GetPeriphCLKFreq:srcclk <- $r0
	@DEBUG_VALUE: HAL_RCCEx_GetPeriphCLKFreq:frequency <- 0
	cmp	r0, #0
	bne.w	.LBB4_151
.Ltmp409:
.LBB4_109:
	@DEBUG_VALUE: HAL_RCCEx_GetPeriphCLKFreq:PeriphClk <- $r2
	@DEBUG_VALUE: HAL_RCCEx_GetPeriphCLKFreq:pllvco <- $r1
	@DEBUG_VALUE: HAL_RCCEx_GetPeriphCLKFreq:frequency <- 0
	.loc	5 0 0 is_stmt 0                 @ c:/Keil_v5\ARM\PACK\Keil\STM32L5xx_DFP\1.3.0\Drivers\STM32L5xx_HAL_Driver\Src\stm32l5xx_hal_rcc_ex.c:0:0
	mov.w	r0, #2048
	pop.w	{r7, lr}
	b	RCCEx_GetSAIxPeriphCLKFreq
.Ltmp410:
	.p2align	2
.LBB4_110:
	@DEBUG_VALUE: HAL_RCCEx_GetPeriphCLKFreq:PeriphClk <- $r2
	@DEBUG_VALUE: HAL_RCCEx_GetPeriphCLKFreq:pllvco <- $r1
	@DEBUG_VALUE: HAL_RCCEx_GetPeriphCLKFreq:frequency <- 0
	.loc	5 1494 18 is_stmt 1             @ c:/Keil_v5\ARM\PACK\Keil\STM32L5xx_DFP\1.3.0\Drivers\STM32L5xx_HAL_Driver\Src\stm32l5xx_hal_rcc_ex.c:1494:18
	ldr.w	r0, [r3, #136]
.Ltmp411:
	@DEBUG_VALUE: HAL_RCCEx_GetPeriphCLKFreq:srcclk <- [DW_OP_constu 12582912, DW_OP_and, DW_OP_stack_value] $r0
	.loc	5 1496 9                        @ c:/Keil_v5\ARM\PACK\Keil\STM32L5xx_DFP\1.3.0\Drivers\STM32L5xx_HAL_Driver\Src\stm32l5xx_hal_rcc_ex.c:1496:9
	ubfx	r0, r0, #22, #2
.Ltmp412:
	.loc	5 0 9 is_stmt 0                 @ c:/Keil_v5\ARM\PACK\Keil\STM32L5xx_DFP\1.3.0\Drivers\STM32L5xx_HAL_Driver\Src\stm32l5xx_hal_rcc_ex.c:0:9
.LCPI4_11:
	tbb	[pc, r0]
.Ltmp413:
@ %bb.111:
.LJTI4_1:
	.byte	(.LBB4_113-(.LCPI4_11+4))/2
	.byte	(.LBB4_114-(.LCPI4_11+4))/2
	.byte	(.LBB4_115-(.LCPI4_11+4))/2
	.byte	(.LBB4_112-(.LCPI4_11+4))/2
	.p2align	1
	.p2align	2
.LBB4_112:
	b	.LBB4_4
	.p2align	2
.LBB4_113:
	b	.LBB4_18
	.p2align	2
.LBB4_114:
.Ltmp414:
	@DEBUG_VALUE: HAL_RCCEx_GetPeriphCLKFreq:frequency <- 0
	ldr.w	r0, [r3, #148]
	mov.w	r1, #32000
	lsls	r0, r0, #30
	and.w	r0, r1, r0, asr #31
.Ltmp415:
	@DEBUG_VALUE: HAL_RCCEx_GetPeriphCLKFreq:frequency <- $r0
	.loc	5 1592 3 is_stmt 1              @ c:/Keil_v5\ARM\PACK\Keil\STM32L5xx_DFP\1.3.0\Drivers\STM32L5xx_HAL_Driver\Src\stm32l5xx_hal_rcc_ex.c:1592:3
	pop	{r7, pc}
.Ltmp416:
	.p2align	2
.LBB4_115:
	@DEBUG_VALUE: HAL_RCCEx_GetPeriphCLKFreq:frequency <- 0
	.loc	5 0 0 is_stmt 0                 @ c:/Keil_v5\ARM\PACK\Keil\STM32L5xx_DFP\1.3.0\Drivers\STM32L5xx_HAL_Driver\Src\stm32l5xx_hal_rcc_ex.c:0:0
	ldr	r0, [r3]
	lsls	r0, r0, #21
.Ltmp417:
.LBB4_116:
	movw	r1, #9216
	movt	r1, #244
	and.w	r0, r1, r0, asr #31
.Ltmp418:
	@DEBUG_VALUE: HAL_RCCEx_GetPeriphCLKFreq:frequency <- $r0
	.loc	5 1592 3                        @ c:/Keil_v5\ARM\PACK\Keil\STM32L5xx_DFP\1.3.0\Drivers\STM32L5xx_HAL_Driver\Src\stm32l5xx_hal_rcc_ex.c:1592:3
	pop	{r7, pc}
.Ltmp419:
	.p2align	2
.LBB4_117:
	@DEBUG_VALUE: HAL_RCCEx_GetPeriphCLKFreq:pllvco <- $r1
	@DEBUG_VALUE: HAL_RCCEx_GetPeriphCLKFreq:frequency <- 0
	.loc	5 928 17 is_stmt 1              @ c:/Keil_v5\ARM\PACK\Keil\STM32L5xx_DFP\1.3.0\Drivers\STM32L5xx_HAL_Driver\Src\stm32l5xx_hal_rcc_ex.c:928:17
	ldr	r0, [r3]
.Ltmp420:
	.loc	5 928 17 is_stmt 0              @ c:/Keil_v5\ARM\PACK\Keil\STM32L5xx_DFP\1.3.0\Drivers\STM32L5xx_HAL_Driver\Src\stm32l5xx_hal_rcc_ex.c:928:17
	lsls	r0, r0, #6
.Ltmp421:
	.loc	5 930 19 is_stmt 1              @ c:/Keil_v5\ARM\PACK\Keil\STM32L5xx_DFP\1.3.0\Drivers\STM32L5xx_HAL_Driver\Src\stm32l5xx_hal_rcc_ex.c:930:19
	itt	mi
	ldrmi	r0, [r3, #12]
.Ltmp422:
	.loc	5 930 19 is_stmt 0              @ c:/Keil_v5\ARM\PACK\Keil\STM32L5xx_DFP\1.3.0\Drivers\STM32L5xx_HAL_Driver\Src\stm32l5xx_hal_rcc_ex.c:930:19
	lslsmi.w	r0, r0, #11
	bpl.w	.LBB4_151
	b	.LBB4_149
.Ltmp423:
	.p2align	2
.LBB4_118:
	@DEBUG_VALUE: HAL_RCCEx_GetPeriphCLKFreq:pllvco <- $r1
	@DEBUG_VALUE: HAL_RCCEx_GetPeriphCLKFreq:frequency <- 0
	.loc	5 921 17 is_stmt 1              @ c:/Keil_v5\ARM\PACK\Keil\STM32L5xx_DFP\1.3.0\Drivers\STM32L5xx_HAL_Driver\Src\stm32l5xx_hal_rcc_ex.c:921:17
	ldr	r0, [r3]
.Ltmp424:
	.loc	5 921 17 is_stmt 0              @ c:/Keil_v5\ARM\PACK\Keil\STM32L5xx_DFP\1.3.0\Drivers\STM32L5xx_HAL_Driver\Src\stm32l5xx_hal_rcc_ex.c:921:17
	lsls	r0, r0, #30
	bpl.w	.LBB4_151
.Ltmp425:
@ %bb.119:
	@DEBUG_VALUE: HAL_RCCEx_GetPeriphCLKFreq:pllvco <- $r1
	@DEBUG_VALUE: HAL_RCCEx_GetPeriphCLKFreq:frequency <- 0
	.loc	5 924 42 is_stmt 1              @ c:/Keil_v5\ARM\PACK\Keil\STM32L5xx_DFP\1.3.0\Drivers\STM32L5xx_HAL_Driver\Src\stm32l5xx_hal_rcc_ex.c:924:42
	ldr	r0, [r3]
	lsls	r0, r0, #28
	itte	pl
	ldrpl.w	r0, [r3, #148]
	lsrpl	r0, r0, #4
	ldrmi	r0, [r3]
	b	.LBB4_171
.Ltmp426:
	.p2align	2
.LBB4_120:
	@DEBUG_VALUE: HAL_RCCEx_GetPeriphCLKFreq:PeriphClk <- $r2
	@DEBUG_VALUE: HAL_RCCEx_GetPeriphCLKFreq:pllvco <- $r1
	@DEBUG_VALUE: HAL_RCCEx_GetPeriphCLKFreq:frequency <- 0
	.loc	5 972 15                        @ c:/Keil_v5\ARM\PACK\Keil\STM32L5xx_DFP\1.3.0\Drivers\STM32L5xx_HAL_Driver\Src\stm32l5xx_hal_rcc_ex.c:972:15
	ldr	r0, [r3]
.Ltmp427:
	.loc	5 972 15 is_stmt 0              @ c:/Keil_v5\ARM\PACK\Keil\STM32L5xx_DFP\1.3.0\Drivers\STM32L5xx_HAL_Driver\Src\stm32l5xx_hal_rcc_ex.c:972:15
	lsls	r0, r0, #6
	bpl.w	.LBB4_151
.Ltmp428:
@ %bb.121:
	@DEBUG_VALUE: HAL_RCCEx_GetPeriphCLKFreq:PeriphClk <- $r2
	@DEBUG_VALUE: HAL_RCCEx_GetPeriphCLKFreq:pllvco <- $r1
	@DEBUG_VALUE: HAL_RCCEx_GetPeriphCLKFreq:frequency <- 0
	.loc	5 974 17 is_stmt 1              @ c:/Keil_v5\ARM\PACK\Keil\STM32L5xx_DFP\1.3.0\Drivers\STM32L5xx_HAL_Driver\Src\stm32l5xx_hal_rcc_ex.c:974:17
	ldr	r0, [r3, #12]
.Ltmp429:
	.loc	5 974 17 is_stmt 0              @ c:/Keil_v5\ARM\PACK\Keil\STM32L5xx_DFP\1.3.0\Drivers\STM32L5xx_HAL_Driver\Src\stm32l5xx_hal_rcc_ex.c:974:17
	lsls	r0, r0, #15
	mov.w	r0, #0
.Ltmp430:
	@DEBUG_VALUE: HAL_RCCEx_GetPeriphCLKFreq:frequency <- $r0
	.loc	5 1592 3 is_stmt 1              @ c:/Keil_v5\ARM\PACK\Keil\STM32L5xx_DFP\1.3.0\Drivers\STM32L5xx_HAL_Driver\Src\stm32l5xx_hal_rcc_ex.c:1592:3
	it	pl
	poppl	{r7, pc}
.Ltmp431:
.LBB4_122:
	@DEBUG_VALUE: HAL_RCCEx_GetPeriphCLKFreq:PeriphClk <- $r2
	@DEBUG_VALUE: HAL_RCCEx_GetPeriphCLKFreq:pllvco <- $r1
	@DEBUG_VALUE: HAL_RCCEx_GetPeriphCLKFreq:frequency <- $r0
	.loc	5 977 36                        @ c:/Keil_v5\ARM\PACK\Keil\STM32L5xx_DFP\1.3.0\Drivers\STM32L5xx_HAL_Driver\Src\stm32l5xx_hal_rcc_ex.c:977:36
	ldr	r2, [r3, #12]
.Ltmp432:
	.loc	5 979 22                        @ c:/Keil_v5\ARM\PACK\Keil\STM32L5xx_DFP\1.3.0\Drivers\STM32L5xx_HAL_Driver\Src\stm32l5xx_hal_rcc_ex.c:979:22
	ldr.w	lr, [r3, #12]
	.loc	5 977 77                        @ c:/Keil_v5\ARM\PACK\Keil\STM32L5xx_DFP\1.3.0\Drivers\STM32L5xx_HAL_Driver\Src\stm32l5xx_hal_rcc_ex.c:977:77
	ubfx	r2, r2, #4, #4
	.loc	5 977 102 is_stmt 0             @ c:/Keil_v5\ARM\PACK\Keil\STM32L5xx_DFP\1.3.0\Drivers\STM32L5xx_HAL_Driver\Src\stm32l5xx_hal_rcc_ex.c:977:102
	add.w	r12, r2, #1
	.loc	5 980 22 is_stmt 1              @ c:/Keil_v5\ARM\PACK\Keil\STM32L5xx_DFP\1.3.0\Drivers\STM32L5xx_HAL_Driver\Src\stm32l5xx_hal_rcc_ex.c:980:22
	ldr	r2, [r3, #12]
.Ltmp433:
	@DEBUG_VALUE: HAL_RCCEx_GetPeriphCLKFreq:pllp <- undef
	.loc	5 977 32                        @ c:/Keil_v5\ARM\PACK\Keil\STM32L5xx_DFP\1.3.0\Drivers\STM32L5xx_HAL_Driver\Src\stm32l5xx_hal_rcc_ex.c:977:32
	udiv	r1, r1, r12
.Ltmp434:
	@DEBUG_VALUE: HAL_RCCEx_GetPeriphCLKFreq:pllvco <- $r1
	.loc	5 981 19                        @ c:/Keil_v5\ARM\PACK\Keil\STM32L5xx_DFP\1.3.0\Drivers\STM32L5xx_HAL_Driver\Src\stm32l5xx_hal_rcc_ex.c:981:19
	cmp.w	r0, r2, lsr #27
	.loc	5 979 63                        @ c:/Keil_v5\ARM\PACK\Keil\STM32L5xx_DFP\1.3.0\Drivers\STM32L5xx_HAL_Driver\Src\stm32l5xx_hal_rcc_ex.c:979:63
	ubfx	r0, lr, #8, #7
.Ltmp435:
	@DEBUG_VALUE: HAL_RCCEx_GetPeriphCLKFreq:plln <- $r0
	.loc	5 981 19                        @ c:/Keil_v5\ARM\PACK\Keil\STM32L5xx_DFP\1.3.0\Drivers\STM32L5xx_HAL_Driver\Src\stm32l5xx_hal_rcc_ex.c:981:19
	beq	.LBB4_152
.Ltmp436:
@ %bb.123:
	@DEBUG_VALUE: HAL_RCCEx_GetPeriphCLKFreq:pllvco <- $r1
	@DEBUG_VALUE: HAL_RCCEx_GetPeriphCLKFreq:plln <- $r0
	.loc	5 0 19 is_stmt 0                @ c:/Keil_v5\ARM\PACK\Keil\STM32L5xx_DFP\1.3.0\Drivers\STM32L5xx_HAL_Driver\Src\stm32l5xx_hal_rcc_ex.c:0:19
	lsrs	r2, r2, #27
.Ltmp437:
	@DEBUG_VALUE: HAL_RCCEx_GetPeriphCLKFreq:pllp <- $r2
	b	.LBB4_153
.Ltmp438:
	.p2align	2
.LBB4_124:
	@DEBUG_VALUE: HAL_RCCEx_GetPeriphCLKFreq:PeriphClk <- $r2
	@DEBUG_VALUE: HAL_RCCEx_GetPeriphCLKFreq:pllvco <- $r1
	@DEBUG_VALUE: HAL_RCCEx_GetPeriphCLKFreq:srcclk <- $r0
	@DEBUG_VALUE: HAL_RCCEx_GetPeriphCLKFreq:frequency <- 0
	.loc	5 1254 17 is_stmt 1             @ c:/Keil_v5\ARM\PACK\Keil\STM32L5xx_DFP\1.3.0\Drivers\STM32L5xx_HAL_Driver\Src\stm32l5xx_hal_rcc_ex.c:1254:17
	ldr	r0, [r3, #16]
.Ltmp439:
	.loc	5 1254 17 is_stmt 0             @ c:/Keil_v5\ARM\PACK\Keil\STM32L5xx_DFP\1.3.0\Drivers\STM32L5xx_HAL_Driver\Src\stm32l5xx_hal_rcc_ex.c:1254:17
	lsls	r0, r0, #7
	bpl	.LBB4_151
.Ltmp440:
@ %bb.125:
	@DEBUG_VALUE: HAL_RCCEx_GetPeriphCLKFreq:PeriphClk <- $r2
	@DEBUG_VALUE: HAL_RCCEx_GetPeriphCLKFreq:pllvco <- $r1
	@DEBUG_VALUE: HAL_RCCEx_GetPeriphCLKFreq:frequency <- 0
	@DEBUG_VALUE: RCCEx_PLLSAI1_GetVCOFreq:pllvco <- 0
	.loc	5 2714 11 is_stmt 1             @ c:/Keil_v5\ARM\PACK\Keil\STM32L5xx_DFP\1.3.0\Drivers\STM32L5xx_HAL_Driver\Src\stm32l5xx_hal_rcc_ex.c:2714:11
	ldr	r0, [r3, #16]
	and	r0, r0, #3
	.loc	5 2714 3 is_stmt 0              @ c:/Keil_v5\ARM\PACK\Keil\STM32L5xx_DFP\1.3.0\Drivers\STM32L5xx_HAL_Driver\Src\stm32l5xx_hal_rcc_ex.c:2714:3
	cmp	r0, #3
	beq	.LBB4_157
.Ltmp441:
@ %bb.126:
	@DEBUG_VALUE: HAL_RCCEx_GetPeriphCLKFreq:PeriphClk <- $r2
	@DEBUG_VALUE: HAL_RCCEx_GetPeriphCLKFreq:pllvco <- $r1
	@DEBUG_VALUE: RCCEx_PLLSAI1_GetVCOFreq:pllvco <- 0
	@DEBUG_VALUE: HAL_RCCEx_GetPeriphCLKFreq:frequency <- 0
	cmp	r0, #2
	beq	.LBB4_158
.Ltmp442:
@ %bb.127:
	@DEBUG_VALUE: HAL_RCCEx_GetPeriphCLKFreq:PeriphClk <- $r2
	@DEBUG_VALUE: HAL_RCCEx_GetPeriphCLKFreq:pllvco <- $r1
	@DEBUG_VALUE: RCCEx_PLLSAI1_GetVCOFreq:pllvco <- 0
	@DEBUG_VALUE: HAL_RCCEx_GetPeriphCLKFreq:frequency <- 0
	cmp	r0, #1
	bne	.LBB4_129
.Ltmp443:
@ %bb.128:
	@DEBUG_VALUE: HAL_RCCEx_GetPeriphCLKFreq:PeriphClk <- $r2
	@DEBUG_VALUE: HAL_RCCEx_GetPeriphCLKFreq:pllvco <- $r1
	@DEBUG_VALUE: RCCEx_PLLSAI1_GetVCOFreq:pllvco <- 0
	@DEBUG_VALUE: HAL_RCCEx_GetPeriphCLKFreq:frequency <- 0
	.loc	5 2717 11 is_stmt 1             @ c:/Keil_v5\ARM\PACK\Keil\STM32L5xx_DFP\1.3.0\Drivers\STM32L5xx_HAL_Driver\Src\stm32l5xx_hal_rcc_ex.c:2717:11
	ldr	r0, [r3]
.Ltmp444:
	.loc	5 2717 11 is_stmt 0             @ c:/Keil_v5\ARM\PACK\Keil\STM32L5xx_DFP\1.3.0\Drivers\STM32L5xx_HAL_Driver\Src\stm32l5xx_hal_rcc_ex.c:2717:11
	lsls	r0, r0, #30
	bmi.w	.LBB4_172
.Ltmp445:
.LBB4_129:
	@DEBUG_VALUE: HAL_RCCEx_GetPeriphCLKFreq:PeriphClk <- $r2
	@DEBUG_VALUE: HAL_RCCEx_GetPeriphCLKFreq:pllvco <- $r1
	@DEBUG_VALUE: RCCEx_PLLSAI1_GetVCOFreq:pllvco <- 0
	@DEBUG_VALUE: HAL_RCCEx_GetPeriphCLKFreq:frequency <- 0
	.loc	5 0 11                          @ c:/Keil_v5\ARM\PACK\Keil\STM32L5xx_DFP\1.3.0\Drivers\STM32L5xx_HAL_Driver\Src\stm32l5xx_hal_rcc_ex.c:0:11
	movs	r0, #0
	b	.LBB4_160
.Ltmp446:
	.p2align	2
.LBB4_130:
	@DEBUG_VALUE: HAL_RCCEx_GetPeriphCLKFreq:PeriphClk <- $r2
	@DEBUG_VALUE: HAL_RCCEx_GetPeriphCLKFreq:pllvco <- $r1
	@DEBUG_VALUE: HAL_RCCEx_GetPeriphCLKFreq:srcclk <- $r0
	@DEBUG_VALUE: HAL_RCCEx_GetPeriphCLKFreq:frequency <- 0
	.loc	5 1555 17 is_stmt 1             @ c:/Keil_v5\ARM\PACK\Keil\STM32L5xx_DFP\1.3.0\Drivers\STM32L5xx_HAL_Driver\Src\stm32l5xx_hal_rcc_ex.c:1555:17
	ldr	r0, [r3, #16]
.Ltmp447:
	.loc	5 1555 17 is_stmt 0             @ c:/Keil_v5\ARM\PACK\Keil\STM32L5xx_DFP\1.3.0\Drivers\STM32L5xx_HAL_Driver\Src\stm32l5xx_hal_rcc_ex.c:1555:17
	lsls	r0, r0, #15
	bpl	.LBB4_151
.Ltmp448:
@ %bb.131:
	@DEBUG_VALUE: HAL_RCCEx_GetPeriphCLKFreq:PeriphClk <- $r2
	@DEBUG_VALUE: HAL_RCCEx_GetPeriphCLKFreq:pllvco <- $r1
	@DEBUG_VALUE: HAL_RCCEx_GetPeriphCLKFreq:frequency <- 0
	@DEBUG_VALUE: RCCEx_PLLSAI1_GetVCOFreq:pllvco <- 0
	.loc	5 2714 11 is_stmt 1             @ c:/Keil_v5\ARM\PACK\Keil\STM32L5xx_DFP\1.3.0\Drivers\STM32L5xx_HAL_Driver\Src\stm32l5xx_hal_rcc_ex.c:2714:11
	ldr	r0, [r3, #16]
	and	r0, r0, #3
	.loc	5 2714 3 is_stmt 0              @ c:/Keil_v5\ARM\PACK\Keil\STM32L5xx_DFP\1.3.0\Drivers\STM32L5xx_HAL_Driver\Src\stm32l5xx_hal_rcc_ex.c:2714:3
	cmp	r0, #3
	beq.w	.LBB4_167
.Ltmp449:
@ %bb.132:
	@DEBUG_VALUE: HAL_RCCEx_GetPeriphCLKFreq:PeriphClk <- $r2
	@DEBUG_VALUE: HAL_RCCEx_GetPeriphCLKFreq:pllvco <- $r1
	@DEBUG_VALUE: RCCEx_PLLSAI1_GetVCOFreq:pllvco <- 0
	@DEBUG_VALUE: HAL_RCCEx_GetPeriphCLKFreq:frequency <- 0
	cmp	r0, #2
	beq.w	.LBB4_168
.Ltmp450:
@ %bb.133:
	@DEBUG_VALUE: HAL_RCCEx_GetPeriphCLKFreq:PeriphClk <- $r2
	@DEBUG_VALUE: HAL_RCCEx_GetPeriphCLKFreq:pllvco <- $r1
	@DEBUG_VALUE: RCCEx_PLLSAI1_GetVCOFreq:pllvco <- 0
	@DEBUG_VALUE: HAL_RCCEx_GetPeriphCLKFreq:frequency <- 0
	cmp	r0, #1
	bne	.LBB4_135
.Ltmp451:
@ %bb.134:
	@DEBUG_VALUE: HAL_RCCEx_GetPeriphCLKFreq:PeriphClk <- $r2
	@DEBUG_VALUE: HAL_RCCEx_GetPeriphCLKFreq:pllvco <- $r1
	@DEBUG_VALUE: RCCEx_PLLSAI1_GetVCOFreq:pllvco <- 0
	@DEBUG_VALUE: HAL_RCCEx_GetPeriphCLKFreq:frequency <- 0
	.loc	5 2717 11 is_stmt 1             @ c:/Keil_v5\ARM\PACK\Keil\STM32L5xx_DFP\1.3.0\Drivers\STM32L5xx_HAL_Driver\Src\stm32l5xx_hal_rcc_ex.c:2717:11
	ldr	r0, [r3]
.Ltmp452:
	.loc	5 2717 11 is_stmt 0             @ c:/Keil_v5\ARM\PACK\Keil\STM32L5xx_DFP\1.3.0\Drivers\STM32L5xx_HAL_Driver\Src\stm32l5xx_hal_rcc_ex.c:2717:11
	lsls	r0, r0, #30
	bmi.w	.LBB4_173
.Ltmp453:
.LBB4_135:
	@DEBUG_VALUE: HAL_RCCEx_GetPeriphCLKFreq:PeriphClk <- $r2
	@DEBUG_VALUE: HAL_RCCEx_GetPeriphCLKFreq:pllvco <- $r1
	@DEBUG_VALUE: RCCEx_PLLSAI1_GetVCOFreq:pllvco <- 0
	@DEBUG_VALUE: HAL_RCCEx_GetPeriphCLKFreq:frequency <- 0
	.loc	5 0 11                          @ c:/Keil_v5\ARM\PACK\Keil\STM32L5xx_DFP\1.3.0\Drivers\STM32L5xx_HAL_Driver\Src\stm32l5xx_hal_rcc_ex.c:0:11
	movs	r0, #0
	b	.LBB4_174
.Ltmp454:
	.p2align	2
.LBB4_136:
	@DEBUG_VALUE: HAL_RCCEx_GetPeriphCLKFreq:PeriphClk <- $r2
	@DEBUG_VALUE: HAL_RCCEx_GetPeriphCLKFreq:pllvco <- $r1
	@DEBUG_VALUE: HAL_RCCEx_GetPeriphCLKFreq:srcclk <- $r0
	@DEBUG_VALUE: HAL_RCCEx_GetPeriphCLKFreq:frequency <- 0
	.loc	5 1541 17 is_stmt 1             @ c:/Keil_v5\ARM\PACK\Keil\STM32L5xx_DFP\1.3.0\Drivers\STM32L5xx_HAL_Driver\Src\stm32l5xx_hal_rcc_ex.c:1541:17
	ldr	r0, [r3]
.Ltmp455:
	.loc	5 1541 17 is_stmt 0             @ c:/Keil_v5\ARM\PACK\Keil\STM32L5xx_DFP\1.3.0\Drivers\STM32L5xx_HAL_Driver\Src\stm32l5xx_hal_rcc_ex.c:1541:17
	lsls	r0, r0, #6
	bpl	.LBB4_151
.Ltmp456:
@ %bb.137:
	@DEBUG_VALUE: HAL_RCCEx_GetPeriphCLKFreq:PeriphClk <- $r2
	@DEBUG_VALUE: HAL_RCCEx_GetPeriphCLKFreq:pllvco <- $r1
	@DEBUG_VALUE: HAL_RCCEx_GetPeriphCLKFreq:frequency <- 0
	.loc	5 1543 19 is_stmt 1             @ c:/Keil_v5\ARM\PACK\Keil\STM32L5xx_DFP\1.3.0\Drivers\STM32L5xx_HAL_Driver\Src\stm32l5xx_hal_rcc_ex.c:1543:19
	ldr	r0, [r3, #12]
.Ltmp457:
	.loc	5 1543 19 is_stmt 0             @ c:/Keil_v5\ARM\PACK\Keil\STM32L5xx_DFP\1.3.0\Drivers\STM32L5xx_HAL_Driver\Src\stm32l5xx_hal_rcc_ex.c:1543:19
	lsls	r0, r0, #11
	itt	pl
	movpl	r0, #0
.Ltmp458:
	@DEBUG_VALUE: HAL_RCCEx_GetPeriphCLKFreq:frequency <- $r0
	.loc	5 1592 3 is_stmt 1              @ c:/Keil_v5\ARM\PACK\Keil\STM32L5xx_DFP\1.3.0\Drivers\STM32L5xx_HAL_Driver\Src\stm32l5xx_hal_rcc_ex.c:1592:3
	poppl	{r7, pc}
	b	.LBB4_149
.Ltmp459:
	.p2align	2
.LBB4_138:
	@DEBUG_VALUE: HAL_RCCEx_GetPeriphCLKFreq:PeriphClk <- $r2
	@DEBUG_VALUE: HAL_RCCEx_GetPeriphCLKFreq:pllvco <- $r1
	@DEBUG_VALUE: HAL_RCCEx_GetPeriphCLKFreq:srcclk <- $r0
	@DEBUG_VALUE: HAL_RCCEx_GetPeriphCLKFreq:frequency <- 0
	.loc	5 1299 17                       @ c:/Keil_v5\ARM\PACK\Keil\STM32L5xx_DFP\1.3.0\Drivers\STM32L5xx_HAL_Driver\Src\stm32l5xx_hal_rcc_ex.c:1299:17
	ldr	r0, [r3]
.Ltmp460:
	.loc	5 1299 17 is_stmt 0             @ c:/Keil_v5\ARM\PACK\Keil\STM32L5xx_DFP\1.3.0\Drivers\STM32L5xx_HAL_Driver\Src\stm32l5xx_hal_rcc_ex.c:1299:17
	lsls	r0, r0, #30
	bpl	.LBB4_151
.Ltmp461:
@ %bb.139:
	@DEBUG_VALUE: HAL_RCCEx_GetPeriphCLKFreq:PeriphClk <- $r2
	@DEBUG_VALUE: HAL_RCCEx_GetPeriphCLKFreq:pllvco <- $r1
	@DEBUG_VALUE: HAL_RCCEx_GetPeriphCLKFreq:frequency <- 0
	.loc	5 1302 42 is_stmt 1             @ c:/Keil_v5\ARM\PACK\Keil\STM32L5xx_DFP\1.3.0\Drivers\STM32L5xx_HAL_Driver\Src\stm32l5xx_hal_rcc_ex.c:1302:42
	ldr	r0, [r3]
	lsls	r0, r0, #28
	bmi	.LBB4_154
.Ltmp462:
@ %bb.140:
	@DEBUG_VALUE: HAL_RCCEx_GetPeriphCLKFreq:PeriphClk <- $r2
	@DEBUG_VALUE: HAL_RCCEx_GetPeriphCLKFreq:pllvco <- $r1
	@DEBUG_VALUE: HAL_RCCEx_GetPeriphCLKFreq:frequency <- 0
	ldr.w	r0, [r3, #148]
	lsrs	r0, r0, #4
	b	.LBB4_171
.Ltmp463:
	.p2align	2
.LBB4_141:
	@DEBUG_VALUE: HAL_RCCEx_GetPeriphCLKFreq:pllvco <- $r1
	@DEBUG_VALUE: HAL_RCCEx_GetPeriphCLKFreq:frequency <- 0
	.loc	5 1023 19                       @ c:/Keil_v5\ARM\PACK\Keil\STM32L5xx_DFP\1.3.0\Drivers\STM32L5xx_HAL_Driver\Src\stm32l5xx_hal_rcc_ex.c:1023:19
	ldr	r0, [r3]
.Ltmp464:
	.loc	5 1023 19 is_stmt 0             @ c:/Keil_v5\ARM\PACK\Keil\STM32L5xx_DFP\1.3.0\Drivers\STM32L5xx_HAL_Driver\Src\stm32l5xx_hal_rcc_ex.c:1023:19
	lsls	r0, r0, #4
.Ltmp465:
	.loc	5 1025 21 is_stmt 1             @ c:/Keil_v5\ARM\PACK\Keil\STM32L5xx_DFP\1.3.0\Drivers\STM32L5xx_HAL_Driver\Src\stm32l5xx_hal_rcc_ex.c:1025:21
	itt	mi
	ldrmi	r0, [r3, #16]
.Ltmp466:
	.loc	5 1025 21 is_stmt 0             @ c:/Keil_v5\ARM\PACK\Keil\STM32L5xx_DFP\1.3.0\Drivers\STM32L5xx_HAL_Driver\Src\stm32l5xx_hal_rcc_ex.c:1025:21
	lslsmi.w	r0, r0, #11
	bpl	.LBB4_151
.Ltmp467:
@ %bb.142:
	@DEBUG_VALUE: HAL_RCCEx_GetPeriphCLKFreq:pllvco <- $r1
	@DEBUG_VALUE: HAL_RCCEx_GetPeriphCLKFreq:frequency <- 0
	@DEBUG_VALUE: RCCEx_PLLSAI1_GetVCOFreq:pllvco <- 0
	.loc	5 2714 11 is_stmt 1             @ c:/Keil_v5\ARM\PACK\Keil\STM32L5xx_DFP\1.3.0\Drivers\STM32L5xx_HAL_Driver\Src\stm32l5xx_hal_rcc_ex.c:2714:11
	ldr	r0, [r3, #16]
	and	r0, r0, #3
	.loc	5 2714 3 is_stmt 0              @ c:/Keil_v5\ARM\PACK\Keil\STM32L5xx_DFP\1.3.0\Drivers\STM32L5xx_HAL_Driver\Src\stm32l5xx_hal_rcc_ex.c:2714:3
	cmp	r0, #3
	beq	.LBB4_161
.Ltmp468:
@ %bb.143:
	@DEBUG_VALUE: HAL_RCCEx_GetPeriphCLKFreq:pllvco <- $r1
	@DEBUG_VALUE: RCCEx_PLLSAI1_GetVCOFreq:pllvco <- 0
	@DEBUG_VALUE: HAL_RCCEx_GetPeriphCLKFreq:frequency <- 0
	cmp	r0, #2
	beq	.LBB4_162
.Ltmp469:
@ %bb.144:
	@DEBUG_VALUE: HAL_RCCEx_GetPeriphCLKFreq:pllvco <- $r1
	@DEBUG_VALUE: RCCEx_PLLSAI1_GetVCOFreq:pllvco <- 0
	@DEBUG_VALUE: HAL_RCCEx_GetPeriphCLKFreq:frequency <- 0
	cmp	r0, #1
	bne	.LBB4_146
.Ltmp470:
@ %bb.145:
	@DEBUG_VALUE: HAL_RCCEx_GetPeriphCLKFreq:pllvco <- $r1
	@DEBUG_VALUE: RCCEx_PLLSAI1_GetVCOFreq:pllvco <- 0
	@DEBUG_VALUE: HAL_RCCEx_GetPeriphCLKFreq:frequency <- 0
	.loc	5 2717 11 is_stmt 1             @ c:/Keil_v5\ARM\PACK\Keil\STM32L5xx_DFP\1.3.0\Drivers\STM32L5xx_HAL_Driver\Src\stm32l5xx_hal_rcc_ex.c:2717:11
	ldr	r0, [r3]
.Ltmp471:
	.loc	5 2717 11 is_stmt 0             @ c:/Keil_v5\ARM\PACK\Keil\STM32L5xx_DFP\1.3.0\Drivers\STM32L5xx_HAL_Driver\Src\stm32l5xx_hal_rcc_ex.c:2717:11
	lsls	r0, r0, #30
	bmi.w	.LBB4_67
.Ltmp472:
.LBB4_146:
	@DEBUG_VALUE: HAL_RCCEx_GetPeriphCLKFreq:pllvco <- $r1
	@DEBUG_VALUE: HAL_RCCEx_GetPeriphCLKFreq:frequency <- 0
	.loc	5 0 11                          @ c:/Keil_v5\ARM\PACK\Keil\STM32L5xx_DFP\1.3.0\Drivers\STM32L5xx_HAL_Driver\Src\stm32l5xx_hal_rcc_ex.c:0:11
	movs	r0, #0
	b	.LBB4_164
.Ltmp473:
	.p2align	2
.LBB4_147:
	@DEBUG_VALUE: HAL_RCCEx_GetPeriphCLKFreq:pllvco <- $r1
	@DEBUG_VALUE: HAL_RCCEx_GetPeriphCLKFreq:frequency <- 0
	.loc	5 1010 19 is_stmt 1             @ c:/Keil_v5\ARM\PACK\Keil\STM32L5xx_DFP\1.3.0\Drivers\STM32L5xx_HAL_Driver\Src\stm32l5xx_hal_rcc_ex.c:1010:19
	ldr	r0, [r3]
.Ltmp474:
	.loc	5 1010 19 is_stmt 0             @ c:/Keil_v5\ARM\PACK\Keil\STM32L5xx_DFP\1.3.0\Drivers\STM32L5xx_HAL_Driver\Src\stm32l5xx_hal_rcc_ex.c:1010:19
	lsls	r0, r0, #6
	bpl	.LBB4_151
.Ltmp475:
@ %bb.148:
	@DEBUG_VALUE: HAL_RCCEx_GetPeriphCLKFreq:pllvco <- $r1
	@DEBUG_VALUE: HAL_RCCEx_GetPeriphCLKFreq:frequency <- 0
	.loc	5 1012 21 is_stmt 1             @ c:/Keil_v5\ARM\PACK\Keil\STM32L5xx_DFP\1.3.0\Drivers\STM32L5xx_HAL_Driver\Src\stm32l5xx_hal_rcc_ex.c:1012:21
	ldr	r0, [r3, #12]
.Ltmp476:
	.loc	5 1012 21 is_stmt 0             @ c:/Keil_v5\ARM\PACK\Keil\STM32L5xx_DFP\1.3.0\Drivers\STM32L5xx_HAL_Driver\Src\stm32l5xx_hal_rcc_ex.c:1012:21
	lsls	r0, r0, #11
	itt	pl
	movpl	r0, #0
.Ltmp477:
	@DEBUG_VALUE: HAL_RCCEx_GetPeriphCLKFreq:frequency <- $r0
	.loc	5 1592 3 is_stmt 1              @ c:/Keil_v5\ARM\PACK\Keil\STM32L5xx_DFP\1.3.0\Drivers\STM32L5xx_HAL_Driver\Src\stm32l5xx_hal_rcc_ex.c:1592:3
	poppl	{r7, pc}
.Ltmp478:
.LBB4_149:
	@DEBUG_VALUE: HAL_RCCEx_GetPeriphCLKFreq:pllvco <- $r1
	.loc	5 0 0 is_stmt 0                 @ c:/Keil_v5\ARM\PACK\Keil\STM32L5xx_DFP\1.3.0\Drivers\STM32L5xx_HAL_Driver\Src\stm32l5xx_hal_rcc_ex.c:0:0
	ldr	r0, [r3, #12]
	ldr	r2, [r3, #12]
	ubfx	r0, r0, #4, #4
	adds	r0, #1
	udiv	r0, r1, r0
.Ltmp479:
	@DEBUG_VALUE: HAL_RCCEx_GetPeriphCLKFreq:pllvco <- $r0
	ubfx	r1, r2, #8, #7
.Ltmp480:
	@DEBUG_VALUE: HAL_RCCEx_GetPeriphCLKFreq:plln <- $r1
	ldr	r2, [r3, #12]
	b	.LBB4_165
.Ltmp481:
	.p2align	2
.LBB4_150:
	@DEBUG_VALUE: HAL_RCCEx_GetPeriphCLKFreq:pllvco <- $r1
	@DEBUG_VALUE: HAL_RCCEx_GetPeriphCLKFreq:frequency <- 0
	.loc	5 1003 19 is_stmt 1             @ c:/Keil_v5\ARM\PACK\Keil\STM32L5xx_DFP\1.3.0\Drivers\STM32L5xx_HAL_Driver\Src\stm32l5xx_hal_rcc_ex.c:1003:19
	ldr	r0, [r3]
.Ltmp482:
	.loc	5 1003 19 is_stmt 0             @ c:/Keil_v5\ARM\PACK\Keil\STM32L5xx_DFP\1.3.0\Drivers\STM32L5xx_HAL_Driver\Src\stm32l5xx_hal_rcc_ex.c:1003:19
	lsls	r0, r0, #30
	bmi	.LBB4_155
.Ltmp483:
.LBB4_151:
	@DEBUG_VALUE: HAL_RCCEx_GetPeriphCLKFreq:frequency <- 0
	.loc	5 0 19                          @ c:/Keil_v5\ARM\PACK\Keil\STM32L5xx_DFP\1.3.0\Drivers\STM32L5xx_HAL_Driver\Src\stm32l5xx_hal_rcc_ex.c:0:19
	movs	r0, #0
.Ltmp484:
	@DEBUG_VALUE: HAL_RCCEx_GetPeriphCLKFreq:frequency <- $r0
	.loc	5 1592 3 is_stmt 1              @ c:/Keil_v5\ARM\PACK\Keil\STM32L5xx_DFP\1.3.0\Drivers\STM32L5xx_HAL_Driver\Src\stm32l5xx_hal_rcc_ex.c:1592:3
	pop	{r7, pc}
.Ltmp485:
	.p2align	2
.LBB4_152:
	@DEBUG_VALUE: HAL_RCCEx_GetPeriphCLKFreq:pllvco <- $r1
	@DEBUG_VALUE: HAL_RCCEx_GetPeriphCLKFreq:plln <- $r0
	.loc	5 983 21                        @ c:/Keil_v5\ARM\PACK\Keil\STM32L5xx_DFP\1.3.0\Drivers\STM32L5xx_HAL_Driver\Src\stm32l5xx_hal_rcc_ex.c:983:21
	ldr	r2, [r3, #12]
.Ltmp486:
	.loc	5 983 21 is_stmt 0              @ c:/Keil_v5\ARM\PACK\Keil\STM32L5xx_DFP\1.3.0\Drivers\STM32L5xx_HAL_Driver\Src\stm32l5xx_hal_rcc_ex.c:983:21
	lsls	r2, r2, #14
	mov.w	r2, #17
	it	pl
	movpl	r2, #7
.Ltmp487:
.LBB4_153:
	@DEBUG_VALUE: HAL_RCCEx_GetPeriphCLKFreq:pllvco <- $r1
	@DEBUG_VALUE: HAL_RCCEx_GetPeriphCLKFreq:plln <- $r0
	@DEBUG_VALUE: HAL_RCCEx_GetPeriphCLKFreq:pllp <- $r2
	.loc	5 992 35 is_stmt 1              @ c:/Keil_v5\ARM\PACK\Keil\STM32L5xx_DFP\1.3.0\Drivers\STM32L5xx_HAL_Driver\Src\stm32l5xx_hal_rcc_ex.c:992:35
	mul	r0, r0, r1
.Ltmp488:
	.loc	5 992 43 is_stmt 0              @ c:/Keil_v5\ARM\PACK\Keil\STM32L5xx_DFP\1.3.0\Drivers\STM32L5xx_HAL_Driver\Src\stm32l5xx_hal_rcc_ex.c:992:43
	udiv	r0, r0, r2
.Ltmp489:
	@DEBUG_VALUE: HAL_RCCEx_GetPeriphCLKFreq:frequency <- $r0
	@DEBUG_VALUE: HAL_RCCEx_GetPeriphCLKFreq:frequency <- $r0
	.loc	5 1592 3 is_stmt 1              @ c:/Keil_v5\ARM\PACK\Keil\STM32L5xx_DFP\1.3.0\Drivers\STM32L5xx_HAL_Driver\Src\stm32l5xx_hal_rcc_ex.c:1592:3
	pop	{r7, pc}
.Ltmp490:
	.p2align	2
.LBB4_154:
	@DEBUG_VALUE: HAL_RCCEx_GetPeriphCLKFreq:PeriphClk <- $r2
	@DEBUG_VALUE: HAL_RCCEx_GetPeriphCLKFreq:pllvco <- $r1
	@DEBUG_VALUE: HAL_RCCEx_GetPeriphCLKFreq:frequency <- 0
	.loc	5 1302 42                       @ c:/Keil_v5\ARM\PACK\Keil\STM32L5xx_DFP\1.3.0\Drivers\STM32L5xx_HAL_Driver\Src\stm32l5xx_hal_rcc_ex.c:1302:42
	ldr	r0, [r3]
	b	.LBB4_171
.Ltmp491:
	.p2align	2
.LBB4_155:
	@DEBUG_VALUE: HAL_RCCEx_GetPeriphCLKFreq:pllvco <- $r1
	@DEBUG_VALUE: HAL_RCCEx_GetPeriphCLKFreq:frequency <- 0
	.loc	5 1006 44                       @ c:/Keil_v5\ARM\PACK\Keil\STM32L5xx_DFP\1.3.0\Drivers\STM32L5xx_HAL_Driver\Src\stm32l5xx_hal_rcc_ex.c:1006:44
	ldr	r0, [r3]
	lsls	r0, r0, #28
	bmi	.LBB4_170
.Ltmp492:
@ %bb.156:
	@DEBUG_VALUE: HAL_RCCEx_GetPeriphCLKFreq:pllvco <- $r1
	@DEBUG_VALUE: HAL_RCCEx_GetPeriphCLKFreq:frequency <- 0
	ldr.w	r0, [r3, #148]
	lsrs	r0, r0, #4
	b	.LBB4_171
.Ltmp493:
	.p2align	2
.LBB4_157:
	@DEBUG_VALUE: HAL_RCCEx_GetPeriphCLKFreq:PeriphClk <- $r2
	@DEBUG_VALUE: HAL_RCCEx_GetPeriphCLKFreq:pllvco <- $r1
	@DEBUG_VALUE: RCCEx_PLLSAI1_GetVCOFreq:pllvco <- 0
	@DEBUG_VALUE: HAL_RCCEx_GetPeriphCLKFreq:frequency <- 0
	.loc	5 2738 11                       @ c:/Keil_v5\ARM\PACK\Keil\STM32L5xx_DFP\1.3.0\Drivers\STM32L5xx_HAL_Driver\Src\stm32l5xx_hal_rcc_ex.c:2738:11
	ldr	r0, [r3]
	lsls	r0, r0, #14
	b	.LBB4_159
.Ltmp494:
	.p2align	2
.LBB4_158:
	@DEBUG_VALUE: HAL_RCCEx_GetPeriphCLKFreq:PeriphClk <- $r2
	@DEBUG_VALUE: HAL_RCCEx_GetPeriphCLKFreq:pllvco <- $r1
	@DEBUG_VALUE: RCCEx_PLLSAI1_GetVCOFreq:pllvco <- 0
	@DEBUG_VALUE: HAL_RCCEx_GetPeriphCLKFreq:frequency <- 0
	.loc	5 2728 11                       @ c:/Keil_v5\ARM\PACK\Keil\STM32L5xx_DFP\1.3.0\Drivers\STM32L5xx_HAL_Driver\Src\stm32l5xx_hal_rcc_ex.c:2728:11
	ldr	r0, [r3]
	lsls	r0, r0, #21
.Ltmp495:
.LBB4_159:
	@DEBUG_VALUE: HAL_RCCEx_GetPeriphCLKFreq:PeriphClk <- $r2
	@DEBUG_VALUE: HAL_RCCEx_GetPeriphCLKFreq:pllvco <- $r1
	@DEBUG_VALUE: RCCEx_PLLSAI1_GetVCOFreq:pllvco <- 0
	@DEBUG_VALUE: HAL_RCCEx_GetPeriphCLKFreq:frequency <- 0
	.loc	5 0 11 is_stmt 0                @ c:/Keil_v5\ARM\PACK\Keil\STM32L5xx_DFP\1.3.0\Drivers\STM32L5xx_HAL_Driver\Src\stm32l5xx_hal_rcc_ex.c:0:11
	movw	r1, #9216
.Ltmp496:
	movt	r1, #244
	and.w	r0, r1, r0, asr #31
.Ltmp497:
.LBB4_160:
	@DEBUG_VALUE: HAL_RCCEx_GetPeriphCLKFreq:PeriphClk <- $r2
	@DEBUG_VALUE: HAL_RCCEx_GetPeriphCLKFreq:frequency <- 0
	@DEBUG_VALUE: HAL_RCCEx_GetPeriphCLKFreq:pllvco <- $r0
	.loc	5 1259 36 is_stmt 1             @ c:/Keil_v5\ARM\PACK\Keil\STM32L5xx_DFP\1.3.0\Drivers\STM32L5xx_HAL_Driver\Src\stm32l5xx_hal_rcc_ex.c:1259:36
	ldr	r1, [r3, #16]
	.loc	5 1261 22                       @ c:/Keil_v5\ARM\PACK\Keil\STM32L5xx_DFP\1.3.0\Drivers\STM32L5xx_HAL_Driver\Src\stm32l5xx_hal_rcc_ex.c:1261:22
	ldr	r2, [r3, #16]
.Ltmp498:
	.loc	5 1259 89                       @ c:/Keil_v5\ARM\PACK\Keil\STM32L5xx_DFP\1.3.0\Drivers\STM32L5xx_HAL_Driver\Src\stm32l5xx_hal_rcc_ex.c:1259:89
	ubfx	r1, r1, #4, #4
	.loc	5 1259 122 is_stmt 0            @ c:/Keil_v5\ARM\PACK\Keil\STM32L5xx_DFP\1.3.0\Drivers\STM32L5xx_HAL_Driver\Src\stm32l5xx_hal_rcc_ex.c:1259:122
	adds	r1, #1
	.loc	5 1259 32                       @ c:/Keil_v5\ARM\PACK\Keil\STM32L5xx_DFP\1.3.0\Drivers\STM32L5xx_HAL_Driver\Src\stm32l5xx_hal_rcc_ex.c:1259:32
	udiv	r0, r0, r1
.Ltmp499:
	@DEBUG_VALUE: HAL_RCCEx_GetPeriphCLKFreq:pllvco <- $r0
	.loc	5 1261 75 is_stmt 1             @ c:/Keil_v5\ARM\PACK\Keil\STM32L5xx_DFP\1.3.0\Drivers\STM32L5xx_HAL_Driver\Src\stm32l5xx_hal_rcc_ex.c:1261:75
	ubfx	r1, r2, #8, #7
.Ltmp500:
	@DEBUG_VALUE: HAL_RCCEx_GetPeriphCLKFreq:plln <- $r1
	.loc	5 1262 48                       @ c:/Keil_v5\ARM\PACK\Keil\STM32L5xx_DFP\1.3.0\Drivers\STM32L5xx_HAL_Driver\Src\stm32l5xx_hal_rcc_ex.c:1262:48
	ldr	r2, [r3, #16]
	.loc	5 1262 35 is_stmt 0             @ c:/Keil_v5\ARM\PACK\Keil\STM32L5xx_DFP\1.3.0\Drivers\STM32L5xx_HAL_Driver\Src\stm32l5xx_hal_rcc_ex.c:1262:35
	mul	r0, r1, r0
.Ltmp501:
	.loc	5 1262 140                      @ c:/Keil_v5\ARM\PACK\Keil\STM32L5xx_DFP\1.3.0\Drivers\STM32L5xx_HAL_Driver\Src\stm32l5xx_hal_rcc_ex.c:1262:140
	ubfx	r1, r2, #25, #2
.Ltmp502:
	.loc	5 0 140                         @ c:/Keil_v5\ARM\PACK\Keil\STM32L5xx_DFP\1.3.0\Drivers\STM32L5xx_HAL_Driver\Src\stm32l5xx_hal_rcc_ex.c:0:140
	b	.LBB4_166
.Ltmp503:
	.p2align	2
.LBB4_161:
	@DEBUG_VALUE: HAL_RCCEx_GetPeriphCLKFreq:pllvco <- $r1
	@DEBUG_VALUE: HAL_RCCEx_GetPeriphCLKFreq:frequency <- 0
	ldr	r0, [r3]
	lsls	r0, r0, #14
	b	.LBB4_163
.Ltmp504:
	.p2align	2
.LBB4_162:
	@DEBUG_VALUE: HAL_RCCEx_GetPeriphCLKFreq:pllvco <- $r1
	@DEBUG_VALUE: HAL_RCCEx_GetPeriphCLKFreq:frequency <- 0
	ldr	r0, [r3]
	lsls	r0, r0, #21
.Ltmp505:
.LBB4_163:
	@DEBUG_VALUE: HAL_RCCEx_GetPeriphCLKFreq:pllvco <- $r1
	@DEBUG_VALUE: HAL_RCCEx_GetPeriphCLKFreq:frequency <- 0
	movw	r1, #9216
.Ltmp506:
	movt	r1, #244
	and.w	r0, r1, r0, asr #31
.Ltmp507:
.LBB4_164:
	@DEBUG_VALUE: HAL_RCCEx_GetPeriphCLKFreq:frequency <- 0
	@DEBUG_VALUE: HAL_RCCEx_GetPeriphCLKFreq:pllvco <- $r0
	ldr	r1, [r3, #16]
	ldr	r2, [r3, #16]
	ubfx	r1, r1, #4, #4
	adds	r1, #1
	udiv	r0, r0, r1
.Ltmp508:
	@DEBUG_VALUE: HAL_RCCEx_GetPeriphCLKFreq:pllvco <- $r0
	ubfx	r1, r2, #8, #7
.Ltmp509:
	@DEBUG_VALUE: HAL_RCCEx_GetPeriphCLKFreq:plln <- $r1
	ldr	r2, [r3, #16]
.Ltmp510:
.LBB4_165:
	@DEBUG_VALUE: HAL_RCCEx_GetPeriphCLKFreq:plln <- $r1
	@DEBUG_VALUE: HAL_RCCEx_GetPeriphCLKFreq:pllvco <- $r0
	mul	r0, r1, r0
.Ltmp511:
	ubfx	r1, r2, #21, #2
.Ltmp512:
.LBB4_166:
	movs	r2, #2
	add.w	r1, r2, r1, lsl #1
	udiv	r0, r0, r1
.Ltmp513:
	@DEBUG_VALUE: HAL_RCCEx_GetPeriphCLKFreq:frequency <- $r0
	@DEBUG_VALUE: HAL_RCCEx_GetPeriphCLKFreq:frequency <- $r0
	.loc	5 1592 3 is_stmt 1              @ c:/Keil_v5\ARM\PACK\Keil\STM32L5xx_DFP\1.3.0\Drivers\STM32L5xx_HAL_Driver\Src\stm32l5xx_hal_rcc_ex.c:1592:3
	pop	{r7, pc}
.Ltmp514:
	.p2align	2
.LBB4_167:
	@DEBUG_VALUE: HAL_RCCEx_GetPeriphCLKFreq:PeriphClk <- $r2
	@DEBUG_VALUE: HAL_RCCEx_GetPeriphCLKFreq:pllvco <- $r1
	@DEBUG_VALUE: RCCEx_PLLSAI1_GetVCOFreq:pllvco <- 0
	@DEBUG_VALUE: HAL_RCCEx_GetPeriphCLKFreq:frequency <- 0
	.loc	5 2738 11                       @ c:/Keil_v5\ARM\PACK\Keil\STM32L5xx_DFP\1.3.0\Drivers\STM32L5xx_HAL_Driver\Src\stm32l5xx_hal_rcc_ex.c:2738:11
	ldr	r0, [r3]
	lsls	r0, r0, #14
	b	.LBB4_169
.Ltmp515:
	.p2align	2
.LBB4_168:
	@DEBUG_VALUE: HAL_RCCEx_GetPeriphCLKFreq:PeriphClk <- $r2
	@DEBUG_VALUE: HAL_RCCEx_GetPeriphCLKFreq:pllvco <- $r1
	@DEBUG_VALUE: RCCEx_PLLSAI1_GetVCOFreq:pllvco <- 0
	@DEBUG_VALUE: HAL_RCCEx_GetPeriphCLKFreq:frequency <- 0
	.loc	5 2728 11                       @ c:/Keil_v5\ARM\PACK\Keil\STM32L5xx_DFP\1.3.0\Drivers\STM32L5xx_HAL_Driver\Src\stm32l5xx_hal_rcc_ex.c:2728:11
	ldr	r0, [r3]
	lsls	r0, r0, #21
.Ltmp516:
.LBB4_169:
	@DEBUG_VALUE: HAL_RCCEx_GetPeriphCLKFreq:PeriphClk <- $r2
	@DEBUG_VALUE: HAL_RCCEx_GetPeriphCLKFreq:pllvco <- $r1
	@DEBUG_VALUE: RCCEx_PLLSAI1_GetVCOFreq:pllvco <- 0
	@DEBUG_VALUE: HAL_RCCEx_GetPeriphCLKFreq:frequency <- 0
	.loc	5 0 11 is_stmt 0                @ c:/Keil_v5\ARM\PACK\Keil\STM32L5xx_DFP\1.3.0\Drivers\STM32L5xx_HAL_Driver\Src\stm32l5xx_hal_rcc_ex.c:0:11
	movw	r1, #9216
.Ltmp517:
	movt	r1, #244
	and.w	r0, r1, r0, asr #31
	b	.LBB4_174
.Ltmp518:
	.p2align	2
.LBB4_170:
	@DEBUG_VALUE: HAL_RCCEx_GetPeriphCLKFreq:pllvco <- $r1
	@DEBUG_VALUE: HAL_RCCEx_GetPeriphCLKFreq:frequency <- 0
	.loc	5 1006 44 is_stmt 1             @ c:/Keil_v5\ARM\PACK\Keil\STM32L5xx_DFP\1.3.0\Drivers\STM32L5xx_HAL_Driver\Src\stm32l5xx_hal_rcc_ex.c:1006:44
	ldr	r0, [r3]
.Ltmp519:
.LBB4_171:
	@DEBUG_VALUE: HAL_RCCEx_GetPeriphCLKFreq:pllvco <- $r1
	@DEBUG_VALUE: HAL_RCCEx_GetPeriphCLKFreq:frequency <- 0
	.loc	5 0 44 is_stmt 0                @ c:/Keil_v5\ARM\PACK\Keil\STM32L5xx_DFP\1.3.0\Drivers\STM32L5xx_HAL_Driver\Src\stm32l5xx_hal_rcc_ex.c:0:44
	movs	r1, #60
.Ltmp520:
	and.w	r0, r1, r0, lsr #2
	movw	r1, :lower16:MSIRangeTable
	movt	r1, :upper16:MSIRangeTable
	ldr	r0, [r1, r0]
.Ltmp521:
	@DEBUG_VALUE: HAL_RCCEx_GetPeriphCLKFreq:frequency <- $r0
	@DEBUG_VALUE: HAL_RCCEx_GetPeriphCLKFreq:frequency <- $r0
	.loc	5 1592 3 is_stmt 1              @ c:/Keil_v5\ARM\PACK\Keil\STM32L5xx_DFP\1.3.0\Drivers\STM32L5xx_HAL_Driver\Src\stm32l5xx_hal_rcc_ex.c:1592:3
	pop	{r7, pc}
.Ltmp522:
	.p2align	2
.LBB4_172:
	@DEBUG_VALUE: HAL_RCCEx_GetPeriphCLKFreq:PeriphClk <- $r2
	@DEBUG_VALUE: HAL_RCCEx_GetPeriphCLKFreq:pllvco <- $r1
	@DEBUG_VALUE: RCCEx_PLLSAI1_GetVCOFreq:pllvco <- 0
	@DEBUG_VALUE: HAL_RCCEx_GetPeriphCLKFreq:frequency <- 0
	.loc	5 2720 33                       @ c:/Keil_v5\ARM\PACK\Keil\STM32L5xx_DFP\1.3.0\Drivers\STM32L5xx_HAL_Driver\Src\stm32l5xx_hal_rcc_ex.c:2720:33
	ldr	r0, [r3]
	movs	r1, #60
.Ltmp523:
	lsls	r0, r0, #28
	itte	pl
	ldrpl.w	r0, [r3, #148]
	lsrpl	r0, r0, #4
	ldrmi	r0, [r3]
	.loc	5 2720 18 is_stmt 0             @ c:/Keil_v5\ARM\PACK\Keil\STM32L5xx_DFP\1.3.0\Drivers\STM32L5xx_HAL_Driver\Src\stm32l5xx_hal_rcc_ex.c:2720:18
	and.w	r0, r1, r0, lsr #2
	movw	r1, :lower16:MSIRangeTable
	movt	r1, :upper16:MSIRangeTable
	ldr	r0, [r1, r0]
.Ltmp524:
	@DEBUG_VALUE: RCCEx_PLLSAI1_GetVCOFreq:pllvco <- $r0
	.loc	5 0 18                          @ c:/Keil_v5\ARM\PACK\Keil\STM32L5xx_DFP\1.3.0\Drivers\STM32L5xx_HAL_Driver\Src\stm32l5xx_hal_rcc_ex.c:0:18
	b	.LBB4_160
.Ltmp525:
	.p2align	2
.LBB4_173:
	@DEBUG_VALUE: HAL_RCCEx_GetPeriphCLKFreq:PeriphClk <- $r2
	@DEBUG_VALUE: HAL_RCCEx_GetPeriphCLKFreq:pllvco <- $r1
	@DEBUG_VALUE: RCCEx_PLLSAI1_GetVCOFreq:pllvco <- 0
	@DEBUG_VALUE: HAL_RCCEx_GetPeriphCLKFreq:frequency <- 0
	.loc	5 2720 33                       @ c:/Keil_v5\ARM\PACK\Keil\STM32L5xx_DFP\1.3.0\Drivers\STM32L5xx_HAL_Driver\Src\stm32l5xx_hal_rcc_ex.c:2720:33
	ldr	r0, [r3]
	movs	r1, #60
.Ltmp526:
	lsls	r0, r0, #28
	itte	pl
	ldrpl.w	r0, [r3, #148]
	lsrpl	r0, r0, #4
	ldrmi	r0, [r3]
	.loc	5 2720 18                       @ c:/Keil_v5\ARM\PACK\Keil\STM32L5xx_DFP\1.3.0\Drivers\STM32L5xx_HAL_Driver\Src\stm32l5xx_hal_rcc_ex.c:2720:18
	and.w	r0, r1, r0, lsr #2
	movw	r1, :lower16:MSIRangeTable
	movt	r1, :upper16:MSIRangeTable
	ldr	r0, [r1, r0]
.Ltmp527:
	@DEBUG_VALUE: RCCEx_PLLSAI1_GetVCOFreq:pllvco <- $r0
.LBB4_174:
	@DEBUG_VALUE: HAL_RCCEx_GetPeriphCLKFreq:PeriphClk <- $r2
	@DEBUG_VALUE: HAL_RCCEx_GetPeriphCLKFreq:frequency <- 0
	@DEBUG_VALUE: HAL_RCCEx_GetPeriphCLKFreq:pllvco <- $r0
	.loc	5 1560 36 is_stmt 1             @ c:/Keil_v5\ARM\PACK\Keil\STM32L5xx_DFP\1.3.0\Drivers\STM32L5xx_HAL_Driver\Src\stm32l5xx_hal_rcc_ex.c:1560:36
	ldr	r1, [r3, #16]
	.loc	5 1560 89 is_stmt 0             @ c:/Keil_v5\ARM\PACK\Keil\STM32L5xx_DFP\1.3.0\Drivers\STM32L5xx_HAL_Driver\Src\stm32l5xx_hal_rcc_ex.c:1560:89
	ubfx	r1, r1, #4, #4
	.loc	5 1560 122                      @ c:/Keil_v5\ARM\PACK\Keil\STM32L5xx_DFP\1.3.0\Drivers\STM32L5xx_HAL_Driver\Src\stm32l5xx_hal_rcc_ex.c:1560:122
	adds	r1, #1
	.loc	5 1560 32                       @ c:/Keil_v5\ARM\PACK\Keil\STM32L5xx_DFP\1.3.0\Drivers\STM32L5xx_HAL_Driver\Src\stm32l5xx_hal_rcc_ex.c:1560:32
	udiv	r12, r0, r1
.Ltmp528:
	@DEBUG_VALUE: HAL_RCCEx_GetPeriphCLKFreq:pllvco <- $r12
	.loc	5 1562 22 is_stmt 1             @ c:/Keil_v5\ARM\PACK\Keil\STM32L5xx_DFP\1.3.0\Drivers\STM32L5xx_HAL_Driver\Src\stm32l5xx_hal_rcc_ex.c:1562:22
	ldr	r1, [r3, #16]
	.loc	5 1563 22                       @ c:/Keil_v5\ARM\PACK\Keil\STM32L5xx_DFP\1.3.0\Drivers\STM32L5xx_HAL_Driver\Src\stm32l5xx_hal_rcc_ex.c:1563:22
	ldr	r2, [r3, #16]
.Ltmp529:
	@DEBUG_VALUE: HAL_RCCEx_GetPeriphCLKFreq:pllp <- undef
	.loc	5 0 22 is_stmt 0                @ c:/Keil_v5\ARM\PACK\Keil\STM32L5xx_DFP\1.3.0\Drivers\STM32L5xx_HAL_Driver\Src\stm32l5xx_hal_rcc_ex.c:0:22
	movs	r0, #0
	.loc	5 1564 19 is_stmt 1             @ c:/Keil_v5\ARM\PACK\Keil\STM32L5xx_DFP\1.3.0\Drivers\STM32L5xx_HAL_Driver\Src\stm32l5xx_hal_rcc_ex.c:1564:19
	cmp.w	r0, r2, lsr #27
	.loc	5 1562 75                       @ c:/Keil_v5\ARM\PACK\Keil\STM32L5xx_DFP\1.3.0\Drivers\STM32L5xx_HAL_Driver\Src\stm32l5xx_hal_rcc_ex.c:1562:75
	ubfx	r1, r1, #8, #7
.Ltmp530:
	@DEBUG_VALUE: HAL_RCCEx_GetPeriphCLKFreq:plln <- $r1
	.loc	5 1564 19                       @ c:/Keil_v5\ARM\PACK\Keil\STM32L5xx_DFP\1.3.0\Drivers\STM32L5xx_HAL_Driver\Src\stm32l5xx_hal_rcc_ex.c:1564:19
	beq	.LBB4_176
.Ltmp531:
@ %bb.175:
	@DEBUG_VALUE: HAL_RCCEx_GetPeriphCLKFreq:pllvco <- $r12
	@DEBUG_VALUE: HAL_RCCEx_GetPeriphCLKFreq:plln <- $r1
	@DEBUG_VALUE: HAL_RCCEx_GetPeriphCLKFreq:frequency <- 0
	.loc	5 0 19 is_stmt 0                @ c:/Keil_v5\ARM\PACK\Keil\STM32L5xx_DFP\1.3.0\Drivers\STM32L5xx_HAL_Driver\Src\stm32l5xx_hal_rcc_ex.c:0:19
	lsrs	r2, r2, #27
.Ltmp532:
	@DEBUG_VALUE: HAL_RCCEx_GetPeriphCLKFreq:pllp <- $r2
	b	.LBB4_177
.Ltmp533:
	.p2align	2
.LBB4_176:
	@DEBUG_VALUE: HAL_RCCEx_GetPeriphCLKFreq:pllvco <- $r12
	@DEBUG_VALUE: HAL_RCCEx_GetPeriphCLKFreq:plln <- $r1
	@DEBUG_VALUE: HAL_RCCEx_GetPeriphCLKFreq:frequency <- 0
	.loc	5 1566 21 is_stmt 1             @ c:/Keil_v5\ARM\PACK\Keil\STM32L5xx_DFP\1.3.0\Drivers\STM32L5xx_HAL_Driver\Src\stm32l5xx_hal_rcc_ex.c:1566:21
	ldr	r0, [r3, #16]
	movs	r2, #17
.Ltmp534:
	.loc	5 1566 21 is_stmt 0             @ c:/Keil_v5\ARM\PACK\Keil\STM32L5xx_DFP\1.3.0\Drivers\STM32L5xx_HAL_Driver\Src\stm32l5xx_hal_rcc_ex.c:1566:21
	lsls	r0, r0, #14
	it	pl
	movpl	r2, #7
.Ltmp535:
.LBB4_177:
	@DEBUG_VALUE: HAL_RCCEx_GetPeriphCLKFreq:pllvco <- $r12
	@DEBUG_VALUE: HAL_RCCEx_GetPeriphCLKFreq:plln <- $r1
	@DEBUG_VALUE: HAL_RCCEx_GetPeriphCLKFreq:frequency <- 0
	@DEBUG_VALUE: HAL_RCCEx_GetPeriphCLKFreq:pllp <- $r2
	.loc	5 1575 35 is_stmt 1             @ c:/Keil_v5\ARM\PACK\Keil\STM32L5xx_DFP\1.3.0\Drivers\STM32L5xx_HAL_Driver\Src\stm32l5xx_hal_rcc_ex.c:1575:35
	mul	r0, r1, r12
	.loc	5 1575 43 is_stmt 0             @ c:/Keil_v5\ARM\PACK\Keil\STM32L5xx_DFP\1.3.0\Drivers\STM32L5xx_HAL_Driver\Src\stm32l5xx_hal_rcc_ex.c:1575:43
	udiv	r0, r0, r2
.Ltmp536:
	@DEBUG_VALUE: HAL_RCCEx_GetPeriphCLKFreq:frequency <- $r0
.LBB4_178:
	@DEBUG_VALUE: HAL_RCCEx_GetPeriphCLKFreq:frequency <- $r0
	.loc	5 1592 3 is_stmt 1              @ c:/Keil_v5\ARM\PACK\Keil\STM32L5xx_DFP\1.3.0\Drivers\STM32L5xx_HAL_Driver\Src\stm32l5xx_hal_rcc_ex.c:1592:3
	pop	{r7, pc}
.Ltmp537:
	.p2align	2
.LBB4_179:
	@DEBUG_VALUE: HAL_RCCEx_GetPeriphCLKFreq:pllvco <- $r1
	@DEBUG_VALUE: HAL_RCCEx_GetPeriphCLKFreq:frequency <- 0
	.loc	5 0 0 is_stmt 0                 @ c:/Keil_v5\ARM\PACK\Keil\STM32L5xx_DFP\1.3.0\Drivers\STM32L5xx_HAL_Driver\Src\stm32l5xx_hal_rcc_ex.c:0:0
	ldr	r0, [r3]
.Ltmp538:
.LBB4_180:
	@DEBUG_VALUE: HAL_RCCEx_GetPeriphCLKFreq:pllvco <- $r1
	@DEBUG_VALUE: HAL_RCCEx_GetPeriphCLKFreq:frequency <- 0
	movs	r1, #60
.Ltmp539:
	and.w	r0, r1, r0, lsr #2
	movw	r1, :lower16:MSIRangeTable
	movt	r1, :upper16:MSIRangeTable
	ldr	r0, [r1, r0]
	@DEBUG_VALUE: RCCEx_PLLSAI1_GetVCOFreq:pllvco <- $r0
	b	.LBB4_164
.Ltmp540:
.Lfunc_end4:
	.size	HAL_RCCEx_GetPeriphCLKFreq, .Lfunc_end4-HAL_RCCEx_GetPeriphCLKFreq
	.cfi_endproc
	.cantunwind
	.fnend
                                        @ -- End function
	.section	.text.RCCEx_GetSAIxPeriphCLKFreq,"ax",%progbits
	.p2align	2                               @ -- Begin function RCCEx_GetSAIxPeriphCLKFreq
	.type	RCCEx_GetSAIxPeriphCLKFreq,%function
	.code	16                              @ @RCCEx_GetSAIxPeriphCLKFreq
	.thumb_func
RCCEx_GetSAIxPeriphCLKFreq:
.Lfunc_begin5:
	.loc	5 2814 0 is_stmt 1              @ c:/Keil_v5\ARM\PACK\Keil\STM32L5xx_DFP\1.3.0\Drivers\STM32L5xx_HAL_Driver\Src\stm32l5xx_hal_rcc_ex.c:2814:0
	.fnstart
	.cfi_startproc
@ %bb.0:
	@DEBUG_VALUE: RCCEx_GetSAIxPeriphCLKFreq:PeriphClk <- $r0
	@DEBUG_VALUE: RCCEx_GetSAIxPeriphCLKFreq:InputFrequency <- $r1
	.save	{r7, lr}
	push	{r7, lr}
	.cfi_def_cfa_offset 8
	.cfi_offset lr, -4
	.cfi_offset r7, -8
	movw	r2, #4096
	movt	r2, #16386
.Ltmp541:
	@DEBUG_VALUE: RCCEx_GetSAIxPeriphCLKFreq:frequency <- 0
	@DEBUG_VALUE: RCCEx_GetSAIxPeriphCLKFreq:PeriphClk <- $r0
	.loc	5 0 0 prologue_end              @ c:/Keil_v5\ARM\PACK\Keil\STM32L5xx_DFP\1.3.0\Drivers\STM32L5xx_HAL_Driver\Src\stm32l5xx_hal_rcc_ex.c:0:0
	ldr.w	r3, [r2, #156]
.Ltmp542:
	.loc	5 2818 7                        @ c:/Keil_v5\ARM\PACK\Keil\STM32L5xx_DFP\1.3.0\Drivers\STM32L5xx_HAL_Driver\Src\stm32l5xx_hal_rcc_ex.c:2818:7
	cmp.w	r0, #2048
	@DEBUG_VALUE: RCCEx_GetSAIxPeriphCLKFreq:InputFrequency <- $r1
	bne	.LBB5_2
.Ltmp543:
@ %bb.1:
	@DEBUG_VALUE: RCCEx_GetSAIxPeriphCLKFreq:InputFrequency <- $r1
	@DEBUG_VALUE: RCCEx_GetSAIxPeriphCLKFreq:PeriphClk <- $r0
	@DEBUG_VALUE: RCCEx_GetSAIxPeriphCLKFreq:frequency <- 0
	.loc	5 2820 14                       @ c:/Keil_v5\ARM\PACK\Keil\STM32L5xx_DFP\1.3.0\Drivers\STM32L5xx_HAL_Driver\Src\stm32l5xx_hal_rcc_ex.c:2820:14
	and	r3, r3, #224
.Ltmp544:
	@DEBUG_VALUE: RCCEx_GetSAIxPeriphCLKFreq:srcclk <- $r3
	.loc	5 2822 9                        @ c:/Keil_v5\ARM\PACK\Keil\STM32L5xx_DFP\1.3.0\Drivers\STM32L5xx_HAL_Driver\Src\stm32l5xx_hal_rcc_ex.c:2822:9
	cmp	r3, #96
	itt	eq
	movweq	r0, #48000
.Ltmp545:
	@DEBUG_VALUE: RCCEx_GetSAIxPeriphCLKFreq:PeriphClk <- [DW_OP_LLVM_entry_value 1] $r0
	@DEBUG_VALUE: RCCEx_GetSAIxPeriphCLKFreq:frequency <- $r0
	.loc	5 2932 3                        @ c:/Keil_v5\ARM\PACK\Keil\STM32L5xx_DFP\1.3.0\Drivers\STM32L5xx_HAL_Driver\Src\stm32l5xx_hal_rcc_ex.c:2932:3
	popeq	{r7, pc}
	b	.LBB5_3
.Ltmp546:
	.p2align	2
.LBB5_2:
	@DEBUG_VALUE: RCCEx_GetSAIxPeriphCLKFreq:InputFrequency <- $r1
	@DEBUG_VALUE: RCCEx_GetSAIxPeriphCLKFreq:PeriphClk <- $r0
	@DEBUG_VALUE: RCCEx_GetSAIxPeriphCLKFreq:frequency <- 0
	.loc	5 2830 14                       @ c:/Keil_v5\ARM\PACK\Keil\STM32L5xx_DFP\1.3.0\Drivers\STM32L5xx_HAL_Driver\Src\stm32l5xx_hal_rcc_ex.c:2830:14
	and	r3, r3, #1792
.Ltmp547:
	@DEBUG_VALUE: RCCEx_GetSAIxPeriphCLKFreq:srcclk <- $r3
	.loc	5 2832 9                        @ c:/Keil_v5\ARM\PACK\Keil\STM32L5xx_DFP\1.3.0\Drivers\STM32L5xx_HAL_Driver\Src\stm32l5xx_hal_rcc_ex.c:2832:9
	cmp.w	r3, #768
	itt	eq
	movweq	r0, #48000
.Ltmp548:
	@DEBUG_VALUE: RCCEx_GetSAIxPeriphCLKFreq:PeriphClk <- [DW_OP_LLVM_entry_value 1] $r0
	@DEBUG_VALUE: RCCEx_GetSAIxPeriphCLKFreq:frequency <- $r0
	.loc	5 2932 3                        @ c:/Keil_v5\ARM\PACK\Keil\STM32L5xx_DFP\1.3.0\Drivers\STM32L5xx_HAL_Driver\Src\stm32l5xx_hal_rcc_ex.c:2932:3
	popeq	{r7, pc}
.Ltmp549:
.LBB5_3:
	@DEBUG_VALUE: RCCEx_GetSAIxPeriphCLKFreq:srcclk <- $r3
	@DEBUG_VALUE: RCCEx_GetSAIxPeriphCLKFreq:InputFrequency <- $r1
	@DEBUG_VALUE: RCCEx_GetSAIxPeriphCLKFreq:frequency <- $r0
	@DEBUG_VALUE: RCCEx_GetSAIxPeriphCLKFreq:PeriphClk <- [DW_OP_LLVM_entry_value 1] $r0
	.loc	5 2843 43                       @ c:/Keil_v5\ARM\PACK\Keil\STM32L5xx_DFP\1.3.0\Drivers\STM32L5xx_HAL_Driver\Src\stm32l5xx_hal_rcc_ex.c:2843:43
	cmp	r3, #127
	mov.w	r0, #0
.Ltmp550:
	@DEBUG_VALUE: RCCEx_GetSAIxPeriphCLKFreq:pllvco <- $r1
	@DEBUG_VALUE: RCCEx_GetSAIxPeriphCLKFreq:srcclk <- undef
	@DEBUG_VALUE: RCCEx_GetSAIxPeriphCLKFreq:frequency <- undef
	ble	.LBB5_7
.Ltmp551:
@ %bb.4:
	@DEBUG_VALUE: RCCEx_GetSAIxPeriphCLKFreq:pllvco <- $r1
	@DEBUG_VALUE: RCCEx_GetSAIxPeriphCLKFreq:InputFrequency <- $r1
	@DEBUG_VALUE: RCCEx_GetSAIxPeriphCLKFreq:PeriphClk <- [DW_OP_LLVM_entry_value 1] $r0
	cmp.w	r3, #512
	bge	.LBB5_11
.Ltmp552:
@ %bb.5:
	@DEBUG_VALUE: RCCEx_GetSAIxPeriphCLKFreq:pllvco <- $r1
	@DEBUG_VALUE: RCCEx_GetSAIxPeriphCLKFreq:InputFrequency <- $r1
	@DEBUG_VALUE: RCCEx_GetSAIxPeriphCLKFreq:PeriphClk <- [DW_OP_LLVM_entry_value 1] $r0
	cmp	r3, #128
	beq	.LBB5_23
.Ltmp553:
@ %bb.6:
	@DEBUG_VALUE: RCCEx_GetSAIxPeriphCLKFreq:pllvco <- $r1
	@DEBUG_VALUE: RCCEx_GetSAIxPeriphCLKFreq:InputFrequency <- $r1
	@DEBUG_VALUE: RCCEx_GetSAIxPeriphCLKFreq:PeriphClk <- [DW_OP_LLVM_entry_value 1] $r0
	cmp.w	r3, #256
	beq	.LBB5_17
	b	.LBB5_10
.Ltmp554:
	.p2align	2
.LBB5_7:
	@DEBUG_VALUE: RCCEx_GetSAIxPeriphCLKFreq:pllvco <- $r1
	@DEBUG_VALUE: RCCEx_GetSAIxPeriphCLKFreq:InputFrequency <- $r1
	@DEBUG_VALUE: RCCEx_GetSAIxPeriphCLKFreq:PeriphClk <- [DW_OP_LLVM_entry_value 1] $r0
	cmp	r3, #0
	beq	.LBB5_24
.Ltmp555:
@ %bb.8:
	@DEBUG_VALUE: RCCEx_GetSAIxPeriphCLKFreq:pllvco <- $r1
	@DEBUG_VALUE: RCCEx_GetSAIxPeriphCLKFreq:InputFrequency <- $r1
	@DEBUG_VALUE: RCCEx_GetSAIxPeriphCLKFreq:PeriphClk <- [DW_OP_LLVM_entry_value 1] $r0
	cmp	r3, #32
	beq	.LBB5_17
.Ltmp556:
@ %bb.9:
	@DEBUG_VALUE: RCCEx_GetSAIxPeriphCLKFreq:pllvco <- $r1
	@DEBUG_VALUE: RCCEx_GetSAIxPeriphCLKFreq:InputFrequency <- $r1
	@DEBUG_VALUE: RCCEx_GetSAIxPeriphCLKFreq:PeriphClk <- [DW_OP_LLVM_entry_value 1] $r0
	cmp	r3, #64
	beq	.LBB5_13
.Ltmp557:
.LBB5_10:
	@DEBUG_VALUE: RCCEx_GetSAIxPeriphCLKFreq:pllvco <- $r1
	@DEBUG_VALUE: RCCEx_GetSAIxPeriphCLKFreq:InputFrequency <- $r1
	@DEBUG_VALUE: RCCEx_GetSAIxPeriphCLKFreq:PeriphClk <- [DW_OP_LLVM_entry_value 1] $r0
	@DEBUG_VALUE: RCCEx_GetSAIxPeriphCLKFreq:frequency <- $r0
	.loc	5 2932 3                        @ c:/Keil_v5\ARM\PACK\Keil\STM32L5xx_DFP\1.3.0\Drivers\STM32L5xx_HAL_Driver\Src\stm32l5xx_hal_rcc_ex.c:2932:3
	pop	{r7, pc}
.Ltmp558:
	.p2align	2
.LBB5_11:
	@DEBUG_VALUE: RCCEx_GetSAIxPeriphCLKFreq:pllvco <- $r1
	@DEBUG_VALUE: RCCEx_GetSAIxPeriphCLKFreq:InputFrequency <- $r1
	@DEBUG_VALUE: RCCEx_GetSAIxPeriphCLKFreq:PeriphClk <- [DW_OP_LLVM_entry_value 1] $r0
	.loc	5 2843 43                       @ c:/Keil_v5\ARM\PACK\Keil\STM32L5xx_DFP\1.3.0\Drivers\STM32L5xx_HAL_Driver\Src\stm32l5xx_hal_rcc_ex.c:2843:43
	cmp.w	r3, #1024
	beq	.LBB5_23
.Ltmp559:
@ %bb.12:
	@DEBUG_VALUE: RCCEx_GetSAIxPeriphCLKFreq:pllvco <- $r1
	@DEBUG_VALUE: RCCEx_GetSAIxPeriphCLKFreq:InputFrequency <- $r1
	@DEBUG_VALUE: RCCEx_GetSAIxPeriphCLKFreq:PeriphClk <- [DW_OP_LLVM_entry_value 1] $r0
	cmp.w	r3, #512
	bne	.LBB5_10
.Ltmp560:
.LBB5_13:
	@DEBUG_VALUE: RCCEx_GetSAIxPeriphCLKFreq:pllvco <- $r1
	@DEBUG_VALUE: RCCEx_GetSAIxPeriphCLKFreq:InputFrequency <- $r1
	@DEBUG_VALUE: RCCEx_GetSAIxPeriphCLKFreq:PeriphClk <- [DW_OP_LLVM_entry_value 1] $r0
	.loc	5 2845 11                       @ c:/Keil_v5\ARM\PACK\Keil\STM32L5xx_DFP\1.3.0\Drivers\STM32L5xx_HAL_Driver\Src\stm32l5xx_hal_rcc_ex.c:2845:11
	ldr	r0, [r2]
.Ltmp561:
	.loc	5 2845 11 is_stmt 0             @ c:/Keil_v5\ARM\PACK\Keil\STM32L5xx_DFP\1.3.0\Drivers\STM32L5xx_HAL_Driver\Src\stm32l5xx_hal_rcc_ex.c:2845:11
	lsls	r0, r0, #6
	bpl	.LBB5_25
.Ltmp562:
@ %bb.14:
	@DEBUG_VALUE: RCCEx_GetSAIxPeriphCLKFreq:pllvco <- $r1
	@DEBUG_VALUE: RCCEx_GetSAIxPeriphCLKFreq:InputFrequency <- $r1
	@DEBUG_VALUE: RCCEx_GetSAIxPeriphCLKFreq:PeriphClk <- [DW_OP_LLVM_entry_value 1] $r0
	.loc	5 2847 13 is_stmt 1             @ c:/Keil_v5\ARM\PACK\Keil\STM32L5xx_DFP\1.3.0\Drivers\STM32L5xx_HAL_Driver\Src\stm32l5xx_hal_rcc_ex.c:2847:13
	ldr	r0, [r2, #12]
.Ltmp563:
	.loc	5 2847 13 is_stmt 0             @ c:/Keil_v5\ARM\PACK\Keil\STM32L5xx_DFP\1.3.0\Drivers\STM32L5xx_HAL_Driver\Src\stm32l5xx_hal_rcc_ex.c:2847:13
	lsls	r0, r0, #15
	mov.w	r0, #0
.Ltmp564:
	@DEBUG_VALUE: RCCEx_GetSAIxPeriphCLKFreq:frequency <- $r0
	.loc	5 2932 3 is_stmt 1              @ c:/Keil_v5\ARM\PACK\Keil\STM32L5xx_DFP\1.3.0\Drivers\STM32L5xx_HAL_Driver\Src\stm32l5xx_hal_rcc_ex.c:2932:3
	it	pl
	poppl	{r7, pc}
.Ltmp565:
.LBB5_15:
	@DEBUG_VALUE: RCCEx_GetSAIxPeriphCLKFreq:pllvco <- $r1
	@DEBUG_VALUE: RCCEx_GetSAIxPeriphCLKFreq:InputFrequency <- $r1
	@DEBUG_VALUE: RCCEx_GetSAIxPeriphCLKFreq:frequency <- $r0
	@DEBUG_VALUE: RCCEx_GetSAIxPeriphCLKFreq:PeriphClk <- [DW_OP_LLVM_entry_value 1] $r0
	.loc	5 2850 32                       @ c:/Keil_v5\ARM\PACK\Keil\STM32L5xx_DFP\1.3.0\Drivers\STM32L5xx_HAL_Driver\Src\stm32l5xx_hal_rcc_ex.c:2850:32
	ldr	r3, [r2, #12]
	.loc	5 2852 18                       @ c:/Keil_v5\ARM\PACK\Keil\STM32L5xx_DFP\1.3.0\Drivers\STM32L5xx_HAL_Driver\Src\stm32l5xx_hal_rcc_ex.c:2852:18
	ldr.w	lr, [r2, #12]
	.loc	5 2850 73                       @ c:/Keil_v5\ARM\PACK\Keil\STM32L5xx_DFP\1.3.0\Drivers\STM32L5xx_HAL_Driver\Src\stm32l5xx_hal_rcc_ex.c:2850:73
	ubfx	r3, r3, #4, #4
	.loc	5 2850 98 is_stmt 0             @ c:/Keil_v5\ARM\PACK\Keil\STM32L5xx_DFP\1.3.0\Drivers\STM32L5xx_HAL_Driver\Src\stm32l5xx_hal_rcc_ex.c:2850:98
	add.w	r12, r3, #1
	.loc	5 2853 18 is_stmt 1             @ c:/Keil_v5\ARM\PACK\Keil\STM32L5xx_DFP\1.3.0\Drivers\STM32L5xx_HAL_Driver\Src\stm32l5xx_hal_rcc_ex.c:2853:18
	ldr	r3, [r2, #12]
.Ltmp566:
	@DEBUG_VALUE: RCCEx_GetSAIxPeriphCLKFreq:pllp <- undef
	.loc	5 2850 28                       @ c:/Keil_v5\ARM\PACK\Keil\STM32L5xx_DFP\1.3.0\Drivers\STM32L5xx_HAL_Driver\Src\stm32l5xx_hal_rcc_ex.c:2850:28
	udiv	r1, r1, r12
.Ltmp567:
	@DEBUG_VALUE: RCCEx_GetSAIxPeriphCLKFreq:InputFrequency <- [DW_OP_LLVM_entry_value 1] $r1
	@DEBUG_VALUE: RCCEx_GetSAIxPeriphCLKFreq:pllvco <- $r1
	.loc	5 2854 15                       @ c:/Keil_v5\ARM\PACK\Keil\STM32L5xx_DFP\1.3.0\Drivers\STM32L5xx_HAL_Driver\Src\stm32l5xx_hal_rcc_ex.c:2854:15
	cmp.w	r0, r3, lsr #27
	.loc	5 2852 59                       @ c:/Keil_v5\ARM\PACK\Keil\STM32L5xx_DFP\1.3.0\Drivers\STM32L5xx_HAL_Driver\Src\stm32l5xx_hal_rcc_ex.c:2852:59
	ubfx	r0, lr, #8, #7
.Ltmp568:
	@DEBUG_VALUE: RCCEx_GetSAIxPeriphCLKFreq:plln <- $r0
	.loc	5 2854 15                       @ c:/Keil_v5\ARM\PACK\Keil\STM32L5xx_DFP\1.3.0\Drivers\STM32L5xx_HAL_Driver\Src\stm32l5xx_hal_rcc_ex.c:2854:15
	beq	.LBB5_36
.Ltmp569:
@ %bb.16:
	@DEBUG_VALUE: RCCEx_GetSAIxPeriphCLKFreq:pllvco <- $r1
	@DEBUG_VALUE: RCCEx_GetSAIxPeriphCLKFreq:plln <- $r0
	@DEBUG_VALUE: RCCEx_GetSAIxPeriphCLKFreq:InputFrequency <- [DW_OP_LLVM_entry_value 1] $r1
	@DEBUG_VALUE: RCCEx_GetSAIxPeriphCLKFreq:PeriphClk <- [DW_OP_LLVM_entry_value 1] $r0
	.loc	5 0 15 is_stmt 0                @ c:/Keil_v5\ARM\PACK\Keil\STM32L5xx_DFP\1.3.0\Drivers\STM32L5xx_HAL_Driver\Src\stm32l5xx_hal_rcc_ex.c:0:15
	lsrs	r2, r3, #27
.Ltmp570:
	@DEBUG_VALUE: RCCEx_GetSAIxPeriphCLKFreq:pllp <- $r2
	@DEBUG_VALUE: RCCEx_GetSAIxPeriphCLKFreq:pllp <- $r2
	.loc	5 2865 31 is_stmt 1             @ c:/Keil_v5\ARM\PACK\Keil\STM32L5xx_DFP\1.3.0\Drivers\STM32L5xx_HAL_Driver\Src\stm32l5xx_hal_rcc_ex.c:2865:31
	mul	r0, r0, r1
.Ltmp571:
	.loc	5 2865 39 is_stmt 0             @ c:/Keil_v5\ARM\PACK\Keil\STM32L5xx_DFP\1.3.0\Drivers\STM32L5xx_HAL_Driver\Src\stm32l5xx_hal_rcc_ex.c:2865:39
	udiv	r0, r0, r2
.Ltmp572:
	@DEBUG_VALUE: RCCEx_GetSAIxPeriphCLKFreq:frequency <- $r0
	@DEBUG_VALUE: RCCEx_GetSAIxPeriphCLKFreq:frequency <- $r0
	.loc	5 2932 3 is_stmt 1              @ c:/Keil_v5\ARM\PACK\Keil\STM32L5xx_DFP\1.3.0\Drivers\STM32L5xx_HAL_Driver\Src\stm32l5xx_hal_rcc_ex.c:2932:3
	pop	{r7, pc}
.Ltmp573:
	.p2align	2
.LBB5_17:
	@DEBUG_VALUE: RCCEx_GetSAIxPeriphCLKFreq:pllvco <- $r1
	@DEBUG_VALUE: RCCEx_GetSAIxPeriphCLKFreq:InputFrequency <- $r1
	@DEBUG_VALUE: RCCEx_GetSAIxPeriphCLKFreq:PeriphClk <- [DW_OP_LLVM_entry_value 1] $r0
	.loc	5 2903 11                       @ c:/Keil_v5\ARM\PACK\Keil\STM32L5xx_DFP\1.3.0\Drivers\STM32L5xx_HAL_Driver\Src\stm32l5xx_hal_rcc_ex.c:2903:11
	ldr	r0, [r2, #20]
.Ltmp574:
	.loc	5 2903 11 is_stmt 0             @ c:/Keil_v5\ARM\PACK\Keil\STM32L5xx_DFP\1.3.0\Drivers\STM32L5xx_HAL_Driver\Src\stm32l5xx_hal_rcc_ex.c:2903:11
	lsls	r0, r0, #15
	itt	pl
	movpl	r0, #0
.Ltmp575:
	@DEBUG_VALUE: RCCEx_GetSAIxPeriphCLKFreq:frequency <- $r0
	.loc	5 2932 3 is_stmt 1              @ c:/Keil_v5\ARM\PACK\Keil\STM32L5xx_DFP\1.3.0\Drivers\STM32L5xx_HAL_Driver\Src\stm32l5xx_hal_rcc_ex.c:2932:3
	poppl	{r7, pc}
.Ltmp576:
.LBB5_18:
	@DEBUG_VALUE: RCCEx_GetSAIxPeriphCLKFreq:pllvco <- $r1
	@DEBUG_VALUE: RCCEx_GetSAIxPeriphCLKFreq:InputFrequency <- $r1
	@DEBUG_VALUE: RCCEx_GetSAIxPeriphCLKFreq:frequency <- $r0
	@DEBUG_VALUE: RCCEx_GetSAIxPeriphCLKFreq:PeriphClk <- [DW_OP_LLVM_entry_value 1] $r0
	@DEBUG_VALUE: RCCEx_PLLSAI2_GetVCOFreq:pllvco <- 0
	.loc	5 2763 11                       @ c:/Keil_v5\ARM\PACK\Keil\STM32L5xx_DFP\1.3.0\Drivers\STM32L5xx_HAL_Driver\Src\stm32l5xx_hal_rcc_ex.c:2763:11
	ldr	r0, [r2, #20]
.Ltmp577:
	and	r0, r0, #3
	.loc	5 2763 3 is_stmt 0              @ c:/Keil_v5\ARM\PACK\Keil\STM32L5xx_DFP\1.3.0\Drivers\STM32L5xx_HAL_Driver\Src\stm32l5xx_hal_rcc_ex.c:2763:3
	cmp	r0, #3
	beq	.LBB5_31
.Ltmp578:
@ %bb.19:
	@DEBUG_VALUE: RCCEx_GetSAIxPeriphCLKFreq:pllvco <- $r1
	@DEBUG_VALUE: RCCEx_GetSAIxPeriphCLKFreq:InputFrequency <- $r1
	@DEBUG_VALUE: RCCEx_PLLSAI2_GetVCOFreq:pllvco <- 0
	@DEBUG_VALUE: RCCEx_GetSAIxPeriphCLKFreq:PeriphClk <- [DW_OP_LLVM_entry_value 1] $r0
	cmp	r0, #2
	beq	.LBB5_32
.Ltmp579:
@ %bb.20:
	@DEBUG_VALUE: RCCEx_GetSAIxPeriphCLKFreq:pllvco <- $r1
	@DEBUG_VALUE: RCCEx_GetSAIxPeriphCLKFreq:InputFrequency <- $r1
	@DEBUG_VALUE: RCCEx_PLLSAI2_GetVCOFreq:pllvco <- 0
	@DEBUG_VALUE: RCCEx_GetSAIxPeriphCLKFreq:PeriphClk <- [DW_OP_LLVM_entry_value 1] $r0
	cmp	r0, #1
	bne	.LBB5_22
.Ltmp580:
@ %bb.21:
	@DEBUG_VALUE: RCCEx_GetSAIxPeriphCLKFreq:pllvco <- $r1
	@DEBUG_VALUE: RCCEx_GetSAIxPeriphCLKFreq:InputFrequency <- $r1
	@DEBUG_VALUE: RCCEx_PLLSAI2_GetVCOFreq:pllvco <- 0
	@DEBUG_VALUE: RCCEx_GetSAIxPeriphCLKFreq:PeriphClk <- [DW_OP_LLVM_entry_value 1] $r0
	.loc	5 2766 11 is_stmt 1             @ c:/Keil_v5\ARM\PACK\Keil\STM32L5xx_DFP\1.3.0\Drivers\STM32L5xx_HAL_Driver\Src\stm32l5xx_hal_rcc_ex.c:2766:11
	ldr	r0, [r2]
.Ltmp581:
	.loc	5 2766 11 is_stmt 0             @ c:/Keil_v5\ARM\PACK\Keil\STM32L5xx_DFP\1.3.0\Drivers\STM32L5xx_HAL_Driver\Src\stm32l5xx_hal_rcc_ex.c:2766:11
	lsls	r0, r0, #30
	bmi	.LBB5_37
.Ltmp582:
.LBB5_22:
	@DEBUG_VALUE: RCCEx_GetSAIxPeriphCLKFreq:pllvco <- $r1
	@DEBUG_VALUE: RCCEx_GetSAIxPeriphCLKFreq:InputFrequency <- $r1
	@DEBUG_VALUE: RCCEx_PLLSAI2_GetVCOFreq:pllvco <- 0
	@DEBUG_VALUE: RCCEx_GetSAIxPeriphCLKFreq:PeriphClk <- [DW_OP_LLVM_entry_value 1] $r0
	.loc	5 0 11                          @ c:/Keil_v5\ARM\PACK\Keil\STM32L5xx_DFP\1.3.0\Drivers\STM32L5xx_HAL_Driver\Src\stm32l5xx_hal_rcc_ex.c:0:11
	movs	r0, #0
	b	.LBB5_34
.Ltmp583:
	.p2align	2
.LBB5_23:
	@DEBUG_VALUE: RCCEx_GetSAIxPeriphCLKFreq:pllvco <- $r1
	@DEBUG_VALUE: RCCEx_GetSAIxPeriphCLKFreq:InputFrequency <- $r1
	@DEBUG_VALUE: RCCEx_GetSAIxPeriphCLKFreq:PeriphClk <- [DW_OP_LLVM_entry_value 1] $r0
	.loc	5 2871 11 is_stmt 1             @ c:/Keil_v5\ARM\PACK\Keil\STM32L5xx_DFP\1.3.0\Drivers\STM32L5xx_HAL_Driver\Src\stm32l5xx_hal_rcc_ex.c:2871:11
	ldr	r0, [r2]
	movw	r1, #9216
.Ltmp584:
	@DEBUG_VALUE: RCCEx_GetSAIxPeriphCLKFreq:InputFrequency <- [DW_OP_LLVM_entry_value 1] $r1
	lsls	r0, r0, #21
	movt	r1, #244
.Ltmp585:
	.loc	5 2871 11 is_stmt 0             @ c:/Keil_v5\ARM\PACK\Keil\STM32L5xx_DFP\1.3.0\Drivers\STM32L5xx_HAL_Driver\Src\stm32l5xx_hal_rcc_ex.c:2871:11
	and.w	r0, r1, r0, asr #31
	pop	{r7, pc}
.Ltmp586:
	.p2align	2
.LBB5_24:
	@DEBUG_VALUE: RCCEx_GetSAIxPeriphCLKFreq:pllvco <- $r1
	@DEBUG_VALUE: RCCEx_GetSAIxPeriphCLKFreq:InputFrequency <- $r1
	@DEBUG_VALUE: RCCEx_GetSAIxPeriphCLKFreq:PeriphClk <- [DW_OP_LLVM_entry_value 1] $r0
	.loc	5 2878 11 is_stmt 1             @ c:/Keil_v5\ARM\PACK\Keil\STM32L5xx_DFP\1.3.0\Drivers\STM32L5xx_HAL_Driver\Src\stm32l5xx_hal_rcc_ex.c:2878:11
	ldr	r0, [r2, #16]
.Ltmp587:
	.loc	5 2878 11 is_stmt 0             @ c:/Keil_v5\ARM\PACK\Keil\STM32L5xx_DFP\1.3.0\Drivers\STM32L5xx_HAL_Driver\Src\stm32l5xx_hal_rcc_ex.c:2878:11
	lsls	r0, r0, #15
	bmi	.LBB5_26
.Ltmp588:
.LBB5_25:
	@DEBUG_VALUE: RCCEx_GetSAIxPeriphCLKFreq:pllvco <- $r1
	@DEBUG_VALUE: RCCEx_GetSAIxPeriphCLKFreq:InputFrequency <- $r1
	@DEBUG_VALUE: RCCEx_GetSAIxPeriphCLKFreq:PeriphClk <- [DW_OP_LLVM_entry_value 1] $r0
	.loc	5 0 11                          @ c:/Keil_v5\ARM\PACK\Keil\STM32L5xx_DFP\1.3.0\Drivers\STM32L5xx_HAL_Driver\Src\stm32l5xx_hal_rcc_ex.c:0:11
	movs	r0, #0
.Ltmp589:
	@DEBUG_VALUE: RCCEx_GetSAIxPeriphCLKFreq:frequency <- $r0
	.loc	5 2932 3 is_stmt 1              @ c:/Keil_v5\ARM\PACK\Keil\STM32L5xx_DFP\1.3.0\Drivers\STM32L5xx_HAL_Driver\Src\stm32l5xx_hal_rcc_ex.c:2932:3
	pop	{r7, pc}
.Ltmp590:
	.p2align	2
.LBB5_26:
	@DEBUG_VALUE: RCCEx_GetSAIxPeriphCLKFreq:pllvco <- $r1
	@DEBUG_VALUE: RCCEx_GetSAIxPeriphCLKFreq:InputFrequency <- $r1
	@DEBUG_VALUE: RCCEx_GetSAIxPeriphCLKFreq:PeriphClk <- [DW_OP_LLVM_entry_value 1] $r0
	@DEBUG_VALUE: RCCEx_PLLSAI1_GetVCOFreq:pllvco <- 0
	.loc	5 2714 11                       @ c:/Keil_v5\ARM\PACK\Keil\STM32L5xx_DFP\1.3.0\Drivers\STM32L5xx_HAL_Driver\Src\stm32l5xx_hal_rcc_ex.c:2714:11
	ldr	r0, [r2, #16]
	and	r0, r0, #3
	.loc	5 2714 3 is_stmt 0              @ c:/Keil_v5\ARM\PACK\Keil\STM32L5xx_DFP\1.3.0\Drivers\STM32L5xx_HAL_Driver\Src\stm32l5xx_hal_rcc_ex.c:2714:3
	cmp	r0, #3
	beq	.LBB5_38
.Ltmp591:
@ %bb.27:
	@DEBUG_VALUE: RCCEx_GetSAIxPeriphCLKFreq:pllvco <- $r1
	@DEBUG_VALUE: RCCEx_GetSAIxPeriphCLKFreq:InputFrequency <- $r1
	@DEBUG_VALUE: RCCEx_PLLSAI1_GetVCOFreq:pllvco <- 0
	@DEBUG_VALUE: RCCEx_GetSAIxPeriphCLKFreq:PeriphClk <- [DW_OP_LLVM_entry_value 1] $r0
	cmp	r0, #2
	beq	.LBB5_39
.Ltmp592:
@ %bb.28:
	@DEBUG_VALUE: RCCEx_GetSAIxPeriphCLKFreq:pllvco <- $r1
	@DEBUG_VALUE: RCCEx_GetSAIxPeriphCLKFreq:InputFrequency <- $r1
	@DEBUG_VALUE: RCCEx_PLLSAI1_GetVCOFreq:pllvco <- 0
	@DEBUG_VALUE: RCCEx_GetSAIxPeriphCLKFreq:PeriphClk <- [DW_OP_LLVM_entry_value 1] $r0
	cmp	r0, #1
	bne	.LBB5_30
.Ltmp593:
@ %bb.29:
	@DEBUG_VALUE: RCCEx_GetSAIxPeriphCLKFreq:pllvco <- $r1
	@DEBUG_VALUE: RCCEx_GetSAIxPeriphCLKFreq:InputFrequency <- $r1
	@DEBUG_VALUE: RCCEx_PLLSAI1_GetVCOFreq:pllvco <- 0
	@DEBUG_VALUE: RCCEx_GetSAIxPeriphCLKFreq:PeriphClk <- [DW_OP_LLVM_entry_value 1] $r0
	.loc	5 2717 11 is_stmt 1             @ c:/Keil_v5\ARM\PACK\Keil\STM32L5xx_DFP\1.3.0\Drivers\STM32L5xx_HAL_Driver\Src\stm32l5xx_hal_rcc_ex.c:2717:11
	ldr	r0, [r2]
.Ltmp594:
	.loc	5 2717 11 is_stmt 0             @ c:/Keil_v5\ARM\PACK\Keil\STM32L5xx_DFP\1.3.0\Drivers\STM32L5xx_HAL_Driver\Src\stm32l5xx_hal_rcc_ex.c:2717:11
	lsls	r0, r0, #30
	bmi	.LBB5_41
.Ltmp595:
.LBB5_30:
	@DEBUG_VALUE: RCCEx_GetSAIxPeriphCLKFreq:pllvco <- $r1
	@DEBUG_VALUE: RCCEx_GetSAIxPeriphCLKFreq:InputFrequency <- $r1
	@DEBUG_VALUE: RCCEx_PLLSAI1_GetVCOFreq:pllvco <- 0
	@DEBUG_VALUE: RCCEx_GetSAIxPeriphCLKFreq:PeriphClk <- [DW_OP_LLVM_entry_value 1] $r0
	.loc	5 0 11                          @ c:/Keil_v5\ARM\PACK\Keil\STM32L5xx_DFP\1.3.0\Drivers\STM32L5xx_HAL_Driver\Src\stm32l5xx_hal_rcc_ex.c:0:11
	movs	r0, #0
	b	.LBB5_42
.Ltmp596:
	.p2align	2
.LBB5_31:
	@DEBUG_VALUE: RCCEx_GetSAIxPeriphCLKFreq:pllvco <- $r1
	@DEBUG_VALUE: RCCEx_GetSAIxPeriphCLKFreq:InputFrequency <- $r1
	@DEBUG_VALUE: RCCEx_PLLSAI2_GetVCOFreq:pllvco <- 0
	@DEBUG_VALUE: RCCEx_GetSAIxPeriphCLKFreq:PeriphClk <- [DW_OP_LLVM_entry_value 1] $r0
	.loc	5 2787 11 is_stmt 1             @ c:/Keil_v5\ARM\PACK\Keil\STM32L5xx_DFP\1.3.0\Drivers\STM32L5xx_HAL_Driver\Src\stm32l5xx_hal_rcc_ex.c:2787:11
	ldr	r0, [r2]
	lsls	r0, r0, #14
	b	.LBB5_33
.Ltmp597:
	.p2align	2
.LBB5_32:
	@DEBUG_VALUE: RCCEx_GetSAIxPeriphCLKFreq:pllvco <- $r1
	@DEBUG_VALUE: RCCEx_GetSAIxPeriphCLKFreq:InputFrequency <- $r1
	@DEBUG_VALUE: RCCEx_PLLSAI2_GetVCOFreq:pllvco <- 0
	@DEBUG_VALUE: RCCEx_GetSAIxPeriphCLKFreq:PeriphClk <- [DW_OP_LLVM_entry_value 1] $r0
	.loc	5 2777 11                       @ c:/Keil_v5\ARM\PACK\Keil\STM32L5xx_DFP\1.3.0\Drivers\STM32L5xx_HAL_Driver\Src\stm32l5xx_hal_rcc_ex.c:2777:11
	ldr	r0, [r2]
	lsls	r0, r0, #21
.Ltmp598:
.LBB5_33:
	@DEBUG_VALUE: RCCEx_GetSAIxPeriphCLKFreq:pllvco <- $r1
	@DEBUG_VALUE: RCCEx_GetSAIxPeriphCLKFreq:InputFrequency <- $r1
	@DEBUG_VALUE: RCCEx_PLLSAI2_GetVCOFreq:pllvco <- 0
	@DEBUG_VALUE: RCCEx_GetSAIxPeriphCLKFreq:PeriphClk <- [DW_OP_LLVM_entry_value 1] $r0
	.loc	5 0 11 is_stmt 0                @ c:/Keil_v5\ARM\PACK\Keil\STM32L5xx_DFP\1.3.0\Drivers\STM32L5xx_HAL_Driver\Src\stm32l5xx_hal_rcc_ex.c:0:11
	movw	r1, #9216
.Ltmp599:
	@DEBUG_VALUE: RCCEx_GetSAIxPeriphCLKFreq:InputFrequency <- [DW_OP_LLVM_entry_value 1] $r1
	movt	r1, #244
	and.w	r0, r1, r0, asr #31
.Ltmp600:
.LBB5_34:
	@DEBUG_VALUE: RCCEx_GetSAIxPeriphCLKFreq:PeriphClk <- [DW_OP_LLVM_entry_value 1] $r0
	@DEBUG_VALUE: RCCEx_GetSAIxPeriphCLKFreq:pllvco <- $r0
	.loc	5 2908 30 is_stmt 1             @ c:/Keil_v5\ARM\PACK\Keil\STM32L5xx_DFP\1.3.0\Drivers\STM32L5xx_HAL_Driver\Src\stm32l5xx_hal_rcc_ex.c:2908:30
	ldr	r1, [r2, #20]
	.loc	5 2908 83 is_stmt 0             @ c:/Keil_v5\ARM\PACK\Keil\STM32L5xx_DFP\1.3.0\Drivers\STM32L5xx_HAL_Driver\Src\stm32l5xx_hal_rcc_ex.c:2908:83
	ubfx	r1, r1, #4, #4
	.loc	5 2908 116                      @ c:/Keil_v5\ARM\PACK\Keil\STM32L5xx_DFP\1.3.0\Drivers\STM32L5xx_HAL_Driver\Src\stm32l5xx_hal_rcc_ex.c:2908:116
	adds	r1, #1
	.loc	5 2908 26                       @ c:/Keil_v5\ARM\PACK\Keil\STM32L5xx_DFP\1.3.0\Drivers\STM32L5xx_HAL_Driver\Src\stm32l5xx_hal_rcc_ex.c:2908:26
	udiv	r12, r0, r1
.Ltmp601:
	@DEBUG_VALUE: RCCEx_GetSAIxPeriphCLKFreq:pllvco <- $r12
	.loc	5 2910 16 is_stmt 1             @ c:/Keil_v5\ARM\PACK\Keil\STM32L5xx_DFP\1.3.0\Drivers\STM32L5xx_HAL_Driver\Src\stm32l5xx_hal_rcc_ex.c:2910:16
	ldr	r1, [r2, #20]
	.loc	5 2911 16                       @ c:/Keil_v5\ARM\PACK\Keil\STM32L5xx_DFP\1.3.0\Drivers\STM32L5xx_HAL_Driver\Src\stm32l5xx_hal_rcc_ex.c:2911:16
	ldr	r3, [r2, #20]
.Ltmp602:
	@DEBUG_VALUE: RCCEx_GetSAIxPeriphCLKFreq:pllp <- undef
	.loc	5 0 16 is_stmt 0                @ c:/Keil_v5\ARM\PACK\Keil\STM32L5xx_DFP\1.3.0\Drivers\STM32L5xx_HAL_Driver\Src\stm32l5xx_hal_rcc_ex.c:0:16
	movs	r0, #0
	.loc	5 2912 13 is_stmt 1             @ c:/Keil_v5\ARM\PACK\Keil\STM32L5xx_DFP\1.3.0\Drivers\STM32L5xx_HAL_Driver\Src\stm32l5xx_hal_rcc_ex.c:2912:13
	cmp.w	r0, r3, lsr #27
	.loc	5 2910 69                       @ c:/Keil_v5\ARM\PACK\Keil\STM32L5xx_DFP\1.3.0\Drivers\STM32L5xx_HAL_Driver\Src\stm32l5xx_hal_rcc_ex.c:2910:69
	ubfx	r1, r1, #8, #7
.Ltmp603:
	@DEBUG_VALUE: RCCEx_GetSAIxPeriphCLKFreq:plln <- $r1
	.loc	5 2912 13                       @ c:/Keil_v5\ARM\PACK\Keil\STM32L5xx_DFP\1.3.0\Drivers\STM32L5xx_HAL_Driver\Src\stm32l5xx_hal_rcc_ex.c:2912:13
	bne	.LBB5_43
.Ltmp604:
@ %bb.35:
	@DEBUG_VALUE: RCCEx_GetSAIxPeriphCLKFreq:pllvco <- $r12
	@DEBUG_VALUE: RCCEx_GetSAIxPeriphCLKFreq:plln <- $r1
	@DEBUG_VALUE: RCCEx_GetSAIxPeriphCLKFreq:PeriphClk <- [DW_OP_LLVM_entry_value 1] $r0
	.loc	5 2914 15                       @ c:/Keil_v5\ARM\PACK\Keil\STM32L5xx_DFP\1.3.0\Drivers\STM32L5xx_HAL_Driver\Src\stm32l5xx_hal_rcc_ex.c:2914:15
	ldr	r0, [r2, #20]
	b	.LBB5_45
.Ltmp605:
	.p2align	2
.LBB5_36:
	@DEBUG_VALUE: RCCEx_GetSAIxPeriphCLKFreq:pllvco <- $r1
	@DEBUG_VALUE: RCCEx_GetSAIxPeriphCLKFreq:plln <- $r0
	@DEBUG_VALUE: RCCEx_GetSAIxPeriphCLKFreq:InputFrequency <- [DW_OP_LLVM_entry_value 1] $r1
	@DEBUG_VALUE: RCCEx_GetSAIxPeriphCLKFreq:PeriphClk <- [DW_OP_LLVM_entry_value 1] $r0
	.loc	5 2856 17                       @ c:/Keil_v5\ARM\PACK\Keil\STM32L5xx_DFP\1.3.0\Drivers\STM32L5xx_HAL_Driver\Src\stm32l5xx_hal_rcc_ex.c:2856:17
	ldr	r2, [r2, #12]
.Ltmp606:
	.loc	5 2856 17 is_stmt 0             @ c:/Keil_v5\ARM\PACK\Keil\STM32L5xx_DFP\1.3.0\Drivers\STM32L5xx_HAL_Driver\Src\stm32l5xx_hal_rcc_ex.c:2856:17
	lsls	r2, r2, #14
	mov.w	r2, #17
	it	pl
	movpl	r2, #7
.Ltmp607:
	@DEBUG_VALUE: RCCEx_GetSAIxPeriphCLKFreq:pllp <- $r2
	.loc	5 2865 31 is_stmt 1             @ c:/Keil_v5\ARM\PACK\Keil\STM32L5xx_DFP\1.3.0\Drivers\STM32L5xx_HAL_Driver\Src\stm32l5xx_hal_rcc_ex.c:2865:31
	mul	r0, r0, r1
.Ltmp608:
	.loc	5 2865 39 is_stmt 0             @ c:/Keil_v5\ARM\PACK\Keil\STM32L5xx_DFP\1.3.0\Drivers\STM32L5xx_HAL_Driver\Src\stm32l5xx_hal_rcc_ex.c:2865:39
	udiv	r0, r0, r2
.Ltmp609:
	@DEBUG_VALUE: RCCEx_GetSAIxPeriphCLKFreq:frequency <- $r0
	@DEBUG_VALUE: RCCEx_GetSAIxPeriphCLKFreq:frequency <- $r0
	.loc	5 2932 3 is_stmt 1              @ c:/Keil_v5\ARM\PACK\Keil\STM32L5xx_DFP\1.3.0\Drivers\STM32L5xx_HAL_Driver\Src\stm32l5xx_hal_rcc_ex.c:2932:3
	pop	{r7, pc}
.Ltmp610:
	.p2align	2
.LBB5_37:
	@DEBUG_VALUE: RCCEx_GetSAIxPeriphCLKFreq:pllvco <- $r1
	@DEBUG_VALUE: RCCEx_GetSAIxPeriphCLKFreq:InputFrequency <- $r1
	@DEBUG_VALUE: RCCEx_PLLSAI2_GetVCOFreq:pllvco <- 0
	@DEBUG_VALUE: RCCEx_GetSAIxPeriphCLKFreq:PeriphClk <- [DW_OP_LLVM_entry_value 1] $r0
	.loc	5 2769 33                       @ c:/Keil_v5\ARM\PACK\Keil\STM32L5xx_DFP\1.3.0\Drivers\STM32L5xx_HAL_Driver\Src\stm32l5xx_hal_rcc_ex.c:2769:33
	ldr	r0, [r2]
	movs	r1, #60
.Ltmp611:
	@DEBUG_VALUE: RCCEx_GetSAIxPeriphCLKFreq:InputFrequency <- [DW_OP_LLVM_entry_value 1] $r1
	lsls	r0, r0, #28
	itte	pl
	ldrpl.w	r0, [r2, #148]
	lsrpl	r0, r0, #4
	ldrmi	r0, [r2]
	.loc	5 2769 18 is_stmt 0             @ c:/Keil_v5\ARM\PACK\Keil\STM32L5xx_DFP\1.3.0\Drivers\STM32L5xx_HAL_Driver\Src\stm32l5xx_hal_rcc_ex.c:2769:18
	and.w	r0, r1, r0, lsr #2
	movw	r1, :lower16:MSIRangeTable
	movt	r1, :upper16:MSIRangeTable
	ldr	r0, [r1, r0]
.Ltmp612:
	@DEBUG_VALUE: RCCEx_PLLSAI2_GetVCOFreq:pllvco <- $r0
	.loc	5 0 18                          @ c:/Keil_v5\ARM\PACK\Keil\STM32L5xx_DFP\1.3.0\Drivers\STM32L5xx_HAL_Driver\Src\stm32l5xx_hal_rcc_ex.c:0:18
	b	.LBB5_34
.Ltmp613:
	.p2align	2
.LBB5_38:
	@DEBUG_VALUE: RCCEx_GetSAIxPeriphCLKFreq:pllvco <- $r1
	@DEBUG_VALUE: RCCEx_GetSAIxPeriphCLKFreq:InputFrequency <- $r1
	@DEBUG_VALUE: RCCEx_PLLSAI1_GetVCOFreq:pllvco <- 0
	@DEBUG_VALUE: RCCEx_GetSAIxPeriphCLKFreq:PeriphClk <- [DW_OP_LLVM_entry_value 1] $r0
	.loc	5 2738 11 is_stmt 1             @ c:/Keil_v5\ARM\PACK\Keil\STM32L5xx_DFP\1.3.0\Drivers\STM32L5xx_HAL_Driver\Src\stm32l5xx_hal_rcc_ex.c:2738:11
	ldr	r0, [r2]
	lsls	r0, r0, #14
	b	.LBB5_40
.Ltmp614:
	.p2align	2
.LBB5_39:
	@DEBUG_VALUE: RCCEx_GetSAIxPeriphCLKFreq:pllvco <- $r1
	@DEBUG_VALUE: RCCEx_GetSAIxPeriphCLKFreq:InputFrequency <- $r1
	@DEBUG_VALUE: RCCEx_PLLSAI1_GetVCOFreq:pllvco <- 0
	@DEBUG_VALUE: RCCEx_GetSAIxPeriphCLKFreq:PeriphClk <- [DW_OP_LLVM_entry_value 1] $r0
	.loc	5 2728 11                       @ c:/Keil_v5\ARM\PACK\Keil\STM32L5xx_DFP\1.3.0\Drivers\STM32L5xx_HAL_Driver\Src\stm32l5xx_hal_rcc_ex.c:2728:11
	ldr	r0, [r2]
	lsls	r0, r0, #21
.Ltmp615:
.LBB5_40:
	@DEBUG_VALUE: RCCEx_GetSAIxPeriphCLKFreq:pllvco <- $r1
	@DEBUG_VALUE: RCCEx_GetSAIxPeriphCLKFreq:InputFrequency <- $r1
	@DEBUG_VALUE: RCCEx_PLLSAI1_GetVCOFreq:pllvco <- 0
	@DEBUG_VALUE: RCCEx_GetSAIxPeriphCLKFreq:PeriphClk <- [DW_OP_LLVM_entry_value 1] $r0
	.loc	5 0 11 is_stmt 0                @ c:/Keil_v5\ARM\PACK\Keil\STM32L5xx_DFP\1.3.0\Drivers\STM32L5xx_HAL_Driver\Src\stm32l5xx_hal_rcc_ex.c:0:11
	movw	r1, #9216
.Ltmp616:
	@DEBUG_VALUE: RCCEx_GetSAIxPeriphCLKFreq:InputFrequency <- [DW_OP_LLVM_entry_value 1] $r1
	movt	r1, #244
	and.w	r0, r1, r0, asr #31
	b	.LBB5_42
.Ltmp617:
	.p2align	2
.LBB5_41:
	@DEBUG_VALUE: RCCEx_GetSAIxPeriphCLKFreq:pllvco <- $r1
	@DEBUG_VALUE: RCCEx_GetSAIxPeriphCLKFreq:InputFrequency <- $r1
	@DEBUG_VALUE: RCCEx_PLLSAI1_GetVCOFreq:pllvco <- 0
	@DEBUG_VALUE: RCCEx_GetSAIxPeriphCLKFreq:PeriphClk <- [DW_OP_LLVM_entry_value 1] $r0
	.loc	5 2720 33 is_stmt 1             @ c:/Keil_v5\ARM\PACK\Keil\STM32L5xx_DFP\1.3.0\Drivers\STM32L5xx_HAL_Driver\Src\stm32l5xx_hal_rcc_ex.c:2720:33
	ldr	r0, [r2]
	movs	r1, #60
.Ltmp618:
	@DEBUG_VALUE: RCCEx_GetSAIxPeriphCLKFreq:InputFrequency <- [DW_OP_LLVM_entry_value 1] $r1
	lsls	r0, r0, #28
	itte	pl
	ldrpl.w	r0, [r2, #148]
	lsrpl	r0, r0, #4
	ldrmi	r0, [r2]
	.loc	5 2720 18 is_stmt 0             @ c:/Keil_v5\ARM\PACK\Keil\STM32L5xx_DFP\1.3.0\Drivers\STM32L5xx_HAL_Driver\Src\stm32l5xx_hal_rcc_ex.c:2720:18
	and.w	r0, r1, r0, lsr #2
	movw	r1, :lower16:MSIRangeTable
	movt	r1, :upper16:MSIRangeTable
	ldr	r0, [r1, r0]
.Ltmp619:
	@DEBUG_VALUE: RCCEx_PLLSAI1_GetVCOFreq:pllvco <- $r0
.LBB5_42:
	@DEBUG_VALUE: RCCEx_GetSAIxPeriphCLKFreq:PeriphClk <- [DW_OP_LLVM_entry_value 1] $r0
	@DEBUG_VALUE: RCCEx_GetSAIxPeriphCLKFreq:pllvco <- $r0
	.loc	5 2883 30 is_stmt 1             @ c:/Keil_v5\ARM\PACK\Keil\STM32L5xx_DFP\1.3.0\Drivers\STM32L5xx_HAL_Driver\Src\stm32l5xx_hal_rcc_ex.c:2883:30
	ldr	r1, [r2, #16]
	.loc	5 2883 83 is_stmt 0             @ c:/Keil_v5\ARM\PACK\Keil\STM32L5xx_DFP\1.3.0\Drivers\STM32L5xx_HAL_Driver\Src\stm32l5xx_hal_rcc_ex.c:2883:83
	ubfx	r1, r1, #4, #4
	.loc	5 2883 116                      @ c:/Keil_v5\ARM\PACK\Keil\STM32L5xx_DFP\1.3.0\Drivers\STM32L5xx_HAL_Driver\Src\stm32l5xx_hal_rcc_ex.c:2883:116
	adds	r1, #1
	.loc	5 2883 26                       @ c:/Keil_v5\ARM\PACK\Keil\STM32L5xx_DFP\1.3.0\Drivers\STM32L5xx_HAL_Driver\Src\stm32l5xx_hal_rcc_ex.c:2883:26
	udiv	r12, r0, r1
.Ltmp620:
	@DEBUG_VALUE: RCCEx_GetSAIxPeriphCLKFreq:pllvco <- $r12
	.loc	5 2885 16 is_stmt 1             @ c:/Keil_v5\ARM\PACK\Keil\STM32L5xx_DFP\1.3.0\Drivers\STM32L5xx_HAL_Driver\Src\stm32l5xx_hal_rcc_ex.c:2885:16
	ldr	r1, [r2, #16]
	.loc	5 2886 16                       @ c:/Keil_v5\ARM\PACK\Keil\STM32L5xx_DFP\1.3.0\Drivers\STM32L5xx_HAL_Driver\Src\stm32l5xx_hal_rcc_ex.c:2886:16
	ldr	r3, [r2, #16]
.Ltmp621:
	@DEBUG_VALUE: RCCEx_GetSAIxPeriphCLKFreq:pllp <- undef
	.loc	5 0 16 is_stmt 0                @ c:/Keil_v5\ARM\PACK\Keil\STM32L5xx_DFP\1.3.0\Drivers\STM32L5xx_HAL_Driver\Src\stm32l5xx_hal_rcc_ex.c:0:16
	movs	r0, #0
	.loc	5 2887 13 is_stmt 1             @ c:/Keil_v5\ARM\PACK\Keil\STM32L5xx_DFP\1.3.0\Drivers\STM32L5xx_HAL_Driver\Src\stm32l5xx_hal_rcc_ex.c:2887:13
	cmp.w	r0, r3, lsr #27
	.loc	5 2885 69                       @ c:/Keil_v5\ARM\PACK\Keil\STM32L5xx_DFP\1.3.0\Drivers\STM32L5xx_HAL_Driver\Src\stm32l5xx_hal_rcc_ex.c:2885:69
	ubfx	r1, r1, #8, #7
.Ltmp622:
	@DEBUG_VALUE: RCCEx_GetSAIxPeriphCLKFreq:plln <- $r1
	.loc	5 2887 13                       @ c:/Keil_v5\ARM\PACK\Keil\STM32L5xx_DFP\1.3.0\Drivers\STM32L5xx_HAL_Driver\Src\stm32l5xx_hal_rcc_ex.c:2887:13
	beq	.LBB5_44
.Ltmp623:
.LBB5_43:
	@DEBUG_VALUE: RCCEx_GetSAIxPeriphCLKFreq:pllvco <- $r12
	@DEBUG_VALUE: RCCEx_GetSAIxPeriphCLKFreq:plln <- $r1
	@DEBUG_VALUE: RCCEx_GetSAIxPeriphCLKFreq:PeriphClk <- [DW_OP_LLVM_entry_value 1] $r0
	.loc	5 0 13 is_stmt 0                @ c:/Keil_v5\ARM\PACK\Keil\STM32L5xx_DFP\1.3.0\Drivers\STM32L5xx_HAL_Driver\Src\stm32l5xx_hal_rcc_ex.c:0:13
	lsrs	r2, r3, #27
.Ltmp624:
	@DEBUG_VALUE: RCCEx_GetSAIxPeriphCLKFreq:pllp <- $r2
	@DEBUG_VALUE: RCCEx_GetSAIxPeriphCLKFreq:pllp <- $r2
	mul	r0, r1, r12
	udiv	r0, r0, r2
.Ltmp625:
	@DEBUG_VALUE: RCCEx_GetSAIxPeriphCLKFreq:frequency <- $r0
	@DEBUG_VALUE: RCCEx_GetSAIxPeriphCLKFreq:frequency <- $r0
	.loc	5 2932 3 is_stmt 1              @ c:/Keil_v5\ARM\PACK\Keil\STM32L5xx_DFP\1.3.0\Drivers\STM32L5xx_HAL_Driver\Src\stm32l5xx_hal_rcc_ex.c:2932:3
	pop	{r7, pc}
.Ltmp626:
	.p2align	2
.LBB5_44:
	@DEBUG_VALUE: RCCEx_GetSAIxPeriphCLKFreq:pllvco <- $r12
	@DEBUG_VALUE: RCCEx_GetSAIxPeriphCLKFreq:plln <- $r1
	@DEBUG_VALUE: RCCEx_GetSAIxPeriphCLKFreq:PeriphClk <- [DW_OP_LLVM_entry_value 1] $r0
	.loc	5 2889 15                       @ c:/Keil_v5\ARM\PACK\Keil\STM32L5xx_DFP\1.3.0\Drivers\STM32L5xx_HAL_Driver\Src\stm32l5xx_hal_rcc_ex.c:2889:15
	ldr	r0, [r2, #16]
.Ltmp627:
.LBB5_45:
	@DEBUG_VALUE: RCCEx_GetSAIxPeriphCLKFreq:pllvco <- $r12
	@DEBUG_VALUE: RCCEx_GetSAIxPeriphCLKFreq:plln <- $r1
	@DEBUG_VALUE: RCCEx_GetSAIxPeriphCLKFreq:PeriphClk <- [DW_OP_LLVM_entry_value 1] $r0
	.loc	5 0 15 is_stmt 0                @ c:/Keil_v5\ARM\PACK\Keil\STM32L5xx_DFP\1.3.0\Drivers\STM32L5xx_HAL_Driver\Src\stm32l5xx_hal_rcc_ex.c:0:15
	movs	r2, #17
	lsls	r0, r0, #14
.Ltmp628:
	.loc	5 2889 15                       @ c:/Keil_v5\ARM\PACK\Keil\STM32L5xx_DFP\1.3.0\Drivers\STM32L5xx_HAL_Driver\Src\stm32l5xx_hal_rcc_ex.c:2889:15
	it	pl
	movpl	r2, #7
.Ltmp629:
	@DEBUG_VALUE: RCCEx_GetSAIxPeriphCLKFreq:pllp <- $r2
	.loc	5 0 0                           @ c:/Keil_v5\ARM\PACK\Keil\STM32L5xx_DFP\1.3.0\Drivers\STM32L5xx_HAL_Driver\Src\stm32l5xx_hal_rcc_ex.c:0:0
	mul	r0, r1, r12
	udiv	r0, r0, r2
.Ltmp630:
	@DEBUG_VALUE: RCCEx_GetSAIxPeriphCLKFreq:frequency <- $r0
	@DEBUG_VALUE: RCCEx_GetSAIxPeriphCLKFreq:frequency <- $r0
	.loc	5 2932 3 is_stmt 1              @ c:/Keil_v5\ARM\PACK\Keil\STM32L5xx_DFP\1.3.0\Drivers\STM32L5xx_HAL_Driver\Src\stm32l5xx_hal_rcc_ex.c:2932:3
	pop	{r7, pc}
.Ltmp631:
.Lfunc_end5:
	.size	RCCEx_GetSAIxPeriphCLKFreq, .Lfunc_end5-RCCEx_GetSAIxPeriphCLKFreq
	.cfi_endproc
	.cantunwind
	.fnend
                                        @ -- End function
	.section	.text.HAL_RCCEx_EnablePLLSAI1,"ax",%progbits
	.hidden	HAL_RCCEx_EnablePLLSAI1         @ -- Begin function HAL_RCCEx_EnablePLLSAI1
	.globl	HAL_RCCEx_EnablePLLSAI1
	.p2align	2
	.type	HAL_RCCEx_EnablePLLSAI1,%function
	.code	16                              @ @HAL_RCCEx_EnablePLLSAI1
	.thumb_func
HAL_RCCEx_EnablePLLSAI1:
.Lfunc_begin6:
	.loc	5 1621 0                        @ c:/Keil_v5\ARM\PACK\Keil\STM32L5xx_DFP\1.3.0\Drivers\STM32L5xx_HAL_Driver\Src\stm32l5xx_hal_rcc_ex.c:1621:0
	.fnstart
	.cfi_startproc
@ %bb.0:
	@DEBUG_VALUE: HAL_RCCEx_EnablePLLSAI1:PLLSAI1Init <- $r0
	.save	{r4, r5, r6, r7, lr}
	push	{r4, r5, r6, r7, lr}
	.cfi_def_cfa_offset 20
	.cfi_offset lr, -4
	.cfi_offset r7, -8
	.cfi_offset r6, -12
	.cfi_offset r5, -16
	.cfi_offset r4, -20
	.pad	#4
	sub	sp, #4
	.cfi_def_cfa_offset 24
	movw	r6, #4096
	movt	r6, #16386
.Ltmp632:
	@DEBUG_VALUE: HAL_RCCEx_EnablePLLSAI1:status <- 0
	.loc	5 1635 3 prologue_end           @ c:/Keil_v5\ARM\PACK\Keil\STM32L5xx_DFP\1.3.0\Drivers\STM32L5xx_HAL_Driver\Src\stm32l5xx_hal_rcc_ex.c:1635:3
	ldr	r1, [r6]
	mov	r4, r0
.Ltmp633:
	@DEBUG_VALUE: HAL_RCCEx_EnablePLLSAI1:PLLSAI1Init <- $r4
	@DEBUG_VALUE: HAL_RCCEx_EnablePLLSAI1:PLLSAI1Init <- $r4
	bic	r0, r1, #67108864
	str	r0, [r6]
	.loc	5 1638 15                       @ c:/Keil_v5\ARM\PACK\Keil\STM32L5xx_DFP\1.3.0\Drivers\STM32L5xx_HAL_Driver\Src\stm32l5xx_hal_rcc_ex.c:1638:15
	bl	HAL_GetTick
	mov	r5, r0
.Ltmp634:
	@DEBUG_VALUE: HAL_RCCEx_EnablePLLSAI1:tickstart <- $r5
	.p2align	2
.LBB6_1:                                @ =>This Inner Loop Header: Depth=1
	@DEBUG_VALUE: HAL_RCCEx_EnablePLLSAI1:tickstart <- $r5
	@DEBUG_VALUE: HAL_RCCEx_EnablePLLSAI1:PLLSAI1Init <- $r4
	@DEBUG_VALUE: HAL_RCCEx_EnablePLLSAI1:status <- 0
	.loc	5 1641 10                       @ c:/Keil_v5\ARM\PACK\Keil\STM32L5xx_DFP\1.3.0\Drivers\STM32L5xx_HAL_Driver\Src\stm32l5xx_hal_rcc_ex.c:1641:10
	ldr	r0, [r6]
	.loc	5 1641 3 is_stmt 0              @ c:/Keil_v5\ARM\PACK\Keil\STM32L5xx_DFP\1.3.0\Drivers\STM32L5xx_HAL_Driver\Src\stm32l5xx_hal_rcc_ex.c:1641:3
	lsls	r0, r0, #4
	bpl	.LBB6_4
.Ltmp635:
@ %bb.2:                                @   in Loop: Header=BB6_1 Depth=1
	@DEBUG_VALUE: HAL_RCCEx_EnablePLLSAI1:tickstart <- $r5
	@DEBUG_VALUE: HAL_RCCEx_EnablePLLSAI1:PLLSAI1Init <- $r4
	@DEBUG_VALUE: HAL_RCCEx_EnablePLLSAI1:status <- 0
	.loc	5 1643 10 is_stmt 1             @ c:/Keil_v5\ARM\PACK\Keil\STM32L5xx_DFP\1.3.0\Drivers\STM32L5xx_HAL_Driver\Src\stm32l5xx_hal_rcc_ex.c:1643:10
	bl	HAL_GetTick
	.loc	5 1643 24 is_stmt 0             @ c:/Keil_v5\ARM\PACK\Keil\STM32L5xx_DFP\1.3.0\Drivers\STM32L5xx_HAL_Driver\Src\stm32l5xx_hal_rcc_ex.c:1643:24
	subs	r0, r0, r5
.Ltmp636:
	.loc	5 1643 9                        @ c:/Keil_v5\ARM\PACK\Keil\STM32L5xx_DFP\1.3.0\Drivers\STM32L5xx_HAL_Driver\Src\stm32l5xx_hal_rcc_ex.c:1643:9
	cmp	r0, #2
	bls	.LBB6_1
.Ltmp637:
@ %bb.3:
	@DEBUG_VALUE: HAL_RCCEx_EnablePLLSAI1:tickstart <- $r5
	@DEBUG_VALUE: HAL_RCCEx_EnablePLLSAI1:PLLSAI1Init <- $r4
	@DEBUG_VALUE: HAL_RCCEx_EnablePLLSAI1:status <- 0
	.loc	5 0 9                           @ c:/Keil_v5\ARM\PACK\Keil\STM32L5xx_DFP\1.3.0\Drivers\STM32L5xx_HAL_Driver\Src\stm32l5xx_hal_rcc_ex.c:0:9
	movs	r0, #3
.Ltmp638:
	@DEBUG_VALUE: HAL_RCCEx_EnablePLLSAI1:status <- $r0
	.loc	5 1682 3 is_stmt 1              @ c:/Keil_v5\ARM\PACK\Keil\STM32L5xx_DFP\1.3.0\Drivers\STM32L5xx_HAL_Driver\Src\stm32l5xx_hal_rcc_ex.c:1682:3
	add	sp, #4
	pop	{r4, r5, r6, r7, pc}
.Ltmp639:
	.p2align	2
.LBB6_4:
	@DEBUG_VALUE: HAL_RCCEx_EnablePLLSAI1:tickstart <- $r5
	@DEBUG_VALUE: HAL_RCCEx_EnablePLLSAI1:PLLSAI1Init <- $r4
	@DEBUG_VALUE: HAL_RCCEx_EnablePLLSAI1:status <- 0
	@DEBUG_VALUE: HAL_RCCEx_EnablePLLSAI1:status <- undef
	.loc	5 1653 50                       @ c:/Keil_v5\ARM\PACK\Keil\STM32L5xx_DFP\1.3.0\Drivers\STM32L5xx_HAL_Driver\Src\stm32l5xx_hal_rcc_ex.c:1653:50
	ldr	r0, [r4]
	.loc	5 1653 14 is_stmt 0             @ c:/Keil_v5\ARM\PACK\Keil\STM32L5xx_DFP\1.3.0\Drivers\STM32L5xx_HAL_Driver\Src\stm32l5xx_hal_rcc_ex.c:1653:14
	bl	RCCEx_PLLSource_Enable
.Ltmp640:
	@DEBUG_VALUE: HAL_RCCEx_EnablePLLSAI1:status <- $r0
	.loc	5 1655 9 is_stmt 1              @ c:/Keil_v5\ARM\PACK\Keil\STM32L5xx_DFP\1.3.0\Drivers\STM32L5xx_HAL_Driver\Src\stm32l5xx_hal_rcc_ex.c:1655:9
	cbz	r0, .LBB6_6
.Ltmp641:
@ %bb.5:
	@DEBUG_VALUE: HAL_RCCEx_EnablePLLSAI1:tickstart <- $r5
	@DEBUG_VALUE: HAL_RCCEx_EnablePLLSAI1:PLLSAI1Init <- $r4
	@DEBUG_VALUE: HAL_RCCEx_EnablePLLSAI1:status <- $r0
	@DEBUG_VALUE: HAL_RCCEx_EnablePLLSAI1:status <- $r0
	.loc	5 1682 3                        @ c:/Keil_v5\ARM\PACK\Keil\STM32L5xx_DFP\1.3.0\Drivers\STM32L5xx_HAL_Driver\Src\stm32l5xx_hal_rcc_ex.c:1682:3
	add	sp, #4
	pop	{r4, r5, r6, r7, pc}
.Ltmp642:
	.p2align	2
.LBB6_6:
	@DEBUG_VALUE: HAL_RCCEx_EnablePLLSAI1:tickstart <- $r5
	@DEBUG_VALUE: HAL_RCCEx_EnablePLLSAI1:PLLSAI1Init <- $r4
	@DEBUG_VALUE: HAL_RCCEx_EnablePLLSAI1:status <- $r0
	.loc	5 1659 7                        @ c:/Keil_v5\ARM\PACK\Keil\STM32L5xx_DFP\1.3.0\Drivers\STM32L5xx_HAL_Driver\Src\stm32l5xx_hal_rcc_ex.c:1659:7
	ldr	r0, [r6, #16]
.Ltmp643:
	.loc	5 0 7 is_stmt 0                 @ c:/Keil_v5\ARM\PACK\Keil\STM32L5xx_DFP\1.3.0\Drivers\STM32L5xx_HAL_Driver\Src\stm32l5xx_hal_rcc_ex.c:0:7
	movw	r1, #32780
	movt	r1, #413
	.loc	5 1659 7                        @ c:/Keil_v5\ARM\PACK\Keil\STM32L5xx_DFP\1.3.0\Drivers\STM32L5xx_HAL_Driver\Src\stm32l5xx_hal_rcc_ex.c:1659:7
	and.w	r12, r0, r1
	ldm.w	r4, {r1, r2, r3, r5}
.Ltmp644:
	.loc	5 0 7                           @ c:/Keil_v5\ARM\PACK\Keil\STM32L5xx_DFP\1.3.0\Drivers\STM32L5xx_HAL_Driver\Src\stm32l5xx_hal_rcc_ex.c:0:7
	mvn	lr, #15
	.loc	5 1659 7                        @ c:/Keil_v5\ARM\PACK\Keil\STM32L5xx_DFP\1.3.0\Drivers\STM32L5xx_HAL_Driver\Src\stm32l5xx_hal_rcc_ex.c:1659:7
	ldr	r0, [r4, #16]
	movs	r7, #0
	add.w	r2, lr, r2, lsl #4
	movt	r7, #65504
	orr.w	r1, r1, r12
	add.w	r0, r7, r0, lsl #20
	orrs	r1, r2
	ldr	r7, [r4, #20]
	orr.w	r1, r1, r3, lsl #8
	bfc	r0, #0, #21
	mov.w	lr, #-33554432
	add.w	r2, lr, r7, lsl #24
	orrs	r0, r1
	orr.w	r0, r0, r5, lsl #27
	and	r1, r2, #-33554432
	orrs	r0, r1
	str	r0, [r6, #16]
	.loc	5 1662 7 is_stmt 1              @ c:/Keil_v5\ARM\PACK\Keil\STM32L5xx_DFP\1.3.0\Drivers\STM32L5xx_HAL_Driver\Src\stm32l5xx_hal_rcc_ex.c:1662:7
	ldr	r0, [r4, #24]
	ldr	r1, [r6, #16]
	orrs	r0, r1
	str	r0, [r6, #16]
	.loc	5 1665 7                        @ c:/Keil_v5\ARM\PACK\Keil\STM32L5xx_DFP\1.3.0\Drivers\STM32L5xx_HAL_Driver\Src\stm32l5xx_hal_rcc_ex.c:1665:7
	ldr	r0, [r6]
	orr	r0, r0, #67108864
	str	r0, [r6]
	.loc	5 1668 19                       @ c:/Keil_v5\ARM\PACK\Keil\STM32L5xx_DFP\1.3.0\Drivers\STM32L5xx_HAL_Driver\Src\stm32l5xx_hal_rcc_ex.c:1668:19
	bl	HAL_GetTick
	mov	r4, r0
.Ltmp645:
	@DEBUG_VALUE: HAL_RCCEx_EnablePLLSAI1:PLLSAI1Init <- [DW_OP_LLVM_entry_value 1] $r0
	@DEBUG_VALUE: HAL_RCCEx_EnablePLLSAI1:tickstart <- $r4
	.p2align	2
.LBB6_7:                                @ =>This Inner Loop Header: Depth=1
	@DEBUG_VALUE: HAL_RCCEx_EnablePLLSAI1:tickstart <- $r4
	@DEBUG_VALUE: HAL_RCCEx_EnablePLLSAI1:PLLSAI1Init <- [DW_OP_LLVM_entry_value 1] $r0
	.loc	5 1671 14                       @ c:/Keil_v5\ARM\PACK\Keil\STM32L5xx_DFP\1.3.0\Drivers\STM32L5xx_HAL_Driver\Src\stm32l5xx_hal_rcc_ex.c:1671:14
	ldr	r0, [r6]
	.loc	5 1671 7 is_stmt 0              @ c:/Keil_v5\ARM\PACK\Keil\STM32L5xx_DFP\1.3.0\Drivers\STM32L5xx_HAL_Driver\Src\stm32l5xx_hal_rcc_ex.c:1671:7
	lsls	r0, r0, #4
	bmi	.LBB6_10
.Ltmp646:
@ %bb.8:                                @   in Loop: Header=BB6_7 Depth=1
	@DEBUG_VALUE: HAL_RCCEx_EnablePLLSAI1:tickstart <- $r4
	@DEBUG_VALUE: HAL_RCCEx_EnablePLLSAI1:PLLSAI1Init <- [DW_OP_LLVM_entry_value 1] $r0
	.loc	5 1673 14 is_stmt 1             @ c:/Keil_v5\ARM\PACK\Keil\STM32L5xx_DFP\1.3.0\Drivers\STM32L5xx_HAL_Driver\Src\stm32l5xx_hal_rcc_ex.c:1673:14
	bl	HAL_GetTick
	.loc	5 1673 28 is_stmt 0             @ c:/Keil_v5\ARM\PACK\Keil\STM32L5xx_DFP\1.3.0\Drivers\STM32L5xx_HAL_Driver\Src\stm32l5xx_hal_rcc_ex.c:1673:28
	subs	r0, r0, r4
.Ltmp647:
	.loc	5 1673 13                       @ c:/Keil_v5\ARM\PACK\Keil\STM32L5xx_DFP\1.3.0\Drivers\STM32L5xx_HAL_Driver\Src\stm32l5xx_hal_rcc_ex.c:1673:13
	cmp	r0, #3
	blo	.LBB6_7
.Ltmp648:
@ %bb.9:
	@DEBUG_VALUE: HAL_RCCEx_EnablePLLSAI1:tickstart <- $r4
	@DEBUG_VALUE: HAL_RCCEx_EnablePLLSAI1:PLLSAI1Init <- [DW_OP_LLVM_entry_value 1] $r0
	.loc	5 0 13                          @ c:/Keil_v5\ARM\PACK\Keil\STM32L5xx_DFP\1.3.0\Drivers\STM32L5xx_HAL_Driver\Src\stm32l5xx_hal_rcc_ex.c:0:13
	movs	r0, #3
.Ltmp649:
	@DEBUG_VALUE: HAL_RCCEx_EnablePLLSAI1:status <- $r0
	.loc	5 1682 3 is_stmt 1              @ c:/Keil_v5\ARM\PACK\Keil\STM32L5xx_DFP\1.3.0\Drivers\STM32L5xx_HAL_Driver\Src\stm32l5xx_hal_rcc_ex.c:1682:3
	add	sp, #4
	pop	{r4, r5, r6, r7, pc}
.Ltmp650:
	.p2align	2
.LBB6_10:
	@DEBUG_VALUE: HAL_RCCEx_EnablePLLSAI1:tickstart <- $r4
	@DEBUG_VALUE: HAL_RCCEx_EnablePLLSAI1:PLLSAI1Init <- [DW_OP_LLVM_entry_value 1] $r0
	.loc	5 0 3 is_stmt 0                 @ c:/Keil_v5\ARM\PACK\Keil\STM32L5xx_DFP\1.3.0\Drivers\STM32L5xx_HAL_Driver\Src\stm32l5xx_hal_rcc_ex.c:0:3
	movs	r0, #0
.Ltmp651:
	@DEBUG_VALUE: HAL_RCCEx_EnablePLLSAI1:status <- $r0
	.loc	5 1682 3                        @ c:/Keil_v5\ARM\PACK\Keil\STM32L5xx_DFP\1.3.0\Drivers\STM32L5xx_HAL_Driver\Src\stm32l5xx_hal_rcc_ex.c:1682:3
	add	sp, #4
	pop	{r4, r5, r6, r7, pc}
.Ltmp652:
.Lfunc_end6:
	.size	HAL_RCCEx_EnablePLLSAI1, .Lfunc_end6-HAL_RCCEx_EnablePLLSAI1
	.cfi_endproc
	.cantunwind
	.fnend
                                        @ -- End function
	.section	.text.RCCEx_PLLSource_Enable,"ax",%progbits
	.p2align	2                               @ -- Begin function RCCEx_PLLSource_Enable
	.type	RCCEx_PLLSource_Enable,%function
	.code	16                              @ @RCCEx_PLLSource_Enable
	.thumb_func
RCCEx_PLLSource_Enable:
.Lfunc_begin7:
	.loc	5 2381 0 is_stmt 1              @ c:/Keil_v5\ARM\PACK\Keil\STM32L5xx_DFP\1.3.0\Drivers\STM32L5xx_HAL_Driver\Src\stm32l5xx_hal_rcc_ex.c:2381:0
	.fnstart
	.cfi_startproc
@ %bb.0:
	@DEBUG_VALUE: RCCEx_PLLSource_Enable:PllSource <- $r0
	@DEBUG_VALUE: RCCEx_PLLSource_Enable:PllSource <- $r0
	.save	{r4, r5, r7, lr}
	push	{r4, r5, r7, lr}
	.cfi_def_cfa_offset 16
	.cfi_offset lr, -4
	.cfi_offset r7, -8
	.cfi_offset r5, -12
	.cfi_offset r4, -16
.Ltmp653:
	@DEBUG_VALUE: RCCEx_PLLSource_Enable:status <- 0
	.loc	5 2385 3 prologue_end           @ c:/Keil_v5\ARM\PACK\Keil\STM32L5xx_DFP\1.3.0\Drivers\STM32L5xx_HAL_Driver\Src\stm32l5xx_hal_rcc_ex.c:2385:3
	cmp	r0, #3
	bhi	.LBB7_16
.Ltmp654:
@ %bb.1:
	@DEBUG_VALUE: RCCEx_PLLSource_Enable:PllSource <- $r0
	@DEBUG_VALUE: RCCEx_PLLSource_Enable:status <- 0
	.loc	5 0 3 is_stmt 0                 @ c:/Keil_v5\ARM\PACK\Keil\STM32L5xx_DFP\1.3.0\Drivers\STM32L5xx_HAL_Driver\Src\stm32l5xx_hal_rcc_ex.c:0:3
	mov	r1, r0
.Ltmp655:
	@DEBUG_VALUE: RCCEx_PLLSource_Enable:PllSource <- $r1
	movs	r0, #0
.LCPI7_0:
	tbb	[pc, r1]
.Ltmp656:
@ %bb.2:
.LJTI7_0:
	.byte	(.LBB7_17-(.LCPI7_0+4))/2
	.byte	(.LBB7_3-(.LCPI7_0+4))/2
	.byte	(.LBB7_7-(.LCPI7_0+4))/2
	.byte	(.LBB7_11-(.LCPI7_0+4))/2
	.p2align	1
	.p2align	2
.LBB7_3:
.Ltmp657:
	@DEBUG_VALUE: RCCEx_PLLSource_Enable:PllSource <- $r1
	@DEBUG_VALUE: RCCEx_PLLSource_Enable:status <- 0
	movw	r5, #4096
	movt	r5, #16386
.Ltmp658:
	.loc	5 2389 11 is_stmt 1             @ c:/Keil_v5\ARM\PACK\Keil\STM32L5xx_DFP\1.3.0\Drivers\STM32L5xx_HAL_Driver\Src\stm32l5xx_hal_rcc_ex.c:2389:11
	ldr	r0, [r5]
.Ltmp659:
	.loc	5 2389 11 is_stmt 0             @ c:/Keil_v5\ARM\PACK\Keil\STM32L5xx_DFP\1.3.0\Drivers\STM32L5xx_HAL_Driver\Src\stm32l5xx_hal_rcc_ex.c:2389:11
	lsls	r0, r0, #30
	bmi	.LBB7_15
.Ltmp660:
@ %bb.4:
	@DEBUG_VALUE: RCCEx_PLLSource_Enable:PllSource <- $r1
	@DEBUG_VALUE: RCCEx_PLLSource_Enable:status <- 0
	.loc	5 2392 9 is_stmt 1              @ c:/Keil_v5\ARM\PACK\Keil\STM32L5xx_DFP\1.3.0\Drivers\STM32L5xx_HAL_Driver\Src\stm32l5xx_hal_rcc_ex.c:2392:9
	ldr	r0, [r5]
	orr	r0, r0, #1
	str	r0, [r5]
	.loc	5 2395 21                       @ c:/Keil_v5\ARM\PACK\Keil\STM32L5xx_DFP\1.3.0\Drivers\STM32L5xx_HAL_Driver\Src\stm32l5xx_hal_rcc_ex.c:2395:21
	bl	HAL_GetTick
.Ltmp661:
	mov	r4, r0
.Ltmp662:
	@DEBUG_VALUE: RCCEx_PLLSource_Enable:tickstart <- $r4
	.p2align	2
.LBB7_5:                                @ =>This Inner Loop Header: Depth=1
	.loc	5 2398 16                       @ c:/Keil_v5\ARM\PACK\Keil\STM32L5xx_DFP\1.3.0\Drivers\STM32L5xx_HAL_Driver\Src\stm32l5xx_hal_rcc_ex.c:2398:16
	ldr	r0, [r5]
	.loc	5 2398 9 is_stmt 0              @ c:/Keil_v5\ARM\PACK\Keil\STM32L5xx_DFP\1.3.0\Drivers\STM32L5xx_HAL_Driver\Src\stm32l5xx_hal_rcc_ex.c:2398:9
	lsls	r0, r0, #30
	bmi	.LBB7_15
@ %bb.6:                                @   in Loop: Header=BB7_5 Depth=1
.Ltmp663:
	.loc	5 2400 16 is_stmt 1             @ c:/Keil_v5\ARM\PACK\Keil\STM32L5xx_DFP\1.3.0\Drivers\STM32L5xx_HAL_Driver\Src\stm32l5xx_hal_rcc_ex.c:2400:16
	bl	HAL_GetTick
	.loc	5 2400 30 is_stmt 0             @ c:/Keil_v5\ARM\PACK\Keil\STM32L5xx_DFP\1.3.0\Drivers\STM32L5xx_HAL_Driver\Src\stm32l5xx_hal_rcc_ex.c:2400:30
	subs	r0, r0, r4
.Ltmp664:
	.loc	5 2400 15                       @ c:/Keil_v5\ARM\PACK\Keil\STM32L5xx_DFP\1.3.0\Drivers\STM32L5xx_HAL_Driver\Src\stm32l5xx_hal_rcc_ex.c:2400:15
	cmp	r0, #2
	itt	hi
	movhi	r0, #3
.Ltmp665:
	@DEBUG_VALUE: RCCEx_PLLSource_Enable:status <- $r0
	.loc	5 2462 3 is_stmt 1              @ c:/Keil_v5\ARM\PACK\Keil\STM32L5xx_DFP\1.3.0\Drivers\STM32L5xx_HAL_Driver\Src\stm32l5xx_hal_rcc_ex.c:2462:3
	pophi	{r4, r5, r7, pc}
	b	.LBB7_5
.Ltmp666:
	.p2align	2
.LBB7_7:
	@DEBUG_VALUE: RCCEx_PLLSource_Enable:PllSource <- $r1
	@DEBUG_VALUE: RCCEx_PLLSource_Enable:status <- 0
	.loc	5 0 3 is_stmt 0                 @ c:/Keil_v5\ARM\PACK\Keil\STM32L5xx_DFP\1.3.0\Drivers\STM32L5xx_HAL_Driver\Src\stm32l5xx_hal_rcc_ex.c:0:3
	movw	r5, #4096
	movt	r5, #16386
.Ltmp667:
	.loc	5 2411 11 is_stmt 1             @ c:/Keil_v5\ARM\PACK\Keil\STM32L5xx_DFP\1.3.0\Drivers\STM32L5xx_HAL_Driver\Src\stm32l5xx_hal_rcc_ex.c:2411:11
	ldr	r0, [r5]
.Ltmp668:
	.loc	5 2411 11 is_stmt 0             @ c:/Keil_v5\ARM\PACK\Keil\STM32L5xx_DFP\1.3.0\Drivers\STM32L5xx_HAL_Driver\Src\stm32l5xx_hal_rcc_ex.c:2411:11
	lsls	r0, r0, #21
	bmi	.LBB7_15
.Ltmp669:
@ %bb.8:
	@DEBUG_VALUE: RCCEx_PLLSource_Enable:PllSource <- $r1
	@DEBUG_VALUE: RCCEx_PLLSource_Enable:status <- 0
	.loc	5 2414 9 is_stmt 1              @ c:/Keil_v5\ARM\PACK\Keil\STM32L5xx_DFP\1.3.0\Drivers\STM32L5xx_HAL_Driver\Src\stm32l5xx_hal_rcc_ex.c:2414:9
	ldr	r0, [r5]
	orr	r0, r0, #256
	str	r0, [r5]
	.loc	5 2417 21                       @ c:/Keil_v5\ARM\PACK\Keil\STM32L5xx_DFP\1.3.0\Drivers\STM32L5xx_HAL_Driver\Src\stm32l5xx_hal_rcc_ex.c:2417:21
	bl	HAL_GetTick
.Ltmp670:
	mov	r4, r0
.Ltmp671:
	@DEBUG_VALUE: RCCEx_PLLSource_Enable:tickstart <- $r4
	.p2align	2
.LBB7_9:                                @ =>This Inner Loop Header: Depth=1
	.loc	5 2420 16                       @ c:/Keil_v5\ARM\PACK\Keil\STM32L5xx_DFP\1.3.0\Drivers\STM32L5xx_HAL_Driver\Src\stm32l5xx_hal_rcc_ex.c:2420:16
	ldr	r0, [r5]
	.loc	5 2420 9 is_stmt 0              @ c:/Keil_v5\ARM\PACK\Keil\STM32L5xx_DFP\1.3.0\Drivers\STM32L5xx_HAL_Driver\Src\stm32l5xx_hal_rcc_ex.c:2420:9
	lsls	r0, r0, #21
	bmi	.LBB7_15
@ %bb.10:                               @   in Loop: Header=BB7_9 Depth=1
.Ltmp672:
	.loc	5 2422 16 is_stmt 1             @ c:/Keil_v5\ARM\PACK\Keil\STM32L5xx_DFP\1.3.0\Drivers\STM32L5xx_HAL_Driver\Src\stm32l5xx_hal_rcc_ex.c:2422:16
	bl	HAL_GetTick
	.loc	5 2422 30 is_stmt 0             @ c:/Keil_v5\ARM\PACK\Keil\STM32L5xx_DFP\1.3.0\Drivers\STM32L5xx_HAL_Driver\Src\stm32l5xx_hal_rcc_ex.c:2422:30
	subs	r0, r0, r4
.Ltmp673:
	.loc	5 2422 15                       @ c:/Keil_v5\ARM\PACK\Keil\STM32L5xx_DFP\1.3.0\Drivers\STM32L5xx_HAL_Driver\Src\stm32l5xx_hal_rcc_ex.c:2422:15
	cmp	r0, #2
	itt	hi
	movhi	r0, #3
.Ltmp674:
	@DEBUG_VALUE: RCCEx_PLLSource_Enable:status <- $r0
	.loc	5 2462 3 is_stmt 1              @ c:/Keil_v5\ARM\PACK\Keil\STM32L5xx_DFP\1.3.0\Drivers\STM32L5xx_HAL_Driver\Src\stm32l5xx_hal_rcc_ex.c:2462:3
	pophi	{r4, r5, r7, pc}
	b	.LBB7_9
.Ltmp675:
	.p2align	2
.LBB7_11:
	@DEBUG_VALUE: RCCEx_PLLSource_Enable:PllSource <- $r1
	@DEBUG_VALUE: RCCEx_PLLSource_Enable:status <- 0
	.loc	5 0 3 is_stmt 0                 @ c:/Keil_v5\ARM\PACK\Keil\STM32L5xx_DFP\1.3.0\Drivers\STM32L5xx_HAL_Driver\Src\stm32l5xx_hal_rcc_ex.c:0:3
	movw	r5, #4096
	movt	r5, #16386
.Ltmp676:
	.loc	5 2433 11 is_stmt 1             @ c:/Keil_v5\ARM\PACK\Keil\STM32L5xx_DFP\1.3.0\Drivers\STM32L5xx_HAL_Driver\Src\stm32l5xx_hal_rcc_ex.c:2433:11
	ldr	r0, [r5]
.Ltmp677:
	.loc	5 2433 11 is_stmt 0             @ c:/Keil_v5\ARM\PACK\Keil\STM32L5xx_DFP\1.3.0\Drivers\STM32L5xx_HAL_Driver\Src\stm32l5xx_hal_rcc_ex.c:2433:11
	lsls	r0, r0, #14
	bmi	.LBB7_15
.Ltmp678:
@ %bb.12:
	@DEBUG_VALUE: RCCEx_PLLSource_Enable:PllSource <- $r1
	@DEBUG_VALUE: RCCEx_PLLSource_Enable:status <- 0
	.loc	5 2436 9 is_stmt 1              @ c:/Keil_v5\ARM\PACK\Keil\STM32L5xx_DFP\1.3.0\Drivers\STM32L5xx_HAL_Driver\Src\stm32l5xx_hal_rcc_ex.c:2436:9
	ldr	r0, [r5]
	orr	r0, r0, #65536
	str	r0, [r5]
	.loc	5 2439 21                       @ c:/Keil_v5\ARM\PACK\Keil\STM32L5xx_DFP\1.3.0\Drivers\STM32L5xx_HAL_Driver\Src\stm32l5xx_hal_rcc_ex.c:2439:21
	bl	HAL_GetTick
.Ltmp679:
	mov	r4, r0
.Ltmp680:
	@DEBUG_VALUE: RCCEx_PLLSource_Enable:tickstart <- $r4
	.p2align	2
.LBB7_13:                               @ =>This Inner Loop Header: Depth=1
	.loc	5 2442 16                       @ c:/Keil_v5\ARM\PACK\Keil\STM32L5xx_DFP\1.3.0\Drivers\STM32L5xx_HAL_Driver\Src\stm32l5xx_hal_rcc_ex.c:2442:16
	ldr	r0, [r5]
	.loc	5 2442 9 is_stmt 0              @ c:/Keil_v5\ARM\PACK\Keil\STM32L5xx_DFP\1.3.0\Drivers\STM32L5xx_HAL_Driver\Src\stm32l5xx_hal_rcc_ex.c:2442:9
	lsls	r0, r0, #14
	bmi	.LBB7_15
@ %bb.14:                               @   in Loop: Header=BB7_13 Depth=1
.Ltmp681:
	.loc	5 2444 16 is_stmt 1             @ c:/Keil_v5\ARM\PACK\Keil\STM32L5xx_DFP\1.3.0\Drivers\STM32L5xx_HAL_Driver\Src\stm32l5xx_hal_rcc_ex.c:2444:16
	bl	HAL_GetTick
	.loc	5 2444 30 is_stmt 0             @ c:/Keil_v5\ARM\PACK\Keil\STM32L5xx_DFP\1.3.0\Drivers\STM32L5xx_HAL_Driver\Src\stm32l5xx_hal_rcc_ex.c:2444:30
	subs	r0, r0, r4
.Ltmp682:
	.loc	5 2444 15                       @ c:/Keil_v5\ARM\PACK\Keil\STM32L5xx_DFP\1.3.0\Drivers\STM32L5xx_HAL_Driver\Src\stm32l5xx_hal_rcc_ex.c:2444:15
	cmp	r0, #100
	itt	hi
	movhi	r0, #3
.Ltmp683:
	@DEBUG_VALUE: RCCEx_PLLSource_Enable:status <- $r0
	.loc	5 2462 3 is_stmt 1              @ c:/Keil_v5\ARM\PACK\Keil\STM32L5xx_DFP\1.3.0\Drivers\STM32L5xx_HAL_Driver\Src\stm32l5xx_hal_rcc_ex.c:2462:3
	pophi	{r4, r5, r7, pc}
	b	.LBB7_13
.Ltmp684:
	.p2align	2
.LBB7_15:
	.loc	5 0 3 is_stmt 0                 @ c:/Keil_v5\ARM\PACK\Keil\STM32L5xx_DFP\1.3.0\Drivers\STM32L5xx_HAL_Driver\Src\stm32l5xx_hal_rcc_ex.c:0:3
	movs	r0, #0
.Ltmp685:
	@DEBUG_VALUE: RCCEx_PLLSource_Enable:status <- $r0
	.loc	5 2462 3                        @ c:/Keil_v5\ARM\PACK\Keil\STM32L5xx_DFP\1.3.0\Drivers\STM32L5xx_HAL_Driver\Src\stm32l5xx_hal_rcc_ex.c:2462:3
	pop	{r4, r5, r7, pc}
.Ltmp686:
	.p2align	2
.LBB7_16:
	@DEBUG_VALUE: RCCEx_PLLSource_Enable:PllSource <- $r0
	@DEBUG_VALUE: RCCEx_PLLSource_Enable:status <- 0
	.loc	5 0 3                           @ c:/Keil_v5\ARM\PACK\Keil\STM32L5xx_DFP\1.3.0\Drivers\STM32L5xx_HAL_Driver\Src\stm32l5xx_hal_rcc_ex.c:0:3
	movs	r0, #1
.Ltmp687:
	@DEBUG_VALUE: RCCEx_PLLSource_Enable:PllSource <- [DW_OP_LLVM_entry_value 1] $r0
	@DEBUG_VALUE: RCCEx_PLLSource_Enable:status <- 1
.LBB7_17:
	@DEBUG_VALUE: RCCEx_PLLSource_Enable:status <- $r0
	.loc	5 2462 3                        @ c:/Keil_v5\ARM\PACK\Keil\STM32L5xx_DFP\1.3.0\Drivers\STM32L5xx_HAL_Driver\Src\stm32l5xx_hal_rcc_ex.c:2462:3
	pop	{r4, r5, r7, pc}
.Ltmp688:
.Lfunc_end7:
	.size	RCCEx_PLLSource_Enable, .Lfunc_end7-RCCEx_PLLSource_Enable
	.cfi_endproc
	.cantunwind
	.fnend
                                        @ -- End function
	.section	.text.HAL_RCCEx_DisablePLLSAI1,"ax",%progbits
	.hidden	HAL_RCCEx_DisablePLLSAI1        @ -- Begin function HAL_RCCEx_DisablePLLSAI1
	.globl	HAL_RCCEx_DisablePLLSAI1
	.p2align	2
	.type	HAL_RCCEx_DisablePLLSAI1,%function
	.code	16                              @ @HAL_RCCEx_DisablePLLSAI1
	.thumb_func
HAL_RCCEx_DisablePLLSAI1:
.Lfunc_begin8:
	.loc	5 1690 0 is_stmt 1              @ c:/Keil_v5\ARM\PACK\Keil\STM32L5xx_DFP\1.3.0\Drivers\STM32L5xx_HAL_Driver\Src\stm32l5xx_hal_rcc_ex.c:1690:0
	.fnstart
	.cfi_startproc
@ %bb.0:
	.save	{r4, r5, r7, lr}
	push	{r4, r5, r7, lr}
	.cfi_def_cfa_offset 16
	.cfi_offset lr, -4
	.cfi_offset r7, -8
	.cfi_offset r5, -12
	.cfi_offset r4, -16
	movw	r5, #4096
	movt	r5, #16386
.Ltmp689:
	@DEBUG_VALUE: HAL_RCCEx_DisablePLLSAI1:status <- 0
	.loc	5 1695 3 prologue_end           @ c:/Keil_v5\ARM\PACK\Keil\STM32L5xx_DFP\1.3.0\Drivers\STM32L5xx_HAL_Driver\Src\stm32l5xx_hal_rcc_ex.c:1695:3
	ldr	r0, [r5]
	bic	r0, r0, #67108864
	str	r0, [r5]
	.loc	5 1698 15                       @ c:/Keil_v5\ARM\PACK\Keil\STM32L5xx_DFP\1.3.0\Drivers\STM32L5xx_HAL_Driver\Src\stm32l5xx_hal_rcc_ex.c:1698:15
	bl	HAL_GetTick
	mov	r4, r0
.Ltmp690:
	@DEBUG_VALUE: HAL_RCCEx_DisablePLLSAI1:tickstart <- $r4
	.p2align	2
.LBB8_1:                                @ =>This Inner Loop Header: Depth=1
	@DEBUG_VALUE: HAL_RCCEx_DisablePLLSAI1:tickstart <- $r4
	@DEBUG_VALUE: HAL_RCCEx_DisablePLLSAI1:status <- 0
	.loc	5 1701 10                       @ c:/Keil_v5\ARM\PACK\Keil\STM32L5xx_DFP\1.3.0\Drivers\STM32L5xx_HAL_Driver\Src\stm32l5xx_hal_rcc_ex.c:1701:10
	ldr	r0, [r5]
	.loc	5 1701 3 is_stmt 0              @ c:/Keil_v5\ARM\PACK\Keil\STM32L5xx_DFP\1.3.0\Drivers\STM32L5xx_HAL_Driver\Src\stm32l5xx_hal_rcc_ex.c:1701:3
	lsls	r0, r0, #4
	bpl	.LBB8_4
.Ltmp691:
@ %bb.2:                                @   in Loop: Header=BB8_1 Depth=1
	@DEBUG_VALUE: HAL_RCCEx_DisablePLLSAI1:tickstart <- $r4
	@DEBUG_VALUE: HAL_RCCEx_DisablePLLSAI1:status <- 0
	.loc	5 1703 10 is_stmt 1             @ c:/Keil_v5\ARM\PACK\Keil\STM32L5xx_DFP\1.3.0\Drivers\STM32L5xx_HAL_Driver\Src\stm32l5xx_hal_rcc_ex.c:1703:10
	bl	HAL_GetTick
	.loc	5 1703 24 is_stmt 0             @ c:/Keil_v5\ARM\PACK\Keil\STM32L5xx_DFP\1.3.0\Drivers\STM32L5xx_HAL_Driver\Src\stm32l5xx_hal_rcc_ex.c:1703:24
	subs	r0, r0, r4
.Ltmp692:
	.loc	5 1703 9                        @ c:/Keil_v5\ARM\PACK\Keil\STM32L5xx_DFP\1.3.0\Drivers\STM32L5xx_HAL_Driver\Src\stm32l5xx_hal_rcc_ex.c:1703:9
	cmp	r0, #3
	blo	.LBB8_1
.Ltmp693:
@ %bb.3:
	@DEBUG_VALUE: HAL_RCCEx_DisablePLLSAI1:tickstart <- $r4
	@DEBUG_VALUE: HAL_RCCEx_DisablePLLSAI1:status <- 0
	.loc	5 0 9                           @ c:/Keil_v5\ARM\PACK\Keil\STM32L5xx_DFP\1.3.0\Drivers\STM32L5xx_HAL_Driver\Src\stm32l5xx_hal_rcc_ex.c:0:9
	movs	r0, #3
	b	.LBB8_5
.Ltmp694:
	.p2align	2
.LBB8_4:
	@DEBUG_VALUE: HAL_RCCEx_DisablePLLSAI1:tickstart <- $r4
	@DEBUG_VALUE: HAL_RCCEx_DisablePLLSAI1:status <- 0
	movs	r0, #0
.Ltmp695:
.LBB8_5:
	@DEBUG_VALUE: HAL_RCCEx_DisablePLLSAI1:tickstart <- $r4
	@DEBUG_VALUE: HAL_RCCEx_DisablePLLSAI1:status <- 0
	@DEBUG_VALUE: HAL_RCCEx_DisablePLLSAI1:status <- $r0
	.loc	5 1711 3 is_stmt 1              @ c:/Keil_v5\ARM\PACK\Keil\STM32L5xx_DFP\1.3.0\Drivers\STM32L5xx_HAL_Driver\Src\stm32l5xx_hal_rcc_ex.c:1711:3
	ldr	r1, [r5, #16]
	movw	r2, #65532
	movt	r2, #65262
	ands	r1, r2
	str	r1, [r5, #16]
	.loc	5 1714 3                        @ c:/Keil_v5\ARM\PACK\Keil\STM32L5xx_DFP\1.3.0\Drivers\STM32L5xx_HAL_Driver\Src\stm32l5xx_hal_rcc_ex.c:1714:3
	pop	{r4, r5, r7, pc}
.Ltmp696:
.Lfunc_end8:
	.size	HAL_RCCEx_DisablePLLSAI1, .Lfunc_end8-HAL_RCCEx_DisablePLLSAI1
	.cfi_endproc
	.cantunwind
	.fnend
                                        @ -- End function
	.section	.text.HAL_RCCEx_EnablePLLSAI2,"ax",%progbits
	.hidden	HAL_RCCEx_EnablePLLSAI2         @ -- Begin function HAL_RCCEx_EnablePLLSAI2
	.globl	HAL_RCCEx_EnablePLLSAI2
	.p2align	2
	.type	HAL_RCCEx_EnablePLLSAI2,%function
	.code	16                              @ @HAL_RCCEx_EnablePLLSAI2
	.thumb_func
HAL_RCCEx_EnablePLLSAI2:
.Lfunc_begin9:
	.loc	5 1724 0                        @ c:/Keil_v5\ARM\PACK\Keil\STM32L5xx_DFP\1.3.0\Drivers\STM32L5xx_HAL_Driver\Src\stm32l5xx_hal_rcc_ex.c:1724:0
	.fnstart
	.cfi_startproc
@ %bb.0:
	@DEBUG_VALUE: HAL_RCCEx_EnablePLLSAI2:PLLSAI2Init <- $r0
	.save	{r4, r5, r6, lr}
	push	{r4, r5, r6, lr}
	.cfi_def_cfa_offset 16
	.cfi_offset lr, -4
	.cfi_offset r6, -8
	.cfi_offset r5, -12
	.cfi_offset r4, -16
	movw	r6, #4096
	movt	r6, #16386
.Ltmp697:
	@DEBUG_VALUE: HAL_RCCEx_EnablePLLSAI2:status <- 0
	.loc	5 1736 3 prologue_end           @ c:/Keil_v5\ARM\PACK\Keil\STM32L5xx_DFP\1.3.0\Drivers\STM32L5xx_HAL_Driver\Src\stm32l5xx_hal_rcc_ex.c:1736:3
	ldr	r1, [r6]
	mov	r4, r0
.Ltmp698:
	@DEBUG_VALUE: HAL_RCCEx_EnablePLLSAI2:PLLSAI2Init <- $r4
	@DEBUG_VALUE: HAL_RCCEx_EnablePLLSAI2:PLLSAI2Init <- $r4
	bic	r0, r1, #268435456
	str	r0, [r6]
	.loc	5 1739 15                       @ c:/Keil_v5\ARM\PACK\Keil\STM32L5xx_DFP\1.3.0\Drivers\STM32L5xx_HAL_Driver\Src\stm32l5xx_hal_rcc_ex.c:1739:15
	bl	HAL_GetTick
	mov	r5, r0
.Ltmp699:
	@DEBUG_VALUE: HAL_RCCEx_EnablePLLSAI2:tickstart <- $r5
	.p2align	2
.LBB9_1:                                @ =>This Inner Loop Header: Depth=1
	.loc	5 1742 10                       @ c:/Keil_v5\ARM\PACK\Keil\STM32L5xx_DFP\1.3.0\Drivers\STM32L5xx_HAL_Driver\Src\stm32l5xx_hal_rcc_ex.c:1742:10
	ldr	r0, [r6]
	.loc	5 1742 3 is_stmt 0              @ c:/Keil_v5\ARM\PACK\Keil\STM32L5xx_DFP\1.3.0\Drivers\STM32L5xx_HAL_Driver\Src\stm32l5xx_hal_rcc_ex.c:1742:3
	lsls	r0, r0, #2
	bpl	.LBB9_3
@ %bb.2:                                @   in Loop: Header=BB9_1 Depth=1
.Ltmp700:
	.loc	5 1744 10 is_stmt 1             @ c:/Keil_v5\ARM\PACK\Keil\STM32L5xx_DFP\1.3.0\Drivers\STM32L5xx_HAL_Driver\Src\stm32l5xx_hal_rcc_ex.c:1744:10
	bl	HAL_GetTick
	.loc	5 1744 24 is_stmt 0             @ c:/Keil_v5\ARM\PACK\Keil\STM32L5xx_DFP\1.3.0\Drivers\STM32L5xx_HAL_Driver\Src\stm32l5xx_hal_rcc_ex.c:1744:24
	subs	r0, r0, r5
.Ltmp701:
	.loc	5 1744 9                        @ c:/Keil_v5\ARM\PACK\Keil\STM32L5xx_DFP\1.3.0\Drivers\STM32L5xx_HAL_Driver\Src\stm32l5xx_hal_rcc_ex.c:1744:9
	cmp	r0, #2
	itt	hi
	movhi	r0, #3
.Ltmp702:
	@DEBUG_VALUE: HAL_RCCEx_EnablePLLSAI2:status <- $r0
	.loc	5 1783 3 is_stmt 1              @ c:/Keil_v5\ARM\PACK\Keil\STM32L5xx_DFP\1.3.0\Drivers\STM32L5xx_HAL_Driver\Src\stm32l5xx_hal_rcc_ex.c:1783:3
	pophi	{r4, r5, r6, pc}
	b	.LBB9_1
.Ltmp703:
	.p2align	2
.LBB9_3:
	@DEBUG_VALUE: HAL_RCCEx_EnablePLLSAI2:status <- undef
	.loc	5 1754 50                       @ c:/Keil_v5\ARM\PACK\Keil\STM32L5xx_DFP\1.3.0\Drivers\STM32L5xx_HAL_Driver\Src\stm32l5xx_hal_rcc_ex.c:1754:50
	ldr	r0, [r4]
	.loc	5 1754 14 is_stmt 0             @ c:/Keil_v5\ARM\PACK\Keil\STM32L5xx_DFP\1.3.0\Drivers\STM32L5xx_HAL_Driver\Src\stm32l5xx_hal_rcc_ex.c:1754:14
	bl	RCCEx_PLLSource_Enable
.Ltmp704:
	@DEBUG_VALUE: HAL_RCCEx_EnablePLLSAI2:status <- $r0
	.loc	5 1756 9 is_stmt 1              @ c:/Keil_v5\ARM\PACK\Keil\STM32L5xx_DFP\1.3.0\Drivers\STM32L5xx_HAL_Driver\Src\stm32l5xx_hal_rcc_ex.c:1756:9
	cmp	r0, #0
.Ltmp705:
	@DEBUG_VALUE: HAL_RCCEx_EnablePLLSAI2:status <- $r0
	.loc	5 1783 3                        @ c:/Keil_v5\ARM\PACK\Keil\STM32L5xx_DFP\1.3.0\Drivers\STM32L5xx_HAL_Driver\Src\stm32l5xx_hal_rcc_ex.c:1783:3
	it	ne
	popne	{r4, r5, r6, pc}
.Ltmp706:
.LBB9_4:
	@DEBUG_VALUE: HAL_RCCEx_EnablePLLSAI2:status <- $r0
	.loc	5 1760 7                        @ c:/Keil_v5\ARM\PACK\Keil\STM32L5xx_DFP\1.3.0\Drivers\STM32L5xx_HAL_Driver\Src\stm32l5xx_hal_rcc_ex.c:1760:7
	ldr	r0, [r6, #20]
.Ltmp707:
	.loc	5 0 7 is_stmt 0                 @ c:/Keil_v5\ARM\PACK\Keil\STM32L5xx_DFP\1.3.0\Drivers\STM32L5xx_HAL_Driver\Src\stm32l5xx_hal_rcc_ex.c:0:7
	movw	r1, #32780
	movt	r1, #2045
	.loc	5 1760 7                        @ c:/Keil_v5\ARM\PACK\Keil\STM32L5xx_DFP\1.3.0\Drivers\STM32L5xx_HAL_Driver\Src\stm32l5xx_hal_rcc_ex.c:1760:7
	and.w	r12, r0, r1
	ldm.w	r4, {r1, r2, r3, r5}
	mvn	r0, #15
	add.w	r0, r0, r2, lsl #4
	orr.w	r1, r1, r12
	orrs	r0, r1
	orr.w	r0, r0, r3, lsl #8
	orr.w	r0, r0, r5, lsl #27
	str	r0, [r6, #20]
	.loc	5 1763 7 is_stmt 1              @ c:/Keil_v5\ARM\PACK\Keil\STM32L5xx_DFP\1.3.0\Drivers\STM32L5xx_HAL_Driver\Src\stm32l5xx_hal_rcc_ex.c:1763:7
	ldr	r0, [r4, #16]
	ldr	r1, [r6, #20]
	orrs	r0, r1
	str	r0, [r6, #20]
	.loc	5 1766 7                        @ c:/Keil_v5\ARM\PACK\Keil\STM32L5xx_DFP\1.3.0\Drivers\STM32L5xx_HAL_Driver\Src\stm32l5xx_hal_rcc_ex.c:1766:7
	ldr	r0, [r6]
	orr	r0, r0, #268435456
	str	r0, [r6]
	.loc	5 1769 19                       @ c:/Keil_v5\ARM\PACK\Keil\STM32L5xx_DFP\1.3.0\Drivers\STM32L5xx_HAL_Driver\Src\stm32l5xx_hal_rcc_ex.c:1769:19
	bl	HAL_GetTick
	mov	r4, r0
.Ltmp708:
	@DEBUG_VALUE: HAL_RCCEx_EnablePLLSAI2:tickstart <- $r4
	.p2align	2
.LBB9_5:                                @ =>This Inner Loop Header: Depth=1
	.loc	5 1772 14                       @ c:/Keil_v5\ARM\PACK\Keil\STM32L5xx_DFP\1.3.0\Drivers\STM32L5xx_HAL_Driver\Src\stm32l5xx_hal_rcc_ex.c:1772:14
	ldr	r0, [r6]
	.loc	5 1772 7 is_stmt 0              @ c:/Keil_v5\ARM\PACK\Keil\STM32L5xx_DFP\1.3.0\Drivers\STM32L5xx_HAL_Driver\Src\stm32l5xx_hal_rcc_ex.c:1772:7
	lsls	r0, r0, #2
	itt	mi
	movmi	r0, #0
.Ltmp709:
	@DEBUG_VALUE: HAL_RCCEx_EnablePLLSAI2:status <- $r0
	.loc	5 1783 3 is_stmt 1              @ c:/Keil_v5\ARM\PACK\Keil\STM32L5xx_DFP\1.3.0\Drivers\STM32L5xx_HAL_Driver\Src\stm32l5xx_hal_rcc_ex.c:1783:3
	popmi	{r4, r5, r6, pc}
.Ltmp710:
.LBB9_6:                                @   in Loop: Header=BB9_5 Depth=1
	@DEBUG_VALUE: HAL_RCCEx_EnablePLLSAI2:status <- $r0
	.loc	5 1774 14                       @ c:/Keil_v5\ARM\PACK\Keil\STM32L5xx_DFP\1.3.0\Drivers\STM32L5xx_HAL_Driver\Src\stm32l5xx_hal_rcc_ex.c:1774:14
	bl	HAL_GetTick
.Ltmp711:
	.loc	5 1774 28 is_stmt 0             @ c:/Keil_v5\ARM\PACK\Keil\STM32L5xx_DFP\1.3.0\Drivers\STM32L5xx_HAL_Driver\Src\stm32l5xx_hal_rcc_ex.c:1774:28
	subs	r0, r0, r4
.Ltmp712:
	.loc	5 1774 13                       @ c:/Keil_v5\ARM\PACK\Keil\STM32L5xx_DFP\1.3.0\Drivers\STM32L5xx_HAL_Driver\Src\stm32l5xx_hal_rcc_ex.c:1774:13
	cmp	r0, #3
	blo	.LBB9_5
.Ltmp713:
@ %bb.7:
	.loc	5 0 13                          @ c:/Keil_v5\ARM\PACK\Keil\STM32L5xx_DFP\1.3.0\Drivers\STM32L5xx_HAL_Driver\Src\stm32l5xx_hal_rcc_ex.c:0:13
	movs	r0, #3
.Ltmp714:
	@DEBUG_VALUE: HAL_RCCEx_EnablePLLSAI2:status <- $r0
	.loc	5 1783 3 is_stmt 1              @ c:/Keil_v5\ARM\PACK\Keil\STM32L5xx_DFP\1.3.0\Drivers\STM32L5xx_HAL_Driver\Src\stm32l5xx_hal_rcc_ex.c:1783:3
	pop	{r4, r5, r6, pc}
.Ltmp715:
.Lfunc_end9:
	.size	HAL_RCCEx_EnablePLLSAI2, .Lfunc_end9-HAL_RCCEx_EnablePLLSAI2
	.cfi_endproc
	.cantunwind
	.fnend
                                        @ -- End function
	.section	.text.HAL_RCCEx_DisablePLLSAI2,"ax",%progbits
	.hidden	HAL_RCCEx_DisablePLLSAI2        @ -- Begin function HAL_RCCEx_DisablePLLSAI2
	.globl	HAL_RCCEx_DisablePLLSAI2
	.p2align	2
	.type	HAL_RCCEx_DisablePLLSAI2,%function
	.code	16                              @ @HAL_RCCEx_DisablePLLSAI2
	.thumb_func
HAL_RCCEx_DisablePLLSAI2:
.Lfunc_begin10:
	.loc	5 1791 0                        @ c:/Keil_v5\ARM\PACK\Keil\STM32L5xx_DFP\1.3.0\Drivers\STM32L5xx_HAL_Driver\Src\stm32l5xx_hal_rcc_ex.c:1791:0
	.fnstart
	.cfi_startproc
@ %bb.0:
	.save	{r4, r5, r7, lr}
	push	{r4, r5, r7, lr}
	.cfi_def_cfa_offset 16
	.cfi_offset lr, -4
	.cfi_offset r7, -8
	.cfi_offset r5, -12
	.cfi_offset r4, -16
	movw	r5, #4096
	movt	r5, #16386
.Ltmp716:
	@DEBUG_VALUE: HAL_RCCEx_DisablePLLSAI2:status <- 0
	.loc	5 1796 3 prologue_end           @ c:/Keil_v5\ARM\PACK\Keil\STM32L5xx_DFP\1.3.0\Drivers\STM32L5xx_HAL_Driver\Src\stm32l5xx_hal_rcc_ex.c:1796:3
	ldr	r0, [r5]
	bic	r0, r0, #268435456
	str	r0, [r5]
	.loc	5 1799 15                       @ c:/Keil_v5\ARM\PACK\Keil\STM32L5xx_DFP\1.3.0\Drivers\STM32L5xx_HAL_Driver\Src\stm32l5xx_hal_rcc_ex.c:1799:15
	bl	HAL_GetTick
	mov	r4, r0
.Ltmp717:
	@DEBUG_VALUE: HAL_RCCEx_DisablePLLSAI2:tickstart <- $r4
	.p2align	2
.LBB10_1:                               @ =>This Inner Loop Header: Depth=1
	@DEBUG_VALUE: HAL_RCCEx_DisablePLLSAI2:tickstart <- $r4
	@DEBUG_VALUE: HAL_RCCEx_DisablePLLSAI2:status <- 0
	.loc	5 1802 10                       @ c:/Keil_v5\ARM\PACK\Keil\STM32L5xx_DFP\1.3.0\Drivers\STM32L5xx_HAL_Driver\Src\stm32l5xx_hal_rcc_ex.c:1802:10
	ldr	r0, [r5]
	.loc	5 1802 3 is_stmt 0              @ c:/Keil_v5\ARM\PACK\Keil\STM32L5xx_DFP\1.3.0\Drivers\STM32L5xx_HAL_Driver\Src\stm32l5xx_hal_rcc_ex.c:1802:3
	lsls	r0, r0, #2
	bpl	.LBB10_4
.Ltmp718:
@ %bb.2:                                @   in Loop: Header=BB10_1 Depth=1
	@DEBUG_VALUE: HAL_RCCEx_DisablePLLSAI2:tickstart <- $r4
	@DEBUG_VALUE: HAL_RCCEx_DisablePLLSAI2:status <- 0
	.loc	5 1804 10 is_stmt 1             @ c:/Keil_v5\ARM\PACK\Keil\STM32L5xx_DFP\1.3.0\Drivers\STM32L5xx_HAL_Driver\Src\stm32l5xx_hal_rcc_ex.c:1804:10
	bl	HAL_GetTick
	.loc	5 1804 24 is_stmt 0             @ c:/Keil_v5\ARM\PACK\Keil\STM32L5xx_DFP\1.3.0\Drivers\STM32L5xx_HAL_Driver\Src\stm32l5xx_hal_rcc_ex.c:1804:24
	subs	r0, r0, r4
.Ltmp719:
	.loc	5 1804 9                        @ c:/Keil_v5\ARM\PACK\Keil\STM32L5xx_DFP\1.3.0\Drivers\STM32L5xx_HAL_Driver\Src\stm32l5xx_hal_rcc_ex.c:1804:9
	cmp	r0, #3
	blo	.LBB10_1
.Ltmp720:
@ %bb.3:
	@DEBUG_VALUE: HAL_RCCEx_DisablePLLSAI2:tickstart <- $r4
	@DEBUG_VALUE: HAL_RCCEx_DisablePLLSAI2:status <- 0
	.loc	5 0 9                           @ c:/Keil_v5\ARM\PACK\Keil\STM32L5xx_DFP\1.3.0\Drivers\STM32L5xx_HAL_Driver\Src\stm32l5xx_hal_rcc_ex.c:0:9
	movs	r0, #3
	b	.LBB10_5
.Ltmp721:
	.p2align	2
.LBB10_4:
	@DEBUG_VALUE: HAL_RCCEx_DisablePLLSAI2:tickstart <- $r4
	@DEBUG_VALUE: HAL_RCCEx_DisablePLLSAI2:status <- 0
	movs	r0, #0
.Ltmp722:
.LBB10_5:
	@DEBUG_VALUE: HAL_RCCEx_DisablePLLSAI2:tickstart <- $r4
	@DEBUG_VALUE: HAL_RCCEx_DisablePLLSAI2:status <- 0
	@DEBUG_VALUE: HAL_RCCEx_DisablePLLSAI2:status <- $r0
	.loc	5 1812 3 is_stmt 1              @ c:/Keil_v5\ARM\PACK\Keil\STM32L5xx_DFP\1.3.0\Drivers\STM32L5xx_HAL_Driver\Src\stm32l5xx_hal_rcc_ex.c:1812:3
	ldr	r1, [r5, #20]
	movw	r2, #65532
	movt	r2, #65534
	ands	r1, r2
	str	r1, [r5, #20]
