	.text
	.syntax unified
	.eabi_attribute	67, "2.09"	@ Tag_conformance
	.cpu	cortex-m33
	.eabi_attribute	6, 17	@ Tag_CPU_arch
	.eabi_attribute	7, 77	@ Tag_CPU_arch_profile
	.eabi_attribute	8, 0	@ Tag_ARM_ISA_use
	.eabi_attribute	9, 3	@ Tag_THUMB_ISA_use
	.fpu	fpv5-sp-d16
	.eabi_attribute	27, 1	@ Tag_ABI_HardFP_use
	.eabi_attribute	36, 1	@ Tag_FP_HP_extension
	.eabi_attribute	46, 1	@ Tag_DSP_extension
	.eabi_attribute	34, 1	@ Tag_CPU_unaligned_access
	.eabi_attribute	17, 1	@ Tag_ABI_PCS_GOT_use
	.eabi_attribute	20, 2	@ Tag_ABI_FP_denormal
	.eabi_attribute	21, 0	@ Tag_ABI_FP_exceptions
	.eabi_attribute	23, 1	@ Tag_ABI_FP_number_model
	.eabi_attribute	24, 1	@ Tag_ABI_align_needed
	.eabi_attribute	25, 1	@ Tag_ABI_align_preserved
	.eabi_attribute	28, 1	@ Tag_ABI_VFP_args
	.eabi_attribute	38, 1	@ Tag_ABI_FP_16bit_format
	.eabi_attribute	18, 2	@ Tag_ABI_PCS_wchar_t
	.eabi_attribute	26, 1	@ Tag_ABI_enum_size
	.eabi_attribute	14, 0	@ Tag_ABI_PCS_R9_use
	.file	"stm32l5xx_hal_cortex.c"
	.file	1 "c:/Keil_v5\\ARM\\PACK\\Keil\\STM32L5xx_DFP\\1.3.0\\Drivers\\CMSIS\\Device\\ST\\STM32L5xx\\Include" "stm32l552xx.h"
	.file	2 "c:\\Keil_v5\\ARM\\ARMCLANG\\Bin\\..\\include" "stdint.h"
	.file	3 "c:/Keil_v5\\ARM\\PACK\\ARM\\CMSIS\\5.8.0\\CMSIS\\Core\\Include" "core_cm33.h"
	.section	.text.HAL_NVIC_SetPriorityGrouping,"ax",%progbits
	.hidden	HAL_NVIC_SetPriorityGrouping    @ -- Begin function HAL_NVIC_SetPriorityGrouping
	.globl	HAL_NVIC_SetPriorityGrouping
	.p2align	2
	.type	HAL_NVIC_SetPriorityGrouping,%function
	.code	16                              @ @HAL_NVIC_SetPriorityGrouping
	.thumb_func
HAL_NVIC_SetPriorityGrouping:
.Lfunc_begin0:
	.file	4 "c:/Keil_v5\\ARM\\PACK\\Keil\\STM32L5xx_DFP\\1.3.0\\Drivers\\STM32L5xx_HAL_Driver\\Src" "stm32l5xx_hal_cortex.c"
	.loc	4 160 0                         @ c:/Keil_v5\ARM\PACK\Keil\STM32L5xx_DFP\1.3.0\Drivers\STM32L5xx_HAL_Driver\Src\stm32l5xx_hal_cortex.c:160:0
	.fnstart
	.cfi_sections .debug_frame
	.cfi_startproc
@ %bb.0:
	@DEBUG_VALUE: HAL_NVIC_SetPriorityGrouping:PriorityGroup <- $r0
	movw	r1, #60684
	movt	r1, #57344
.Ltmp0:
	@DEBUG_VALUE: __NVIC_SetPriorityGrouping:PriorityGroupTmp <- [DW_OP_constu 7, DW_OP_and, DW_OP_stack_value] $r0
	@DEBUG_VALUE: __NVIC_SetPriorityGrouping:PriorityGroup <- $r0
	@DEBUG_VALUE: HAL_NVIC_SetPriorityGrouping:PriorityGroup <- $r0
	.loc	3 2352 22 prologue_end          @ c:/Keil_v5\ARM\PACK\ARM\CMSIS\5.8.0\CMSIS\Core\Include\core_cm33.h:2352:22
	ldr	r2, [r1]
.Ltmp1:
	@DEBUG_VALUE: __NVIC_SetPriorityGrouping:reg_value <- $r2
	.loc	3 0 22 is_stmt 0                @ c:/Keil_v5\ARM\PACK\ARM\CMSIS\5.8.0\CMSIS\Core\Include\core_cm33.h:0:22
	movw	r3, #63743
	.loc	3 2353 13 is_stmt 1             @ c:/Keil_v5\ARM\PACK\ARM\CMSIS\5.8.0\CMSIS\Core\Include\core_cm33.h:2353:13
	ands	r2, r3
.Ltmp2:
	@DEBUG_VALUE: __NVIC_SetPriorityGrouping:reg_value <- $r2
	.loc	3 2355 62                       @ c:/Keil_v5\ARM\PACK\ARM\CMSIS\5.8.0\CMSIS\Core\Include\core_cm33.h:2355:62
	bfi	r2, r0, #8, #3
.Ltmp3:
	orr	r0, r2, #67108864
.Ltmp4:
	@DEBUG_VALUE: HAL_NVIC_SetPriorityGrouping:PriorityGroup <- [DW_OP_LLVM_entry_value 1] $r0
	orr	r0, r0, #33161216
.Ltmp5:
	@DEBUG_VALUE: __NVIC_SetPriorityGrouping:reg_value <- $r0
	.loc	3 2357 14                       @ c:/Keil_v5\ARM\PACK\ARM\CMSIS\5.8.0\CMSIS\Core\Include\core_cm33.h:2357:14
	str	r0, [r1]
.Ltmp6:
	.loc	4 166 1                         @ c:/Keil_v5\ARM\PACK\Keil\STM32L5xx_DFP\1.3.0\Drivers\STM32L5xx_HAL_Driver\Src\stm32l5xx_hal_cortex.c:166:1
	bx	lr
.Ltmp7:
.Lfunc_end0:
	.size	HAL_NVIC_SetPriorityGrouping, .Lfunc_end0-HAL_NVIC_SetPriorityGrouping
	.cfi_endproc
	.cantunwind
	.fnend
                                        @ -- End function
	.section	.text.HAL_NVIC_SetPriority,"ax",%progbits
	.hidden	HAL_NVIC_SetPriority            @ -- Begin function HAL_NVIC_SetPriority
	.globl	HAL_NVIC_SetPriority
	.p2align	2
	.type	HAL_NVIC_SetPriority,%function
	.code	16                              @ @HAL_NVIC_SetPriority
	.thumb_func
HAL_NVIC_SetPriority:
.Lfunc_begin1:
	.loc	4 182 0                         @ c:/Keil_v5\ARM\PACK\Keil\STM32L5xx_DFP\1.3.0\Drivers\STM32L5xx_HAL_Driver\Src\stm32l5xx_hal_cortex.c:182:0
	.fnstart
	.cfi_startproc
@ %bb.0:
	@DEBUG_VALUE: HAL_NVIC_SetPriority:IRQn <- $r0
	@DEBUG_VALUE: HAL_NVIC_SetPriority:PreemptPriority <- $r1
	@DEBUG_VALUE: HAL_NVIC_SetPriority:SubPriority <- $r2
	.save	{r4, lr}
	push	{r4, lr}
	.cfi_def_cfa_offset 8
	.cfi_offset lr, -4
	.cfi_offset r4, -8
	movw	r12, #60684
	movt	r12, #57344
	@DEBUG_VALUE: HAL_NVIC_SetPriority:SubPriority <- $r2
.Ltmp8:
	.loc	3 2368 28 prologue_end          @ c:/Keil_v5\ARM\PACK\ARM\CMSIS\5.8.0\CMSIS\Core\Include\core_cm33.h:2368:28
	ldr.w	r3, [r12]
	@DEBUG_VALUE: HAL_NVIC_SetPriority:PreemptPriority <- $r1
	.loc	3 2368 60 is_stmt 0             @ c:/Keil_v5\ARM\PACK\ARM\CMSIS\5.8.0\CMSIS\Core\Include\core_cm33.h:2368:60
	ubfx	lr, r3, #8, #3
.Ltmp9:
	@DEBUG_VALUE: NVIC_EncodePriority:SubPriority <- $r2
	@DEBUG_VALUE: NVIC_EncodePriority:PreemptPriority <- $r1
	@DEBUG_VALUE: NVIC_EncodePriority:PriorityGroupTmp <- $lr
	@DEBUG_VALUE: NVIC_EncodePriority:PriorityGroup <- $lr
	@DEBUG_VALUE: HAL_NVIC_SetPriority:prioritygroup <- $lr
	@DEBUG_VALUE: HAL_NVIC_SetPriority:IRQn <- $r0
	.loc	3 2628 31 is_stmt 1             @ c:/Keil_v5\ARM\PACK\ARM\CMSIS\5.8.0\CMSIS\Core\Include\core_cm33.h:2628:31
	eor	r4, lr, #7
	.loc	3 2628 25 is_stmt 0             @ c:/Keil_v5\ARM\PACK\ARM\CMSIS\5.8.0\CMSIS\Core\Include\core_cm33.h:2628:25
	cmp	r4, #3
	it	hs
	movhs	r4, #3
.Ltmp10:
	@DEBUG_VALUE: NVIC_EncodePriority:PreemptPriorityBits <- $r4
	.loc	3 2629 25 is_stmt 1             @ c:/Keil_v5\ARM\PACK\ARM\CMSIS\5.8.0\CMSIS\Core\Include\core_cm33.h:2629:25
	subs.w	r3, lr, #4
	mov.w	lr, #-1
.Ltmp11:
	it	lo
	movlo	r3, #0
.Ltmp12:
	@DEBUG_VALUE: NVIC_EncodePriority:SubPriorityBits <- $r3
	.loc	3 2632 74                       @ c:/Keil_v5\ARM\PACK\ARM\CMSIS\5.8.0\CMSIS\Core\Include\core_cm33.h:2632:74
	lsl.w	r4, lr, r4
.Ltmp13:
	.loc	3 2632 30 is_stmt 0             @ c:/Keil_v5\ARM\PACK\ARM\CMSIS\5.8.0\CMSIS\Core\Include\core_cm33.h:2632:30
	bics	r1, r4
.Ltmp14:
	@DEBUG_VALUE: HAL_NVIC_SetPriority:PreemptPriority <- [DW_OP_LLVM_entry_value 1] $r1
	.loc	3 2632 82                       @ c:/Keil_v5\ARM\PACK\ARM\CMSIS\5.8.0\CMSIS\Core\Include\core_cm33.h:2632:82
	lsls	r1, r3
	.loc	3 2633 74 is_stmt 1             @ c:/Keil_v5\ARM\PACK\ARM\CMSIS\5.8.0\CMSIS\Core\Include\core_cm33.h:2633:74
	lsl.w	r3, lr, r3
.Ltmp15:
	.loc	3 2633 30 is_stmt 0             @ c:/Keil_v5\ARM\PACK\ARM\CMSIS\5.8.0\CMSIS\Core\Include\core_cm33.h:2633:30
	bics	r2, r3
.Ltmp16:
	@DEBUG_VALUE: HAL_NVIC_SetPriority:SubPriority <- [DW_OP_LLVM_entry_value 1] $r2
	.loc	3 2577 7 is_stmt 1              @ c:/Keil_v5\ARM\PACK\ARM\CMSIS\5.8.0\CMSIS\Core\Include\core_cm33.h:2577:7
	and	r3, r0, #15
	subs	r3, #4
.Ltmp17:
	.loc	3 2632 102                      @ c:/Keil_v5\ARM\PACK\ARM\CMSIS\5.8.0\CMSIS\Core\Include\core_cm33.h:2632:102
	orrs	r1, r2
.Ltmp18:
	@DEBUG_VALUE: __NVIC_SetPriority:IRQn <- $r0
	@DEBUG_VALUE: __NVIC_SetPriority:priority <- $r1
	.loc	3 2577 7                        @ c:/Keil_v5\ARM\PACK\ARM\CMSIS\5.8.0\CMSIS\Core\Include\core_cm33.h:2577:7
	add	r3, r12
.Ltmp19:
	.loc	3 0 0 is_stmt 0                 @ c:/Keil_v5\ARM\PACK\ARM\CMSIS\5.8.0\CMSIS\Core\Include\core_cm33.h:0:0
	lsls	r1, r1, #5
.Ltmp20:
	.loc	3 2577 7                        @ c:/Keil_v5\ARM\PACK\ARM\CMSIS\5.8.0\CMSIS\Core\Include\core_cm33.h:2577:7
	adds	r3, #12
	add.w	r2, r0, #3758096384
	cmp.w	r0, #-1
	it	gt
	addgt.w	r3, r2, #58368
.Ltmp21:
	.loc	3 0 0                           @ c:/Keil_v5\ARM\PACK\ARM\CMSIS\5.8.0\CMSIS\Core\Include\core_cm33.h:0:0
	strb	r1, [r3]
.Ltmp22:
	.loc	4 192 1 is_stmt 1               @ c:/Keil_v5\ARM\PACK\Keil\STM32L5xx_DFP\1.3.0\Drivers\STM32L5xx_HAL_Driver\Src\stm32l5xx_hal_cortex.c:192:1
	pop	{r4, pc}
.Ltmp23:
.Lfunc_end1:
	.size	HAL_NVIC_SetPriority, .Lfunc_end1-HAL_NVIC_SetPriority
	.cfi_endproc
	.cantunwind
	.fnend
                                        @ -- End function
	.section	.text.HAL_NVIC_EnableIRQ,"ax",%progbits
	.hidden	HAL_NVIC_EnableIRQ              @ -- Begin function HAL_NVIC_EnableIRQ
	.globl	HAL_NVIC_EnableIRQ
	.p2align	2
	.type	HAL_NVIC_EnableIRQ,%function
	.code	16                              @ @HAL_NVIC_EnableIRQ
	.thumb_func
HAL_NVIC_EnableIRQ:
.Lfunc_begin2:
	.loc	4 204 0                         @ c:/Keil_v5\ARM\PACK\Keil\STM32L5xx_DFP\1.3.0\Drivers\STM32L5xx_HAL_Driver\Src\stm32l5xx_hal_cortex.c:204:0
	.fnstart
	.cfi_startproc
@ %bb.0:
	@DEBUG_VALUE: HAL_NVIC_EnableIRQ:IRQn <- $r0
	@DEBUG_VALUE: HAL_NVIC_EnableIRQ:IRQn <- $r0
	@DEBUG_VALUE: __NVIC_EnableIRQ:IRQn <- $r0
	@DEBUG_VALUE: __NVIC_EnableIRQ:IRQn <- $r0
	.loc	3 2380 7 prologue_end           @ c:/Keil_v5\ARM\PACK\ARM\CMSIS\5.8.0\CMSIS\Core\Include\core_cm33.h:2380:7
	cmp	r0, #0
.Ltmp24:
	.loc	4 210 1                         @ c:/Keil_v5\ARM\PACK\Keil\STM32L5xx_DFP\1.3.0\Drivers\STM32L5xx_HAL_Driver\Src\stm32l5xx_hal_cortex.c:210:1
	it	mi
	bxmi	lr
.Ltmp25:
.LBB2_1:
	@DEBUG_VALUE: __NVIC_EnableIRQ:IRQn <- $r0
	@DEBUG_VALUE: HAL_NVIC_EnableIRQ:IRQn <- $r0
	.loc	3 2383 81                       @ c:/Keil_v5\ARM\PACK\ARM\CMSIS\5.8.0\CMSIS\Core\Include\core_cm33.h:2383:81
	and	r1, r0, #31
	.loc	3 2382 5                        @ c:/Keil_v5\ARM\PACK\ARM\CMSIS\5.8.0\CMSIS\Core\Include\core_cm33.h:2382:5
	@APP
	@NO_APP
	movs	r2, #1
	.loc	3 2383 60                       @ c:/Keil_v5\ARM\PACK\ARM\CMSIS\5.8.0\CMSIS\Core\Include\core_cm33.h:2383:60
	lsl.w	r1, r2, r1
	movw	r2, #57600
	.loc	3 2383 34 is_stmt 0             @ c:/Keil_v5\ARM\PACK\ARM\CMSIS\5.8.0\CMSIS\Core\Include\core_cm33.h:2383:34
	lsrs	r0, r0, #5
.Ltmp26:
	@DEBUG_VALUE: HAL_NVIC_EnableIRQ:IRQn <- [DW_OP_LLVM_entry_value 1] $r0
	.loc	3 0 34                          @ c:/Keil_v5\ARM\PACK\ARM\CMSIS\5.8.0\CMSIS\Core\Include\core_cm33.h:0:34
	movt	r2, #57344
	.loc	3 2383 43                       @ c:/Keil_v5\ARM\PACK\ARM\CMSIS\5.8.0\CMSIS\Core\Include\core_cm33.h:2383:43
	str.w	r1, [r2, r0, lsl #2]
	.loc	3 2384 5 is_stmt 1              @ c:/Keil_v5\ARM\PACK\ARM\CMSIS\5.8.0\CMSIS\Core\Include\core_cm33.h:2384:5
	@APP
	@NO_APP
.Ltmp27:
	.loc	4 210 1                         @ c:/Keil_v5\ARM\PACK\Keil\STM32L5xx_DFP\1.3.0\Drivers\STM32L5xx_HAL_Driver\Src\stm32l5xx_hal_cortex.c:210:1
	bx	lr
.Ltmp28:
.Lfunc_end2:
	.size	HAL_NVIC_EnableIRQ, .Lfunc_end2-HAL_NVIC_EnableIRQ
	.cfi_endproc
	.cantunwind
	.fnend
                                        @ -- End function
	.section	.text.HAL_NVIC_DisableIRQ,"ax",%progbits
	.hidden	HAL_NVIC_DisableIRQ             @ -- Begin function HAL_NVIC_DisableIRQ
	.globl	HAL_NVIC_DisableIRQ
	.p2align	2
	.type	HAL_NVIC_DisableIRQ,%function
	.code	16                              @ @HAL_NVIC_DisableIRQ
	.thumb_func
HAL_NVIC_DisableIRQ:
.Lfunc_begin3:
	.loc	4 220 0                         @ c:/Keil_v5\ARM\PACK\Keil\STM32L5xx_DFP\1.3.0\Drivers\STM32L5xx_HAL_Driver\Src\stm32l5xx_hal_cortex.c:220:0
	.fnstart
	.cfi_startproc
@ %bb.0:
	@DEBUG_VALUE: HAL_NVIC_DisableIRQ:IRQn <- $r0
	@DEBUG_VALUE: HAL_NVIC_DisableIRQ:IRQn <- $r0
	@DEBUG_VALUE: __NVIC_DisableIRQ:IRQn <- $r0
	@DEBUG_VALUE: __NVIC_DisableIRQ:IRQn <- $r0
	.loc	3 2418 7 prologue_end           @ c:/Keil_v5\ARM\PACK\ARM\CMSIS\5.8.0\CMSIS\Core\Include\core_cm33.h:2418:7
	cmp	r0, #0
.Ltmp29:
	.loc	4 226 1                         @ c:/Keil_v5\ARM\PACK\Keil\STM32L5xx_DFP\1.3.0\Drivers\STM32L5xx_HAL_Driver\Src\stm32l5xx_hal_cortex.c:226:1
	it	mi
	bxmi	lr
.Ltmp30:
.LBB3_1:
	@DEBUG_VALUE: __NVIC_DisableIRQ:IRQn <- $r0
	@DEBUG_VALUE: HAL_NVIC_DisableIRQ:IRQn <- $r0
	.loc	3 2420 81                       @ c:/Keil_v5\ARM\PACK\ARM\CMSIS\5.8.0\CMSIS\Core\Include\core_cm33.h:2420:81
	and	r1, r0, #31
	movs	r2, #1
	.loc	3 2420 60 is_stmt 0             @ c:/Keil_v5\ARM\PACK\ARM\CMSIS\5.8.0\CMSIS\Core\Include\core_cm33.h:2420:60
	lsl.w	r1, r2, r1
	movw	r2, #57728
	.loc	3 2420 34                       @ c:/Keil_v5\ARM\PACK\ARM\CMSIS\5.8.0\CMSIS\Core\Include\core_cm33.h:2420:34
	lsrs	r0, r0, #5
.Ltmp31:
	@DEBUG_VALUE: HAL_NVIC_DisableIRQ:IRQn <- [DW_OP_LLVM_entry_value 1] $r0
	.loc	3 0 34                          @ c:/Keil_v5\ARM\PACK\ARM\CMSIS\5.8.0\CMSIS\Core\Include\core_cm33.h:0:34
	movt	r2, #57344
	.loc	3 2420 43                       @ c:/Keil_v5\ARM\PACK\ARM\CMSIS\5.8.0\CMSIS\Core\Include\core_cm33.h:2420:43
	str.w	r1, [r2, r0, lsl #2]
	.loc	3 2421 5 is_stmt 1              @ c:/Keil_v5\ARM\PACK\ARM\CMSIS\5.8.0\CMSIS\Core\Include\core_cm33.h:2421:5
	dsb	sy
	.loc	3 2422 5                        @ c:/Keil_v5\ARM\PACK\ARM\CMSIS\5.8.0\CMSIS\Core\Include\core_cm33.h:2422:5
	isb	sy
.Ltmp32:
	.loc	4 226 1                         @ c:/Keil_v5\ARM\PACK\Keil\STM32L5xx_DFP\1.3.0\Drivers\STM32L5xx_HAL_Driver\Src\stm32l5xx_hal_cortex.c:226:1
	bx	lr
.Ltmp33:
.Lfunc_end3:
	.size	HAL_NVIC_DisableIRQ, .Lfunc_end3-HAL_NVIC_DisableIRQ
	.cfi_endproc
	.cantunwind
	.fnend
                                        @ -- End function
	.section	.text.HAL_NVIC_SystemReset,"ax",%progbits
	.hidden	HAL_NVIC_SystemReset            @ -- Begin function HAL_NVIC_SystemReset
	.globl	HAL_NVIC_SystemReset
	.p2align	2
	.type	HAL_NVIC_SystemReset,%function
	.code	16                              @ @HAL_NVIC_SystemReset
	.thumb_func
HAL_NVIC_SystemReset:
.Lfunc_begin4:
	.loc	4 233 0                         @ c:/Keil_v5\ARM\PACK\Keil\STM32L5xx_DFP\1.3.0\Drivers\STM32L5xx_HAL_Driver\Src\stm32l5xx_hal_cortex.c:233:0
	.fnstart
	.cfi_startproc
@ %bb.0:
	.loc	4 235 3 prologue_end            @ c:/Keil_v5\ARM\PACK\Keil\STM32L5xx_DFP\1.3.0\Drivers\STM32L5xx_HAL_Driver\Src\stm32l5xx_hal_cortex.c:235:3
	bl	__NVIC_SystemReset
.Ltmp34:
.Lfunc_end4:
	.size	HAL_NVIC_SystemReset, .Lfunc_end4-HAL_NVIC_SystemReset
	.cfi_endproc
	.cantunwind
	.fnend
                                        @ -- End function
	.section	.text.__NVIC_SystemReset,"ax",%progbits
	.p2align	2                               @ -- Begin function __NVIC_SystemReset
	.type	__NVIC_SystemReset,%function
	.code	16                              @ @__NVIC_SystemReset
	.thumb_func
__NVIC_SystemReset:
.Lfunc_begin5:
	.loc	3 2700 0                        @ c:/Keil_v5\ARM\PACK\ARM\CMSIS\5.8.0\CMSIS\Core\Include\core_cm33.h:2700:0
	.fnstart
	.cfi_startproc
@ %bb.0:
	movw	r0, #60684
.Ltmp35:
	.loc	3 2701 3 prologue_end           @ c:/Keil_v5\ARM\PACK\ARM\CMSIS\5.8.0\CMSIS\Core\Include\core_cm33.h:2701:3
	dsb	sy
	movt	r0, #57344
	.loc	3 2704 34                       @ c:/Keil_v5\ARM\PACK\ARM\CMSIS\5.8.0\CMSIS\Core\Include\core_cm33.h:2704:34
	ldr	r1, [r0]
	movs	r2, #4
	.loc	3 2704 40 is_stmt 0             @ c:/Keil_v5\ARM\PACK\ARM\CMSIS\5.8.0\CMSIS\Core\Include\core_cm33.h:2704:40
	and	r1, r1, #1792
	movt	r2, #1530
	.loc	3 2704 66                       @ c:/Keil_v5\ARM\PACK\ARM\CMSIS\5.8.0\CMSIS\Core\Include\core_cm33.h:2704:66
	orrs	r1, r2
	.loc	3 2703 15 is_stmt 1             @ c:/Keil_v5\ARM\PACK\ARM\CMSIS\5.8.0\CMSIS\Core\Include\core_cm33.h:2703:15
	str	r1, [r0]
	.loc	3 2706 3                        @ c:/Keil_v5\ARM\PACK\ARM\CMSIS\5.8.0\CMSIS\Core\Include\core_cm33.h:2706:3
	dsb	sy
	.p2align	2
.LBB5_1:                                @ =>This Inner Loop Header: Depth=1
.Ltmp36:
	.loc	3 2710 5                        @ c:/Keil_v5\ARM\PACK\ARM\CMSIS\5.8.0\CMSIS\Core\Include\core_cm33.h:2710:5
	nop
	nop
	nop
	nop
	b	.LBB5_1
.Ltmp37:
.Lfunc_end5:
	.size	__NVIC_SystemReset, .Lfunc_end5-__NVIC_SystemReset
	.cfi_endproc
	.cantunwind
	.fnend
                                        @ -- End function
	.section	.text.HAL_SYSTICK_Config,"ax",%progbits
	.hidden	HAL_SYSTICK_Config              @ -- Begin function HAL_SYSTICK_Config
	.globl	HAL_SYSTICK_Config
	.p2align	2
	.type	HAL_SYSTICK_Config,%function
	.code	16                              @ @HAL_SYSTICK_Config
	.thumb_func
HAL_SYSTICK_Config:
.Lfunc_begin6:
	.loc	4 246 0                         @ c:/Keil_v5\ARM\PACK\Keil\STM32L5xx_DFP\1.3.0\Drivers\STM32L5xx_HAL_Driver\Src\stm32l5xx_hal_cortex.c:246:0
	.fnstart
	.cfi_startproc
@ %bb.0:
	@DEBUG_VALUE: HAL_SYSTICK_Config:TicksNumb <- $r0
	@DEBUG_VALUE: HAL_SYSTICK_Config:TicksNumb <- $r0
	@DEBUG_VALUE: SysTick_Config:ticks <- $r0
	@DEBUG_VALUE: SysTick_Config:ticks <- $r0
	.loc	3 3130 14 prologue_end          @ c:/Keil_v5\ARM\PACK\ARM\CMSIS\5.8.0\CMSIS\Core\Include\core_cm33.h:3130:14
	subs	r1, r0, #1
	movs	r0, #0
.Ltmp38:
	@DEBUG_VALUE: HAL_SYSTICK_Config:TicksNumb <- [DW_OP_LLVM_entry_value 1] $r0
	.loc	3 3130 7 is_stmt 0              @ c:/Keil_v5\ARM\PACK\ARM\CMSIS\5.8.0\CMSIS\Core\Include\core_cm33.h:3130:7
	cmp.w	r0, r1, lsr #24
	itt	ne
	movne	r0, #1
.Ltmp39:
	.loc	4 247 3 is_stmt 1               @ c:/Keil_v5\ARM\PACK\Keil\STM32L5xx_DFP\1.3.0\Drivers\STM32L5xx_HAL_Driver\Src\stm32l5xx_hal_cortex.c:247:3
	bxne	lr
.Ltmp40:
.LBB6_1:
	@DEBUG_VALUE: HAL_SYSTICK_Config:TicksNumb <- [DW_OP_LLVM_entry_value 1] $r0
	.loc	4 0 3 is_stmt 0                 @ c:/Keil_v5\ARM\PACK\Keil\STM32L5xx_DFP\1.3.0\Drivers\STM32L5xx_HAL_Driver\Src\stm32l5xx_hal_cortex.c:0:3
	movw	r2, #57360
	movt	r2, #57344
.Ltmp41:
	.loc	3 3135 18 is_stmt 1             @ c:/Keil_v5\ARM\PACK\ARM\CMSIS\5.8.0\CMSIS\Core\Include\core_cm33.h:3135:18
	str	r1, [r2, #4]
	movw	r1, #60707
	movt	r1, #57344
	movs	r3, #224
.Ltmp42:
	@DEBUG_VALUE: __NVIC_SetPriority:priority <- 7
	@DEBUG_VALUE: __NVIC_SetPriority:IRQn <- -1
	.loc	3 2583 47                       @ c:/Keil_v5\ARM\PACK\ARM\CMSIS\5.8.0\CMSIS\Core\Include\core_cm33.h:2583:47
	strb	r3, [r1]
	movs	r1, #7
.Ltmp43:
	.loc	3 3137 18                       @ c:/Keil_v5\ARM\PACK\ARM\CMSIS\5.8.0\CMSIS\Core\Include\core_cm33.h:3137:18
	str	r0, [r2, #8]
	.loc	3 3138 18                       @ c:/Keil_v5\ARM\PACK\ARM\CMSIS\5.8.0\CMSIS\Core\Include\core_cm33.h:3138:18
	str	r1, [r2]
.Ltmp44:
	.loc	4 247 3                         @ c:/Keil_v5\ARM\PACK\Keil\STM32L5xx_DFP\1.3.0\Drivers\STM32L5xx_HAL_Driver\Src\stm32l5xx_hal_cortex.c:247:3
	bx	lr
.Ltmp45:
.Lfunc_end6:
	.size	HAL_SYSTICK_Config, .Lfunc_end6-HAL_SYSTICK_Config
	.cfi_endproc
	.cantunwind
	.fnend
                                        @ -- End function
	.section	.text.HAL_NVIC_GetPriorityGrouping,"ax",%progbits
	.hidden	HAL_NVIC_GetPriorityGrouping    @ -- Begin function HAL_NVIC_GetPriorityGrouping
	.globl	HAL_NVIC_GetPriorityGrouping
	.p2align	2
	.type	HAL_NVIC_GetPriorityGrouping,%function
	.code	16                              @ @HAL_NVIC_GetPriorityGrouping
	.thumb_func
HAL_NVIC_GetPriorityGrouping:
.Lfunc_begin7:
	.loc	4 274 0                         @ c:/Keil_v5\ARM\PACK\Keil\STM32L5xx_DFP\1.3.0\Drivers\STM32L5xx_HAL_Driver\Src\stm32l5xx_hal_cortex.c:274:0
	.fnstart
	.cfi_startproc
@ %bb.0:
	movw	r0, #60684
	movt	r0, #57344
.Ltmp46:
	.loc	3 2368 28 prologue_end          @ c:/Keil_v5\ARM\PACK\ARM\CMSIS\5.8.0\CMSIS\Core\Include\core_cm33.h:2368:28
	ldr	r0, [r0]
	.loc	3 2368 60 is_stmt 0             @ c:/Keil_v5\ARM\PACK\ARM\CMSIS\5.8.0\CMSIS\Core\Include\core_cm33.h:2368:60
	ubfx	r0, r0, #8, #3
.Ltmp47:
	.loc	4 276 3 is_stmt 1               @ c:/Keil_v5\ARM\PACK\Keil\STM32L5xx_DFP\1.3.0\Drivers\STM32L5xx_HAL_Driver\Src\stm32l5xx_hal_cortex.c:276:3
	bx	lr
.Ltmp48:
.Lfunc_end7:
	.size	HAL_NVIC_GetPriorityGrouping, .Lfunc_end7-HAL_NVIC_GetPriorityGrouping
	.cfi_endproc
	.cantunwind
	.fnend
                                        @ -- End function
	.section	.text.HAL_NVIC_GetPriority,"ax",%progbits
	.hidden	HAL_NVIC_GetPriority            @ -- Begin function HAL_NVIC_GetPriority
	.globl	HAL_NVIC_GetPriority
	.p2align	2
	.type	HAL_NVIC_GetPriority,%function
	.code	16                              @ @HAL_NVIC_GetPriority
	.thumb_func
HAL_NVIC_GetPriority:
.Lfunc_begin8:
	.loc	4 299 0                         @ c:/Keil_v5\ARM\PACK\Keil\STM32L5xx_DFP\1.3.0\Drivers\STM32L5xx_HAL_Driver\Src\stm32l5xx_hal_cortex.c:299:0
	.fnstart
	.cfi_startproc
@ %bb.0:
	@DEBUG_VALUE: HAL_NVIC_GetPriority:IRQn <- $r0
	@DEBUG_VALUE: HAL_NVIC_GetPriority:IRQn <- $r0
	@DEBUG_VALUE: HAL_NVIC_GetPriority:PriorityGroup <- $r1
	@DEBUG_VALUE: HAL_NVIC_GetPriority:pPreemptPriority <- $r2
	@DEBUG_VALUE: HAL_NVIC_GetPriority:pPreemptPriority <- $r2
	@DEBUG_VALUE: HAL_NVIC_GetPriority:pSubPriority <- $r3
	@DEBUG_VALUE: HAL_NVIC_GetPriority:pSubPriority <- $r3
	@DEBUG_VALUE: __NVIC_GetPriority:IRQn <- $r0
	@DEBUG_VALUE: __NVIC_GetPriority:IRQn <- $r0
	.save	{r4, lr}
	push	{r4, lr}
	.cfi_def_cfa_offset 8
	.cfi_offset lr, -4
	.cfi_offset r4, -8
	movw	r4, #60692
.Ltmp49:
	.loc	3 2600 7 prologue_end           @ c:/Keil_v5\ARM\PACK\ARM\CMSIS\5.8.0\CMSIS\Core\Include\core_cm33.h:2600:7
	and	lr, r0, #15
	movt	r4, #57344
	add	r4, lr
	add.w	r12, r0, #3758096384
	cmp.w	r0, #-1
	it	gt
	addgt.w	r4, r12, #58368
.Ltmp50:
	.loc	3 2651 46                       @ c:/Keil_v5\ARM\PACK\ARM\CMSIS\5.8.0\CMSIS\Core\Include\core_cm33.h:2651:46
	and	r1, r1, #7
.Ltmp51:
	@DEBUG_VALUE: HAL_NVIC_GetPriority:PriorityGroup <- [DW_OP_LLVM_entry_value 1] $r1
	@DEBUG_VALUE: NVIC_DecodePriority:PriorityGroupTmp <- $r1
	.loc	3 0 0 is_stmt 0                 @ c:/Keil_v5\ARM\PACK\ARM\CMSIS\5.8.0\CMSIS\Core\Include\core_cm33.h:0:0
	ldrb	r0, [r4]
.Ltmp52:
	@DEBUG_VALUE: HAL_NVIC_GetPriority:IRQn <- [DW_OP_LLVM_entry_value 1] $r0
	@DEBUG_VALUE: HAL_NVIC_GetPriority:PriorityGroup <- $r1
	.loc	3 2655 31 is_stmt 1             @ c:/Keil_v5\ARM\PACK\ARM\CMSIS\5.8.0\CMSIS\Core\Include\core_cm33.h:2655:31
	eor	r4, r1, #7
	.loc	3 2655 25 is_stmt 0             @ c:/Keil_v5\ARM\PACK\ARM\CMSIS\5.8.0\CMSIS\Core\Include\core_cm33.h:2655:25
	cmp	r4, #3
	it	hs
	movhs	r4, #3
.Ltmp53:
	@DEBUG_VALUE: NVIC_DecodePriority:PreemptPriorityBits <- $r4
	.loc	3 2656 25 is_stmt 1             @ c:/Keil_v5\ARM\PACK\ARM\CMSIS\5.8.0\CMSIS\Core\Include\core_cm33.h:2656:25
	subs	r1, #4
.Ltmp54:
	@DEBUG_VALUE: HAL_NVIC_GetPriority:PriorityGroup <- [DW_OP_LLVM_entry_value 1] $r1
	.loc	3 0 0 is_stmt 0                 @ c:/Keil_v5\ARM\PACK\ARM\CMSIS\5.8.0\CMSIS\Core\Include\core_cm33.h:0:0
	lsr.w	r12, r0, #5
.Ltmp55:
	@DEBUG_VALUE: NVIC_DecodePriority:Priority <- $r12
	@DEBUG_VALUE: NVIC_DecodePriority:pSubPriority <- $r3
	@DEBUG_VALUE: NVIC_DecodePriority:pPreemptPriority <- $r2
	@DEBUG_VALUE: NVIC_DecodePriority:PriorityGroup <- $r1
	.loc	3 2656 25                       @ c:/Keil_v5\ARM\PACK\ARM\CMSIS\5.8.0\CMSIS\Core\Include\core_cm33.h:2656:25
	it	lo
	movlo	r1, #0
.Ltmp56:
	@DEBUG_VALUE: NVIC_DecodePriority:SubPriorityBits <- $r1
	.loc	3 0 25                          @ c:/Keil_v5\ARM\PACK\ARM\CMSIS\5.8.0\CMSIS\Core\Include\core_cm33.h:0:25
	mov.w	lr, #-1
	.loc	3 2658 33 is_stmt 1             @ c:/Keil_v5\ARM\PACK\ARM\CMSIS\5.8.0\CMSIS\Core\Include\core_cm33.h:2658:33
	lsr.w	r12, r12, r1
.Ltmp57:
	.loc	3 2659 97                       @ c:/Keil_v5\ARM\PACK\ARM\CMSIS\5.8.0\CMSIS\Core\Include\core_cm33.h:2659:97
	lsl.w	r1, lr, r1
.Ltmp58:
	mvns	r1, r1
	.loc	3 2658 97                       @ c:/Keil_v5\ARM\PACK\ARM\CMSIS\5.8.0\CMSIS\Core\Include\core_cm33.h:2658:97
	lsl.w	r4, lr, r4
.Ltmp59:
	.loc	3 2659 53                       @ c:/Keil_v5\ARM\PACK\ARM\CMSIS\5.8.0\CMSIS\Core\Include\core_cm33.h:2659:53
	and.w	r0, r1, r0, lsr #5
	.loc	3 2658 53                       @ c:/Keil_v5\ARM\PACK\ARM\CMSIS\5.8.0\CMSIS\Core\Include\core_cm33.h:2658:53
	bic.w	r4, r12, r4
	.loc	3 2658 21 is_stmt 0             @ c:/Keil_v5\ARM\PACK\ARM\CMSIS\5.8.0\CMSIS\Core\Include\core_cm33.h:2658:21
	str	r4, [r2]
	.loc	3 2659 21 is_stmt 1             @ c:/Keil_v5\ARM\PACK\ARM\CMSIS\5.8.0\CMSIS\Core\Include\core_cm33.h:2659:21
	str	r0, [r3]
.Ltmp60:
	.loc	4 304 1                         @ c:/Keil_v5\ARM\PACK\Keil\STM32L5xx_DFP\1.3.0\Drivers\STM32L5xx_HAL_Driver\Src\stm32l5xx_hal_cortex.c:304:1
	pop	{r4, pc}
.Ltmp61:
.Lfunc_end8:
	.size	HAL_NVIC_GetPriority, .Lfunc_end8-HAL_NVIC_GetPriority
	.cfi_endproc
	.cantunwind
	.fnend
                                        @ -- End function
	.section	.text.HAL_NVIC_SetPendingIRQ,"ax",%progbits
	.hidden	HAL_NVIC_SetPendingIRQ          @ -- Begin function HAL_NVIC_SetPendingIRQ
	.globl	HAL_NVIC_SetPendingIRQ
	.p2align	2
	.type	HAL_NVIC_SetPendingIRQ,%function
	.code	16                              @ @HAL_NVIC_SetPendingIRQ
	.thumb_func
HAL_NVIC_SetPendingIRQ:
.Lfunc_begin9:
	.loc	4 314 0                         @ c:/Keil_v5\ARM\PACK\Keil\STM32L5xx_DFP\1.3.0\Drivers\STM32L5xx_HAL_Driver\Src\stm32l5xx_hal_cortex.c:314:0
	.fnstart
	.cfi_startproc
@ %bb.0:
	@DEBUG_VALUE: HAL_NVIC_SetPendingIRQ:IRQn <- $r0
	@DEBUG_VALUE: HAL_NVIC_SetPendingIRQ:IRQn <- $r0
	@DEBUG_VALUE: __NVIC_SetPendingIRQ:IRQn <- $r0
	@DEBUG_VALUE: __NVIC_SetPendingIRQ:IRQn <- $r0
	.loc	3 2456 7 prologue_end           @ c:/Keil_v5\ARM\PACK\ARM\CMSIS\5.8.0\CMSIS\Core\Include\core_cm33.h:2456:7
	cmp	r0, #0
.Ltmp62:
	.loc	4 317 1                         @ c:/Keil_v5\ARM\PACK\Keil\STM32L5xx_DFP\1.3.0\Drivers\STM32L5xx_HAL_Driver\Src\stm32l5xx_hal_cortex.c:317:1
	it	mi
	bxmi	lr
.Ltmp63:
.LBB9_1:
	@DEBUG_VALUE: __NVIC_SetPendingIRQ:IRQn <- $r0
	@DEBUG_VALUE: HAL_NVIC_SetPendingIRQ:IRQn <- $r0
	.loc	3 2458 81                       @ c:/Keil_v5\ARM\PACK\ARM\CMSIS\5.8.0\CMSIS\Core\Include\core_cm33.h:2458:81
	and	r1, r0, #31
	movs	r2, #1
	.loc	3 2458 60 is_stmt 0             @ c:/Keil_v5\ARM\PACK\ARM\CMSIS\5.8.0\CMSIS\Core\Include\core_cm33.h:2458:60
	lsl.w	r1, r2, r1
	movw	r2, #57856
	.loc	3 2458 34                       @ c:/Keil_v5\ARM\PACK\ARM\CMSIS\5.8.0\CMSIS\Core\Include\core_cm33.h:2458:34
	lsrs	r0, r0, #5
.Ltmp64:
	@DEBUG_VALUE: HAL_NVIC_SetPendingIRQ:IRQn <- [DW_OP_LLVM_entry_value 1] $r0
	.loc	3 0 34                          @ c:/Keil_v5\ARM\PACK\ARM\CMSIS\5.8.0\CMSIS\Core\Include\core_cm33.h:0:34
	movt	r2, #57344
	.loc	3 2458 43                       @ c:/Keil_v5\ARM\PACK\ARM\CMSIS\5.8.0\CMSIS\Core\Include\core_cm33.h:2458:43
	str.w	r1, [r2, r0, lsl #2]
.Ltmp65:
	.loc	4 317 1 is_stmt 1               @ c:/Keil_v5\ARM\PACK\Keil\STM32L5xx_DFP\1.3.0\Drivers\STM32L5xx_HAL_Driver\Src\stm32l5xx_hal_cortex.c:317:1
	bx	lr
.Ltmp66:
.Lfunc_end9:
	.size	HAL_NVIC_SetPendingIRQ, .Lfunc_end9-HAL_NVIC_SetPendingIRQ
	.cfi_endproc
	.cantunwind
	.fnend
                                        @ -- End function
	.section	.text.HAL_NVIC_GetPendingIRQ,"ax",%progbits
	.hidden	HAL_NVIC_GetPendingIRQ          @ -- Begin function HAL_NVIC_GetPendingIRQ
	.globl	HAL_NVIC_GetPendingIRQ
	.p2align	2
	.type	HAL_NVIC_GetPendingIRQ,%function
	.code	16                              @ @HAL_NVIC_GetPendingIRQ
	.thumb_func
HAL_NVIC_GetPendingIRQ:
.Lfunc_begin10:
	.loc	4 329 0                         @ c:/Keil_v5\ARM\PACK\Keil\STM32L5xx_DFP\1.3.0\Drivers\STM32L5xx_HAL_Driver\Src\stm32l5xx_hal_cortex.c:329:0
	.fnstart
	.cfi_startproc
@ %bb.0:
	@DEBUG_VALUE: HAL_NVIC_GetPendingIRQ:IRQn <- $r0
	@DEBUG_VALUE: HAL_NVIC_GetPendingIRQ:IRQn <- $r0
	@DEBUG_VALUE: __NVIC_GetPendingIRQ:IRQn <- $r0
	@DEBUG_VALUE: __NVIC_GetPendingIRQ:IRQn <- $r0
	.loc	3 2437 7 prologue_end           @ c:/Keil_v5\ARM\PACK\ARM\CMSIS\5.8.0\CMSIS\Core\Include\core_cm33.h:2437:7
	cmp	r0, #0
	itt	mi
	movmi	r0, #0
.Ltmp67:
	@DEBUG_VALUE: HAL_NVIC_GetPendingIRQ:IRQn <- [DW_OP_LLVM_entry_value 1] $r0
	.loc	4 331 3                         @ c:/Keil_v5\ARM\PACK\Keil\STM32L5xx_DFP\1.3.0\Drivers\STM32L5xx_HAL_Driver\Src\stm32l5xx_hal_cortex.c:331:3
	bxmi	lr
.Ltmp68:
.LBB10_1:
	@DEBUG_VALUE: HAL_NVIC_GetPendingIRQ:IRQn <- [DW_OP_LLVM_entry_value 1] $r0
	.loc	4 0 3 is_stmt 0                 @ c:/Keil_v5\ARM\PACK\Keil\STM32L5xx_DFP\1.3.0\Drivers\STM32L5xx_HAL_Driver\Src\stm32l5xx_hal_cortex.c:0:3
	movw	r2, #57856
.Ltmp69:
	.loc	3 2439 54 is_stmt 1             @ c:/Keil_v5\ARM\PACK\ARM\CMSIS\5.8.0\CMSIS\Core\Include\core_cm33.h:2439:54
	lsrs	r1, r0, #5
	movt	r2, #57344
	.loc	3 2439 25 is_stmt 0             @ c:/Keil_v5\ARM\PACK\ARM\CMSIS\5.8.0\CMSIS\Core\Include\core_cm33.h:2439:25
	ldr.w	r1, [r2, r1, lsl #2]
	.loc	3 2439 91                       @ c:/Keil_v5\ARM\PACK\ARM\CMSIS\5.8.0\CMSIS\Core\Include\core_cm33.h:2439:91
	and	r0, r0, #31
	.loc	3 2439 103                      @ c:/Keil_v5\ARM\PACK\ARM\CMSIS\5.8.0\CMSIS\Core\Include\core_cm33.h:2439:103
	lsr.w	r0, r1, r0
	and	r0, r0, #1
.Ltmp70:
	.loc	4 331 3 is_stmt 1               @ c:/Keil_v5\ARM\PACK\Keil\STM32L5xx_DFP\1.3.0\Drivers\STM32L5xx_HAL_Driver\Src\stm32l5xx_hal_cortex.c:331:3
	bx	lr
.Ltmp71:
.Lfunc_end10:
	.size	HAL_NVIC_GetPendingIRQ, .Lfunc_end10-HAL_NVIC_GetPendingIRQ
	.cfi_endproc
	.cantunwind
	.fnend
                                        @ -- End function
	.section	.text.HAL_NVIC_ClearPendingIRQ,"ax",%progbits
	.hidden	HAL_NVIC_ClearPendingIRQ        @ -- Begin function HAL_NVIC_ClearPendingIRQ
	.globl	HAL_NVIC_ClearPendingIRQ
	.p2align	2
	.type	HAL_NVIC_ClearPendingIRQ,%function
	.code	16                              @ @HAL_NVIC_ClearPendingIRQ
	.thumb_func
HAL_NVIC_ClearPendingIRQ:
.Lfunc_begin11:
	.loc	4 342 0                         @ c:/Keil_v5\ARM\PACK\Keil\STM32L5xx_DFP\1.3.0\Drivers\STM32L5xx_HAL_Driver\Src\stm32l5xx_hal_cortex.c:342:0
	.fnstart
	.cfi_startproc
@ %bb.0:
	@DEBUG_VALUE: HAL_NVIC_ClearPendingIRQ:IRQn <- $r0
	@DEBUG_VALUE: HAL_NVIC_ClearPendingIRQ:IRQn <- $r0
	@DEBUG_VALUE: __NVIC_ClearPendingIRQ:IRQn <- $r0
	@DEBUG_VALUE: __NVIC_ClearPendingIRQ:IRQn <- $r0
	.loc	3 2471 7 prologue_end           @ c:/Keil_v5\ARM\PACK\ARM\CMSIS\5.8.0\CMSIS\Core\Include\core_cm33.h:2471:7
	cmp	r0, #0
.Ltmp72:
	.loc	4 345 1                         @ c:/Keil_v5\ARM\PACK\Keil\STM32L5xx_DFP\1.3.0\Drivers\STM32L5xx_HAL_Driver\Src\stm32l5xx_hal_cortex.c:345:1
	it	mi
	bxmi	lr
.Ltmp73:
.LBB11_1:
	@DEBUG_VALUE: __NVIC_ClearPendingIRQ:IRQn <- $r0
	@DEBUG_VALUE: HAL_NVIC_ClearPendingIRQ:IRQn <- $r0
	.loc	3 2473 81                       @ c:/Keil_v5\ARM\PACK\ARM\CMSIS\5.8.0\CMSIS\Core\Include\core_cm33.h:2473:81
	and	r1, r0, #31
	movs	r2, #1
	.loc	3 2473 60 is_stmt 0             @ c:/Keil_v5\ARM\PACK\ARM\CMSIS\5.8.0\CMSIS\Core\Include\core_cm33.h:2473:60
	lsl.w	r1, r2, r1
	movw	r2, #57984
	.loc	3 2473 34                       @ c:/Keil_v5\ARM\PACK\ARM\CMSIS\5.8.0\CMSIS\Core\Include\core_cm33.h:2473:34
	lsrs	r0, r0, #5
.Ltmp74:
	@DEBUG_VALUE: HAL_NVIC_ClearPendingIRQ:IRQn <- [DW_OP_LLVM_entry_value 1] $r0
	.loc	3 0 34                          @ c:/Keil_v5\ARM\PACK\ARM\CMSIS\5.8.0\CMSIS\Core\Include\core_cm33.h:0:34
	movt	r2, #57344
	.loc	3 2473 43                       @ c:/Keil_v5\ARM\PACK\ARM\CMSIS\5.8.0\CMSIS\Core\Include\core_cm33.h:2473:43
	str.w	r1, [r2, r0, lsl #2]
.Ltmp75:
	.loc	4 345 1 is_stmt 1               @ c:/Keil_v5\ARM\PACK\Keil\STM32L5xx_DFP\1.3.0\Drivers\STM32L5xx_HAL_Driver\Src\stm32l5xx_hal_cortex.c:345:1
	bx	lr
.Ltmp76:
.Lfunc_end11:
	.size	HAL_NVIC_ClearPendingIRQ, .Lfunc_end11-HAL_NVIC_ClearPendingIRQ
	.cfi_endproc
	.cantunwind
	.fnend
                                        @ -- End function
	.section	.text.HAL_NVIC_GetActive,"ax",%progbits
	.hidden	HAL_NVIC_GetActive              @ -- Begin function HAL_NVIC_GetActive
	.globl	HAL_NVIC_GetActive
	.p2align	2
	.type	HAL_NVIC_GetActive,%function
	.code	16                              @ @HAL_NVIC_GetActive
	.thumb_func
HAL_NVIC_GetActive:
.Lfunc_begin12:
	.loc	4 356 0                         @ c:/Keil_v5\ARM\PACK\Keil\STM32L5xx_DFP\1.3.0\Drivers\STM32L5xx_HAL_Driver\Src\stm32l5xx_hal_cortex.c:356:0
	.fnstart
	.cfi_startproc
@ %bb.0:
	@DEBUG_VALUE: HAL_NVIC_GetActive:IRQn <- $r0
	@DEBUG_VALUE: HAL_NVIC_GetActive:IRQn <- $r0
	@DEBUG_VALUE: __NVIC_GetActive:IRQn <- $r0
	@DEBUG_VALUE: __NVIC_GetActive:IRQn <- $r0
	.loc	3 2488 7 prologue_end           @ c:/Keil_v5\ARM\PACK\ARM\CMSIS\5.8.0\CMSIS\Core\Include\core_cm33.h:2488:7
	cmp	r0, #0
	itt	mi
	movmi	r0, #0
.Ltmp77:
	@DEBUG_VALUE: HAL_NVIC_GetActive:IRQn <- [DW_OP_LLVM_entry_value 1] $r0
	.loc	4 358 3                         @ c:/Keil_v5\ARM\PACK\Keil\STM32L5xx_DFP\1.3.0\Drivers\STM32L5xx_HAL_Driver\Src\stm32l5xx_hal_cortex.c:358:3
	bxmi	lr
.Ltmp78:
.LBB12_1:
	@DEBUG_VALUE: HAL_NVIC_GetActive:IRQn <- [DW_OP_LLVM_entry_value 1] $r0
	.loc	4 0 3 is_stmt 0                 @ c:/Keil_v5\ARM\PACK\Keil\STM32L5xx_DFP\1.3.0\Drivers\STM32L5xx_HAL_Driver\Src\stm32l5xx_hal_cortex.c:0:3
	movw	r2, #58112
.Ltmp79:
	.loc	3 2490 54 is_stmt 1             @ c:/Keil_v5\ARM\PACK\ARM\CMSIS\5.8.0\CMSIS\Core\Include\core_cm33.h:2490:54
	lsrs	r1, r0, #5
	movt	r2, #57344
	.loc	3 2490 25 is_stmt 0             @ c:/Keil_v5\ARM\PACK\ARM\CMSIS\5.8.0\CMSIS\Core\Include\core_cm33.h:2490:25
	ldr.w	r1, [r2, r1, lsl #2]
	.loc	3 2490 91                       @ c:/Keil_v5\ARM\PACK\ARM\CMSIS\5.8.0\CMSIS\Core\Include\core_cm33.h:2490:91
	and	r0, r0, #31
	.loc	3 2490 103                      @ c:/Keil_v5\ARM\PACK\ARM\CMSIS\5.8.0\CMSIS\Core\Include\core_cm33.h:2490:103
	lsr.w	r0, r1, r0
	and	r0, r0, #1
.Ltmp80:
	.loc	4 358 3 is_stmt 1               @ c:/Keil_v5\ARM\PACK\Keil\STM32L5xx_DFP\1.3.0\Drivers\STM32L5xx_HAL_Driver\Src\stm32l5xx_hal_cortex.c:358:3
	bx	lr
.Ltmp81:
.Lfunc_end12:
	.size	HAL_NVIC_GetActive, .Lfunc_end12-HAL_NVIC_GetActive
	.cfi_endproc
	.cantunwind
	.fnend
                                        @ -- End function
	.section	.text.HAL_SYSTICK_CLKSourceConfig,"ax",%progbits
	.hidden	HAL_SYSTICK_CLKSourceConfig     @ -- Begin function HAL_SYSTICK_CLKSourceConfig
	.globl	HAL_SYSTICK_CLKSourceConfig
	.p2align	2
	.type	HAL_SYSTICK_CLKSourceConfig,%function
	.code	16                              @ @HAL_SYSTICK_CLKSourceConfig
	.thumb_func
HAL_SYSTICK_CLKSourceConfig:
.Lfunc_begin13:
	.loc	4 370 0                         @ c:/Keil_v5\ARM\PACK\Keil\STM32L5xx_DFP\1.3.0\Drivers\STM32L5xx_HAL_Driver\Src\stm32l5xx_hal_cortex.c:370:0
	.fnstart
	.cfi_startproc
@ %bb.0:
	@DEBUG_VALUE: HAL_SYSTICK_CLKSourceConfig:CLKSource <- $r0
	movw	r1, #57360
	movt	r1, #57344
.Ltmp82:
	.loc	4 0 0 prologue_end              @ c:/Keil_v5\ARM\PACK\Keil\STM32L5xx_DFP\1.3.0\Drivers\STM32L5xx_HAL_Driver\Src\stm32l5xx_hal_cortex.c:0:0
	ldr	r2, [r1]
.Ltmp83:
	@DEBUG_VALUE: HAL_SYSTICK_CLKSourceConfig:CLKSource <- $r0
	.loc	4 373 7                         @ c:/Keil_v5\ARM\PACK\Keil\STM32L5xx_DFP\1.3.0\Drivers\STM32L5xx_HAL_Driver\Src\stm32l5xx_hal_cortex.c:373:7
	cmp	r0, #4
	bic	r2, r2, #4
	it	eq
	addeq	r2, #4
.Ltmp84:
	.loc	4 0 0 is_stmt 0                 @ c:/Keil_v5\ARM\PACK\Keil\STM32L5xx_DFP\1.3.0\Drivers\STM32L5xx_HAL_Driver\Src\stm32l5xx_hal_cortex.c:0:0
	str	r2, [r1]
.Ltmp85:
	.loc	4 381 1 is_stmt 1               @ c:/Keil_v5\ARM\PACK\Keil\STM32L5xx_DFP\1.3.0\Drivers\STM32L5xx_HAL_Driver\Src\stm32l5xx_hal_cortex.c:381:1
	bx	lr
.Ltmp86:
.Lfunc_end13:
	.size	HAL_SYSTICK_CLKSourceConfig, .Lfunc_end13-HAL_SYSTICK_CLKSourceConfig
	.cfi_endproc
	.cantunwind
	.fnend
                                        @ -- End function
	.section	.text.HAL_SYSTICK_IRQHandler,"ax",%progbits
	.hidden	HAL_SYSTICK_IRQHandler          @ -- Begin function HAL_SYSTICK_IRQHandler
	.globl	HAL_SYSTICK_IRQHandler
	.p2align	2
	.type	HAL_SYSTICK_IRQHandler,%function
	.code	16                              @ @HAL_SYSTICK_IRQHandler
	.thumb_func
HAL_SYSTICK_IRQHandler:
.Lfunc_begin14:
	.loc	4 388 0                         @ c:/Keil_v5\ARM\PACK\Keil\STM32L5xx_DFP\1.3.0\Drivers\STM32L5xx_HAL_Driver\Src\stm32l5xx_hal_cortex.c:388:0
	.fnstart
	.cfi_startproc
@ %bb.0:
	.loc	4 389 3 prologue_end            @ c:/Keil_v5\ARM\PACK\Keil\STM32L5xx_DFP\1.3.0\Drivers\STM32L5xx_HAL_Driver\Src\stm32l5xx_hal_cortex.c:389:3
	b	HAL_SYSTICK_Callback
.Ltmp87:
.Lfunc_end14:
	.size	HAL_SYSTICK_IRQHandler, .Lfunc_end14-HAL_SYSTICK_IRQHandler
	.cfi_endproc
	.cantunwind
	.fnend
                                        @ -- End function
	.section	.text.HAL_SYSTICK_Callback,"ax",%progbits
	.hidden	HAL_SYSTICK_Callback            @ -- Begin function HAL_SYSTICK_Callback
	.weak	HAL_SYSTICK_Callback
	.p2align	2
	.type	HAL_SYSTICK_Callback,%function
	.code	16                              @ @HAL_SYSTICK_Callback
	.thumb_func
HAL_SYSTICK_Callback:
.Lfunc_begin15:
	.loc	4 397 0                         @ c:/Keil_v5\ARM\PACK\Keil\STM32L5xx_DFP\1.3.0\Drivers\STM32L5xx_HAL_Driver\Src\stm32l5xx_hal_cortex.c:397:0
	.fnstart
	.cfi_startproc
@ %bb.0:
	.loc	4 401 1 prologue_end            @ c:/Keil_v5\ARM\PACK\Keil\STM32L5xx_DFP\1.3.0\Drivers\STM32L5xx_HAL_Driver\Src\stm32l5xx_hal_cortex.c:401:1
	bx	lr
.Ltmp88:
.Lfunc_end15:
	.size	HAL_SYSTICK_Callback, .Lfunc_end15-HAL_SYSTICK_Callback
	.cfi_endproc
	.cantunwind
	.fnend
                                        @ -- End function
	.section	".note.GNU-stack","",%progbits
	.eabi_attribute	30, 2	@ Tag_ABI_optimization_goals
	.ARM_attribute	16, 1	@ Tag_AV_eba