	.text
	.syntax unified
	.eabi_attribute	67, "2.09"	@ Tag_conformance
	.cpu	cortex-m33
	.eabi_attribute	6, 17	@ Tag_CPU_arch
	.eabi_attribute	7, 77	@ Tag_CPU_arch_profile
	.eabi_attribute	8, 0	@ Tag_ARM_ISA_use
	.eabi_attribute	9, 3	@ Tag_THUMB_ISA_use
	.fpu	fpv5-sp-d16
	.eabi_attribute	27, 1	@ Tag_ABI_HardFP_use
	.eabi_attribute	36, 1	@ Tag_FP_HP_extension
	.eabi_attribute	46, 1	@ Tag_DSP_extension
	.eabi_attribute	34, 1	@ Tag_CPU_unaligned_access
	.eabi_attribute	17, 1	@ Tag_ABI_PCS_GOT_use
	.eabi_attribute	20, 2	@ Tag_ABI_FP_denormal
	.eabi_attribute	21, 0	@ Tag_ABI_FP_exceptions
	.eabi_attribute	23, 1	@ Tag_ABI_FP_number_model
	.eabi_attribute	24, 1	@ Tag_ABI_align_needed
	.eabi_attribute	25, 1	@ Tag_ABI_align_preserved
	.eabi_attribute	28, 1	@ Tag_ABI_VFP_args
	.eabi_attribute	38, 1	@ Tag_ABI_FP_16bit_format
	.eabi_attribute	18, 2	@ Tag_ABI_PCS_wchar_t
	.eabi_attribute	26, 1	@ Tag_ABI_enum_size
	.eabi_attribute	14, 0	@ Tag_ABI_PCS_R9_use
	.file	"stm32l5xx_hal_flash.c"
	.file	1 "c:/Keil_v5\\ARM\\PACK\\Keil\\STM32L5xx_DFP\\1.3.0\\Drivers\\STM32L5xx_HAL_Driver\\Inc" "stm32l5xx_hal_def.h"
	.file	2 "c:/Keil_v5\\ARM\\PACK\\Keil\\STM32L5xx_DFP\\1.3.0\\Drivers\\STM32L5xx_HAL_Driver\\Inc" "stm32l5xx_hal_flash.h"
	.file	3 "c:\\Keil_v5\\ARM\\ARMCLANG\\Bin\\..\\include" "stdint.h"
	.file	4 "c:/Keil_v5\\ARM\\PACK\\Keil\\STM32L5xx_DFP\\1.3.0\\Drivers\\STM32L5xx_HAL_Driver\\Src" "stm32l5xx_hal_flash.c"
	.file	5 "c:/Keil_v5\\ARM\\PACK\\Keil\\STM32L5xx_DFP\\1.3.0\\Drivers\\CMSIS\\Device\\ST\\STM32L5xx\\Include" "stm32l552xx.h"
	.section	.text.HAL_FLASH_Program,"ax",%progbits
	.hidden	HAL_FLASH_Program               @ -- Begin function HAL_FLASH_Program
	.globl	HAL_FLASH_Program
	.p2align	2
	.type	HAL_FLASH_Program,%function
	.code	16                              @ @HAL_FLASH_Program
	.thumb_func
HAL_FLASH_Program:
.Lfunc_begin0:
	.loc	4 160 0                         @ c:/Keil_v5\ARM\PACK\Keil\STM32L5xx_DFP\1.3.0\Drivers\STM32L5xx_HAL_Driver\Src\stm32l5xx_hal_flash.c:160:0
	.fnstart
	.cfi_sections .debug_frame
	.cfi_startproc
@ %bb.0:
	@DEBUG_VALUE: HAL_FLASH_Program:TypeProgram <- $r0
	@DEBUG_VALUE: HAL_FLASH_Program:Address <- $r1
	.save	{r4, r5, r6, r7, r8, r9, r10, lr}
	push.w	{r4, r5, r6, r7, r8, r9, r10, lr}
	.cfi_def_cfa_offset 32
	.cfi_offset lr, -4
	.cfi_offset r10, -8
	.cfi_offset r9, -12
	.cfi_offset r8, -16
	.cfi_offset r7, -20
	.cfi_offset r6, -24
	.cfi_offset r5, -28
	.cfi_offset r4, -32
.Ltmp0:
	.loc	4 168 3 prologue_end            @ c:/Keil_v5\ARM\PACK\Keil\STM32L5xx_DFP\1.3.0\Drivers\STM32L5xx_HAL_Driver\Src\stm32l5xx_hal_flash.c:168:3
	movw	r8, :lower16:pFlash
	movt	r8, :upper16:pFlash
	mov	r10, r2
	ldrb.w	r2, [r8]
.Ltmp1:
	@DEBUG_VALUE: HAL_FLASH_Program:Address <- $r1
	.loc	4 168 3 is_stmt 0               @ c:/Keil_v5\ARM\PACK\Keil\STM32L5xx_DFP\1.3.0\Drivers\STM32L5xx_HAL_Driver\Src\stm32l5xx_hal_flash.c:168:3
	cmp	r2, #1
.Ltmp2:
	@DEBUG_VALUE: HAL_FLASH_Program:Data <- [DW_OP_LLVM_fragment 0 32] $r10
	@DEBUG_VALUE: HAL_FLASH_Program:Data <- [DW_OP_LLVM_fragment 32 32] $r3
	@DEBUG_VALUE: HAL_FLASH_Program:TypeProgram <- $r0
	.loc	4 0 3                           @ c:/Keil_v5\ARM\PACK\Keil\STM32L5xx_DFP\1.3.0\Drivers\STM32L5xx_HAL_Driver\Src\stm32l5xx_hal_flash.c:0:3
	itt	eq
	moveq	r0, #2
.Ltmp3:
	@DEBUG_VALUE: HAL_FLASH_Program:TypeProgram <- [DW_OP_LLVM_entry_value 1] $r0
	.loc	4 195 1 is_stmt 1               @ c:/Keil_v5\ARM\PACK\Keil\STM32L5xx_DFP\1.3.0\Drivers\STM32L5xx_HAL_Driver\Src\stm32l5xx_hal_flash.c:195:1
	popeq.w	{r4, r5, r6, r7, r8, r9, r10, pc}
.Ltmp4:
.LBB0_1:
	@DEBUG_VALUE: HAL_FLASH_Program:Data <- [DW_OP_LLVM_fragment 32 32] $r3
	@DEBUG_VALUE: HAL_FLASH_Program:Address <- $r1
	@DEBUG_VALUE: HAL_FLASH_Program:TypeProgram <- [DW_OP_LLVM_entry_value 1] $r0
	.loc	4 0 1 is_stmt 0                 @ c:/Keil_v5\ARM\PACK\Keil\STM32L5xx_DFP\1.3.0\Drivers\STM32L5xx_HAL_Driver\Src\stm32l5xx_hal_flash.c:0:1
	mov	r7, r0
.Ltmp5:
	@DEBUG_VALUE: HAL_FLASH_Program:TypeProgram <- $r7
	@DEBUG_VALUE: HAL_FLASH_Program:Data <- [DW_OP_LLVM_fragment 32 32] $r9
	@DEBUG_VALUE: HAL_FLASH_Program:Data <- [DW_OP_LLVM_fragment 0 32] $r10
	movs	r0, #1
.Ltmp6:
	.loc	4 168 3 is_stmt 1               @ c:/Keil_v5\ARM\PACK\Keil\STM32L5xx_DFP\1.3.0\Drivers\STM32L5xx_HAL_Driver\Src\stm32l5xx_hal_flash.c:168:3
	strb.w	r0, [r8]
	movs	r0, #0
	movw	r4, #8224
	mov	r9, r3
.Ltmp7:
	@DEBUG_VALUE: HAL_FLASH_Program:Data <- [DW_OP_LLVM_fragment 32 32] $r9
	.loc	4 0 3 is_stmt 0                 @ c:/Keil_v5\ARM\PACK\Keil\STM32L5xx_DFP\1.3.0\Drivers\STM32L5xx_HAL_Driver\Src\stm32l5xx_hal_flash.c:0:3
	mov	r6, r1
.Ltmp8:
	@DEBUG_VALUE: HAL_FLASH_Program:Address <- $r6
	@DEBUG_VALUE: HAL_FLASH_Program:Address <- $r6
	movt	r4, #16386
.Ltmp9:
	.loc	4 171 20 is_stmt 1              @ c:/Keil_v5\ARM\PACK\Keil\STM32L5xx_DFP\1.3.0\Drivers\STM32L5xx_HAL_Driver\Src\stm32l5xx_hal_flash.c:171:20
	str.w	r0, [r8, #4]
.Ltmp10:
	@DEBUG_VALUE: FLASH_WaitForLastOperation:Timeout <- 1000
	.loc	4 602 22                        @ c:/Keil_v5\ARM\PACK\Keil\STM32L5xx_DFP\1.3.0\Drivers\STM32L5xx_HAL_Driver\Src\stm32l5xx_hal_flash.c:602:22
	bl	HAL_GetTick
	.loc	4 606 9                         @ c:/Keil_v5\ARM\PACK\Keil\STM32L5xx_DFP\1.3.0\Drivers\STM32L5xx_HAL_Driver\Src\stm32l5xx_hal_flash.c:606:9
	ldr	r1, [r4]
	.loc	4 606 3 is_stmt 0               @ c:/Keil_v5\ARM\PACK\Keil\STM32L5xx_DFP\1.3.0\Drivers\STM32L5xx_HAL_Driver\Src\stm32l5xx_hal_flash.c:606:3
	lsls	r1, r1, #15
.Ltmp11:
	@DEBUG_VALUE: FLASH_WaitForLastOperation:timeout <- undef
	bpl	.LBB0_5
.Ltmp12:
@ %bb.2:
	@DEBUG_VALUE: HAL_FLASH_Program:Data <- [DW_OP_LLVM_fragment 0 32] $r10
	@DEBUG_VALUE: HAL_FLASH_Program:Data <- [DW_OP_LLVM_fragment 32 32] $r9
	@DEBUG_VALUE: HAL_FLASH_Program:TypeProgram <- $r7
	@DEBUG_VALUE: HAL_FLASH_Program:Address <- $r6
	@DEBUG_VALUE: FLASH_WaitForLastOperation:Timeout <- 1000
	.loc	4 0 3                           @ c:/Keil_v5\ARM\PACK\Keil\STM32L5xx_DFP\1.3.0\Drivers\STM32L5xx_HAL_Driver\Src\stm32l5xx_hal_flash.c:0:3
	add.w	r5, r0, #1000
.Ltmp13:
	@DEBUG_VALUE: FLASH_WaitForLastOperation:timeout <- $r5
	.p2align	2
.LBB0_3:                                @ =>This Inner Loop Header: Depth=1
	@DEBUG_VALUE: HAL_FLASH_Program:Data <- [DW_OP_LLVM_fragment 0 32] $r10
	@DEBUG_VALUE: HAL_FLASH_Program:Data <- [DW_OP_LLVM_fragment 32 32] $r9
	@DEBUG_VALUE: HAL_FLASH_Program:TypeProgram <- $r7
	@DEBUG_VALUE: HAL_FLASH_Program:Address <- $r6
	@DEBUG_VALUE: FLASH_WaitForLastOperation:timeout <- $r5
	@DEBUG_VALUE: FLASH_WaitForLastOperation:Timeout <- 1000
	.loc	4 610 10 is_stmt 1              @ c:/Keil_v5\ARM\PACK\Keil\STM32L5xx_DFP\1.3.0\Drivers\STM32L5xx_HAL_Driver\Src\stm32l5xx_hal_flash.c:610:10
	bl	HAL_GetTick
.Ltmp14:
	.loc	4 610 10 is_stmt 0              @ c:/Keil_v5\ARM\PACK\Keil\STM32L5xx_DFP\1.3.0\Drivers\STM32L5xx_HAL_Driver\Src\stm32l5xx_hal_flash.c:610:10
	cmp	r0, r5
	bhs	.LBB0_13
.Ltmp15:
@ %bb.4:                                @   in Loop: Header=BB0_3 Depth=1
	@DEBUG_VALUE: HAL_FLASH_Program:Data <- [DW_OP_LLVM_fragment 0 32] $r10
	@DEBUG_VALUE: HAL_FLASH_Program:Data <- [DW_OP_LLVM_fragment 32 32] $r9
	@DEBUG_VALUE: HAL_FLASH_Program:TypeProgram <- $r7
	@DEBUG_VALUE: HAL_FLASH_Program:Address <- $r6
	@DEBUG_VALUE: FLASH_WaitForLastOperation:timeout <- $r5
	@DEBUG_VALUE: FLASH_WaitForLastOperation:Timeout <- 1000
	.loc	4 606 9 is_stmt 1               @ c:/Keil_v5\ARM\PACK\Keil\STM32L5xx_DFP\1.3.0\Drivers\STM32L5xx_HAL_Driver\Src\stm32l5xx_hal_flash.c:606:9
	ldr	r0, [r4]
	.loc	4 606 3 is_stmt 0               @ c:/Keil_v5\ARM\PACK\Keil\STM32L5xx_DFP\1.3.0\Drivers\STM32L5xx_HAL_Driver\Src\stm32l5xx_hal_flash.c:606:3
	lsls	r0, r0, #15
	bmi	.LBB0_3
.Ltmp16:
.LBB0_5:
	@DEBUG_VALUE: HAL_FLASH_Program:Data <- [DW_OP_LLVM_fragment 0 32] $r10
	@DEBUG_VALUE: HAL_FLASH_Program:Data <- [DW_OP_LLVM_fragment 32 32] $r9
	@DEBUG_VALUE: HAL_FLASH_Program:TypeProgram <- $r7
	@DEBUG_VALUE: HAL_FLASH_Program:Address <- $r6
	@DEBUG_VALUE: FLASH_WaitForLastOperation:Timeout <- 1000
	@DEBUG_VALUE: HAL_FLASH_Program:Data <- [DW_OP_LLVM_fragment 32 32] $r9
	@DEBUG_VALUE: HAL_FLASH_Program:Data <- [DW_OP_LLVM_fragment 0 32] $r10
	.loc	4 621 13 is_stmt 1              @ c:/Keil_v5\ARM\PACK\Keil\STM32L5xx_DFP\1.3.0\Drivers\STM32L5xx_HAL_Driver\Src\stm32l5xx_hal_flash.c:621:13
	ldr	r0, [r4]
	movw	r1, #8442
	.loc	4 621 22 is_stmt 0              @ c:/Keil_v5\ARM\PACK\Keil\STM32L5xx_DFP\1.3.0\Drivers\STM32L5xx_HAL_Driver\Src\stm32l5xx_hal_flash.c:621:22
	ands	r0, r1
.Ltmp17:
	@DEBUG_VALUE: FLASH_WaitForLastOperation:reg_sr <- undef
	@DEBUG_VALUE: FLASH_WaitForLastOperation:error <- $r0
	.loc	4 626 6 is_stmt 1               @ c:/Keil_v5\ARM\PACK\Keil\STM32L5xx_DFP\1.3.0\Drivers\STM32L5xx_HAL_Driver\Src\stm32l5xx_hal_flash.c:626:6
	beq	.LBB0_7
.Ltmp18:
@ %bb.6:
	@DEBUG_VALUE: HAL_FLASH_Program:Data <- [DW_OP_LLVM_fragment 0 32] $r10
	@DEBUG_VALUE: HAL_FLASH_Program:Data <- [DW_OP_LLVM_fragment 32 32] $r9
	@DEBUG_VALUE: HAL_FLASH_Program:TypeProgram <- $r7
	@DEBUG_VALUE: HAL_FLASH_Program:Address <- $r6
	@DEBUG_VALUE: FLASH_WaitForLastOperation:error <- $r0
	@DEBUG_VALUE: FLASH_WaitForLastOperation:Timeout <- 1000
	.loc	4 629 22                        @ c:/Keil_v5\ARM\PACK\Keil\STM32L5xx_DFP\1.3.0\Drivers\STM32L5xx_HAL_Driver\Src\stm32l5xx_hal_flash.c:629:22
	ldr.w	r1, [r8, #4]
	orrs	r1, r0
	str.w	r1, [r8, #4]
	.loc	4 632 15                        @ c:/Keil_v5\ARM\PACK\Keil\STM32L5xx_DFP\1.3.0\Drivers\STM32L5xx_HAL_Driver\Src\stm32l5xx_hal_flash.c:632:15
	str	r0, [r4]
	movs	r0, #1
.Ltmp19:
	@DEBUG_VALUE: HAL_FLASH_Program:status <- $r0
	.loc	4 0 15 is_stmt 0                @ c:/Keil_v5\ARM\PACK\Keil\STM32L5xx_DFP\1.3.0\Drivers\STM32L5xx_HAL_Driver\Src\stm32l5xx_hal_flash.c:0:15
	movs	r1, #0
.Ltmp20:
	.loc	4 192 3 is_stmt 1               @ c:/Keil_v5\ARM\PACK\Keil\STM32L5xx_DFP\1.3.0\Drivers\STM32L5xx_HAL_Driver\Src\stm32l5xx_hal_flash.c:192:3
	strb.w	r1, [r8]
.Ltmp21:
	.loc	4 195 1                         @ c:/Keil_v5\ARM\PACK\Keil\STM32L5xx_DFP\1.3.0\Drivers\STM32L5xx_HAL_Driver\Src\stm32l5xx_hal_flash.c:195:1
	pop.w	{r4, r5, r6, r7, r8, r9, r10, pc}
.Ltmp22:
	.p2align	2
.LBB0_7:
	@DEBUG_VALUE: HAL_FLASH_Program:Data <- [DW_OP_LLVM_fragment 0 32] $r10
	@DEBUG_VALUE: HAL_FLASH_Program:Data <- [DW_OP_LLVM_fragment 32 32] $r9
	@DEBUG_VALUE: HAL_FLASH_Program:TypeProgram <- $r7
	@DEBUG_VALUE: HAL_FLASH_Program:Address <- $r6
	@DEBUG_VALUE: FLASH_WaitForLastOperation:error <- $r0
	@DEBUG_VALUE: FLASH_WaitForLastOperation:Timeout <- 1000
	@DEBUG_VALUE: HAL_FLASH_Program:Data <- [DW_OP_LLVM_fragment 32 32] $r9
	@DEBUG_VALUE: HAL_FLASH_Program:Data <- [DW_OP_LLVM_fragment 0 32] $r10
	.loc	4 644 9                         @ c:/Keil_v5\ARM\PACK\Keil\STM32L5xx_DFP\1.3.0\Drivers\STM32L5xx_HAL_Driver\Src\stm32l5xx_hal_flash.c:644:9
	ldr	r0, [r4]
.Ltmp23:
	.loc	4 644 7 is_stmt 0               @ c:/Keil_v5\ARM\PACK\Keil\STM32L5xx_DFP\1.3.0\Drivers\STM32L5xx_HAL_Driver\Src\stm32l5xx_hal_flash.c:644:7
	lsls	r0, r0, #31
	itt	ne
	movne	r0, #1
.Ltmp24:
	.loc	4 647 15 is_stmt 1              @ c:/Keil_v5\ARM\PACK\Keil\STM32L5xx_DFP\1.3.0\Drivers\STM32L5xx_HAL_Driver\Src\stm32l5xx_hal_flash.c:647:15
	strne	r0, [r4]
.Ltmp25:
	@DEBUG_VALUE: HAL_FLASH_Program:status <- undef
	.loc	4 178 29                        @ c:/Keil_v5\ARM\PACK\Keil\STM32L5xx_DFP\1.3.0\Drivers\STM32L5xx_HAL_Driver\Src\stm32l5xx_hal_flash.c:178:29
	str.w	r7, [r8, #8]
.Ltmp26:
	@DEBUG_VALUE: FLASH_Program_DoubleWord:Data <- [DW_OP_LLVM_fragment 32 32] $r9
	@DEBUG_VALUE: FLASH_Program_DoubleWord:Data <- [DW_OP_LLVM_fragment 0 32] $r10
	@DEBUG_VALUE: FLASH_Program_DoubleWord:Address <- $r6
	.file	6 "c:/Keil_v5\\ARM\\PACK\\ARM\\CMSIS\\5.8.0\\CMSIS\\Core\\Include" "cmsis_armclang.h"
	.loc	6 999 3                         @ c:/Keil_v5\ARM\PACK\ARM\CMSIS\5.8.0\CMSIS\Core\Include\cmsis_armclang.h:999:3
	@APP
	mrs	r0, primask
	@NO_APP
.Ltmp27:
	@DEBUG_VALUE: FLASH_Program_DoubleWord:primask_bit <- $r0
	@DEBUG_VALUE: __get_PRIMASK:result <- $r0
	.loc	6 752 3                         @ c:/Keil_v5\ARM\PACK\ARM\CMSIS\5.8.0\CMSIS\Core\Include\cmsis_armclang.h:752:3
	@APP
	cpsid i
	@NO_APP
.Ltmp28:
	.loc	4 675 3                         @ c:/Keil_v5\ARM\PACK\Keil\STM32L5xx_DFP\1.3.0\Drivers\STM32L5xx_HAL_Driver\Src\stm32l5xx_hal_flash.c:675:3
	ldr	r1, [r4, #8]
	orr	r1, r1, #1
	str	r1, [r4, #8]
	.loc	4 678 23                        @ c:/Keil_v5\ARM\PACK\Keil\STM32L5xx_DFP\1.3.0\Drivers\STM32L5xx_HAL_Driver\Src\stm32l5xx_hal_flash.c:678:23
	str.w	r10, [r6]
	.loc	4 682 3                         @ c:/Keil_v5\ARM\PACK\Keil\STM32L5xx_DFP\1.3.0\Drivers\STM32L5xx_HAL_Driver\Src\stm32l5xx_hal_flash.c:682:3
	isb	sy
	.loc	4 685 28                        @ c:/Keil_v5\ARM\PACK\Keil\STM32L5xx_DFP\1.3.0\Drivers\STM32L5xx_HAL_Driver\Src\stm32l5xx_hal_flash.c:685:28
	str.w	r9, [r6, #4]
.Ltmp29:
	@DEBUG_VALUE: __set_PRIMASK:priMask <- $r0
	.loc	6 1027 3                        @ c:/Keil_v5\ARM\PACK\ARM\CMSIS\5.8.0\CMSIS\Core\Include\cmsis_armclang.h:1027:3
	@APP
	msr	primask, r0
	@NO_APP
.Ltmp30:
	@DEBUG_VALUE: FLASH_WaitForLastOperation:Timeout <- 1000
	.loc	4 602 22                        @ c:/Keil_v5\ARM\PACK\Keil\STM32L5xx_DFP\1.3.0\Drivers\STM32L5xx_HAL_Driver\Src\stm32l5xx_hal_flash.c:602:22
	bl	HAL_GetTick
.Ltmp31:
	.loc	4 606 9                         @ c:/Keil_v5\ARM\PACK\Keil\STM32L5xx_DFP\1.3.0\Drivers\STM32L5xx_HAL_Driver\Src\stm32l5xx_hal_flash.c:606:9
	ldr	r1, [r4]
	.loc	4 606 3 is_stmt 0               @ c:/Keil_v5\ARM\PACK\Keil\STM32L5xx_DFP\1.3.0\Drivers\STM32L5xx_HAL_Driver\Src\stm32l5xx_hal_flash.c:606:3
	lsls	r1, r1, #15
.Ltmp32:
	@DEBUG_VALUE: FLASH_WaitForLastOperation:timeout <- undef
	@DEBUG_VALUE: FLASH_Program_DoubleWord:reg <- undef
	@DEBUG_VALUE: HAL_FLASH_Program:reg <- undef
	bpl	.LBB0_11
.Ltmp33:
@ %bb.8:
	@DEBUG_VALUE: FLASH_Program_DoubleWord:Data <- [DW_OP_LLVM_fragment 0 32] $r10
	@DEBUG_VALUE: HAL_FLASH_Program:Data <- [DW_OP_LLVM_fragment 0 32] $r10
	@DEBUG_VALUE: FLASH_Program_DoubleWord:Data <- [DW_OP_LLVM_fragment 32 32] $r9
	@DEBUG_VALUE: HAL_FLASH_Program:Data <- [DW_OP_LLVM_fragment 32 32] $r9
	@DEBUG_VALUE: HAL_FLASH_Program:TypeProgram <- $r7
	@DEBUG_VALUE: FLASH_Program_DoubleWord:Address <- $r6
	@DEBUG_VALUE: HAL_FLASH_Program:Address <- $r6
	@DEBUG_VALUE: FLASH_WaitForLastOperation:Timeout <- 1000
	@DEBUG_VALUE: FLASH_WaitForLastOperation:Timeout <- 1000
	.loc	4 0 3                           @ c:/Keil_v5\ARM\PACK\Keil\STM32L5xx_DFP\1.3.0\Drivers\STM32L5xx_HAL_Driver\Src\stm32l5xx_hal_flash.c:0:3
	add.w	r5, r0, #1000
.Ltmp34:
	@DEBUG_VALUE: FLASH_WaitForLastOperation:timeout <- $r5
	.p2align	2
.LBB0_9:                                @ =>This Inner Loop Header: Depth=1
	@DEBUG_VALUE: HAL_FLASH_Program:Data <- [DW_OP_LLVM_fragment 0 32] $r10
	@DEBUG_VALUE: HAL_FLASH_Program:Data <- [DW_OP_LLVM_fragment 32 32] $r9
	@DEBUG_VALUE: HAL_FLASH_Program:TypeProgram <- $r7
	@DEBUG_VALUE: HAL_FLASH_Program:Address <- $r6
	@DEBUG_VALUE: FLASH_WaitForLastOperation:timeout <- $r5
	@DEBUG_VALUE: FLASH_WaitForLastOperation:Timeout <- 1000
	.loc	4 610 10 is_stmt 1              @ c:/Keil_v5\ARM\PACK\Keil\STM32L5xx_DFP\1.3.0\Drivers\STM32L5xx_HAL_Driver\Src\stm32l5xx_hal_flash.c:610:10
	bl	HAL_GetTick
.Ltmp35:
	.loc	4 610 10 is_stmt 0              @ c:/Keil_v5\ARM\PACK\Keil\STM32L5xx_DFP\1.3.0\Drivers\STM32L5xx_HAL_Driver\Src\stm32l5xx_hal_flash.c:610:10
	cmp	r0, r5
	bhs	.LBB0_14
.Ltmp36:
@ %bb.10:                               @   in Loop: Header=BB0_9 Depth=1
	@DEBUG_VALUE: HAL_FLASH_Program:Data <- [DW_OP_LLVM_fragment 0 32] $r10
	@DEBUG_VALUE: HAL_FLASH_Program:Data <- [DW_OP_LLVM_fragment 32 32] $r9
	@DEBUG_VALUE: HAL_FLASH_Program:TypeProgram <- $r7
	@DEBUG_VALUE: HAL_FLASH_Program:Address <- $r6
	@DEBUG_VALUE: FLASH_WaitForLastOperation:timeout <- $r5
	@DEBUG_VALUE: FLASH_WaitForLastOperation:Timeout <- 1000
	.loc	4 606 9 is_stmt 1               @ c:/Keil_v5\ARM\PACK\Keil\STM32L5xx_DFP\1.3.0\Drivers\STM32L5xx_HAL_Driver\Src\stm32l5xx_hal_flash.c:606:9
	ldr	r0, [r4]
	.loc	4 606 3 is_stmt 0               @ c:/Keil_v5\ARM\PACK\Keil\STM32L5xx_DFP\1.3.0\Drivers\STM32L5xx_HAL_Driver\Src\stm32l5xx_hal_flash.c:606:3
	lsls	r0, r0, #15
	bmi	.LBB0_9
.Ltmp37:
.LBB0_11:
	@DEBUG_VALUE: HAL_FLASH_Program:Data <- [DW_OP_LLVM_fragment 0 32] $r10
	@DEBUG_VALUE: HAL_FLASH_Program:Data <- [DW_OP_LLVM_fragment 32 32] $r9
	@DEBUG_VALUE: HAL_FLASH_Program:TypeProgram <- $r7
	@DEBUG_VALUE: HAL_FLASH_Program:Address <- $r6
	@DEBUG_VALUE: FLASH_WaitForLastOperation:Timeout <- 1000
	.loc	4 621 13 is_stmt 1              @ c:/Keil_v5\ARM\PACK\Keil\STM32L5xx_DFP\1.3.0\Drivers\STM32L5xx_HAL_Driver\Src\stm32l5xx_hal_flash.c:621:13
	ldr	r0, [r4]
	movw	r1, #8442
	.loc	4 621 22 is_stmt 0              @ c:/Keil_v5\ARM\PACK\Keil\STM32L5xx_DFP\1.3.0\Drivers\STM32L5xx_HAL_Driver\Src\stm32l5xx_hal_flash.c:621:22
	ands	r0, r1
.Ltmp38:
	@DEBUG_VALUE: FLASH_WaitForLastOperation:reg_sr <- undef
	@DEBUG_VALUE: FLASH_WaitForLastOperation:error <- $r0
	.loc	4 626 6 is_stmt 1               @ c:/Keil_v5\ARM\PACK\Keil\STM32L5xx_DFP\1.3.0\Drivers\STM32L5xx_HAL_Driver\Src\stm32l5xx_hal_flash.c:626:6
	beq	.LBB0_15
.Ltmp39:
@ %bb.12:
	@DEBUG_VALUE: HAL_FLASH_Program:Data <- [DW_OP_LLVM_fragment 0 32] $r10
	@DEBUG_VALUE: HAL_FLASH_Program:Data <- [DW_OP_LLVM_fragment 32 32] $r9
	@DEBUG_VALUE: HAL_FLASH_Program:TypeProgram <- $r7
	@DEBUG_VALUE: HAL_FLASH_Program:Address <- $r6
	@DEBUG_VALUE: FLASH_WaitForLastOperation:error <- $r0
	@DEBUG_VALUE: FLASH_WaitForLastOperation:Timeout <- 1000
	.loc	4 629 22                        @ c:/Keil_v5\ARM\PACK\Keil\STM32L5xx_DFP\1.3.0\Drivers\STM32L5xx_HAL_Driver\Src\stm32l5xx_hal_flash.c:629:22
	ldr.w	r1, [r8, #4]
	orrs	r1, r0
	str.w	r1, [r8, #4]
	.loc	4 632 15                        @ c:/Keil_v5\ARM\PACK\Keil\STM32L5xx_DFP\1.3.0\Drivers\STM32L5xx_HAL_Driver\Src\stm32l5xx_hal_flash.c:632:15
	str	r0, [r4]
	movs	r0, #1
.Ltmp40:
	.loc	4 0 15 is_stmt 0                @ c:/Keil_v5\ARM\PACK\Keil\STM32L5xx_DFP\1.3.0\Drivers\STM32L5xx_HAL_Driver\Src\stm32l5xx_hal_flash.c:0:15
	b	.LBB0_16
.Ltmp41:
	.p2align	2
.LBB0_13:
	@DEBUG_VALUE: HAL_FLASH_Program:Data <- [DW_OP_LLVM_fragment 0 32] $r10
	@DEBUG_VALUE: HAL_FLASH_Program:Data <- [DW_OP_LLVM_fragment 32 32] $r9
	@DEBUG_VALUE: HAL_FLASH_Program:TypeProgram <- $r7
	@DEBUG_VALUE: HAL_FLASH_Program:Address <- $r6
	movs	r0, #3
.Ltmp42:
	@DEBUG_VALUE: HAL_FLASH_Program:status <- $r0
	movs	r1, #0
.Ltmp43:
	.loc	4 192 3 is_stmt 1               @ c:/Keil_v5\ARM\PACK\Keil\STM32L5xx_DFP\1.3.0\Drivers\STM32L5xx_HAL_Driver\Src\stm32l5xx_hal_flash.c:192:3
	strb.w	r1, [r8]
.Ltmp44:
	.loc	4 195 1                         @ c:/Keil_v5\ARM\PACK\Keil\STM32L5xx_DFP\1.3.0\Drivers\STM32L5xx_HAL_Driver\Src\stm32l5xx_hal_flash.c:195:1
	pop.w	{r4, r5, r6, r7, r8, r9, r10, pc}
.Ltmp45:
	.p2align	2
.LBB0_14:
	@DEBUG_VALUE: HAL_FLASH_Program:Data <- [DW_OP_LLVM_fragment 0 32] $r10
	@DEBUG_VALUE: HAL_FLASH_Program:Data <- [DW_OP_LLVM_fragment 32 32] $r9
	@DEBUG_VALUE: HAL_FLASH_Program:TypeProgram <- $r7
	@DEBUG_VALUE: HAL_FLASH_Program:Address <- $r6
	@DEBUG_VALUE: FLASH_WaitForLastOperation:timeout <- $r5
	@DEBUG_VALUE: FLASH_WaitForLastOperation:Timeout <- 1000
	.loc	4 0 1 is_stmt 0                 @ c:/Keil_v5\ARM\PACK\Keil\STM32L5xx_DFP\1.3.0\Drivers\STM32L5xx_HAL_Driver\Src\stm32l5xx_hal_flash.c:0:1
	movs	r0, #3
	b	.LBB0_16
.Ltmp46:
	.p2align	2
.LBB0_15:
	@DEBUG_VALUE: HAL_FLASH_Program:Data <- [DW_OP_LLVM_fragment 0 32] $r10
	@DEBUG_VALUE: HAL_FLASH_Program:Data <- [DW_OP_LLVM_fragment 32 32] $r9
	@DEBUG_VALUE: HAL_FLASH_Program:TypeProgram <- $r7
	@DEBUG_VALUE: HAL_FLASH_Program:Address <- $r6
	@DEBUG_VALUE: FLASH_WaitForLastOperation:error <- $r0
	@DEBUG_VALUE: FLASH_WaitForLastOperation:Timeout <- 1000
	.loc	4 644 9 is_stmt 1               @ c:/Keil_v5\ARM\PACK\Keil\STM32L5xx_DFP\1.3.0\Drivers\STM32L5xx_HAL_Driver\Src\stm32l5xx_hal_flash.c:644:9
	ldr	r0, [r4]
.Ltmp47:
	.loc	4 644 7 is_stmt 0               @ c:/Keil_v5\ARM\PACK\Keil\STM32L5xx_DFP\1.3.0\Drivers\STM32L5xx_HAL_Driver\Src\stm32l5xx_hal_flash.c:644:7
	lsls	r0, r0, #31
	itt	ne
	movne	r0, #1
.Ltmp48:
	.loc	4 647 15 is_stmt 1              @ c:/Keil_v5\ARM\PACK\Keil\STM32L5xx_DFP\1.3.0\Drivers\STM32L5xx_HAL_Driver\Src\stm32l5xx_hal_flash.c:647:15
	strne	r0, [r4]
	movs	r0, #0
.Ltmp49:
.LBB0_16:
	@DEBUG_VALUE: HAL_FLASH_Program:Data <- [DW_OP_LLVM_fragment 0 32] $r10
	@DEBUG_VALUE: HAL_FLASH_Program:Data <- [DW_OP_LLVM_fragment 32 32] $r9
	@DEBUG_VALUE: HAL_FLASH_Program:TypeProgram <- $r7
	@DEBUG_VALUE: HAL_FLASH_Program:Address <- $r6
	@DEBUG_VALUE: HAL_FLASH_Program:status <- $r0
	.loc	4 188 5                         @ c:/Keil_v5\ARM\PACK\Keil\STM32L5xx_DFP\1.3.0\Drivers\STM32L5xx_HAL_Driver\Src\stm32l5xx_hal_flash.c:188:5
	ldr.w	r1, [r8, #8]
	mov.w	r2, #-2147483648
	ldr	r3, [r4, #8]
	orn	r1, r2, r1
	ands	r1, r3
	str	r1, [r4, #8]
	@DEBUG_VALUE: HAL_FLASH_Program:status <- $r0
	movs	r1, #0
.Ltmp50:
	.loc	4 192 3                         @ c:/Keil_v5\ARM\PACK\Keil\STM32L5xx_DFP\1.3.0\Drivers\STM32L5xx_HAL_Driver\Src\stm32l5xx_hal_flash.c:192:3
	strb.w	r1, [r8]
.Ltmp51:
	.loc	4 195 1                         @ c:/Keil_v5\ARM\PACK\Keil\STM32L5xx_DFP\1.3.0\Drivers\STM32L5xx_HAL_Driver\Src\stm32l5xx_hal_flash.c:195:1
	pop.w	{r4, r5, r6, r7, r8, r9, r10, pc}
.Ltmp52:
.Lfunc_end0:
	.size	HAL_FLASH_Program, .Lfunc_end0-HAL_FLASH_Program
	.cfi_endproc
	.cantunwind
	.fnend
                                        @ -- End function
	.section	.text.FLASH_WaitForLastOperation,"ax",%progbits
	.hidden	FLASH_WaitForLastOperation      @ -- Begin function FLASH_WaitForLastOperation
	.globl	FLASH_WaitForLastOperation
	.p2align	2
	.type	FLASH_WaitForLastOperation,%function
	.code	16                              @ @FLASH_WaitForLastOperation
	.thumb_func
FLASH_WaitForLastOperation:
.Lfunc_begin1:
	.loc	4 597 0                         @ c:/Keil_v5\ARM\PACK\Keil\STM32L5xx_DFP\1.3.0\Drivers\STM32L5xx_HAL_Driver\Src\stm32l5xx_hal_flash.c:597:0
	.fnstart
	.cfi_startproc
@ %bb.0:
	@DEBUG_VALUE: FLASH_WaitForLastOperation:Timeout <- $r0
	.save	{r4, r5, r7, lr}
	push	{r4, r5, r7, lr}
	.cfi_def_cfa_offset 16
	.cfi_offset lr, -4
	.cfi_offset r7, -8
	.cfi_offset r5, -12
	.cfi_offset r4, -16
	movw	r5, #8224
	mov	r4, r0
.Ltmp53:
	@DEBUG_VALUE: FLASH_WaitForLastOperation:Timeout <- $r4
	movt	r5, #16386
	@DEBUG_VALUE: FLASH_WaitForLastOperation:Timeout <- $r4
.Ltmp54:
	.loc	4 602 22 prologue_end           @ c:/Keil_v5\ARM\PACK\Keil\STM32L5xx_DFP\1.3.0\Drivers\STM32L5xx_HAL_Driver\Src\stm32l5xx_hal_flash.c:602:22
	bl	HAL_GetTick
	.loc	4 606 9                         @ c:/Keil_v5\ARM\PACK\Keil\STM32L5xx_DFP\1.3.0\Drivers\STM32L5xx_HAL_Driver\Src\stm32l5xx_hal_flash.c:606:9
	ldr	r1, [r5]
	.loc	4 606 3 is_stmt 0               @ c:/Keil_v5\ARM\PACK\Keil\STM32L5xx_DFP\1.3.0\Drivers\STM32L5xx_HAL_Driver\Src\stm32l5xx_hal_flash.c:606:3
	lsls	r1, r1, #15
.Ltmp55:
	@DEBUG_VALUE: FLASH_WaitForLastOperation:timeout <- undef
	bpl	.LBB1_8
.Ltmp56:
@ %bb.1:
	@DEBUG_VALUE: FLASH_WaitForLastOperation:Timeout <- $r4
	@DEBUG_VALUE: FLASH_WaitForLastOperation:timeout <- undef
	adds	r1, r4, #1
	beq	.LBB1_6
.Ltmp57:
@ %bb.2:
	@DEBUG_VALUE: FLASH_WaitForLastOperation:Timeout <- $r4
	.loc	4 0 3                           @ c:/Keil_v5\ARM\PACK\Keil\STM32L5xx_DFP\1.3.0\Drivers\STM32L5xx_HAL_Driver\Src\stm32l5xx_hal_flash.c:0:3
	add	r4, r0
.Ltmp58:
	@DEBUG_VALUE: FLASH_WaitForLastOperation:timeout <- $r4
	.p2align	2
.LBB1_3:                                @ =>This Inner Loop Header: Depth=1
	.loc	4 610 10 is_stmt 1              @ c:/Keil_v5\ARM\PACK\Keil\STM32L5xx_DFP\1.3.0\Drivers\STM32L5xx_HAL_Driver\Src\stm32l5xx_hal_flash.c:610:10
	bl	HAL_GetTick
.Ltmp59:
	.loc	4 610 10 is_stmt 0              @ c:/Keil_v5\ARM\PACK\Keil\STM32L5xx_DFP\1.3.0\Drivers\STM32L5xx_HAL_Driver\Src\stm32l5xx_hal_flash.c:610:10
	cmp	r0, r4
	itt	hs
	movhs	r0, #3
.Ltmp60:
	.loc	4 652 1 is_stmt 1               @ c:/Keil_v5\ARM\PACK\Keil\STM32L5xx_DFP\1.3.0\Drivers\STM32L5xx_HAL_Driver\Src\stm32l5xx_hal_flash.c:652:1
	pophs	{r4, r5, r7, pc}
.LBB1_4:                                @   in Loop: Header=BB1_3 Depth=1
	.loc	4 606 9                         @ c:/Keil_v5\ARM\PACK\Keil\STM32L5xx_DFP\1.3.0\Drivers\STM32L5xx_HAL_Driver\Src\stm32l5xx_hal_flash.c:606:9
	ldr	r0, [r5]
	.loc	4 606 3 is_stmt 0               @ c:/Keil_v5\ARM\PACK\Keil\STM32L5xx_DFP\1.3.0\Drivers\STM32L5xx_HAL_Driver\Src\stm32l5xx_hal_flash.c:606:3
	lsls	r0, r0, #15
	bmi	.LBB1_3
	b	.LBB1_8
	.p2align	2
.LBB1_5:                                @   in Loop: Header=BB1_6 Depth=1
.Ltmp61:
	@DEBUG_VALUE: FLASH_WaitForLastOperation:Timeout <- $r4
	.loc	4 606 9                         @ c:/Keil_v5\ARM\PACK\Keil\STM32L5xx_DFP\1.3.0\Drivers\STM32L5xx_HAL_Driver\Src\stm32l5xx_hal_flash.c:606:9
	ldr	r0, [r5]
	.loc	4 606 3                         @ c:/Keil_v5\ARM\PACK\Keil\STM32L5xx_DFP\1.3.0\Drivers\STM32L5xx_HAL_Driver\Src\stm32l5xx_hal_flash.c:606:3
	lsls	r0, r0, #15
	bpl	.LBB1_8
.Ltmp62:
.LBB1_6:                                @ =>This Inner Loop Header: Depth=1
	@DEBUG_VALUE: FLASH_WaitForLastOperation:Timeout <- $r4
	.loc	4 606 9                         @ c:/Keil_v5\ARM\PACK\Keil\STM32L5xx_DFP\1.3.0\Drivers\STM32L5xx_HAL_Driver\Src\stm32l5xx_hal_flash.c:606:9
	ldr	r0, [r5]
	.loc	4 606 3                         @ c:/Keil_v5\ARM\PACK\Keil\STM32L5xx_DFP\1.3.0\Drivers\STM32L5xx_HAL_Driver\Src\stm32l5xx_hal_flash.c:606:3
	lsls	r0, r0, #15
	bpl	.LBB1_8
.Ltmp63:
@ %bb.7:                                @   in Loop: Header=BB1_6 Depth=1
	@DEBUG_VALUE: FLASH_WaitForLastOperation:Timeout <- $r4
	.loc	4 606 9                         @ c:/Keil_v5\ARM\PACK\Keil\STM32L5xx_DFP\1.3.0\Drivers\STM32L5xx_HAL_Driver\Src\stm32l5xx_hal_flash.c:606:9
	ldr	r0, [r5]
	.loc	4 606 3                         @ c:/Keil_v5\ARM\PACK\Keil\STM32L5xx_DFP\1.3.0\Drivers\STM32L5xx_HAL_Driver\Src\stm32l5xx_hal_flash.c:606:3
	lsls	r0, r0, #15
	.loc	4 606 9                         @ c:/Keil_v5\ARM\PACK\Keil\STM32L5xx_DFP\1.3.0\Drivers\STM32L5xx_HAL_Driver\Src\stm32l5xx_hal_flash.c:606:9
	itt	mi
	ldrmi	r0, [r5]
	.loc	4 606 3                         @ c:/Keil_v5\ARM\PACK\Keil\STM32L5xx_DFP\1.3.0\Drivers\STM32L5xx_HAL_Driver\Src\stm32l5xx_hal_flash.c:606:3
	lslsmi.w	r0, r0, #15
	bmi	.LBB1_5
.Ltmp64:
.LBB1_8:
	.loc	4 621 13 is_stmt 1              @ c:/Keil_v5\ARM\PACK\Keil\STM32L5xx_DFP\1.3.0\Drivers\STM32L5xx_HAL_Driver\Src\stm32l5xx_hal_flash.c:621:13
	ldr	r0, [r5]
	movw	r1, #8442
	.loc	4 621 22 is_stmt 0              @ c:/Keil_v5\ARM\PACK\Keil\STM32L5xx_DFP\1.3.0\Drivers\STM32L5xx_HAL_Driver\Src\stm32l5xx_hal_flash.c:621:22
	ands	r0, r1
.Ltmp65:
	@DEBUG_VALUE: FLASH_WaitForLastOperation:reg_sr <- undef
	@DEBUG_VALUE: FLASH_WaitForLastOperation:error <- $r0
	.loc	4 626 6 is_stmt 1               @ c:/Keil_v5\ARM\PACK\Keil\STM32L5xx_DFP\1.3.0\Drivers\STM32L5xx_HAL_Driver\Src\stm32l5xx_hal_flash.c:626:6
	beq	.LBB1_10
.Ltmp66:
@ %bb.9:
	@DEBUG_VALUE: FLASH_WaitForLastOperation:error <- $r0
	.loc	4 629 22                        @ c:/Keil_v5\ARM\PACK\Keil\STM32L5xx_DFP\1.3.0\Drivers\STM32L5xx_HAL_Driver\Src\stm32l5xx_hal_flash.c:629:22
	movw	r1, :lower16:pFlash
	movt	r1, :upper16:pFlash
	ldr	r2, [r1, #4]
	orrs	r2, r0
	str	r2, [r1, #4]
	.loc	4 632 15                        @ c:/Keil_v5\ARM\PACK\Keil\STM32L5xx_DFP\1.3.0\Drivers\STM32L5xx_HAL_Driver\Src\stm32l5xx_hal_flash.c:632:15
	str	r0, [r5]
	movs	r0, #1
.Ltmp67:
	.loc	4 652 1                         @ c:/Keil_v5\ARM\PACK\Keil\STM32L5xx_DFP\1.3.0\Drivers\STM32L5xx_HAL_Driver\Src\stm32l5xx_hal_flash.c:652:1
	pop	{r4, r5, r7, pc}
	.p2align	2
.LBB1_10:
.Ltmp68:
	@DEBUG_VALUE: FLASH_WaitForLastOperation:error <- $r0
	.loc	4 644 9                         @ c:/Keil_v5\ARM\PACK\Keil\STM32L5xx_DFP\1.3.0\Drivers\STM32L5xx_HAL_Driver\Src\stm32l5xx_hal_flash.c:644:9
	ldr	r0, [r5]
.Ltmp69:
	.loc	4 644 7 is_stmt 0               @ c:/Keil_v5\ARM\PACK\Keil\STM32L5xx_DFP\1.3.0\Drivers\STM32L5xx_HAL_Driver\Src\stm32l5xx_hal_flash.c:644:7
	lsls	r0, r0, #31
	itt	eq
	moveq	r0, #0
	.loc	4 652 1 is_stmt 1               @ c:/Keil_v5\ARM\PACK\Keil\STM32L5xx_DFP\1.3.0\Drivers\STM32L5xx_HAL_Driver\Src\stm32l5xx_hal_flash.c:652:1
	popeq	{r4, r5, r7, pc}
.LBB1_11:
	.loc	4 0 1 is_stmt 0                 @ c:/Keil_v5\ARM\PACK\Keil\STM32L5xx_DFP\1.3.0\Drivers\STM32L5xx_HAL_Driver\Src\stm32l5xx_hal_flash.c:0:1
	movs	r0, #1
.Ltmp70:
	.loc	4 647 15 is_stmt 1              @ c:/Keil_v5\ARM\PACK\Keil\STM32L5xx_DFP\1.3.0\Drivers\STM32L5xx_HAL_Driver\Src\stm32l5xx_hal_flash.c:647:15
	str	r0, [r5]
	movs	r0, #0
.Ltmp71:
	.loc	4 652 1                         @ c:/Keil_v5\ARM\PACK\Keil\STM32L5xx_DFP\1.3.0\Drivers\STM32L5xx_HAL_Driver\Src\stm32l5xx_hal_flash.c:652:1
	pop	{r4, r5, r7, pc}
.Ltmp72:
.Lfunc_end1:
	.size	FLASH_WaitForLastOperation, .Lfunc_end1-FLASH_WaitForLastOperation
	.cfi_endproc
	.cantunwind
	.fnend
                                        @ -- End function
	.section	.text.HAL_FLASH_Program_IT,"ax",%progbits
	.hidden	HAL_FLASH_Program_IT            @ -- Begin function HAL_FLASH_Program_IT
	.globl	HAL_FLASH_Program_IT
	.p2align	2
	.type	HAL_FLASH_Program_IT,%function
	.code	16                              @ @HAL_FLASH_Program_IT
	.thumb_func
HAL_FLASH_Program_IT:
.Lfunc_begin2:
	.loc	4 208 0                         @ c:/Keil_v5\ARM\PACK\Keil\STM32L5xx_DFP\1.3.0\Drivers\STM32L5xx_HAL_Driver\Src\stm32l5xx_hal_flash.c:208:0
	.fnstart
	.cfi_startproc
@ %bb.0:
	@DEBUG_VALUE: HAL_FLASH_Program_IT:TypeProgram <- $r0
	@DEBUG_VALUE: HAL_FLASH_Program_IT:Address <- $r1
	.save	{r4, r5, r6, r7, r8, r9, r10, lr}
	push.w	{r4, r5, r6, r7, r8, r9, r10, lr}
	.cfi_def_cfa_offset 32
	.cfi_offset lr, -4
	.cfi_offset r10, -8
	.cfi_offset r9, -12
	.cfi_offset r8, -16
	.cfi_offset r7, -20
	.cfi_offset r6, -24
	.cfi_offset r5, -28
	.cfi_offset r4, -32
.Ltmp73:
	.loc	4 216 3 prologue_end            @ c:/Keil_v5\ARM\PACK\Keil\STM32L5xx_DFP\1.3.0\Drivers\STM32L5xx_HAL_Driver\Src\stm32l5xx_hal_flash.c:216:3
	movw	r4, :lower16:pFlash
	movt	r4, :upper16:pFlash
	mov	r9, r2
	ldrb	r2, [r4]
.Ltmp74:
	@DEBUG_VALUE: HAL_FLASH_Program_IT:Address <- $r1
	.loc	4 216 3 is_stmt 0               @ c:/Keil_v5\ARM\PACK\Keil\STM32L5xx_DFP\1.3.0\Drivers\STM32L5xx_HAL_Driver\Src\stm32l5xx_hal_flash.c:216:3
	cmp	r2, #1
.Ltmp75:
	@DEBUG_VALUE: HAL_FLASH_Program_IT:Data <- [DW_OP_LLVM_fragment 0 32] $r9
	@DEBUG_VALUE: HAL_FLASH_Program_IT:Data <- [DW_OP_LLVM_fragment 32 32] $r3
	@DEBUG_VALUE: HAL_FLASH_Program_IT:TypeProgram <- $r0
	.loc	4 0 3                           @ c:/Keil_v5\ARM\PACK\Keil\STM32L5xx_DFP\1.3.0\Drivers\STM32L5xx_HAL_Driver\Src\stm32l5xx_hal_flash.c:0:3
	itt	eq
	moveq	r0, #2
.Ltmp76:
	@DEBUG_VALUE: HAL_FLASH_Program_IT:TypeProgram <- [DW_OP_LLVM_entry_value 1] $r0
	.loc	4 246 1 is_stmt 1               @ c:/Keil_v5\ARM\PACK\Keil\STM32L5xx_DFP\1.3.0\Drivers\STM32L5xx_HAL_Driver\Src\stm32l5xx_hal_flash.c:246:1
	popeq.w	{r4, r5, r6, r7, r8, r9, r10, pc}
.Ltmp77:
.LBB2_1:
	@DEBUG_VALUE: HAL_FLASH_Program_IT:Data <- [DW_OP_LLVM_fragment 32 32] $r3
	@DEBUG_VALUE: HAL_FLASH_Program_IT:Address <- $r1
	@DEBUG_VALUE: HAL_FLASH_Program_IT:TypeProgram <- [DW_OP_LLVM_entry_value 1] $r0
	.loc	4 0 1 is_stmt 0                 @ c:/Keil_v5\ARM\PACK\Keil\STM32L5xx_DFP\1.3.0\Drivers\STM32L5xx_HAL_Driver\Src\stm32l5xx_hal_flash.c:0:1
	mov	r10, r0
.Ltmp78:
	@DEBUG_VALUE: HAL_FLASH_Program_IT:TypeProgram <- $r10
	@DEBUG_VALUE: HAL_FLASH_Program_IT:Data <- [DW_OP_LLVM_fragment 32 32] $r8
	@DEBUG_VALUE: HAL_FLASH_Program_IT:Data <- [DW_OP_LLVM_fragment 0 32] $r9
	movs	r0, #1
.Ltmp79:
	.loc	4 216 3 is_stmt 1               @ c:/Keil_v5\ARM\PACK\Keil\STM32L5xx_DFP\1.3.0\Drivers\STM32L5xx_HAL_Driver\Src\stm32l5xx_hal_flash.c:216:3
	strb	r0, [r4]
	movs	r0, #0
	movw	r5, #8224
	mov	r8, r3
.Ltmp80:
	@DEBUG_VALUE: HAL_FLASH_Program_IT:Data <- [DW_OP_LLVM_fragment 32 32] $r8
	.loc	4 0 3 is_stmt 0                 @ c:/Keil_v5\ARM\PACK\Keil\STM32L5xx_DFP\1.3.0\Drivers\STM32L5xx_HAL_Driver\Src\stm32l5xx_hal_flash.c:0:3
	mov	r6, r1
.Ltmp81:
	@DEBUG_VALUE: HAL_FLASH_Program_IT:Address <- $r6
	@DEBUG_VALUE: HAL_FLASH_Program_IT:Address <- $r6
	movt	r5, #16386
.Ltmp82:
	.loc	4 219 20 is_stmt 1              @ c:/Keil_v5\ARM\PACK\Keil\STM32L5xx_DFP\1.3.0\Drivers\STM32L5xx_HAL_Driver\Src\stm32l5xx_hal_flash.c:219:20
	str	r0, [r4, #4]
.Ltmp83:
	@DEBUG_VALUE: FLASH_WaitForLastOperation:Timeout <- 1000
	.loc	4 602 22                        @ c:/Keil_v5\ARM\PACK\Keil\STM32L5xx_DFP\1.3.0\Drivers\STM32L5xx_HAL_Driver\Src\stm32l5xx_hal_flash.c:602:22
	bl	HAL_GetTick
	.loc	4 606 9                         @ c:/Keil_v5\ARM\PACK\Keil\STM32L5xx_DFP\1.3.0\Drivers\STM32L5xx_HAL_Driver\Src\stm32l5xx_hal_flash.c:606:9
	ldr	r1, [r5]
	.loc	4 606 3 is_stmt 0               @ c:/Keil_v5\ARM\PACK\Keil\STM32L5xx_DFP\1.3.0\Drivers\STM32L5xx_HAL_Driver\Src\stm32l5xx_hal_flash.c:606:3
	lsls	r1, r1, #15
.Ltmp84:
	@DEBUG_VALUE: FLASH_WaitForLastOperation:timeout <- undef
	bpl	.LBB2_5
.Ltmp85:
@ %bb.2:
	@DEBUG_VALUE: HAL_FLASH_Program_IT:TypeProgram <- $r10
	@DEBUG_VALUE: HAL_FLASH_Program_IT:Data <- [DW_OP_LLVM_fragment 0 32] $r9
	@DEBUG_VALUE: HAL_FLASH_Program_IT:Data <- [DW_OP_LLVM_fragment 32 32] $r8
	@DEBUG_VALUE: HAL_FLASH_Program_IT:Address <- $r6
	@DEBUG_VALUE: FLASH_WaitForLastOperation:Timeout <- 1000
	.loc	4 0 3                           @ c:/Keil_v5\ARM\PACK\Keil\STM32L5xx_DFP\1.3.0\Drivers\STM32L5xx_HAL_Driver\Src\stm32l5xx_hal_flash.c:0:3
	add.w	r7, r0, #1000
.Ltmp86:
	@DEBUG_VALUE: FLASH_WaitForLastOperation:timeout <- $r7
	.p2align	2
.LBB2_3:                                @ =>This Inner Loop Header: Depth=1
	@DEBUG_VALUE: HAL_FLASH_Program_IT:TypeProgram <- $r10
	@DEBUG_VALUE: HAL_FLASH_Program_IT:Data <- [DW_OP_LLVM_fragment 0 32] $r9
	@DEBUG_VALUE: HAL_FLASH_Program_IT:Data <- [DW_OP_LLVM_fragment 32 32] $r8
	@DEBUG_VALUE: FLASH_WaitForLastOperation:timeout <- $r7
	@DEBUG_VALUE: HAL_FLASH_Program_IT:Address <- $r6
	@DEBUG_VALUE: FLASH_WaitForLastOperation:Timeout <- 1000
	.loc	4 610 10 is_stmt 1              @ c:/Keil_v5\ARM\PACK\Keil\STM32L5xx_DFP\1.3.0\Drivers\STM32L5xx_HAL_Driver\Src\stm32l5xx_hal_flash.c:610:10
	bl	HAL_GetTick
.Ltmp87:
	.loc	4 610 10 is_stmt 0              @ c:/Keil_v5\ARM\PACK\Keil\STM32L5xx_DFP\1.3.0\Drivers\STM32L5xx_HAL_Driver\Src\stm32l5xx_hal_flash.c:610:10
	cmp	r0, r7
	bhs	.LBB2_7
.Ltmp88:
@ %bb.4:                                @   in Loop: Header=BB2_3 Depth=1
	@DEBUG_VALUE: HAL_FLASH_Program_IT:TypeProgram <- $r10
	@DEBUG_VALUE: HAL_FLASH_Program_IT:Data <- [DW_OP_LLVM_fragment 0 32] $r9
	@DEBUG_VALUE: HAL_FLASH_Program_IT:Data <- [DW_OP_LLVM_fragment 32 32] $r8
	@DEBUG_VALUE: FLASH_WaitForLastOperation:timeout <- $r7
	@DEBUG_VALUE: HAL_FLASH_Program_IT:Address <- $r6
	@DEBUG_VALUE: FLASH_WaitForLastOperation:Timeout <- 1000
	.loc	4 606 9 is_stmt 1               @ c:/Keil_v5\ARM\PACK\Keil\STM32L5xx_DFP\1.3.0\Drivers\STM32L5xx_HAL_Driver\Src\stm32l5xx_hal_flash.c:606:9
	ldr	r0, [r5]
	.loc	4 606 3 is_stmt 0               @ c:/Keil_v5\ARM\PACK\Keil\STM32L5xx_DFP\1.3.0\Drivers\STM32L5xx_HAL_Driver\Src\stm32l5xx_hal_flash.c:606:3
	lsls	r0, r0, #15
	bmi	.LBB2_3
.Ltmp89:
.LBB2_5:
	@DEBUG_VALUE: HAL_FLASH_Program_IT:TypeProgram <- $r10
	@DEBUG_VALUE: HAL_FLASH_Program_IT:Data <- [DW_OP_LLVM_fragment 0 32] $r9
	@DEBUG_VALUE: HAL_FLASH_Program_IT:Data <- [DW_OP_LLVM_fragment 32 32] $r8
	@DEBUG_VALUE: HAL_FLASH_Program_IT:Address <- $r6
	@DEBUG_VALUE: FLASH_WaitForLastOperation:Timeout <- 1000
	@DEBUG_VALUE: HAL_FLASH_Program_IT:Data <- [DW_OP_LLVM_fragment 32 32] $r8
	@DEBUG_VALUE: HAL_FLASH_Program_IT:Data <- [DW_OP_LLVM_fragment 0 32] $r9
	.loc	4 621 13 is_stmt 1              @ c:/Keil_v5\ARM\PACK\Keil\STM32L5xx_DFP\1.3.0\Drivers\STM32L5xx_HAL_Driver\Src\stm32l5xx_hal_flash.c:621:13
	ldr	r0, [r5]
	movw	r1, #8442
	.loc	4 621 22 is_stmt 0              @ c:/Keil_v5\ARM\PACK\Keil\STM32L5xx_DFP\1.3.0\Drivers\STM32L5xx_HAL_Driver\Src\stm32l5xx_hal_flash.c:621:22
	ands	r0, r1
.Ltmp90:
	@DEBUG_VALUE: FLASH_WaitForLastOperation:reg_sr <- undef
	@DEBUG_VALUE: FLASH_WaitForLastOperation:error <- $r0
	.loc	4 626 6 is_stmt 1               @ c:/Keil_v5\ARM\PACK\Keil\STM32L5xx_DFP\1.3.0\Drivers\STM32L5xx_HAL_Driver\Src\stm32l5xx_hal_flash.c:626:6
	beq	.LBB2_8
.Ltmp91:
@ %bb.6:
	@DEBUG_VALUE: HAL_FLASH_Program_IT:TypeProgram <- $r10
	@DEBUG_VALUE: HAL_FLASH_Program_IT:Data <- [DW_OP_LLVM_fragment 0 32] $r9
	@DEBUG_VALUE: HAL_FLASH_Program_IT:Data <- [DW_OP_LLVM_fragment 32 32] $r8
	@DEBUG_VALUE: HAL_FLASH_Program_IT:Address <- $r6
	@DEBUG_VALUE: FLASH_WaitForLastOperation:error <- $r0
	@DEBUG_VALUE: FLASH_WaitForLastOperation:Timeout <- 1000
	.loc	4 629 22                        @ c:/Keil_v5\ARM\PACK\Keil\STM32L5xx_DFP\1.3.0\Drivers\STM32L5xx_HAL_Driver\Src\stm32l5xx_hal_flash.c:629:22
	ldr	r1, [r4, #4]
	orrs	r1, r0
	str	r1, [r4, #4]
	.loc	4 632 15                        @ c:/Keil_v5\ARM\PACK\Keil\STM32L5xx_DFP\1.3.0\Drivers\STM32L5xx_HAL_Driver\Src\stm32l5xx_hal_flash.c:632:15
	str	r0, [r5]
	movs	r0, #1
.Ltmp92:
	@DEBUG_VALUE: HAL_FLASH_Program_IT:status <- $r0
	.loc	4 0 15 is_stmt 0                @ c:/Keil_v5\ARM\PACK\Keil\STM32L5xx_DFP\1.3.0\Drivers\STM32L5xx_HAL_Driver\Src\stm32l5xx_hal_flash.c:0:15
	movs	r1, #0
.Ltmp93:
	.loc	4 227 5 is_stmt 1               @ c:/Keil_v5\ARM\PACK\Keil\STM32L5xx_DFP\1.3.0\Drivers\STM32L5xx_HAL_Driver\Src\stm32l5xx_hal_flash.c:227:5
	strb	r1, [r4]
.Ltmp94:
	.loc	4 246 1                         @ c:/Keil_v5\ARM\PACK\Keil\STM32L5xx_DFP\1.3.0\Drivers\STM32L5xx_HAL_Driver\Src\stm32l5xx_hal_flash.c:246:1
	pop.w	{r4, r5, r6, r7, r8, r9, r10, pc}
.Ltmp95:
	.p2align	2
.LBB2_7:
	@DEBUG_VALUE: HAL_FLASH_Program_IT:TypeProgram <- $r10
	@DEBUG_VALUE: HAL_FLASH_Program_IT:Data <- [DW_OP_LLVM_fragment 0 32] $r9
	@DEBUG_VALUE: HAL_FLASH_Program_IT:Data <- [DW_OP_LLVM_fragment 32 32] $r8
	@DEBUG_VALUE: HAL_FLASH_Program_IT:Address <- $r6
	.loc	4 0 1 is_stmt 0                 @ c:/Keil_v5\ARM\PACK\Keil\STM32L5xx_DFP\1.3.0\Drivers\STM32L5xx_HAL_Driver\Src\stm32l5xx_hal_flash.c:0:1
	movs	r0, #3
.Ltmp96:
	@DEBUG_VALUE: HAL_FLASH_Program_IT:status <- $r0
	movs	r1, #0
.Ltmp97:
	.loc	4 227 5 is_stmt 1               @ c:/Keil_v5\ARM\PACK\Keil\STM32L5xx_DFP\1.3.0\Drivers\STM32L5xx_HAL_Driver\Src\stm32l5xx_hal_flash.c:227:5
	strb	r1, [r4]
.Ltmp98:
	.loc	4 246 1                         @ c:/Keil_v5\ARM\PACK\Keil\STM32L5xx_DFP\1.3.0\Drivers\STM32L5xx_HAL_Driver\Src\stm32l5xx_hal_flash.c:246:1
	pop.w	{r4, r5, r6, r7, r8, r9, r10, pc}
.Ltmp99:
	.p2align	2
.LBB2_8:
	@DEBUG_VALUE: HAL_FLASH_Program_IT:TypeProgram <- $r10
	@DEBUG_VALUE: HAL_FLASH_Program_IT:Data <- [DW_OP_LLVM_fragment 0 32] $r9
	@DEBUG_VALUE: HAL_FLASH_Program_IT:Data <- [DW_OP_LLVM_fragment 32 32] $r8
	@DEBUG_VALUE: HAL_FLASH_Program_IT:Address <- $r6
	@DEBUG_VALUE: FLASH_WaitForLastOperation:error <- $r0
	@DEBUG_VALUE: FLASH_WaitForLastOperation:Timeout <- 1000
	@DEBUG_VALUE: HAL_FLASH_Program_IT:Data <- [DW_OP_LLVM_fragment 32 32] $r8
	@DEBUG_VALUE: HAL_FLASH_Program_IT:Data <- [DW_OP_LLVM_fragment 0 32] $r9
	.loc	4 644 9                         @ c:/Keil_v5\ARM\PACK\Keil\STM32L5xx_DFP\1.3.0\Drivers\STM32L5xx_HAL_Driver\Src\stm32l5xx_hal_flash.c:644:9
	ldr	r0, [r5]
.Ltmp100:
	.loc	4 644 7 is_stmt 0               @ c:/Keil_v5\ARM\PACK\Keil\STM32L5xx_DFP\1.3.0\Drivers\STM32L5xx_HAL_Driver\Src\stm32l5xx_hal_flash.c:644:7
	lsls	r0, r0, #31
	itt	ne
	movne	r0, #1
.Ltmp101:
	.loc	4 647 15 is_stmt 1              @ c:/Keil_v5\ARM\PACK\Keil\STM32L5xx_DFP\1.3.0\Drivers\STM32L5xx_HAL_Driver\Src\stm32l5xx_hal_flash.c:647:15
	strne	r0, [r5]
.Ltmp102:
	.loc	4 232 29                        @ c:/Keil_v5\ARM\PACK\Keil\STM32L5xx_DFP\1.3.0\Drivers\STM32L5xx_HAL_Driver\Src\stm32l5xx_hal_flash.c:232:29
	strd	r10, r6, [r4, #8]
	.loc	4 239 15                        @ c:/Keil_v5\ARM\PACK\Keil\STM32L5xx_DFP\1.3.0\Drivers\STM32L5xx_HAL_Driver\Src\stm32l5xx_hal_flash.c:239:15
	ldr	r0, [r5, #8]
	orr	r0, r0, #50331648
	str	r0, [r5, #8]
.Ltmp103:
	@DEBUG_VALUE: FLASH_Program_DoubleWord:Data <- [DW_OP_LLVM_fragment 32 32] $r8
	@DEBUG_VALUE: FLASH_Program_DoubleWord:Data <- [DW_OP_LLVM_fragment 0 32] $r9
	@DEBUG_VALUE: FLASH_Program_DoubleWord:Address <- $r6
	.loc	6 999 3                         @ c:/Keil_v5\ARM\PACK\ARM\CMSIS\5.8.0\CMSIS\Core\Include\cmsis_armclang.h:999:3
	@APP
	mrs	r0, primask
	@NO_APP
.Ltmp104:
	@DEBUG_VALUE: FLASH_Program_DoubleWord:primask_bit <- $r0
	@DEBUG_VALUE: __get_PRIMASK:result <- $r0
	.loc	6 752 3                         @ c:/Keil_v5\ARM\PACK\ARM\CMSIS\5.8.0\CMSIS\Core\Include\cmsis_armclang.h:752:3
	@APP
	cpsid i
	@NO_APP
.Ltmp105:
	.loc	4 675 3                         @ c:/Keil_v5\ARM\PACK\Keil\STM32L5xx_DFP\1.3.0\Drivers\STM32L5xx_HAL_Driver\Src\stm32l5xx_hal_flash.c:675:3
	ldr	r1, [r5, #8]
	orr	r1, r1, #1
	str	r1, [r5, #8]
	.loc	4 678 23                        @ c:/Keil_v5\ARM\PACK\Keil\STM32L5xx_DFP\1.3.0\Drivers\STM32L5xx_HAL_Driver\Src\stm32l5xx_hal_flash.c:678:23
	str.w	r9, [r6]
	.loc	4 682 3                         @ c:/Keil_v5\ARM\PACK\Keil\STM32L5xx_DFP\1.3.0\Drivers\STM32L5xx_HAL_Driver\Src\stm32l5xx_hal_flash.c:682:3
	isb	sy
	.loc	4 685 28                        @ c:/Keil_v5\ARM\PACK\Keil\STM32L5xx_DFP\1.3.0\Drivers\STM32L5xx_HAL_Driver\Src\stm32l5xx_hal_flash.c:685:28
	str.w	r8, [r6, #4]
.Ltmp106:
	@DEBUG_VALUE: __set_PRIMASK:priMask <- $r0
	.loc	6 1027 3                        @ c:/Keil_v5\ARM\PACK\ARM\CMSIS\5.8.0\CMSIS\Core\Include\cmsis_armclang.h:1027:3
	@APP
	msr	primask, r0
	@NO_APP
	movs	r0, #0
.Ltmp107:
	@DEBUG_VALUE: FLASH_Program_DoubleWord:reg <- undef
	@DEBUG_VALUE: HAL_FLASH_Program_IT:reg_cr <- undef
	.loc	4 246 1                         @ c:/Keil_v5\ARM\PACK\Keil\STM32L5xx_DFP\1.3.0\Drivers\STM32L5xx_HAL_Driver\Src\stm32l5xx_hal_flash.c:246:1
	pop.w	{r4, r5, r6, r7, r8, r9, r10, pc}
.Ltmp108:
.Lfunc_end2:
	.size	HAL_FLASH_Program_IT, .Lfunc_end2-HAL_FLASH_Program_IT
	.cfi_endproc
	.cantunwind
	.fnend
                                        @ -- End function
	.section	.text.HAL_FLASH_IRQHandler,"ax",%progbits
	.hidden	HAL_FLASH_IRQHandler            @ -- Begin function HAL_FLASH_IRQHandler
	.globl	HAL_FLASH_IRQHandler
	.p2align	2
	.type	HAL_FLASH_IRQHandler,%function
	.code	16                              @ @HAL_FLASH_IRQHandler
	.thumb_func
HAL_FLASH_IRQHandler:
.Lfunc_begin3:
	.loc	4 253 0                         @ c:/Keil_v5\ARM\PACK\Keil\STM32L5xx_DFP\1.3.0\Drivers\STM32L5xx_HAL_Driver\Src\stm32l5xx_hal_flash.c:253:0
	.fnstart
	.cfi_startproc
@ %bb.0:
	.save	{r4, r5, r6, r7, lr}
	push	{r4, r5, r6, r7, lr}
	.cfi_def_cfa_offset 20
	.cfi_offset lr, -4
	.cfi_offset r7, -8
	.cfi_offset r6, -12
	.cfi_offset r5, -16
	.cfi_offset r4, -20
	.pad	#4
	sub	sp, #4
	.cfi_def_cfa_offset 24
.Ltmp109:
	.loc	4 259 18 prologue_end           @ c:/Keil_v5\ARM\PACK\Keil\STM32L5xx_DFP\1.3.0\Drivers\STM32L5xx_HAL_Driver\Src\stm32l5xx_hal_flash.c:259:18
	movw	r5, :lower16:pFlash
	movt	r5, :upper16:pFlash
	ldr	r0, [r5, #8]
	movw	r6, #8224
	movt	r6, #16386
.Ltmp110:
	@DEBUG_VALUE: HAL_FLASH_IRQHandler:param <- 0
	.loc	4 259 35 is_stmt 0              @ c:/Keil_v5\ARM\PACK\Keil\STM32L5xx_DFP\1.3.0\Drivers\STM32L5xx_HAL_Driver\Src\stm32l5xx_hal_flash.c:259:35
	bic	r7, r0, #-2147483648
.Ltmp111:
	@DEBUG_VALUE: HAL_FLASH_IRQHandler:type <- $r7
	.loc	4 264 12 is_stmt 1              @ c:/Keil_v5\ARM\PACK\Keil\STM32L5xx_DFP\1.3.0\Drivers\STM32L5xx_HAL_Driver\Src\stm32l5xx_hal_flash.c:264:12
	ldr	r0, [r6]
	movw	r1, #8442
	.loc	4 270 6                         @ c:/Keil_v5\ARM\PACK\Keil\STM32L5xx_DFP\1.3.0\Drivers\STM32L5xx_HAL_Driver\Src\stm32l5xx_hal_flash.c:270:6
	cmp	r7, #2
.Ltmp112:
	@DEBUG_VALUE: HAL_FLASH_IRQHandler:reg_sr <- undef
	@DEBUG_VALUE: HAL_FLASH_IRQHandler:reg <- undef
	.loc	4 264 21                        @ c:/Keil_v5\ARM\PACK\Keil\STM32L5xx_DFP\1.3.0\Drivers\STM32L5xx_HAL_Driver\Src\stm32l5xx_hal_flash.c:264:21
	and.w	r0, r0, r1
.Ltmp113:
	@DEBUG_VALUE: HAL_FLASH_IRQHandler:error <- $r0
	.loc	4 270 6                         @ c:/Keil_v5\ARM\PACK\Keil\STM32L5xx_DFP\1.3.0\Drivers\STM32L5xx_HAL_Driver\Src\stm32l5xx_hal_flash.c:270:6
	bne	.LBB3_2
.Ltmp114:
@ %bb.1:
	@DEBUG_VALUE: HAL_FLASH_IRQHandler:type <- $r7
	@DEBUG_VALUE: HAL_FLASH_IRQHandler:error <- $r0
	@DEBUG_VALUE: HAL_FLASH_IRQHandler:param <- 0
	.loc	4 272 20                        @ c:/Keil_v5\ARM\PACK\Keil\STM32L5xx_DFP\1.3.0\Drivers\STM32L5xx_HAL_Driver\Src\stm32l5xx_hal_flash.c:272:20
	ldr	r4, [r5, #20]
.Ltmp115:
	@DEBUG_VALUE: HAL_FLASH_IRQHandler:param <- $r4
	.loc	4 0 20 is_stmt 0                @ c:/Keil_v5\ARM\PACK\Keil\STM32L5xx_DFP\1.3.0\Drivers\STM32L5xx_HAL_Driver\Src\stm32l5xx_hal_flash.c:0:20
	b	.LBB3_5
.Ltmp116:
	.p2align	2
.LBB3_2:
	@DEBUG_VALUE: HAL_FLASH_IRQHandler:type <- $r7
	@DEBUG_VALUE: HAL_FLASH_IRQHandler:error <- $r0
	@DEBUG_VALUE: HAL_FLASH_IRQHandler:param <- 0
	.loc	4 274 11 is_stmt 1              @ c:/Keil_v5\ARM\PACK\Keil\STM32L5xx_DFP\1.3.0\Drivers\STM32L5xx_HAL_Driver\Src\stm32l5xx_hal_flash.c:274:11
	cmp	r7, #1
	beq	.LBB3_4
.Ltmp117:
@ %bb.3:
	@DEBUG_VALUE: HAL_FLASH_IRQHandler:type <- $r7
	@DEBUG_VALUE: HAL_FLASH_IRQHandler:error <- $r0
	@DEBUG_VALUE: HAL_FLASH_IRQHandler:param <- 0
	.loc	4 0 11 is_stmt 0                @ c:/Keil_v5\ARM\PACK\Keil\STM32L5xx_DFP\1.3.0\Drivers\STM32L5xx_HAL_Driver\Src\stm32l5xx_hal_flash.c:0:11
	movw	r1, #32772
	.loc	4 274 11                        @ c:/Keil_v5\ARM\PACK\Keil\STM32L5xx_DFP\1.3.0\Drivers\STM32L5xx_HAL_Driver\Src\stm32l5xx_hal_flash.c:274:11
	cmp	r7, r1
.Ltmp118:
	.loc	4 276 20 is_stmt 1              @ c:/Keil_v5\ARM\PACK\Keil\STM32L5xx_DFP\1.3.0\Drivers\STM32L5xx_HAL_Driver\Src\stm32l5xx_hal_flash.c:276:20
	ite	eq
	ldreq	r4, [r5, #16]
	movne	r4, #0
	b	.LBB3_5
.Ltmp119:
	.p2align	2
.LBB3_4:
	@DEBUG_VALUE: HAL_FLASH_IRQHandler:type <- $r7
	@DEBUG_VALUE: HAL_FLASH_IRQHandler:error <- $r0
	@DEBUG_VALUE: HAL_FLASH_IRQHandler:param <- 0
	.loc	4 280 20                        @ c:/Keil_v5\ARM\PACK\Keil\STM32L5xx_DFP\1.3.0\Drivers\STM32L5xx_HAL_Driver\Src\stm32l5xx_hal_flash.c:280:20
	ldr	r4, [r5, #12]
.Ltmp120:
	@DEBUG_VALUE: HAL_FLASH_IRQHandler:param <- $r4
.LBB3_5:
	@DEBUG_VALUE: HAL_FLASH_IRQHandler:type <- $r7
	@DEBUG_VALUE: HAL_FLASH_IRQHandler:error <- $r0
	@DEBUG_VALUE: HAL_FLASH_IRQHandler:param <- $r4
	.loc	4 288 3                         @ c:/Keil_v5\ARM\PACK\Keil\STM32L5xx_DFP\1.3.0\Drivers\STM32L5xx_HAL_Driver\Src\stm32l5xx_hal_flash.c:288:3
	ldr	r1, [r6, #8]
	bic.w	r1, r1, r7
	str	r1, [r6, #8]
	.loc	4 291 6                         @ c:/Keil_v5\ARM\PACK\Keil\STM32L5xx_DFP\1.3.0\Drivers\STM32L5xx_HAL_Driver\Src\stm32l5xx_hal_flash.c:291:6
	cbz	r0, .LBB3_7
.Ltmp121:
@ %bb.6:
	@DEBUG_VALUE: HAL_FLASH_IRQHandler:type <- $r7
	@DEBUG_VALUE: HAL_FLASH_IRQHandler:param <- $r4
	@DEBUG_VALUE: HAL_FLASH_IRQHandler:error <- $r0
	.loc	4 294 22                        @ c:/Keil_v5\ARM\PACK\Keil\STM32L5xx_DFP\1.3.0\Drivers\STM32L5xx_HAL_Driver\Src\stm32l5xx_hal_flash.c:294:22
	ldr	r1, [r5, #4]
	orrs	r1, r0
	str	r1, [r5, #4]
	.loc	4 297 15                        @ c:/Keil_v5\ARM\PACK\Keil\STM32L5xx_DFP\1.3.0\Drivers\STM32L5xx_HAL_Driver\Src\stm32l5xx_hal_flash.c:297:15
	str	r0, [r6]
	movs	r0, #0
.Ltmp122:
	.loc	4 306 29                        @ c:/Keil_v5\ARM\PACK\Keil\STM32L5xx_DFP\1.3.0\Drivers\STM32L5xx_HAL_Driver\Src\stm32l5xx_hal_flash.c:306:29
	str	r0, [r5, #8]
	.loc	4 309 5                         @ c:/Keil_v5\ARM\PACK\Keil\STM32L5xx_DFP\1.3.0\Drivers\STM32L5xx_HAL_Driver\Src\stm32l5xx_hal_flash.c:309:5
	mov	r0, r4
	bl	HAL_FLASH_OperationErrorCallback
.Ltmp123:
.LBB3_7:
	@DEBUG_VALUE: HAL_FLASH_IRQHandler:type <- $r7
	@DEBUG_VALUE: HAL_FLASH_IRQHandler:param <- $r4
	.loc	4 313 9                         @ c:/Keil_v5\ARM\PACK\Keil\STM32L5xx_DFP\1.3.0\Drivers\STM32L5xx_HAL_Driver\Src\stm32l5xx_hal_flash.c:313:9
	ldr	r0, [r6]
.Ltmp124:
	.loc	4 313 7 is_stmt 0               @ c:/Keil_v5\ARM\PACK\Keil\STM32L5xx_DFP\1.3.0\Drivers\STM32L5xx_HAL_Driver\Src\stm32l5xx_hal_flash.c:313:7
	lsls	r0, r0, #31
	bne	.LBB3_10
.Ltmp125:
@ %bb.8:
	@DEBUG_VALUE: HAL_FLASH_IRQHandler:type <- $r7
	@DEBUG_VALUE: HAL_FLASH_IRQHandler:param <- $r4
	.loc	4 347 13 is_stmt 1              @ c:/Keil_v5\ARM\PACK\Keil\STM32L5xx_DFP\1.3.0\Drivers\STM32L5xx_HAL_Driver\Src\stm32l5xx_hal_flash.c:347:13
	ldr	r0, [r5, #8]
.Ltmp126:
	.loc	4 347 6 is_stmt 0               @ c:/Keil_v5\ARM\PACK\Keil\STM32L5xx_DFP\1.3.0\Drivers\STM32L5xx_HAL_Driver\Src\stm32l5xx_hal_flash.c:347:6
	cbz	r0, .LBB3_16
.Ltmp127:
.LBB3_9:
	@DEBUG_VALUE: HAL_FLASH_IRQHandler:type <- $r7
	@DEBUG_VALUE: HAL_FLASH_IRQHandler:param <- $r4
	.loc	4 355 1 is_stmt 1               @ c:/Keil_v5\ARM\PACK\Keil\STM32L5xx_DFP\1.3.0\Drivers\STM32L5xx_HAL_Driver\Src\stm32l5xx_hal_flash.c:355:1
	add	sp, #4
	pop	{r4, r5, r6, r7, pc}
.Ltmp128:
	.p2align	2
.LBB3_10:
	@DEBUG_VALUE: HAL_FLASH_IRQHandler:type <- $r7
	@DEBUG_VALUE: HAL_FLASH_IRQHandler:param <- $r4
	.loc	4 0 1 is_stmt 0                 @ c:/Keil_v5\ARM\PACK\Keil\STM32L5xx_DFP\1.3.0\Drivers\STM32L5xx_HAL_Driver\Src\stm32l5xx_hal_flash.c:0:1
	movs	r0, #1
.Ltmp129:
	.loc	4 318 8 is_stmt 1               @ c:/Keil_v5\ARM\PACK\Keil\STM32L5xx_DFP\1.3.0\Drivers\STM32L5xx_HAL_Driver\Src\stm32l5xx_hal_flash.c:318:8
	cmp	r7, #2
	.loc	4 316 15                        @ c:/Keil_v5\ARM\PACK\Keil\STM32L5xx_DFP\1.3.0\Drivers\STM32L5xx_HAL_Driver\Src\stm32l5xx_hal_flash.c:316:15
	str	r0, [r6]
	.loc	4 318 8                         @ c:/Keil_v5\ARM\PACK\Keil\STM32L5xx_DFP\1.3.0\Drivers\STM32L5xx_HAL_Driver\Src\stm32l5xx_hal_flash.c:318:8
	bne	.LBB3_13
.Ltmp130:
@ %bb.11:
	@DEBUG_VALUE: HAL_FLASH_IRQHandler:type <- $r7
	@DEBUG_VALUE: HAL_FLASH_IRQHandler:param <- $r4
	.loc	4 321 28                        @ c:/Keil_v5\ARM\PACK\Keil\STM32L5xx_DFP\1.3.0\Drivers\STM32L5xx_HAL_Driver\Src\stm32l5xx_hal_flash.c:321:28
	ldr	r0, [r5, #24]
	subs	r0, #1
	str	r0, [r5, #24]
	.loc	4 324 10                        @ c:/Keil_v5\ARM\PACK\Keil\STM32L5xx_DFP\1.3.0\Drivers\STM32L5xx_HAL_Driver\Src\stm32l5xx_hal_flash.c:324:10
	beq	.LBB3_14
.Ltmp131:
@ %bb.12:
	@DEBUG_VALUE: HAL_FLASH_IRQHandler:type <- $r7
	@DEBUG_VALUE: HAL_FLASH_IRQHandler:param <- $r4
	.loc	4 328 45                        @ c:/Keil_v5\ARM\PACK\Keil\STM32L5xx_DFP\1.3.0\Drivers\STM32L5xx_HAL_Driver\Src\stm32l5xx_hal_flash.c:328:45
	ldrd	r1, r0, [r5, #16]
	.loc	4 327 20                        @ c:/Keil_v5\ARM\PACK\Keil\STM32L5xx_DFP\1.3.0\Drivers\STM32L5xx_HAL_Driver\Src\stm32l5xx_hal_flash.c:327:20
	adds	r0, #1
	str	r0, [r5, #20]
	.loc	4 328 9                         @ c:/Keil_v5\ARM\PACK\Keil\STM32L5xx_DFP\1.3.0\Drivers\STM32L5xx_HAL_Driver\Src\stm32l5xx_hal_flash.c:328:9
	bl	FLASH_PageErase
	b	.LBB3_15
.Ltmp132:
	.p2align	2
.LBB3_13:
	@DEBUG_VALUE: HAL_FLASH_IRQHandler:type <- $r7
	@DEBUG_VALUE: HAL_FLASH_IRQHandler:param <- $r4
	.loc	4 0 9 is_stmt 0                 @ c:/Keil_v5\ARM\PACK\Keil\STM32L5xx_DFP\1.3.0\Drivers\STM32L5xx_HAL_Driver\Src\stm32l5xx_hal_flash.c:0:9
	movs	r0, #0
.Ltmp133:
	.loc	4 340 31 is_stmt 1              @ c:/Keil_v5\ARM\PACK\Keil\STM32L5xx_DFP\1.3.0\Drivers\STM32L5xx_HAL_Driver\Src\stm32l5xx_hal_flash.c:340:31
	str	r0, [r5, #8]
	b	.LBB3_15
.Ltmp134:
	.p2align	2
.LBB3_14:
	@DEBUG_VALUE: HAL_FLASH_IRQHandler:type <- $r7
	@DEBUG_VALUE: HAL_FLASH_IRQHandler:param <- $r4
	.loc	4 0 31 is_stmt 0                @ c:/Keil_v5\ARM\PACK\Keil\STM32L5xx_DFP\1.3.0\Drivers\STM32L5xx_HAL_Driver\Src\stm32l5xx_hal_flash.c:0:31
	movs	r0, #0
.Ltmp135:
	.loc	4 333 33 is_stmt 1              @ c:/Keil_v5\ARM\PACK\Keil\STM32L5xx_DFP\1.3.0\Drivers\STM32L5xx_HAL_Driver\Src\stm32l5xx_hal_flash.c:333:33
	str	r0, [r5, #8]
	mov.w	r4, #-1
.Ltmp136:
	@DEBUG_VALUE: HAL_FLASH_IRQHandler:param <- -1
.LBB3_15:
	@DEBUG_VALUE: HAL_FLASH_IRQHandler:type <- $r7
	@DEBUG_VALUE: HAL_FLASH_IRQHandler:param <- $r4
	.loc	4 344 5                         @ c:/Keil_v5\ARM\PACK\Keil\STM32L5xx_DFP\1.3.0\Drivers\STM32L5xx_HAL_Driver\Src\stm32l5xx_hal_flash.c:344:5
	mov	r0, r4
	bl	HAL_FLASH_EndOfOperationCallback
.Ltmp137:
	.loc	4 347 13                        @ c:/Keil_v5\ARM\PACK\Keil\STM32L5xx_DFP\1.3.0\Drivers\STM32L5xx_HAL_Driver\Src\stm32l5xx_hal_flash.c:347:13
	ldr	r0, [r5, #8]
.Ltmp138:
	.loc	4 347 6 is_stmt 0               @ c:/Keil_v5\ARM\PACK\Keil\STM32L5xx_DFP\1.3.0\Drivers\STM32L5xx_HAL_Driver\Src\stm32l5xx_hal_flash.c:347:6
	cmp	r0, #0
	bne	.LBB3_9
.Ltmp139:
.LBB3_16:
	@DEBUG_VALUE: HAL_FLASH_IRQHandler:type <- $r7
	@DEBUG_VALUE: HAL_FLASH_IRQHandler:param <- $r4
	.loc	4 350 12 is_stmt 1              @ c:/Keil_v5\ARM\PACK\Keil\STM32L5xx_DFP\1.3.0\Drivers\STM32L5xx_HAL_Driver\Src\stm32l5xx_hal_flash.c:350:12
	ldr	r0, [r6, #8]
	bic	r0, r0, #50331648
	str	r0, [r6, #8]
	movs	r0, #0
.Ltmp140:
	.loc	4 353 5                         @ c:/Keil_v5\ARM\PACK\Keil\STM32L5xx_DFP\1.3.0\Drivers\STM32L5xx_HAL_Driver\Src\stm32l5xx_hal_flash.c:353:5
	strb	r0, [r5]
.Ltmp141:
	.loc	4 355 1                         @ c:/Keil_v5\ARM\PACK\Keil\STM32L5xx_DFP\1.3.0\Drivers\STM32L5xx_HAL_Driver\Src\stm32l5xx_hal_flash.c:355:1
	add	sp, #4
	pop	{r4, r5, r6, r7, pc}
.Ltmp142:
.Lfunc_end3:
	.size	HAL_FLASH_IRQHandler, .Lfunc_end3-HAL_FLASH_IRQHandler
	.cfi_endproc
	.cantunwind
	.fnend
                                        @ -- End function
	.section	.text.HAL_FLASH_OperationErrorCallback,"ax",%progbits
	.hidden	HAL_FLASH_OperationErrorCallback @ -- Begin function HAL_FLASH_OperationErrorCallback
	.weak	HAL_FLASH_OperationErrorCallback
	.p2align	2
	.type	HAL_FLASH_OperationErrorCallback,%function
	.code	16                              @ @HAL_FLASH_OperationErrorCallback
	.thumb_func
HAL_FLASH_OperationErrorCallback:
.Lfunc_begin4:
	.loc	4 385 0                         @ c:/Keil_v5\ARM\PACK\Keil\STM32L5xx_DFP\1.3.0\Drivers\STM32L5xx_HAL_Driver\Src\stm32l5xx_hal_flash.c:385:0
	.fnstart
	.cfi_startproc
@ %bb.0:
	@DEBUG_VALUE: HAL_FLASH_OperationErrorCallback:ReturnValue <- $r0
	.loc	4 392 1 prologue_end            @ c:/Keil_v5\ARM\PACK\Keil\STM32L5xx_DFP\1.3.0\Drivers\STM32L5xx_HAL_Driver\Src\stm32l5xx_hal_flash.c:392:1
	bx	lr
.Ltmp143:
.Lfunc_end4:
	.size	HAL_FLASH_OperationErrorCallback, .Lfunc_end4-HAL_FLASH_OperationErrorCallback
	.cfi_endproc
	.cantunwind
	.fnend
                                        @ -- End function
	.section	.text.HAL_FLASH_EndOfOperationCallback,"ax",%progbits
	.hidden	HAL_FLASH_EndOfOperationCallback @ -- Begin function HAL_FLASH_EndOfOperationCallback
	.weak	HAL_FLASH_EndOfOperationCallback
	.p2align	2
	.type	HAL_FLASH_EndOfOperationCallback,%function
	.code	16                              @ @HAL_FLASH_EndOfOperationCallback
	.thumb_func
HAL_FLASH_EndOfOperationCallback:
.Lfunc_begin5:
	.loc	4 367 0                         @ c:/Keil_v5\ARM\PACK\Keil\STM32L5xx_DFP\1.3.0\Drivers\STM32L5xx_HAL_Driver\Src\stm32l5xx_hal_flash.c:367:0
	.fnstart
	.cfi_startproc
@ %bb.0:
	@DEBUG_VALUE: HAL_FLASH_EndOfOperationCallback:ReturnValue <- $r0
	.loc	4 374 1 prologue_end            @ c:/Keil_v5\ARM\PACK\Keil\STM32L5xx_DFP\1.3.0\Drivers\STM32L5xx_HAL_Driver\Src\stm32l5xx_hal_flash.c:374:1
	bx	lr
.Ltmp144:
.Lfunc_end5:
	.size	HAL_FLASH_EndOfOperationCallback, .Lfunc_end5-HAL_FLASH_EndOfOperationCallback
	.cfi_endproc
	.cantunwind
	.fnend
                                        @ -- End function
	.section	.text.HAL_FLASH_Unlock,"ax",%progbits
	.hidden	HAL_FLASH_Unlock                @ -- Begin function HAL_FLASH_Unlock
	.globl	HAL_FLASH_Unlock
	.p2align	2
	.type	HAL_FLASH_Unlock,%function
	.code	16                              @ @HAL_FLASH_Unlock
	.thumb_func
HAL_FLASH_Unlock:
.Lfunc_begin6:
	.loc	4 418 0                         @ c:/Keil_v5\ARM\PACK\Keil\STM32L5xx_DFP\1.3.0\Drivers\STM32L5xx_HAL_Driver\Src\stm32l5xx_hal_flash.c:418:0
	.fnstart
	.cfi_startproc
@ %bb.0:
	movw	r0, #8200
	movt	r0, #16386
.Ltmp145:
	@DEBUG_VALUE: HAL_FLASH_Unlock:status <- 0
	.loc	4 421 6 prologue_end            @ c:/Keil_v5\ARM\PACK\Keil\STM32L5xx_DFP\1.3.0\Drivers\STM32L5xx_HAL_Driver\Src\stm32l5xx_hal_flash.c:421:6
	ldr	r1, [r0, #32]
.Ltmp146:
	.loc	4 421 6 is_stmt 0               @ c:/Keil_v5\ARM\PACK\Keil\STM32L5xx_DFP\1.3.0\Drivers\STM32L5xx_HAL_Driver\Src\stm32l5xx_hal_flash.c:421:6
	cmp.w	r1, #-1
	@DEBUG_VALUE: HAL_FLASH_Unlock:status <- 0
	.loc	4 452 3 is_stmt 1               @ c:/Keil_v5\ARM\PACK\Keil\STM32L5xx_DFP\1.3.0\Drivers\STM32L5xx_HAL_Driver\Src\stm32l5xx_hal_flash.c:452:3
	itt	gt
	movgt	r0, #0
	bxgt	lr
.Ltmp147:
.LBB6_1:
	@DEBUG_VALUE: HAL_FLASH_Unlock:status <- 0
	.loc	4 0 3 is_stmt 0                 @ c:/Keil_v5\ARM\PACK\Keil\STM32L5xx_DFP\1.3.0\Drivers\STM32L5xx_HAL_Driver\Src\stm32l5xx_hal_flash.c:0:3
	movw	r1, #291
	movt	r1, #17767
.Ltmp148:
	.loc	4 424 5 is_stmt 1               @ c:/Keil_v5\ARM\PACK\Keil\STM32L5xx_DFP\1.3.0\Drivers\STM32L5xx_HAL_Driver\Src\stm32l5xx_hal_flash.c:424:5
	str	r1, [r0]
	movw	r1, #35243
	movt	r1, #52719
	.loc	4 425 5                         @ c:/Keil_v5\ARM\PACK\Keil\STM32L5xx_DFP\1.3.0\Drivers\STM32L5xx_HAL_Driver\Src\stm32l5xx_hal_flash.c:425:5
	str	r1, [r0]
.Ltmp149:
	.loc	4 428 9                         @ c:/Keil_v5\ARM\PACK\Keil\STM32L5xx_DFP\1.3.0\Drivers\STM32L5xx_HAL_Driver\Src\stm32l5xx_hal_flash.c:428:9
	ldr	r0, [r0, #32]
.Ltmp150:
	.loc	4 428 9 is_stmt 0               @ c:/Keil_v5\ARM\PACK\Keil\STM32L5xx_DFP\1.3.0\Drivers\STM32L5xx_HAL_Driver\Src\stm32l5xx_hal_flash.c:428:9
	lsrs	r0, r0, #31
	bx	lr
.Ltmp151:
.Lfunc_end6:
	.size	HAL_FLASH_Unlock, .Lfunc_end6-HAL_FLASH_Unlock
	.cfi_endproc
	.cantunwind
	.fnend
                                        @ -- End function
	.section	.text.HAL_FLASH_Lock,"ax",%progbits
	.hidden	HAL_FLASH_Lock                  @ -- Begin function HAL_FLASH_Lock
	.globl	HAL_FLASH_Lock
	.p2align	2
	.type	HAL_FLASH_Lock,%function
	.code	16                              @ @HAL_FLASH_Lock
	.thumb_func
HAL_FLASH_Lock:
.Lfunc_begin7:
	.loc	4 460 0 is_stmt 1               @ c:/Keil_v5\ARM\PACK\Keil\STM32L5xx_DFP\1.3.0\Drivers\STM32L5xx_HAL_Driver\Src\stm32l5xx_hal_flash.c:460:0
	.fnstart
	.cfi_startproc
@ %bb.0:
	movw	r0, #8232
	movt	r0, #16386
.Ltmp152:
	@DEBUG_VALUE: HAL_FLASH_Lock:status <- 1
	.loc	4 464 3 prologue_end            @ c:/Keil_v5\ARM\PACK\Keil\STM32L5xx_DFP\1.3.0\Drivers\STM32L5xx_HAL_Driver\Src\stm32l5xx_hal_flash.c:464:3
	ldr	r1, [r0]
	orr	r1, r1, #-2147483648
	str	r1, [r0]
.Ltmp153:
	.loc	4 467 7                         @ c:/Keil_v5\ARM\PACK\Keil\STM32L5xx_DFP\1.3.0\Drivers\STM32L5xx_HAL_Driver\Src\stm32l5xx_hal_flash.c:467:7
	ldr	r0, [r0]
.Ltmp154:
	.loc	4 467 7 is_stmt 0               @ c:/Keil_v5\ARM\PACK\Keil\STM32L5xx_DFP\1.3.0\Drivers\STM32L5xx_HAL_Driver\Src\stm32l5xx_hal_flash.c:467:7
	mvns	r0, r0
	lsrs	r0, r0, #31
.Ltmp155:
	@DEBUG_VALUE: HAL_FLASH_Lock:status <- $r0
	.loc	4 485 3 is_stmt 1               @ c:/Keil_v5\ARM\PACK\Keil\STM32L5xx_DFP\1.3.0\Drivers\STM32L5xx_HAL_Driver\Src\stm32l5xx_hal_flash.c:485:3
	bx	lr
.Ltmp156:
.Lfunc_end7:
	.size	HAL_FLASH_Lock, .Lfunc_end7-HAL_FLASH_Lock
	.cfi_endproc
	.cantunwind
	.fnend
                                        @ -- End function
	.section	.text.HAL_FLASH_OB_Unlock,"ax",%progbits
	.hidden	HAL_FLASH_OB_Unlock             @ -- Begin function HAL_FLASH_OB_Unlock
	.globl	HAL_FLASH_OB_Unlock
	.p2align	2
	.type	HAL_FLASH_OB_Unlock,%function
	.code	16                              @ @HAL_FLASH_OB_Unlock
	.thumb_func
HAL_FLASH_OB_Unlock:
.Lfunc_begin8:
	.loc	4 493 0                         @ c:/Keil_v5\ARM\PACK\Keil\STM32L5xx_DFP\1.3.0\Drivers\STM32L5xx_HAL_Driver\Src\stm32l5xx_hal_flash.c:493:0
	.fnstart
	.cfi_startproc
@ %bb.0:
	movw	r0, #8208
	movt	r0, #16386
.Ltmp157:
	.loc	4 494 6 prologue_end            @ c:/Keil_v5\ARM\PACK\Keil\STM32L5xx_DFP\1.3.0\Drivers\STM32L5xx_HAL_Driver\Src\stm32l5xx_hal_flash.c:494:6
	ldr	r1, [r0, #24]
.Ltmp158:
	.loc	4 494 6 is_stmt 0               @ c:/Keil_v5\ARM\PACK\Keil\STM32L5xx_DFP\1.3.0\Drivers\STM32L5xx_HAL_Driver\Src\stm32l5xx_hal_flash.c:494:6
	lsls	r1, r1, #1
	bpl	.LBB8_2
@ %bb.1:
	.loc	4 0 6                           @ c:/Keil_v5\ARM\PACK\Keil\STM32L5xx_DFP\1.3.0\Drivers\STM32L5xx_HAL_Driver\Src\stm32l5xx_hal_flash.c:0:6
	movw	r1, #10811
	movt	r1, #2073
.Ltmp159:
	.loc	4 497 5 is_stmt 1               @ c:/Keil_v5\ARM\PACK\Keil\STM32L5xx_DFP\1.3.0\Drivers\STM32L5xx_HAL_Driver\Src\stm32l5xx_hal_flash.c:497:5
	str	r1, [r0]
	movw	r1, #28287
	movt	r1, #19549
	.loc	4 498 5                         @ c:/Keil_v5\ARM\PACK\Keil\STM32L5xx_DFP\1.3.0\Drivers\STM32L5xx_HAL_Driver\Src\stm32l5xx_hal_flash.c:498:5
	str	r1, [r0]
.Ltmp160:
	.loc	4 501 9                         @ c:/Keil_v5\ARM\PACK\Keil\STM32L5xx_DFP\1.3.0\Drivers\STM32L5xx_HAL_Driver\Src\stm32l5xx_hal_flash.c:501:9
	ldr	r0, [r0, #24]
.Ltmp161:
	.loc	4 501 9 is_stmt 0               @ c:/Keil_v5\ARM\PACK\Keil\STM32L5xx_DFP\1.3.0\Drivers\STM32L5xx_HAL_Driver\Src\stm32l5xx_hal_flash.c:501:9
	lsls	r0, r0, #1
	itt	mi
	movmi	r0, #1
.Ltmp162:
	.loc	4 508 1 is_stmt 1               @ c:/Keil_v5\ARM\PACK\Keil\STM32L5xx_DFP\1.3.0\Drivers\STM32L5xx_HAL_Driver\Src\stm32l5xx_hal_flash.c:508:1
	bxmi	lr
.LBB8_2:
	.loc	4 0 1 is_stmt 0                 @ c:/Keil_v5\ARM\PACK\Keil\STM32L5xx_DFP\1.3.0\Drivers\STM32L5xx_HAL_Driver\Src\stm32l5xx_hal_flash.c:0:1
	movs	r0, #0
	.loc	4 508 1                         @ c:/Keil_v5\ARM\PACK\Keil\STM32L5xx_DFP\1.3.0\Drivers\STM32L5xx_HAL_Driver\Src\stm32l5xx_hal_flash.c:508:1
	bx	lr
.Ltmp163:
.Lfunc_end8:
	.size	HAL_FLASH_OB_Unlock, .Lfunc_end8-HAL_FLASH_OB_Unlock
	.cfi_endproc
	.cantunwind
	.fnend
                                        @ -- End function
	.section	.text.HAL_FLASH_OB_Lock,"ax",%progbits
	.hidden	HAL_FLASH_OB_Lock               @ -- Begin function HAL_FLASH_OB_Lock
	.globl	HAL_FLASH_OB_Lock
	.p2align	2
	.type	HAL_FLASH_OB_Lock,%function
	.code	16                              @ @HAL_FLASH_OB_Lock
	.thumb_func
HAL_FLASH_OB_Lock:
.Lfunc_begin9:
	.loc	4 515 0 is_stmt 1               @ c:/Keil_v5\ARM\PACK\Keil\STM32L5xx_DFP\1.3.0\Drivers\STM32L5xx_HAL_Driver\Src\stm32l5xx_hal_flash.c:515:0
	.fnstart
	.cfi_startproc
@ %bb.0:
	movw	r0, #8232
	movt	r0, #16386
.Ltmp164:
	.loc	4 517 3 prologue_end            @ c:/Keil_v5\ARM\PACK\Keil\STM32L5xx_DFP\1.3.0\Drivers\STM32L5xx_HAL_Driver\Src\stm32l5xx_hal_flash.c:517:3
	ldr	r1, [r0]
	orr	r1, r1, #1073741824
	str	r1, [r0]
.Ltmp165:
	.loc	4 520 7                         @ c:/Keil_v5\ARM\PACK\Keil\STM32L5xx_DFP\1.3.0\Drivers\STM32L5xx_HAL_Driver\Src\stm32l5xx_hal_flash.c:520:7
	ldr	r0, [r0]
	movs	r1, #1
.Ltmp166:
	.loc	4 520 7 is_stmt 0               @ c:/Keil_v5\ARM\PACK\Keil\STM32L5xx_DFP\1.3.0\Drivers\STM32L5xx_HAL_Driver\Src\stm32l5xx_hal_flash.c:520:7
	bic.w	r0, r1, r0, lsr #30
	.loc	4 526 1 is_stmt 1               @ c:/Keil_v5\ARM\PACK\Keil\STM32L5xx_DFP\1.3.0\Drivers\STM32L5xx_HAL_Driver\Src\stm32l5xx_hal_flash.c:526:1
	bx	lr
.Ltmp167:
.Lfunc_end9:
	.size	HAL_FLASH_OB_Lock, .Lfunc_end9-HAL_FLASH_OB_Lock
	.cfi_endproc
	.cantunwind
	.fnend
                                        @ -- End function
	.section	.text.HAL_FLASH_OB_Launch,"ax",%progbits
	.hidden	HAL_FLASH_OB_Launch             @ -- Begin function HAL_FLASH_OB_Launch
	.globl	HAL_FLASH_OB_Launch
	.p2align	2
	.type	HAL_FLASH_OB_Launch,%function
	.code	16                              @ @HAL_FLASH_OB_Launch
	.thumb_func
HAL_FLASH_OB_Launch:
.Lfunc_begin10:
	.loc	4 533 0                         @ c:/Keil_v5\ARM\PACK\Keil\STM32L5xx_DFP\1.3.0\Drivers\STM32L5xx_HAL_Driver\Src\stm32l5xx_hal_flash.c:533:0
	.fnstart
	.cfi_startproc
@ %bb.0:
	movw	r1, #8232
	movt	r1, #16386
.Ltmp168:
	.loc	4 535 3 prologue_end            @ c:/Keil_v5\ARM\PACK\Keil\STM32L5xx_DFP\1.3.0\Drivers\STM32L5xx_HAL_Driver\Src\stm32l5xx_hal_flash.c:535:3
	ldr	r0, [r1]
	orr	r2, r0, #134217728
	.loc	4 539 3                         @ c:/Keil_v5\ARM\PACK\Keil\STM32L5xx_DFP\1.3.0\Drivers\STM32L5xx_HAL_Driver\Src\stm32l5xx_hal_flash.c:539:3
	movs	r0, #1
	.loc	4 535 3                         @ c:/Keil_v5\ARM\PACK\Keil\STM32L5xx_DFP\1.3.0\Drivers\STM32L5xx_HAL_Driver\Src\stm32l5xx_hal_flash.c:535:3
	str	r2, [r1]
	.loc	4 539 3                         @ c:/Keil_v5\ARM\PACK\Keil\STM32L5xx_DFP\1.3.0\Drivers\STM32L5xx_HAL_Driver\Src\stm32l5xx_hal_flash.c:539:3
	bx	lr
.Ltmp169:
.Lfunc_end10:
	.size	HAL_FLASH_OB_Launch, .Lfunc_end10-HAL_FLASH_OB_Launch
	.cfi_endproc
	.cantunwind
	.fnend
                                        @ -- End function
	.section	.text.HAL_FLASH_GetError,"ax",%progbits
	.hidden	HAL_FLASH_GetError              @ -- Begin function HAL_FLASH_GetError
	.globl	HAL_FLASH_GetError
	.p2align	2
	.type	HAL_FLASH_GetError,%function
	.code	16                              @ @HAL_FLASH_GetError
	.thumb_func
HAL_FLASH_GetError:
.Lfunc_begin11:
	.loc	4 573 0                         @ c:/Keil_v5\ARM\PACK\Keil\STM32L5xx_DFP\1.3.0\Drivers\STM32L5xx_HAL_Driver\Src\stm32l5xx_hal_flash.c:573:0
	.fnstart
	.cfi_startproc
@ %bb.0:
	.loc	4 574 18 prologue_end           @ c:/Keil_v5\ARM\PACK\Keil\STM32L5xx_DFP\1.3.0\Drivers\STM32L5xx_HAL_Driver\Src\stm32l5xx_hal_flash.c:574:18
	movw	r0, :lower16:pFlash
	movt	r0, :upper16:pFlash
	ldr	r0, [r0, #4]
	.loc	4 574 4 is_stmt 0               @ c:/Keil_v5\ARM\PACK\Keil\STM32L5xx_DFP\1.3.0\Drivers\STM32L5xx_HAL_Driver\Src\stm32l5xx_hal_flash.c:574:4
	bx	lr
.Ltmp170:
.Lfunc_end11:
	.size	HAL_FLASH_GetError, .Lfunc_end11-HAL_FLASH_GetError
	.cfi_endproc
	.cantunwind
	.fnend
                                        @ -- End function
	.hidden	pFlash                          @ @pFlash
	.type	pFlash,%object
	.section	.data.pFlash,"aw",%progbits
	.globl	pFlash
	.p2align	2
pFlash:
	.byte	0                               @ 0x0
	.zero	3
	.long	0                               @ 0x0
	.long	0                               @ 0x0
	.long	0                               @ 0x0
	.long	1                               @ 0x1
	.long	0                               @ 0x0
	.long	0                               @ 0x0
	.size	pFlash, 28

	.section	".note.GNU-stack","",%progbits
	.eabi_attribute	30, 2	@ Tag_ABI_optimization_goals
	.ARM_attribute	16, 1	@ Tag_AV_eba