	.text
	.syntax unified
	.eabi_attribute	67, "2.09"	@ Tag_conformance
	.cpu	cortex-m33
	.eabi_attribute	6, 17	@ Tag_CPU_arch
	.eabi_attribute	7, 77	@ Tag_CPU_arch_profile
	.eabi_attribute	8, 0	@ Tag_ARM_ISA_use
	.eabi_attribute	9, 3	@ Tag_THUMB_ISA_use
	.fpu	fpv5-sp-d16
	.eabi_attribute	27, 1	@ Tag_ABI_HardFP_use
	.eabi_attribute	36, 1	@ Tag_FP_HP_extension
	.eabi_attribute	46, 1	@ Tag_DSP_extension
	.eabi_attribute	34, 1	@ Tag_CPU_unaligned_access
	.eabi_attribute	17, 1	@ Tag_ABI_PCS_GOT_use
	.eabi_attribute	20, 2	@ Tag_ABI_FP_denormal
	.eabi_attribute	21, 0	@ Tag_ABI_FP_exceptions
	.eabi_attribute	23, 1	@ Tag_ABI_FP_number_model
	.eabi_attribute	24, 1	@ Tag_ABI_align_needed
	.eabi_attribute	25, 1	@ Tag_ABI_align_preserved
	.eabi_attribute	28, 1	@ Tag_ABI_VFP_args
	.eabi_attribute	38, 1	@ Tag_ABI_FP_16bit_format
	.eabi_attribute	18, 2	@ Tag_ABI_PCS_wchar_t
	.eabi_attribute	26, 1	@ Tag_ABI_enum_size
	.eabi_attribute	14, 0	@ Tag_ABI_PCS_R9_use
	.file	"stm32l5xx_hal_dma.c"
	.file	1 "c:/Keil_v5\\ARM\\PACK\\Keil\\STM32L5xx_DFP\\1.3.0\\Drivers\\STM32L5xx_HAL_Driver\\Inc" "stm32l5xx_hal_def.h"
	.file	2 "c:/Keil_v5\\ARM\\PACK\\Keil\\STM32L5xx_DFP\\1.3.0\\Drivers\\STM32L5xx_HAL_Driver\\Inc" "stm32l5xx_hal_dma.h"
	.file	3 "c:\\Keil_v5\\ARM\\ARMCLANG\\Bin\\..\\include" "stdint.h"
	.file	4 "c:/Keil_v5\\ARM\\PACK\\Keil\\STM32L5xx_DFP\\1.3.0\\Drivers\\CMSIS\\Device\\ST\\STM32L5xx\\Include" "stm32l552xx.h"
	.section	.text.HAL_DMA_Init,"ax",%progbits
	.hidden	HAL_DMA_Init                    @ -- Begin function HAL_DMA_Init
	.globl	HAL_DMA_Init
	.p2align	2
	.type	HAL_DMA_Init,%function
	.code	16                              @ @HAL_DMA_Init
	.thumb_func
HAL_DMA_Init:
.Lfunc_begin0:
	.file	5 "c:/Keil_v5\\ARM\\PACK\\Keil\\STM32L5xx_DFP\\1.3.0\\Drivers\\STM32L5xx_HAL_Driver\\Src" "stm32l5xx_hal_dma.c"
	.loc	5 151 0                         @ c:/Keil_v5\ARM\PACK\Keil\STM32L5xx_DFP\1.3.0\Drivers\STM32L5xx_HAL_Driver\Src\stm32l5xx_hal_dma.c:151:0
	.fnstart
	.cfi_sections .debug_frame
	.cfi_startproc
@ %bb.0:
	@DEBUG_VALUE: HAL_DMA_Init:hdma <- $r0
	@DEBUG_VALUE: HAL_DMA_Init:hdma <- $r0
	.loc	5 155 6 prologue_end            @ c:/Keil_v5\ARM\PACK\Keil\STM32L5xx_DFP\1.3.0\Drivers\STM32L5xx_HAL_Driver\Src\stm32l5xx_hal_dma.c:155:6
	cmp	r0, #0
	mov.w	r1, #1
	beq.w	.LBB0_7
.Ltmp0:
@ %bb.1:
	@DEBUG_VALUE: HAL_DMA_Init:hdma <- $r0
	.save	{r4, r5, r6, r7, r8, lr}
	push.w	{r4, r5, r6, r7, r8, lr}
	.cfi_def_cfa_offset 24
	.cfi_offset lr, -4
	.cfi_offset r8, -8
	.cfi_offset r7, -12
	.cfi_offset r6, -16
	.cfi_offset r5, -20
	.cfi_offset r4, -24
	movw	lr, #0
	movt	lr, #16386
.Ltmp1:
	.loc	5 173 24                        @ c:/Keil_v5\ARM\PACK\Keil\STM32L5xx_DFP\1.3.0\Drivers\STM32L5xx_HAL_Driver\Src\stm32l5xx_hal_dma.c:173:24
	ldr	r2, [r0]
	movw	r4, #64504
	.loc	5 173 34 is_stmt 0              @ c:/Keil_v5\ARM\PACK\Keil\STM32L5xx_DFP\1.3.0\Drivers\STM32L5xx_HAL_Driver\Src\stm32l5xx_hal_dma.c:173:34
	add.w	r3, lr, #1032
	movt	r4, #49149
	movw	r8, #52429
.Ltmp2:
	.loc	5 199 22 is_stmt 1              @ c:/Keil_v5\ARM\PACK\Keil\STM32L5xx_DFP\1.3.0\Drivers\STM32L5xx_HAL_Driver\Src\stm32l5xx_hal_dma.c:199:22
	ldrd	r12, r6, [r0, #8]
	.loc	5 200 55                        @ c:/Keil_v5\ARM\PACK\Keil\STM32L5xx_DFP\1.3.0\Drivers\STM32L5xx_HAL_Driver\Src\stm32l5xx_hal_dma.c:200:55
	ldr	r7, [r0, #16]
	.loc	5 173 7                         @ c:/Keil_v5\ARM\PACK\Keil\STM32L5xx_DFP\1.3.0\Drivers\STM32L5xx_HAL_Driver\Src\stm32l5xx_hal_dma.c:173:7
	cmp	r2, r3
	it	lo
	addlo.w	r4, r4, #1024
	add.w	r5, r4, r2
	movt	r8, #52428
.Ltmp3:
	.loc	5 0 0 is_stmt 0                 @ c:/Keil_v5\ARM\PACK\Keil\STM32L5xx_DFP\1.3.0\Drivers\STM32L5xx_HAL_Driver\Src\stm32l5xx_hal_dma.c:0:0
	umull	r5, r4, r5, r8
	mvn	r5, #3
	and.w	r5, r5, r4, lsr #2
.Ltmp4:
	.loc	5 173 7                         @ c:/Keil_v5\ARM\PACK\Keil\STM32L5xx_DFP\1.3.0\Drivers\STM32L5xx_HAL_Driver\Src\stm32l5xx_hal_dma.c:173:7
	add.w	r4, lr, #1024
	itt	lo
	movlo	r4, #0
	movtlo	r4, #16386
.Ltmp5:
	.loc	5 177 26 is_stmt 1              @ c:/Keil_v5\ARM\PACK\Keil\STM32L5xx_DFP\1.3.0\Drivers\STM32L5xx_HAL_Driver\Src\stm32l5xx_hal_dma.c:177:26
	strd	r4, r5, [r0, #72]
	movs	r4, #2
.Ltmp6:
	.loc	5 187 15                        @ c:/Keil_v5\ARM\PACK\Keil\STM32L5xx_DFP\1.3.0\Drivers\STM32L5xx_HAL_Driver\Src\stm32l5xx_hal_dma.c:187:15
	strb.w	r4, [r0, #37]
	.loc	5 190 25                        @ c:/Keil_v5\ARM\PACK\Keil\STM32L5xx_DFP\1.3.0\Drivers\STM32L5xx_HAL_Driver\Src\stm32l5xx_hal_dma.c:190:25
	ldr	r4, [r2]
.Ltmp7:
	@DEBUG_VALUE: HAL_DMA_Init:tmp <- $r4
	.loc	5 1317 7                        @ c:/Keil_v5\ARM\PACK\Keil\STM32L5xx_DFP\1.3.0\Drivers\STM32L5xx_HAL_Driver\Src\stm32l5xx_hal_dma.c:1317:7
	cmp	r2, r3
.Ltmp8:
	.loc	5 193 7                         @ c:/Keil_v5\ARM\PACK\Keil\STM32L5xx_DFP\1.3.0\Drivers\STM32L5xx_HAL_Driver\Src\stm32l5xx_hal_dma.c:193:7
	bfc	r4, #4, #13
.Ltmp9:
	@DEBUG_VALUE: HAL_DMA_Init:tmp <- $r4
	.loc	5 199 39                        @ c:/Keil_v5\ARM\PACK\Keil\STM32L5xx_DFP\1.3.0\Drivers\STM32L5xx_HAL_Driver\Src\stm32l5xx_hal_dma.c:199:39
	orr.w	r4, r4, r12
.Ltmp10:
	.loc	5 200 42                        @ c:/Keil_v5\ARM\PACK\Keil\STM32L5xx_DFP\1.3.0\Drivers\STM32L5xx_HAL_Driver\Src\stm32l5xx_hal_dma.c:200:42
	orr.w	r4, r4, r6
	.loc	5 201 22                        @ c:/Keil_v5\ARM\PACK\Keil\STM32L5xx_DFP\1.3.0\Drivers\STM32L5xx_HAL_Driver\Src\stm32l5xx_hal_dma.c:201:22
	ldr	r6, [r0, #20]
	.loc	5 200 72                        @ c:/Keil_v5\ARM\PACK\Keil\STM32L5xx_DFP\1.3.0\Drivers\STM32L5xx_HAL_Driver\Src\stm32l5xx_hal_dma.c:200:72
	orr.w	r4, r4, r7
	.loc	5 201 55                        @ c:/Keil_v5\ARM\PACK\Keil\STM32L5xx_DFP\1.3.0\Drivers\STM32L5xx_HAL_Driver\Src\stm32l5xx_hal_dma.c:201:55
	ldr	r7, [r0, #24]
	.loc	5 201 42 is_stmt 0              @ c:/Keil_v5\ARM\PACK\Keil\STM32L5xx_DFP\1.3.0\Drivers\STM32L5xx_HAL_Driver\Src\stm32l5xx_hal_dma.c:201:42
	orr.w	r4, r4, r6
	.loc	5 202 22 is_stmt 1              @ c:/Keil_v5\ARM\PACK\Keil\STM32L5xx_DFP\1.3.0\Drivers\STM32L5xx_HAL_Driver\Src\stm32l5xx_hal_dma.c:202:22
	ldr	r6, [r0, #28]
	.loc	5 201 72                        @ c:/Keil_v5\ARM\PACK\Keil\STM32L5xx_DFP\1.3.0\Drivers\STM32L5xx_HAL_Driver\Src\stm32l5xx_hal_dma.c:201:72
	orr.w	r4, r4, r7
	.loc	5 202 55                        @ c:/Keil_v5\ARM\PACK\Keil\STM32L5xx_DFP\1.3.0\Drivers\STM32L5xx_HAL_Driver\Src\stm32l5xx_hal_dma.c:202:55
	ldr	r7, [r0, #32]
	.loc	5 202 42 is_stmt 0              @ c:/Keil_v5\ARM\PACK\Keil\STM32L5xx_DFP\1.3.0\Drivers\STM32L5xx_HAL_Driver\Src\stm32l5xx_hal_dma.c:202:42
	orr.w	r4, r4, r6
	.loc	5 199 7 is_stmt 1               @ c:/Keil_v5\ARM\PACK\Keil\STM32L5xx_DFP\1.3.0\Drivers\STM32L5xx_HAL_Driver\Src\stm32l5xx_hal_dma.c:199:7
	orr.w	r4, r4, r7
.Ltmp11:
	@DEBUG_VALUE: HAL_DMA_Init:tmp <- $r4
	.loc	5 0 7 is_stmt 0                 @ c:/Keil_v5\ARM\PACK\Keil\STM32L5xx_DFP\1.3.0\Drivers\STM32L5xx_HAL_Driver\Src\stm32l5xx_hal_dma.c:0:7
	mvn	r3, #7
	.loc	5 205 23 is_stmt 1              @ c:/Keil_v5\ARM\PACK\Keil\STM32L5xx_DFP\1.3.0\Drivers\STM32L5xx_HAL_Driver\Src\stm32l5xx_hal_dma.c:205:23
	str	r4, [r2]
.Ltmp12:
	@DEBUG_VALUE: DMA_CalcDMAMUXChannelBaseAndMask:hdma <- $r0
	.loc	5 1328 56                       @ c:/Keil_v5\ARM\PACK\Keil\STM32L5xx_DFP\1.3.0\Drivers\STM32L5xx_HAL_Driver\Src\stm32l5xx_hal_dma.c:1328:56
	uxtab	r2, r3, r2
	.loc	5 1317 7                        @ c:/Keil_v5\ARM\PACK\Keil\STM32L5xx_DFP\1.3.0\Drivers\STM32L5xx_HAL_Driver\Src\stm32l5xx_hal_dma.c:1317:7
	add.w	r3, lr, #2080
	.loc	5 1328 62                       @ c:/Keil_v5\ARM\PACK\Keil\STM32L5xx_DFP\1.3.0\Drivers\STM32L5xx_HAL_Driver\Src\stm32l5xx_hal_dma.c:1328:62
	umull	r2, r4, r2, r8
.Ltmp13:
	@DEBUG_VALUE: DMA_CalcDMAMUXChannelBaseAndMask:channel_number <- undef
	.loc	5 1317 7                        @ c:/Keil_v5\ARM\PACK\Keil\STM32L5xx_DFP\1.3.0\Drivers\STM32L5xx_HAL_Driver\Src\stm32l5xx_hal_dma.c:1317:7
	it	lo
	addlo.w	r3, lr, #2048
	.loc	5 1329 29                       @ c:/Keil_v5\ARM\PACK\Keil\STM32L5xx_DFP\1.3.0\Drivers\STM32L5xx_HAL_Driver\Src\stm32l5xx_hal_dma.c:1329:29
	add.w	r2, lr, #2176
	.loc	5 1330 58                       @ c:/Keil_v5\ARM\PACK\Keil\STM32L5xx_DFP\1.3.0\Drivers\STM32L5xx_HAL_Driver\Src\stm32l5xx_hal_dma.c:1330:58
	ubfx	r7, r4, #4, #5
	.loc	5 1329 29                       @ c:/Keil_v5\ARM\PACK\Keil\STM32L5xx_DFP\1.3.0\Drivers\STM32L5xx_HAL_Driver\Src\stm32l5xx_hal_dma.c:1329:29
	str	r2, [r0, #84]
	movw	r2, #2180
.Ltmp14:
	.loc	5 0 0 is_stmt 0                 @ c:/Keil_v5\ARM\PACK\Keil\STM32L5xx_DFP\1.3.0\Drivers\STM32L5xx_HAL_Driver\Src\stm32l5xx_hal_dma.c:0:0
	add	r3, r5
.Ltmp15:
	.loc	5 1330 39 is_stmt 1             @ c:/Keil_v5\ARM\PACK\Keil\STM32L5xx_DFP\1.3.0\Drivers\STM32L5xx_HAL_Driver\Src\stm32l5xx_hal_dma.c:1330:39
	lsl.w	r5, r1, r7
.Ltmp16:
	.loc	5 212 6                         @ c:/Keil_v5\ARM\PACK\Keil\STM32L5xx_DFP\1.3.0\Drivers\STM32L5xx_HAL_Driver\Src\stm32l5xx_hal_dma.c:212:6
	cmp.w	r12, #16384
	movt	r2, #16386
.Ltmp17:
	.loc	5 1320 25                       @ c:/Keil_v5\ARM\PACK\Keil\STM32L5xx_DFP\1.3.0\Drivers\STM32L5xx_HAL_Driver\Src\stm32l5xx_hal_dma.c:1320:25
	str	r3, [r0, #80]
.Ltmp18:
	.loc	5 1330 33                       @ c:/Keil_v5\ARM\PACK\Keil\STM32L5xx_DFP\1.3.0\Drivers\STM32L5xx_HAL_Driver\Src\stm32l5xx_hal_dma.c:1330:33
	str	r5, [r0, #88]
.Ltmp19:
	@DEBUG_VALUE: DMA_CalcDMAMUXChannelBaseAndMask:hdma <- $r0
	.loc	5 212 6                         @ c:/Keil_v5\ARM\PACK\Keil\STM32L5xx_DFP\1.3.0\Drivers\STM32L5xx_HAL_Driver\Src\stm32l5xx_hal_dma.c:212:6
	bne	.LBB0_3
.Ltmp20:
@ %bb.2:
	@DEBUG_VALUE: HAL_DMA_Init:hdma <- $r0
	.loc	5 0 6 is_stmt 0                 @ c:/Keil_v5\ARM\PACK\Keil\STM32L5xx_DFP\1.3.0\Drivers\STM32L5xx_HAL_Driver\Src\stm32l5xx_hal_dma.c:0:6
	movs	r1, #0
.Ltmp21:
	.loc	5 215 24 is_stmt 1              @ c:/Keil_v5\ARM\PACK\Keil\STM32L5xx_DFP\1.3.0\Drivers\STM32L5xx_HAL_Driver\Src\stm32l5xx_hal_dma.c:215:24
	str	r1, [r0, #4]
.Ltmp22:
	.loc	5 219 28                        @ c:/Keil_v5\ARM\PACK\Keil\STM32L5xx_DFP\1.3.0\Drivers\STM32L5xx_HAL_Driver\Src\stm32l5xx_hal_dma.c:219:28
	str	r1, [r3]
	.loc	5 222 34                        @ c:/Keil_v5\ARM\PACK\Keil\STM32L5xx_DFP\1.3.0\Drivers\STM32L5xx_HAL_Driver\Src\stm32l5xx_hal_dma.c:222:34
	str	r5, [r2]
	b	.LBB0_5
.Ltmp23:
	.p2align	2
.LBB0_3:
	@DEBUG_VALUE: HAL_DMA_Init:hdma <- $r0
	.loc	5 219 42                        @ c:/Keil_v5\ARM\PACK\Keil\STM32L5xx_DFP\1.3.0\Drivers\STM32L5xx_HAL_Driver\Src\stm32l5xx_hal_dma.c:219:42
	ldr	r1, [r0, #4]
	.loc	5 219 50 is_stmt 0              @ c:/Keil_v5\ARM\PACK\Keil\STM32L5xx_DFP\1.3.0\Drivers\STM32L5xx_HAL_Driver\Src\stm32l5xx_hal_dma.c:219:50
	uxtb	r4, r1
.Ltmp24:
	.loc	5 224 33 is_stmt 1              @ c:/Keil_v5\ARM\PACK\Keil\STM32L5xx_DFP\1.3.0\Drivers\STM32L5xx_HAL_Driver\Src\stm32l5xx_hal_dma.c:224:33
	subs	r1, #1
	cmp	r1, #3
	mov.w	r1, #0
.Ltmp25:
	.loc	5 219 28                        @ c:/Keil_v5\ARM\PACK\Keil\STM32L5xx_DFP\1.3.0\Drivers\STM32L5xx_HAL_Driver\Src\stm32l5xx_hal_dma.c:219:28
	str	r4, [r3]
	.loc	5 222 34                        @ c:/Keil_v5\ARM\PACK\Keil\STM32L5xx_DFP\1.3.0\Drivers\STM32L5xx_HAL_Driver\Src\stm32l5xx_hal_dma.c:222:34
	str	r5, [r2]
.Ltmp26:
	.loc	5 224 33                        @ c:/Keil_v5\ARM\PACK\Keil\STM32L5xx_DFP\1.3.0\Drivers\STM32L5xx_HAL_Driver\Src\stm32l5xx_hal_dma.c:224:33
	bhi	.LBB0_5
.Ltmp27:
@ %bb.4:
	@DEBUG_VALUE: HAL_DMA_Init:hdma <- $r0
	@DEBUG_VALUE: DMA_CalcDMAMUXRequestGenBaseAndMask:hdma <- $r0
	@DEBUG_VALUE: DMA_CalcDMAMUXRequestGenBaseAndMask:request <- $r4
	.loc	5 1345 119                      @ c:/Keil_v5\ARM\PACK\Keil\STM32L5xx_DFP\1.3.0\Drivers\STM32L5xx_HAL_Driver\Src\stm32l5xx_hal_dma.c:1345:119
	subs	r3, r4, #1
	.loc	5 1345 107 is_stmt 0            @ c:/Keil_v5\ARM\PACK\Keil\STM32L5xx_DFP\1.3.0\Drivers\STM32L5xx_HAL_Driver\Src\stm32l5xx_hal_dma.c:1345:107
	add.w	r7, r2, r3, lsl #2
.Ltmp28:
	.loc	5 232 34 is_stmt 1              @ c:/Keil_v5\ARM\PACK\Keil\STM32L5xx_DFP\1.3.0\Drivers\STM32L5xx_HAL_Driver\Src\stm32l5xx_hal_dma.c:232:34
	str	r1, [r7, #124]!
.Ltmp29:
	.loc	5 1350 61                       @ c:/Keil_v5\ARM\PACK\Keil\STM32L5xx_DFP\1.3.0\Drivers\STM32L5xx_HAL_Driver\Src\stm32l5xx_hal_dma.c:1350:61
	and	r1, r3, #3
	@DEBUG_VALUE: DMA_CalcDMAMUXRequestGenBaseAndMask:hdma <- $r0
	movs	r3, #1
	.loc	5 1350 42 is_stmt 0             @ c:/Keil_v5\ARM\PACK\Keil\STM32L5xx_DFP\1.3.0\Drivers\STM32L5xx_HAL_Driver\Src\stm32l5xx_hal_dma.c:1350:42
	lsls	r3, r1
.Ltmp30:
	.loc	5 235 41 is_stmt 1              @ c:/Keil_v5\ARM\PACK\Keil\STM32L5xx_DFP\1.3.0\Drivers\STM32L5xx_HAL_Driver\Src\stm32l5xx_hal_dma.c:235:41
	str.w	r3, [r2, #192]
.Ltmp31:
	.loc	5 0 0 is_stmt 0                 @ c:/Keil_v5\ARM\PACK\Keil\STM32L5xx_DFP\1.3.0\Drivers\STM32L5xx_HAL_Driver\Src\stm32l5xx_hal_dma.c:0:0
	adds	r2, #188
	mov	r1, r7
	b	.LBB0_6
.Ltmp32:
	.p2align	2
.LBB0_5:
	@DEBUG_VALUE: HAL_DMA_Init:hdma <- $r0
	movs	r2, #0
	movs	r3, #0
.Ltmp33:
.LBB0_6:
	@DEBUG_VALUE: HAL_DMA_Init:hdma <- $r0
	.loc	5 1345 26 is_stmt 1             @ c:/Keil_v5\ARM\PACK\Keil\STM32L5xx_DFP\1.3.0\Drivers\STM32L5xx_HAL_Driver\Src\stm32l5xx_hal_dma.c:1345:26
	add.w	r12, r0, #92
	stm.w	r12, {r1, r2, r3}
	movs	r1, #0
	movs	r2, #1
.Ltmp34:
	.loc	5 245 19                        @ c:/Keil_v5\ARM\PACK\Keil\STM32L5xx_DFP\1.3.0\Drivers\STM32L5xx_HAL_Driver\Src\stm32l5xx_hal_dma.c:245:19
	str	r1, [r0, #68]
	.loc	5 248 15                        @ c:/Keil_v5\ARM\PACK\Keil\STM32L5xx_DFP\1.3.0\Drivers\STM32L5xx_HAL_Driver\Src\stm32l5xx_hal_dma.c:248:15
	strb.w	r2, [r0, #37]
	.loc	5 251 14                        @ c:/Keil_v5\ARM\PACK\Keil\STM32L5xx_DFP\1.3.0\Drivers\STM32L5xx_HAL_Driver\Src\stm32l5xx_hal_dma.c:251:14
	strb.w	r1, [r0, #36]
	pop.w	{r4, r5, r6, r7, r8, lr}
.Ltmp35:
.LBB0_7:
	@DEBUG_VALUE: HAL_DMA_Init:hdma <- $r0
	.loc	5 254 1                         @ c:/Keil_v5\ARM\PACK\Keil\STM32L5xx_DFP\1.3.0\Drivers\STM32L5xx_HAL_Driver\Src\stm32l5xx_hal_dma.c:254:1
	mov	r0, r1
.Ltmp36:
	@DEBUG_VALUE: HAL_DMA_Init:hdma <- [DW_OP_LLVM_entry_value 1] $r0
	bx	lr
.Ltmp37:
.Lfunc_end0:
	.size	HAL_DMA_Init, .Lfunc_end0-HAL_DMA_Init
	.cfi_endproc
	.cantunwind
	.fnend
                                        @ -- End function
	.section	.text.HAL_DMA_DeInit,"ax",%progbits
	.hidden	HAL_DMA_DeInit                  @ -- Begin function HAL_DMA_DeInit
	.globl	HAL_DMA_DeInit
	.p2align	2
	.type	HAL_DMA_DeInit,%function
	.code	16                              @ @HAL_DMA_DeInit
	.thumb_func
HAL_DMA_DeInit:
.Lfunc_begin1:
	.loc	5 263 0                         @ c:/Keil_v5\ARM\PACK\Keil\STM32L5xx_DFP\1.3.0\Drivers\STM32L5xx_HAL_Driver\Src\stm32l5xx_hal_dma.c:263:0
	.fnstart
	.cfi_startproc
@ %bb.0:
	@DEBUG_VALUE: HAL_DMA_DeInit:hdma <- $r0
	@DEBUG_VALUE: HAL_DMA_DeInit:hdma <- $r0
	.loc	5 266 7 prologue_end            @ c:/Keil_v5\ARM\PACK\Keil\STM32L5xx_DFP\1.3.0\Drivers\STM32L5xx_HAL_Driver\Src\stm32l5xx_hal_dma.c:266:7
	cmp	r0, #0
	mov.w	r12, #1
	.loc	5 0 0 is_stmt 0                 @ c:/Keil_v5\ARM\PACK\Keil\STM32L5xx_DFP\1.3.0\Drivers\STM32L5xx_HAL_Driver\Src\stm32l5xx_hal_dma.c:0:0
	itt	eq
	moveq	r0, #1
.Ltmp38:
	@DEBUG_VALUE: HAL_DMA_DeInit:hdma <- [DW_OP_LLVM_entry_value 1] $r0
	.loc	5 345 1 is_stmt 1               @ c:/Keil_v5\ARM\PACK\Keil\STM32L5xx_DFP\1.3.0\Drivers\STM32L5xx_HAL_Driver\Src\stm32l5xx_hal_dma.c:345:1
	bxeq	lr
.Ltmp39:
.LBB1_1:
	@DEBUG_VALUE: HAL_DMA_DeInit:hdma <- [DW_OP_LLVM_entry_value 1] $r0
	.save	{r4, r5, r6, r7, r8, r9, r10, r11, lr}
	push.w	{r4, r5, r6, r7, r8, r9, r10, r11, lr}
	.cfi_def_cfa_offset 36
	.cfi_offset lr, -4
	.cfi_offset r11, -8
	.cfi_offset r10, -12
	.cfi_offset r9, -16
	.cfi_offset r8, -20
	.cfi_offset r7, -24
	.cfi_offset r6, -28
	.cfi_offset r5, -32
	.cfi_offset r4, -36
	.loc	5 275 3                         @ c:/Keil_v5\ARM\PACK\Keil\STM32L5xx_DFP\1.3.0\Drivers\STM32L5xx_HAL_Driver\Src\stm32l5xx_hal_dma.c:275:3
	ldrd	r3, lr, [r0]
	movw	r5, #1028
	ldr	r1, [r3]
	movw	r8, #2080
	bic	r1, r1, #1
	str	r1, [r3]
	movt	r5, #16386
	movt	r8, #16386
	movw	r1, #64504
.Ltmp40:
	.loc	5 278 34                        @ c:/Keil_v5\ARM\PACK\Keil\STM32L5xx_DFP\1.3.0\Drivers\STM32L5xx_HAL_Driver\Src\stm32l5xx_hal_dma.c:278:34
	add.w	r11, r5, #4
.Ltmp41:
	.loc	5 278 7 is_stmt 0               @ c:/Keil_v5\ARM\PACK\Keil\STM32L5xx_DFP\1.3.0\Drivers\STM32L5xx_HAL_Driver\Src\stm32l5xx_hal_dma.c:278:7
	mov	r4, r8
	movt	r1, #49149
	cmp	r3, r11
	it	lo
	addlo.w	r4, r5, #1020
	it	lo
	addlo.w	r1, r1, #1024
	movw	r9, #52429
	add	r1, r3
	movt	r9, #52428
	movw	r10, #0
.Ltmp42:
	.loc	5 0 0                           @ c:/Keil_v5\ARM\PACK\Keil\STM32L5xx_DFP\1.3.0\Drivers\STM32L5xx_HAL_Driver\Src\stm32l5xx_hal_dma.c:0:0
	umull	r1, r7, r1, r9
	movt	r10, #16386
	mvn	r1, #3
.Ltmp43:
	.loc	5 278 7                         @ c:/Keil_v5\ARM\PACK\Keil\STM32L5xx_DFP\1.3.0\Drivers\STM32L5xx_HAL_Driver\Src\stm32l5xx_hal_dma.c:278:7
	add.w	r2, r10, #1024
.Ltmp44:
	.loc	5 0 0                           @ c:/Keil_v5\ARM\PACK\Keil\STM32L5xx_DFP\1.3.0\Drivers\STM32L5xx_HAL_Driver\Src\stm32l5xx_hal_dma.c:0:0
	and.w	r6, r1, r7, lsr #2
.Ltmp45:
	.loc	5 278 7                         @ c:/Keil_v5\ARM\PACK\Keil\STM32L5xx_DFP\1.3.0\Drivers\STM32L5xx_HAL_Driver\Src\stm32l5xx_hal_dma.c:278:7
	cmp	r3, r11
	itt	lo
	movlo	r2, #0
	movtlo	r2, #16386
.Ltmp46:
	.loc	5 282 26 is_stmt 1              @ c:/Keil_v5\ARM\PACK\Keil\STM32L5xx_DFP\1.3.0\Drivers\STM32L5xx_HAL_Driver\Src\stm32l5xx_hal_dma.c:282:26
	strd	r2, r6, [r0, #72]
	movs	r2, #28
.Ltmp47:
	.loc	5 295 69                        @ c:/Keil_v5\ARM\PACK\Keil\STM32L5xx_DFP\1.3.0\Drivers\STM32L5xx_HAL_Driver\Src\stm32l5xx_hal_dma.c:295:69
	and.w	r2, r2, r7, lsr #2
	movs	r1, #0
	.loc	5 292 23                        @ c:/Keil_v5\ARM\PACK\Keil\STM32L5xx_DFP\1.3.0\Drivers\STM32L5xx_HAL_Driver\Src\stm32l5xx_hal_dma.c:292:23
	str	r1, [r3]
	.loc	5 295 46                        @ c:/Keil_v5\ARM\PACK\Keil\STM32L5xx_DFP\1.3.0\Drivers\STM32L5xx_HAL_Driver\Src\stm32l5xx_hal_dma.c:295:46
	lsl.w	r2, r12, r2
	.loc	5 295 25 is_stmt 0              @ c:/Keil_v5\ARM\PACK\Keil\STM32L5xx_DFP\1.3.0\Drivers\STM32L5xx_HAL_Driver\Src\stm32l5xx_hal_dma.c:295:25
	cmp	r3, r11
	it	lo
	addlo.w	r5, r10, #4
	.loc	5 295 30                        @ c:/Keil_v5\ARM\PACK\Keil\STM32L5xx_DFP\1.3.0\Drivers\STM32L5xx_HAL_Driver\Src\stm32l5xx_hal_dma.c:295:30
	str	r2, [r5]
.Ltmp48:
	@DEBUG_VALUE: DMA_CalcDMAMUXChannelBaseAndMask:hdma <- $r0
	.loc	5 0 30                          @ c:/Keil_v5\ARM\PACK\Keil\STM32L5xx_DFP\1.3.0\Drivers\STM32L5xx_HAL_Driver\Src\stm32l5xx_hal_dma.c:0:30
	mvn	r5, #7
.Ltmp49:
	.loc	5 1328 56 is_stmt 1             @ c:/Keil_v5\ARM\PACK\Keil\STM32L5xx_DFP\1.3.0\Drivers\STM32L5xx_HAL_Driver\Src\stm32l5xx_hal_dma.c:1328:56
	uxtab	r3, r5, r3
	.loc	5 1317 7                        @ c:/Keil_v5\ARM\PACK\Keil\STM32L5xx_DFP\1.3.0\Drivers\STM32L5xx_HAL_Driver\Src\stm32l5xx_hal_dma.c:1317:7
	adds	r2, r4, r6
.Ltmp50:
	.loc	5 1320 25                       @ c:/Keil_v5\ARM\PACK\Keil\STM32L5xx_DFP\1.3.0\Drivers\STM32L5xx_HAL_Driver\Src\stm32l5xx_hal_dma.c:1320:25
	str	r2, [r0, #80]
.Ltmp51:
	.loc	5 1328 62                       @ c:/Keil_v5\ARM\PACK\Keil\STM32L5xx_DFP\1.3.0\Drivers\STM32L5xx_HAL_Driver\Src\stm32l5xx_hal_dma.c:1328:62
	umull	r2, r3, r3, r9
.Ltmp52:
	@DEBUG_VALUE: DMA_CalcDMAMUXChannelBaseAndMask:channel_number <- undef
	.loc	5 1330 58                       @ c:/Keil_v5\ARM\PACK\Keil\STM32L5xx_DFP\1.3.0\Drivers\STM32L5xx_HAL_Driver\Src\stm32l5xx_hal_dma.c:1330:58
	ubfx	r3, r3, #4, #5
	.loc	5 1329 29                       @ c:/Keil_v5\ARM\PACK\Keil\STM32L5xx_DFP\1.3.0\Drivers\STM32L5xx_HAL_Driver\Src\stm32l5xx_hal_dma.c:1329:29
	add.w	r2, r8, #96
	str	r2, [r0, #84]
	.loc	5 1330 39                       @ c:/Keil_v5\ARM\PACK\Keil\STM32L5xx_DFP\1.3.0\Drivers\STM32L5xx_HAL_Driver\Src\stm32l5xx_hal_dma.c:1330:39
	lsl.w	r2, r12, r3
.Ltmp53:
	.loc	5 309 34                        @ c:/Keil_v5\ARM\PACK\Keil\STM32L5xx_DFP\1.3.0\Drivers\STM32L5xx_HAL_Driver\Src\stm32l5xx_hal_dma.c:309:34
	sub.w	r3, lr, #1
	cmp	r3, #3
.Ltmp54:
	.loc	5 1330 33                       @ c:/Keil_v5\ARM\PACK\Keil\STM32L5xx_DFP\1.3.0\Drivers\STM32L5xx_HAL_Driver\Src\stm32l5xx_hal_dma.c:1330:33
	str	r2, [r0, #88]
.Ltmp55:
	.loc	5 303 28                        @ c:/Keil_v5\ARM\PACK\Keil\STM32L5xx_DFP\1.3.0\Drivers\STM32L5xx_HAL_Driver\Src\stm32l5xx_hal_dma.c:303:28
	str	r1, [r4, r6]
	.loc	5 306 34                        @ c:/Keil_v5\ARM\PACK\Keil\STM32L5xx_DFP\1.3.0\Drivers\STM32L5xx_HAL_Driver\Src\stm32l5xx_hal_dma.c:306:34
	str.w	r2, [r8, #100]
.Ltmp56:
	.loc	5 309 34                        @ c:/Keil_v5\ARM\PACK\Keil\STM32L5xx_DFP\1.3.0\Drivers\STM32L5xx_HAL_Driver\Src\stm32l5xx_hal_dma.c:309:34
	bhi	.LBB1_3
.Ltmp57:
@ %bb.2:
	@DEBUG_VALUE: HAL_DMA_DeInit:hdma <- [DW_OP_LLVM_entry_value 1] $r0
	@DEBUG_VALUE: DMA_CalcDMAMUXRequestGenBaseAndMask:hdma <- $r0
	.loc	5 1345 107                      @ c:/Keil_v5\ARM\PACK\Keil\STM32L5xx_DFP\1.3.0\Drivers\STM32L5xx_HAL_Driver\Src\stm32l5xx_hal_dma.c:1345:107
	add.w	r2, r8, r3, lsl #2
	movs	r7, #1
	.loc	5 1350 42                       @ c:/Keil_v5\ARM\PACK\Keil\STM32L5xx_DFP\1.3.0\Drivers\STM32L5xx_HAL_Driver\Src\stm32l5xx_hal_dma.c:1350:42
	lsl.w	r3, r7, r3
.Ltmp58:
	.loc	5 317 34                        @ c:/Keil_v5\ARM\PACK\Keil\STM32L5xx_DFP\1.3.0\Drivers\STM32L5xx_HAL_Driver\Src\stm32l5xx_hal_dma.c:317:34
	str.w	r1, [r2, #224]
	.loc	5 320 41                        @ c:/Keil_v5\ARM\PACK\Keil\STM32L5xx_DFP\1.3.0\Drivers\STM32L5xx_HAL_Driver\Src\stm32l5xx_hal_dma.c:320:41
	str.w	r3, [r8, #292]
.Ltmp59:
	@DEBUG_VALUE: DMA_CalcDMAMUXRequestGenBaseAndMask:request <- undef
.LBB1_3:
	@DEBUG_VALUE: HAL_DMA_DeInit:hdma <- [DW_OP_LLVM_entry_value 1] $r0
	.loc	5 323 26                        @ c:/Keil_v5\ARM\PACK\Keil\STM32L5xx_DFP\1.3.0\Drivers\STM32L5xx_HAL_Driver\Src\stm32l5xx_hal_dma.c:323:26
	strd	r1, r1, [r0, #92]
	.loc	5 325 36                        @ c:/Keil_v5\ARM\PACK\Keil\STM32L5xx_DFP\1.3.0\Drivers\STM32L5xx_HAL_Driver\Src\stm32l5xx_hal_dma.c:325:36
	str	r1, [r0, #100]
	.loc	5 328 26                        @ c:/Keil_v5\ARM\PACK\Keil\STM32L5xx_DFP\1.3.0\Drivers\STM32L5xx_HAL_Driver\Src\stm32l5xx_hal_dma.c:328:26
	strd	r1, r1, [r0, #44]
	strd	r1, r1, [r0, #52]
	strd	r1, r1, [r0, #60]
	.loc	5 336 19                        @ c:/Keil_v5\ARM\PACK\Keil\STM32L5xx_DFP\1.3.0\Drivers\STM32L5xx_HAL_Driver\Src\stm32l5xx_hal_dma.c:336:19
	str	r1, [r0, #68]
	.loc	5 339 15                        @ c:/Keil_v5\ARM\PACK\Keil\STM32L5xx_DFP\1.3.0\Drivers\STM32L5xx_HAL_Driver\Src\stm32l5xx_hal_dma.c:339:15
	strb.w	r1, [r0, #37]
.Ltmp60:
	.loc	5 342 3                         @ c:/Keil_v5\ARM\PACK\Keil\STM32L5xx_DFP\1.3.0\Drivers\STM32L5xx_HAL_Driver\Src\stm32l5xx_hal_dma.c:342:3
	strb.w	r1, [r0, #36]
	pop.w	{r4, r5, r6, r7, r8, r9, r10, r11, lr}
.Ltmp61:
	.loc	5 345 1                         @ c:/Keil_v5\ARM\PACK\Keil\STM32L5xx_DFP\1.3.0\Drivers\STM32L5xx_HAL_Driver\Src\stm32l5xx_hal_dma.c:345:1
	mov	r0, r1
	bx	lr
.Ltmp62:
.Lfunc_end1:
	.size	HAL_DMA_DeInit, .Lfunc_end1-HAL_DMA_DeInit
	.cfi_endproc
	.cantunwind
	.fnend
                                        @ -- End function
	.section	.text.HAL_DMA_Start,"ax",%progbits
	.hidden	HAL_DMA_Start                   @ -- Begin function HAL_DMA_Start
	.globl	HAL_DMA_Start
	.p2align	2
	.type	HAL_DMA_Start,%function
	.code	16                              @ @HAL_DMA_Start
	.thumb_func
HAL_DMA_Start:
.Lfunc_begin2:
	.loc	5 380 0                         @ c:/Keil_v5\ARM\PACK\Keil\STM32L5xx_DFP\1.3.0\Drivers\STM32L5xx_HAL_Driver\Src\stm32l5xx_hal_dma.c:380:0
	.fnstart
	.cfi_startproc
@ %bb.0:
	@DEBUG_VALUE: HAL_DMA_Start:hdma <- $r0
	@DEBUG_VALUE: HAL_DMA_Start:hdma <- $r0
	@DEBUG_VALUE: HAL_DMA_Start:SrcAddress <- $r1
	@DEBUG_VALUE: HAL_DMA_Start:DstAddress <- $r2
	@DEBUG_VALUE: HAL_DMA_Start:DataLength <- $r3
	@DEBUG_VALUE: HAL_DMA_Start:DataLength <- $r3
	.save	{r4, r5, r6, lr}
	push	{r4, r5, r6, lr}
	.cfi_def_cfa_offset 16
	.cfi_offset lr, -4
	.cfi_offset r6, -8
	.cfi_offset r5, -12
	.cfi_offset r4, -16
.Ltmp63:
	@DEBUG_VALUE: HAL_DMA_Start:status <- 0
	.loc	5 387 3 prologue_end            @ c:/Keil_v5\ARM\PACK\Keil\STM32L5xx_DFP\1.3.0\Drivers\STM32L5xx_HAL_Driver\Src\stm32l5xx_hal_dma.c:387:3
	ldrb.w	r12, [r0, #36]
.Ltmp64:
	@DEBUG_VALUE: HAL_DMA_Start:DstAddress <- $r2
	.loc	5 387 3 is_stmt 0               @ c:/Keil_v5\ARM\PACK\Keil\STM32L5xx_DFP\1.3.0\Drivers\STM32L5xx_HAL_Driver\Src\stm32l5xx_hal_dma.c:387:3
	cmp.w	r12, #1
	@DEBUG_VALUE: HAL_DMA_Start:SrcAddress <- $r1
	beq	.LBB2_4
.Ltmp65:
@ %bb.1:
	@DEBUG_VALUE: HAL_DMA_Start:DataLength <- $r3
	@DEBUG_VALUE: HAL_DMA_Start:DstAddress <- $r2
	@DEBUG_VALUE: HAL_DMA_Start:SrcAddress <- $r1
	@DEBUG_VALUE: HAL_DMA_Start:hdma <- $r0
	@DEBUG_VALUE: HAL_DMA_Start:status <- 0
	.loc	5 0 3                           @ c:/Keil_v5\ARM\PACK\Keil\STM32L5xx_DFP\1.3.0\Drivers\STM32L5xx_HAL_Driver\Src\stm32l5xx_hal_dma.c:0:3
	mov.w	r12, #1
.Ltmp66:
	.loc	5 387 3                         @ c:/Keil_v5\ARM\PACK\Keil\STM32L5xx_DFP\1.3.0\Drivers\STM32L5xx_HAL_Driver\Src\stm32l5xx_hal_dma.c:387:3
	strb.w	r12, [r0, #36]
.Ltmp67:
	.loc	5 389 35 is_stmt 1              @ c:/Keil_v5\ARM\PACK\Keil\STM32L5xx_DFP\1.3.0\Drivers\STM32L5xx_HAL_Driver\Src\stm32l5xx_hal_dma.c:389:35
	ldrb.w	r12, [r0, #37]
.Ltmp68:
	.loc	5 389 6 is_stmt 0               @ c:/Keil_v5\ARM\PACK\Keil\STM32L5xx_DFP\1.3.0\Drivers\STM32L5xx_HAL_Driver\Src\stm32l5xx_hal_dma.c:389:6
	cmp.w	r12, #1
	bne	.LBB2_3
.Ltmp69:
@ %bb.2:
	@DEBUG_VALUE: HAL_DMA_Start:DataLength <- $r3
	@DEBUG_VALUE: HAL_DMA_Start:DstAddress <- $r2
	@DEBUG_VALUE: HAL_DMA_Start:SrcAddress <- $r1
	@DEBUG_VALUE: HAL_DMA_Start:hdma <- $r0
	@DEBUG_VALUE: HAL_DMA_Start:status <- 0
	.loc	5 0 6                           @ c:/Keil_v5\ARM\PACK\Keil\STM32L5xx_DFP\1.3.0\Drivers\STM32L5xx_HAL_Driver\Src\stm32l5xx_hal_dma.c:0:6
	mov.w	r12, #2
.Ltmp70:
	.loc	5 392 17 is_stmt 1              @ c:/Keil_v5\ARM\PACK\Keil\STM32L5xx_DFP\1.3.0\Drivers\STM32L5xx_HAL_Driver\Src\stm32l5xx_hal_dma.c:392:17
	strb.w	r12, [r0, #37]
	mov.w	r12, #0
	.loc	5 393 21                        @ c:/Keil_v5\ARM\PACK\Keil\STM32L5xx_DFP\1.3.0\Drivers\STM32L5xx_HAL_Driver\Src\stm32l5xx_hal_dma.c:393:21
	str.w	r12, [r0, #68]
	.loc	5 396 5                         @ c:/Keil_v5\ARM\PACK\Keil\STM32L5xx_DFP\1.3.0\Drivers\STM32L5xx_HAL_Driver\Src\stm32l5xx_hal_dma.c:396:5
	ldr.w	r12, [r0]
.Ltmp71:
	@DEBUG_VALUE: DMA_SetConfig:DataLength <- $r3
	@DEBUG_VALUE: DMA_SetConfig:DstAddress <- $r2
	@DEBUG_VALUE: DMA_SetConfig:SrcAddress <- $r1
	@DEBUG_VALUE: DMA_SetConfig:hdma <- $r0
	.loc	5 1272 9                        @ c:/Keil_v5\ARM\PACK\Keil\STM32L5xx_DFP\1.3.0\Drivers\STM32L5xx_HAL_Driver\Src\stm32l5xx_hal_dma.c:1272:9
	ldrd	lr, r4, [r0, #84]
.Ltmp72:
	.loc	5 1274 12                       @ c:/Keil_v5\ARM\PACK\Keil\STM32L5xx_DFP\1.3.0\Drivers\STM32L5xx_HAL_Driver\Src\stm32l5xx_hal_dma.c:1274:12
	ldr	r5, [r0, #92]
.Ltmp73:
	.loc	5 396 5                         @ c:/Keil_v5\ARM\PACK\Keil\STM32L5xx_DFP\1.3.0\Drivers\STM32L5xx_HAL_Driver\Src\stm32l5xx_hal_dma.c:396:5
	ldr.w	r6, [r12]
.Ltmp74:
	.loc	5 1274 6                        @ c:/Keil_v5\ARM\PACK\Keil\STM32L5xx_DFP\1.3.0\Drivers\STM32L5xx_HAL_Driver\Src\stm32l5xx_hal_dma.c:1274:6
	cmp	r5, #0
.Ltmp75:
	@DEBUG_VALUE: DMA_SetConfig:DataLength <- $r3
	@DEBUG_VALUE: DMA_SetConfig:DstAddress <- $r2
	@DEBUG_VALUE: DMA_SetConfig:SrcAddress <- $r1
	@DEBUG_VALUE: DMA_SetConfig:hdma <- $r0
	.loc	5 396 5                         @ c:/Keil_v5\ARM\PACK\Keil\STM32L5xx_DFP\1.3.0\Drivers\STM32L5xx_HAL_Driver\Src\stm32l5xx_hal_dma.c:396:5
	bic	r6, r6, #1
	str.w	r6, [r12]
.Ltmp76:
	.loc	5 1272 34                       @ c:/Keil_v5\ARM\PACK\Keil\STM32L5xx_DFP\1.3.0\Drivers\STM32L5xx_HAL_Driver\Src\stm32l5xx_hal_dma.c:1272:34
	str.w	r4, [lr, #4]
.Ltmp77:
	.loc	5 1277 11                       @ c:/Keil_v5\ARM\PACK\Keil\STM32L5xx_DFP\1.3.0\Drivers\STM32L5xx_HAL_Driver\Src\stm32l5xx_hal_dma.c:1277:11
	itt	ne
	ldrdne	r6, r5, [r0, #96]
	.loc	5 1277 41 is_stmt 0             @ c:/Keil_v5\ARM\PACK\Keil\STM32L5xx_DFP\1.3.0\Drivers\STM32L5xx_HAL_Driver\Src\stm32l5xx_hal_dma.c:1277:41
	strne	r5, [r6, #4]
	movs	r4, #1
.Ltmp78:
	.loc	5 1287 18 is_stmt 1             @ c:/Keil_v5\ARM\PACK\Keil\STM32L5xx_DFP\1.3.0\Drivers\STM32L5xx_HAL_Driver\Src\stm32l5xx_hal_dma.c:1287:18
	ldr	r6, [r0, #8]
.Ltmp79:
	.loc	5 1281 9                        @ c:/Keil_v5\ARM\PACK\Keil\STM32L5xx_DFP\1.3.0\Drivers\STM32L5xx_HAL_Driver\Src\stm32l5xx_hal_dma.c:1281:9
	ldrd	r0, r5, [r0, #72]
.Ltmp80:
	@DEBUG_VALUE: HAL_DMA_Start:hdma <- [DW_OP_LLVM_entry_value 1] $r0
	.loc	5 1287 6                        @ c:/Keil_v5\ARM\PACK\Keil\STM32L5xx_DFP\1.3.0\Drivers\STM32L5xx_HAL_Driver\Src\stm32l5xx_hal_dma.c:1287:6
	cmp	r6, #16
	.loc	5 1281 69                       @ c:/Keil_v5\ARM\PACK\Keil\STM32L5xx_DFP\1.3.0\Drivers\STM32L5xx_HAL_Driver\Src\stm32l5xx_hal_dma.c:1281:69
	and	r5, r5, #28
	.loc	5 1281 46 is_stmt 0             @ c:/Keil_v5\ARM\PACK\Keil\STM32L5xx_DFP\1.3.0\Drivers\STM32L5xx_HAL_Driver\Src\stm32l5xx_hal_dma.c:1281:46
	lsl.w	r5, r4, r5
	.loc	5 1281 30                       @ c:/Keil_v5\ARM\PACK\Keil\STM32L5xx_DFP\1.3.0\Drivers\STM32L5xx_HAL_Driver\Src\stm32l5xx_hal_dma.c:1281:30
	str	r5, [r0, #4]
	.loc	5 1287 6 is_stmt 1              @ c:/Keil_v5\ARM\PACK\Keil\STM32L5xx_DFP\1.3.0\Drivers\STM32L5xx_HAL_Driver\Src\stm32l5xx_hal_dma.c:1287:6
	mov	r0, r1
	.loc	5 1284 25                       @ c:/Keil_v5\ARM\PACK\Keil\STM32L5xx_DFP\1.3.0\Drivers\STM32L5xx_HAL_Driver\Src\stm32l5xx_hal_dma.c:1284:25
	str.w	r3, [r12, #4]
	.loc	5 1287 6                        @ c:/Keil_v5\ARM\PACK\Keil\STM32L5xx_DFP\1.3.0\Drivers\STM32L5xx_HAL_Driver\Src\stm32l5xx_hal_dma.c:1287:6
	itt	eq
	moveq	r0, r2
	moveq	r2, r1
.Ltmp81:
	@DEBUG_VALUE: HAL_DMA_Start:DstAddress <- [DW_OP_LLVM_entry_value 1] $r2
	.loc	5 0 0 is_stmt 0                 @ c:/Keil_v5\ARM\PACK\Keil\STM32L5xx_DFP\1.3.0\Drivers\STM32L5xx_HAL_Driver\Src\stm32l5xx_hal_dma.c:0:0
	str.w	r0, [r12, #8]
	str.w	r2, [r12, #12]
.Ltmp82:
	.loc	5 402 5 is_stmt 1               @ c:/Keil_v5\ARM\PACK\Keil\STM32L5xx_DFP\1.3.0\Drivers\STM32L5xx_HAL_Driver\Src\stm32l5xx_hal_dma.c:402:5
	ldr.w	r0, [r12]
	orr	r0, r0, #1
	str.w	r0, [r12]
	movs	r0, #0
.Ltmp83:
	.loc	5 411 1                         @ c:/Keil_v5\ARM\PACK\Keil\STM32L5xx_DFP\1.3.0\Drivers\STM32L5xx_HAL_Driver\Src\stm32l5xx_hal_dma.c:411:1
	pop	{r4, r5, r6, pc}
.Ltmp84:
	.p2align	2
.LBB2_3:
	@DEBUG_VALUE: HAL_DMA_Start:DataLength <- $r3
	@DEBUG_VALUE: HAL_DMA_Start:DstAddress <- $r2
	@DEBUG_VALUE: HAL_DMA_Start:SrcAddress <- $r1
	@DEBUG_VALUE: HAL_DMA_Start:hdma <- $r0
	@DEBUG_VALUE: HAL_DMA_Start:status <- 0
	.loc	5 0 1 is_stmt 0                 @ c:/Keil_v5\ARM\PACK\Keil\STM32L5xx_DFP\1.3.0\Drivers\STM32L5xx_HAL_Driver\Src\stm32l5xx_hal_dma.c:0:1
	movs	r1, #0
.Ltmp85:
	@DEBUG_VALUE: HAL_DMA_Start:SrcAddress <- [DW_OP_LLVM_entry_value 1] $r1
	.loc	5 407 5 is_stmt 1               @ c:/Keil_v5\ARM\PACK\Keil\STM32L5xx_DFP\1.3.0\Drivers\STM32L5xx_HAL_Driver\Src\stm32l5xx_hal_dma.c:407:5
	strb.w	r1, [r0, #36]
.Ltmp86:
.LBB2_4:
	@DEBUG_VALUE: HAL_DMA_Start:DataLength <- $r3
	@DEBUG_VALUE: HAL_DMA_Start:DstAddress <- $r2
	@DEBUG_VALUE: HAL_DMA_Start:hdma <- $r0
	@DEBUG_VALUE: HAL_DMA_Start:status <- 0
	.loc	5 0 5 is_stmt 0                 @ c:/Keil_v5\ARM\PACK\Keil\STM32L5xx_DFP\1.3.0\Drivers\STM32L5xx_HAL_Driver\Src\stm32l5xx_hal_dma.c:0:5
	movs	r0, #2
.Ltmp87:
	@DEBUG_VALUE: HAL_DMA_Start:hdma <- [DW_OP_LLVM_entry_value 1] $r0
	.loc	5 411 1 is_stmt 1               @ c:/Keil_v5\ARM\PACK\Keil\STM32L5xx_DFP\1.3.0\Drivers\STM32L5xx_HAL_Driver\Src\stm32l5xx_hal_dma.c:411:1
	pop	{r4, r5, r6, pc}
.Ltmp88:
.Lfunc_end2:
	.size	HAL_DMA_Start, .Lfunc_end2-HAL_DMA_Start
	.cfi_endproc
	.cantunwind
	.fnend
                                        @ -- End function
	.section	.text.HAL_DMA_Start_IT,"ax",%progbits
	.hidden	HAL_DMA_Start_IT                @ -- Begin function HAL_DMA_Start_IT
	.globl	HAL_DMA_Start_IT
	.p2align	2
	.type	HAL_DMA_Start_IT,%function
	.code	16                              @ @HAL_DMA_Start_IT
	.thumb_func
HAL_DMA_Start_IT:
.Lfunc_begin3:
	.loc	5 423 0                         @ c:/Keil_v5\ARM\PACK\Keil\STM32L5xx_DFP\1.3.0\Drivers\STM32L5xx_HAL_Driver\Src\stm32l5xx_hal_dma.c:423:0
	.fnstart
	.cfi_startproc
@ %bb.0:
	@DEBUG_VALUE: HAL_DMA_Start_IT:hdma <- $r0
	@DEBUG_VALUE: HAL_DMA_Start_IT:hdma <- $r0
	@DEBUG_VALUE: HAL_DMA_Start_IT:SrcAddress <- $r1
	@DEBUG_VALUE: HAL_DMA_Start_IT:DstAddress <- $r2
	@DEBUG_VALUE: HAL_DMA_Start_IT:DataLength <- $r3
	@DEBUG_VALUE: HAL_DMA_Start_IT:DataLength <- $r3
	.save	{r4, r5, r6, r7, r8, lr}
	push.w	{r4, r5, r6, r7, r8, lr}
	.cfi_def_cfa_offset 24
	.cfi_offset lr, -4
	.cfi_offset r8, -8
	.cfi_offset r7, -12
	.cfi_offset r6, -16
	.cfi_offset r5, -20
	.cfi_offset r4, -24
.Ltmp89:
	@DEBUG_VALUE: HAL_DMA_Start_IT:status <- 0
	.loc	5 430 3 prologue_end            @ c:/Keil_v5\ARM\PACK\Keil\STM32L5xx_DFP\1.3.0\Drivers\STM32L5xx_HAL_Driver\Src\stm32l5xx_hal_dma.c:430:3
	ldrb.w	r12, [r0, #36]
.Ltmp90:
	@DEBUG_VALUE: HAL_DMA_Start_IT:DstAddress <- $r2
	.loc	5 430 3 is_stmt 0               @ c:/Keil_v5\ARM\PACK\Keil\STM32L5xx_DFP\1.3.0\Drivers\STM32L5xx_HAL_Driver\Src\stm32l5xx_hal_dma.c:430:3
	cmp.w	r12, #1
	@DEBUG_VALUE: HAL_DMA_Start_IT:SrcAddress <- $r1
	beq	.LBB3_5
.Ltmp91:
@ %bb.1:
	@DEBUG_VALUE: HAL_DMA_Start_IT:DataLength <- $r3
	@DEBUG_VALUE: HAL_DMA_Start_IT:DstAddress <- $r2
	@DEBUG_VALUE: HAL_DMA_Start_IT:SrcAddress <- $r1
	@DEBUG_VALUE: HAL_DMA_Start_IT:hdma <- $r0
	@DEBUG_VALUE: HAL_DMA_Start_IT:status <- 0
	.loc	5 0 3                           @ c:/Keil_v5\ARM\PACK\Keil\STM32L5xx_DFP\1.3.0\Drivers\STM32L5xx_HAL_Driver\Src\stm32l5xx_hal_dma.c:0:3
	mov.w	r12, #1
.Ltmp92:
	.loc	5 430 3                         @ c:/Keil_v5\ARM\PACK\Keil\STM32L5xx_DFP\1.3.0\Drivers\STM32L5xx_HAL_Driver\Src\stm32l5xx_hal_dma.c:430:3
	strb.w	r12, [r0, #36]
.Ltmp93:
	.loc	5 432 35 is_stmt 1              @ c:/Keil_v5\ARM\PACK\Keil\STM32L5xx_DFP\1.3.0\Drivers\STM32L5xx_HAL_Driver\Src\stm32l5xx_hal_dma.c:432:35
	ldrb.w	r12, [r0, #37]
.Ltmp94:
	.loc	5 432 6 is_stmt 0               @ c:/Keil_v5\ARM\PACK\Keil\STM32L5xx_DFP\1.3.0\Drivers\STM32L5xx_HAL_Driver\Src\stm32l5xx_hal_dma.c:432:6
	cmp.w	r12, #1
	bne	.LBB3_4
.Ltmp95:
@ %bb.2:
	@DEBUG_VALUE: HAL_DMA_Start_IT:DataLength <- $r3
	@DEBUG_VALUE: HAL_DMA_Start_IT:DstAddress <- $r2
	@DEBUG_VALUE: HAL_DMA_Start_IT:SrcAddress <- $r1
	@DEBUG_VALUE: HAL_DMA_Start_IT:hdma <- $r0
	@DEBUG_VALUE: HAL_DMA_Start_IT:status <- 0
	.loc	5 0 6                           @ c:/Keil_v5\ARM\PACK\Keil\STM32L5xx_DFP\1.3.0\Drivers\STM32L5xx_HAL_Driver\Src\stm32l5xx_hal_dma.c:0:6
	mov.w	r12, #2
.Ltmp96:
	.loc	5 435 17 is_stmt 1              @ c:/Keil_v5\ARM\PACK\Keil\STM32L5xx_DFP\1.3.0\Drivers\STM32L5xx_HAL_Driver\Src\stm32l5xx_hal_dma.c:435:17
	strb.w	r12, [r0, #37]
	mov.w	r12, #0
	.loc	5 436 21                        @ c:/Keil_v5\ARM\PACK\Keil\STM32L5xx_DFP\1.3.0\Drivers\STM32L5xx_HAL_Driver\Src\stm32l5xx_hal_dma.c:436:21
	str.w	r12, [r0, #68]
	.loc	5 439 5                         @ c:/Keil_v5\ARM\PACK\Keil\STM32L5xx_DFP\1.3.0\Drivers\STM32L5xx_HAL_Driver\Src\stm32l5xx_hal_dma.c:439:5
	ldr.w	r12, [r0]
.Ltmp97:
	@DEBUG_VALUE: DMA_SetConfig:DataLength <- $r3
	@DEBUG_VALUE: DMA_SetConfig:DstAddress <- $r2
	@DEBUG_VALUE: DMA_SetConfig:SrcAddress <- $r1
	@DEBUG_VALUE: DMA_SetConfig:hdma <- $r0
	.loc	5 1272 9                        @ c:/Keil_v5\ARM\PACK\Keil\STM32L5xx_DFP\1.3.0\Drivers\STM32L5xx_HAL_Driver\Src\stm32l5xx_hal_dma.c:1272:9
	add.w	lr, r0, #84
	ldm.w	lr, {r4, r5, lr}
.Ltmp98:
	.loc	5 439 5                         @ c:/Keil_v5\ARM\PACK\Keil\STM32L5xx_DFP\1.3.0\Drivers\STM32L5xx_HAL_Driver\Src\stm32l5xx_hal_dma.c:439:5
	ldr.w	r6, [r12]
.Ltmp99:
	.loc	5 1274 6                        @ c:/Keil_v5\ARM\PACK\Keil\STM32L5xx_DFP\1.3.0\Drivers\STM32L5xx_HAL_Driver\Src\stm32l5xx_hal_dma.c:1274:6
	cmp.w	lr, #0
.Ltmp100:
	@DEBUG_VALUE: DMA_SetConfig:DataLength <- $r3
	@DEBUG_VALUE: DMA_SetConfig:DstAddress <- $r2
	@DEBUG_VALUE: DMA_SetConfig:SrcAddress <- $r1
	@DEBUG_VALUE: DMA_SetConfig:hdma <- $r0
	.loc	5 439 5                         @ c:/Keil_v5\ARM\PACK\Keil\STM32L5xx_DFP\1.3.0\Drivers\STM32L5xx_HAL_Driver\Src\stm32l5xx_hal_dma.c:439:5
	bic	r6, r6, #1
	str.w	r6, [r12]
.Ltmp101:
	.loc	5 1272 34                       @ c:/Keil_v5\ARM\PACK\Keil\STM32L5xx_DFP\1.3.0\Drivers\STM32L5xx_HAL_Driver\Src\stm32l5xx_hal_dma.c:1272:34
	str	r5, [r4, #4]
.Ltmp102:
	.loc	5 1277 11                       @ c:/Keil_v5\ARM\PACK\Keil\STM32L5xx_DFP\1.3.0\Drivers\STM32L5xx_HAL_Driver\Src\stm32l5xx_hal_dma.c:1277:11
	itt	ne
	ldrdne	r4, r5, [r0, #96]
	.loc	5 1277 41 is_stmt 0             @ c:/Keil_v5\ARM\PACK\Keil\STM32L5xx_DFP\1.3.0\Drivers\STM32L5xx_HAL_Driver\Src\stm32l5xx_hal_dma.c:1277:41
	strne	r5, [r4, #4]
.Ltmp103:
	.loc	5 1281 9 is_stmt 1              @ c:/Keil_v5\ARM\PACK\Keil\STM32L5xx_DFP\1.3.0\Drivers\STM32L5xx_HAL_Driver\Src\stm32l5xx_hal_dma.c:1281:9
	ldrd	r7, r6, [r0, #72]
	movs	r5, #1
.Ltmp104:
	.loc	5 1287 18                       @ c:/Keil_v5\ARM\PACK\Keil\STM32L5xx_DFP\1.3.0\Drivers\STM32L5xx_HAL_Driver\Src\stm32l5xx_hal_dma.c:1287:18
	ldr	r4, [r0, #8]
.Ltmp105:
	.loc	5 446 22                        @ c:/Keil_v5\ARM\PACK\Keil\STM32L5xx_DFP\1.3.0\Drivers\STM32L5xx_HAL_Driver\Src\stm32l5xx_hal_dma.c:446:22
	ldr.w	r8, [r0, #48]
.Ltmp106:
	.loc	5 1281 69                       @ c:/Keil_v5\ARM\PACK\Keil\STM32L5xx_DFP\1.3.0\Drivers\STM32L5xx_HAL_Driver\Src\stm32l5xx_hal_dma.c:1281:69
	and	r6, r6, #28
	.loc	5 1281 46 is_stmt 0             @ c:/Keil_v5\ARM\PACK\Keil\STM32L5xx_DFP\1.3.0\Drivers\STM32L5xx_HAL_Driver\Src\stm32l5xx_hal_dma.c:1281:46
	lsls	r5, r6
	.loc	5 1281 30                       @ c:/Keil_v5\ARM\PACK\Keil\STM32L5xx_DFP\1.3.0\Drivers\STM32L5xx_HAL_Driver\Src\stm32l5xx_hal_dma.c:1281:30
	str	r5, [r7, #4]
	.loc	5 1284 25 is_stmt 1             @ c:/Keil_v5\ARM\PACK\Keil\STM32L5xx_DFP\1.3.0\Drivers\STM32L5xx_HAL_Driver\Src\stm32l5xx_hal_dma.c:1284:25
	str.w	r3, [r12, #4]
	.loc	5 1287 6                        @ c:/Keil_v5\ARM\PACK\Keil\STM32L5xx_DFP\1.3.0\Drivers\STM32L5xx_HAL_Driver\Src\stm32l5xx_hal_dma.c:1287:6
	mov	r3, r1
.Ltmp107:
	@DEBUG_VALUE: HAL_DMA_Start_IT:DataLength <- [DW_OP_LLVM_entry_value 1] $r3
	cmp	r4, #16
	itt	eq
	moveq	r3, r2
	moveq	r2, r1
.Ltmp108:
	@DEBUG_VALUE: HAL_DMA_Start_IT:DstAddress <- [DW_OP_LLVM_entry_value 1] $r2
	.loc	5 0 0 is_stmt 0                 @ c:/Keil_v5\ARM\PACK\Keil\STM32L5xx_DFP\1.3.0\Drivers\STM32L5xx_HAL_Driver\Src\stm32l5xx_hal_dma.c:0:0
	str.w	r3, [r12, #8]
	str.w	r2, [r12, #12]
.Ltmp109:
	ldr.w	r1, [r12]
.Ltmp110:
	@DEBUG_VALUE: HAL_DMA_Start_IT:SrcAddress <- [DW_OP_LLVM_entry_value 1] $r1
	.loc	5 446 8 is_stmt 1               @ c:/Keil_v5\ARM\PACK\Keil\STM32L5xx_DFP\1.3.0\Drivers\STM32L5xx_HAL_Driver\Src\stm32l5xx_hal_dma.c:446:8
	cmp.w	r8, #0
	beq	.LBB3_6
.Ltmp111:
@ %bb.3:
	@DEBUG_VALUE: HAL_DMA_Start_IT:hdma <- $r0
	@DEBUG_VALUE: HAL_DMA_Start_IT:DstAddress <- [DW_OP_LLVM_entry_value 1] $r2
	@DEBUG_VALUE: HAL_DMA_Start_IT:DataLength <- [DW_OP_LLVM_entry_value 1] $r3
	@DEBUG_VALUE: HAL_DMA_Start_IT:SrcAddress <- [DW_OP_LLVM_entry_value 1] $r1
	@DEBUG_VALUE: HAL_DMA_Start_IT:status <- 0
	.loc	5 449 7                         @ c:/Keil_v5\ARM\PACK\Keil\STM32L5xx_DFP\1.3.0\Drivers\STM32L5xx_HAL_Driver\Src\stm32l5xx_hal_dma.c:449:7
	orr	r1, r1, #14
	b	.LBB3_7
.Ltmp112:
	.p2align	2
.LBB3_4:
	@DEBUG_VALUE: HAL_DMA_Start_IT:DataLength <- $r3
	@DEBUG_VALUE: HAL_DMA_Start_IT:DstAddress <- $r2
	@DEBUG_VALUE: HAL_DMA_Start_IT:SrcAddress <- $r1
	@DEBUG_VALUE: HAL_DMA_Start_IT:hdma <- $r0
	@DEBUG_VALUE: HAL_DMA_Start_IT:status <- 0
	.loc	5 0 7 is_stmt 0                 @ c:/Keil_v5\ARM\PACK\Keil\STM32L5xx_DFP\1.3.0\Drivers\STM32L5xx_HAL_Driver\Src\stm32l5xx_hal_dma.c:0:7
	movs	r1, #0
.Ltmp113:
	@DEBUG_VALUE: HAL_DMA_Start_IT:SrcAddress <- [DW_OP_LLVM_entry_value 1] $r1
	.loc	5 477 5 is_stmt 1               @ c:/Keil_v5\ARM\PACK\Keil\STM32L5xx_DFP\1.3.0\Drivers\STM32L5xx_HAL_Driver\Src\stm32l5xx_hal_dma.c:477:5
	strb.w	r1, [r0, #36]
.Ltmp114:
.LBB3_5:
	@DEBUG_VALUE: HAL_DMA_Start_IT:DataLength <- $r3
	@DEBUG_VALUE: HAL_DMA_Start_IT:DstAddress <- $r2
	@DEBUG_VALUE: HAL_DMA_Start_IT:hdma <- $r0
	@DEBUG_VALUE: HAL_DMA_Start_IT:status <- 0
	.loc	5 0 5 is_stmt 0                 @ c:/Keil_v5\ARM\PACK\Keil\STM32L5xx_DFP\1.3.0\Drivers\STM32L5xx_HAL_Driver\Src\stm32l5xx_hal_dma.c:0:5
	movs	r0, #2
.Ltmp115:
	@DEBUG_VALUE: HAL_DMA_Start_IT:hdma <- [DW_OP_LLVM_entry_value 1] $r0
	.loc	5 483 1 is_stmt 1               @ c:/Keil_v5\ARM\PACK\Keil\STM32L5xx_DFP\1.3.0\Drivers\STM32L5xx_HAL_Driver\Src\stm32l5xx_hal_dma.c:483:1
	pop.w	{r4, r5, r6, r7, r8, pc}
.Ltmp116:
	.p2align	2
.LBB3_6:
	@DEBUG_VALUE: HAL_DMA_Start_IT:hdma <- $r0
	@DEBUG_VALUE: HAL_DMA_Start_IT:DstAddress <- [DW_OP_LLVM_entry_value 1] $r2
	@DEBUG_VALUE: HAL_DMA_Start_IT:DataLength <- [DW_OP_LLVM_entry_value 1] $r3
	@DEBUG_VALUE: HAL_DMA_Start_IT:SrcAddress <- [DW_OP_LLVM_entry_value 1] $r1
	@DEBUG_VALUE: HAL_DMA_Start_IT:status <- 0
	.loc	5 453 7                         @ c:/Keil_v5\ARM\PACK\Keil\STM32L5xx_DFP\1.3.0\Drivers\STM32L5xx_HAL_Driver\Src\stm32l5xx_hal_dma.c:453:7
	bic	r1, r1, #4
	str.w	r1, [r12]
	.loc	5 454 7                         @ c:/Keil_v5\ARM\PACK\Keil\STM32L5xx_DFP\1.3.0\Drivers\STM32L5xx_HAL_Driver\Src\stm32l5xx_hal_dma.c:454:7
	ldr.w	r1, [r12]
	orr	r1, r1, #10
.Ltmp117:
.LBB3_7:
	@DEBUG_VALUE: HAL_DMA_Start_IT:hdma <- $r0
	@DEBUG_VALUE: HAL_DMA_Start_IT:DstAddress <- [DW_OP_LLVM_entry_value 1] $r2
	@DEBUG_VALUE: HAL_DMA_Start_IT:DataLength <- [DW_OP_LLVM_entry_value 1] $r3
	@DEBUG_VALUE: HAL_DMA_Start_IT:SrcAddress <- [DW_OP_LLVM_entry_value 1] $r1
	@DEBUG_VALUE: HAL_DMA_Start_IT:status <- 0
	.loc	5 0 0 is_stmt 0                 @ c:/Keil_v5\ARM\PACK\Keil\STM32L5xx_DFP\1.3.0\Drivers\STM32L5xx_HAL_Driver\Src\stm32l5xx_hal_dma.c:0:0
	str.w	r1, [r12]
.Ltmp118:
	.loc	5 458 15 is_stmt 1              @ c:/Keil_v5\ARM\PACK\Keil\STM32L5xx_DFP\1.3.0\Drivers\STM32L5xx_HAL_Driver\Src\stm32l5xx_hal_dma.c:458:15
	ldr	r0, [r0, #80]
.Ltmp119:
	@DEBUG_VALUE: HAL_DMA_Start_IT:hdma <- [DW_OP_LLVM_entry_value 1] $r0
	.loc	5 458 30 is_stmt 0              @ c:/Keil_v5\ARM\PACK\Keil\STM32L5xx_DFP\1.3.0\Drivers\STM32L5xx_HAL_Driver\Src\stm32l5xx_hal_dma.c:458:30
	ldr	r1, [r0]
.Ltmp120:
	.loc	5 458 8                         @ c:/Keil_v5\ARM\PACK\Keil\STM32L5xx_DFP\1.3.0\Drivers\STM32L5xx_HAL_Driver\Src\stm32l5xx_hal_dma.c:458:8
	lsls	r1, r1, #15
	bpl	.LBB3_9
.Ltmp121:
@ %bb.8:
	@DEBUG_VALUE: HAL_DMA_Start_IT:hdma <- [DW_OP_LLVM_entry_value 1] $r0
	@DEBUG_VALUE: HAL_DMA_Start_IT:DstAddress <- [DW_OP_LLVM_entry_value 1] $r2
	@DEBUG_VALUE: HAL_DMA_Start_IT:DataLength <- [DW_OP_LLVM_entry_value 1] $r3
	@DEBUG_VALUE: HAL_DMA_Start_IT:SrcAddress <- [DW_OP_LLVM_entry_value 1] $r1
	@DEBUG_VALUE: HAL_DMA_Start_IT:status <- 0
	.loc	5 461 32 is_stmt 1              @ c:/Keil_v5\ARM\PACK\Keil\STM32L5xx_DFP\1.3.0\Drivers\STM32L5xx_HAL_Driver\Src\stm32l5xx_hal_dma.c:461:32
	ldr	r1, [r0]
	orr	r1, r1, #256
	str	r1, [r0]
.Ltmp122:
.LBB3_9:
	@DEBUG_VALUE: HAL_DMA_Start_IT:hdma <- [DW_OP_LLVM_entry_value 1] $r0
	@DEBUG_VALUE: HAL_DMA_Start_IT:DstAddress <- [DW_OP_LLVM_entry_value 1] $r2
	@DEBUG_VALUE: HAL_DMA_Start_IT:DataLength <- [DW_OP_LLVM_entry_value 1] $r3
	@DEBUG_VALUE: HAL_DMA_Start_IT:SrcAddress <- [DW_OP_LLVM_entry_value 1] $r1
	@DEBUG_VALUE: HAL_DMA_Start_IT:status <- 0
	.loc	5 464 8                         @ c:/Keil_v5\ARM\PACK\Keil\STM32L5xx_DFP\1.3.0\Drivers\STM32L5xx_HAL_Driver\Src\stm32l5xx_hal_dma.c:464:8
	cmp.w	lr, #0
	beq	.LBB3_11
.Ltmp123:
@ %bb.10:
	@DEBUG_VALUE: HAL_DMA_Start_IT:hdma <- [DW_OP_LLVM_entry_value 1] $r0
	@DEBUG_VALUE: HAL_DMA_Start_IT:DstAddress <- [DW_OP_LLVM_entry_value 1] $r2
	@DEBUG_VALUE: HAL_DMA_Start_IT:DataLength <- [DW_OP_LLVM_entry_value 1] $r3
	@DEBUG_VALUE: HAL_DMA_Start_IT:SrcAddress <- [DW_OP_LLVM_entry_value 1] $r1
	@DEBUG_VALUE: HAL_DMA_Start_IT:status <- 0
	.loc	5 468 36                        @ c:/Keil_v5\ARM\PACK\Keil\STM32L5xx_DFP\1.3.0\Drivers\STM32L5xx_HAL_Driver\Src\stm32l5xx_hal_dma.c:468:36
	ldr.w	r0, [lr]
	orr	r0, r0, #256
	str.w	r0, [lr]
.Ltmp124:
.LBB3_11:
	@DEBUG_VALUE: HAL_DMA_Start_IT:hdma <- [DW_OP_LLVM_entry_value 1] $r0
	@DEBUG_VALUE: HAL_DMA_Start_IT:DstAddress <- [DW_OP_LLVM_entry_value 1] $r2
	@DEBUG_VALUE: HAL_DMA_Start_IT:DataLength <- [DW_OP_LLVM_entry_value 1] $r3
	@DEBUG_VALUE: HAL_DMA_Start_IT:SrcAddress <- [DW_OP_LLVM_entry_value 1] $r1
	@DEBUG_VALUE: HAL_DMA_Start_IT:status <- 0
	.loc	5 472 5                         @ c:/Keil_v5\ARM\PACK\Keil\STM32L5xx_DFP\1.3.0\Drivers\STM32L5xx_HAL_Driver\Src\stm32l5xx_hal_dma.c:472:5
	ldr.w	r0, [r12]
	orr	r0, r0, #1
	str.w	r0, [r12]
	movs	r0, #0
.Ltmp125:
	.loc	5 483 1                         @ c:/Keil_v5\ARM\PACK\Keil\STM32L5xx_DFP\1.3.0\Drivers\STM32L5xx_HAL_Driver\Src\stm32l5xx_hal_dma.c:483:1
	pop.w	{r4, r5, r6, r7, r8, pc}
.Ltmp126:
.Lfunc_end3:
	.size	HAL_DMA_Start_IT, .Lfunc_end3-HAL_DMA_Start_IT
	.cfi_endproc
	.cantunwind
	.fnend
                                        @ -- End function
	.section	.text.HAL_DMA_Abort,"ax",%progbits
	.hidden	HAL_DMA_Abort                   @ -- Begin function HAL_DMA_Abort
	.globl	HAL_DMA_Abort
	.p2align	2
	.type	HAL_DMA_Abort,%function
	.code	16                              @ @HAL_DMA_Abort
	.thumb_func
HAL_DMA_Abort:
.Lfunc_begin4:
	.loc	5 492 0                         @ c:/Keil_v5\ARM\PACK\Keil\STM32L5xx_DFP\1.3.0\Drivers\STM32L5xx_HAL_Driver\Src\stm32l5xx_hal_dma.c:492:0
	.fnstart
	.cfi_startproc
@ %bb.0:
	@DEBUG_VALUE: HAL_DMA_Abort:hdma <- $r0
	.save	{r7, lr}
	push	{r7, lr}
	.cfi_def_cfa_offset 8
	.cfi_offset lr, -4
	.cfi_offset r7, -8
	mov	r1, r0
.Ltmp127:
	@DEBUG_VALUE: HAL_DMA_Abort:status <- 0
	@DEBUG_VALUE: HAL_DMA_Abort:hdma <- $r1
	.loc	5 496 12 prologue_end           @ c:/Keil_v5\ARM\PACK\Keil\STM32L5xx_DFP\1.3.0\Drivers\STM32L5xx_HAL_Driver\Src\stm32l5xx_hal_dma.c:496:12
	ldrb.w	r0, [r0, #37]
.Ltmp128:
	.loc	5 496 6 is_stmt 0               @ c:/Keil_v5\ARM\PACK\Keil\STM32L5xx_DFP\1.3.0\Drivers\STM32L5xx_HAL_Driver\Src\stm32l5xx_hal_dma.c:496:6
	cmp	r0, #2
	bne	.LBB4_4
.Ltmp129:
@ %bb.1:
	@DEBUG_VALUE: HAL_DMA_Abort:hdma <- $r1
	@DEBUG_VALUE: HAL_DMA_Abort:status <- 0
	.loc	5 508 5 is_stmt 1               @ c:/Keil_v5\ARM\PACK\Keil\STM32L5xx_DFP\1.3.0\Drivers\STM32L5xx_HAL_Driver\Src\stm32l5xx_hal_dma.c:508:5
	ldr	r0, [r1]
	.loc	5 517 11                        @ c:/Keil_v5\ARM\PACK\Keil\STM32L5xx_DFP\1.3.0\Drivers\STM32L5xx_HAL_Driver\Src\stm32l5xx_hal_dma.c:517:11
	ldrd	r12, lr, [r1, #72]
	.loc	5 511 11                        @ c:/Keil_v5\ARM\PACK\Keil\STM32L5xx_DFP\1.3.0\Drivers\STM32L5xx_HAL_Driver\Src\stm32l5xx_hal_dma.c:511:11
	ldr	r2, [r1, #80]
	.loc	5 508 5                         @ c:/Keil_v5\ARM\PACK\Keil\STM32L5xx_DFP\1.3.0\Drivers\STM32L5xx_HAL_Driver\Src\stm32l5xx_hal_dma.c:508:5
	ldr	r3, [r0]
	bic	r3, r3, #14
	str	r3, [r0]
	.loc	5 511 30                        @ c:/Keil_v5\ARM\PACK\Keil\STM32L5xx_DFP\1.3.0\Drivers\STM32L5xx_HAL_Driver\Src\stm32l5xx_hal_dma.c:511:30
	ldr	r3, [r2]
	bic	r3, r3, #256
	str	r3, [r2]
	.loc	5 514 5                         @ c:/Keil_v5\ARM\PACK\Keil\STM32L5xx_DFP\1.3.0\Drivers\STM32L5xx_HAL_Driver\Src\stm32l5xx_hal_dma.c:514:5
	ldr	r2, [r0]
	bic	r2, r2, #1
	str	r2, [r0]
	.loc	5 517 71                        @ c:/Keil_v5\ARM\PACK\Keil\STM32L5xx_DFP\1.3.0\Drivers\STM32L5xx_HAL_Driver\Src\stm32l5xx_hal_dma.c:517:71
	and	r2, lr, #28
	movs	r0, #1
	.loc	5 517 48 is_stmt 0              @ c:/Keil_v5\ARM\PACK\Keil\STM32L5xx_DFP\1.3.0\Drivers\STM32L5xx_HAL_Driver\Src\stm32l5xx_hal_dma.c:517:48
	lsl.w	r2, r0, r2
	.loc	5 517 32                        @ c:/Keil_v5\ARM\PACK\Keil\STM32L5xx_DFP\1.3.0\Drivers\STM32L5xx_HAL_Driver\Src\stm32l5xx_hal_dma.c:517:32
	str.w	r2, [r12, #4]
	.loc	5 520 11 is_stmt 1              @ c:/Keil_v5\ARM\PACK\Keil\STM32L5xx_DFP\1.3.0\Drivers\STM32L5xx_HAL_Driver\Src\stm32l5xx_hal_dma.c:520:11
	ldrd	r3, r2, [r1, #84]
	.loc	5 520 36 is_stmt 0              @ c:/Keil_v5\ARM\PACK\Keil\STM32L5xx_DFP\1.3.0\Drivers\STM32L5xx_HAL_Driver\Src\stm32l5xx_hal_dma.c:520:36
	str	r2, [r3, #4]
.Ltmp130:
	.loc	5 522 14 is_stmt 1              @ c:/Keil_v5\ARM\PACK\Keil\STM32L5xx_DFP\1.3.0\Drivers\STM32L5xx_HAL_Driver\Src\stm32l5xx_hal_dma.c:522:14
	ldr	r2, [r1, #92]
.Ltmp131:
	.loc	5 522 8 is_stmt 0               @ c:/Keil_v5\ARM\PACK\Keil\STM32L5xx_DFP\1.3.0\Drivers\STM32L5xx_HAL_Driver\Src\stm32l5xx_hal_dma.c:522:8
	cbz	r2, .LBB4_3
.Ltmp132:
@ %bb.2:
	@DEBUG_VALUE: HAL_DMA_Abort:hdma <- $r1
	@DEBUG_VALUE: HAL_DMA_Abort:status <- 0
	.loc	5 526 36 is_stmt 1              @ c:/Keil_v5\ARM\PACK\Keil\STM32L5xx_DFP\1.3.0\Drivers\STM32L5xx_HAL_Driver\Src\stm32l5xx_hal_dma.c:526:36
	ldr	r3, [r2]
	bic	r3, r3, #256
	str	r3, [r2]
	.loc	5 529 13                        @ c:/Keil_v5\ARM\PACK\Keil\STM32L5xx_DFP\1.3.0\Drivers\STM32L5xx_HAL_Driver\Src\stm32l5xx_hal_dma.c:529:13
	ldrd	r2, r3, [r1, #96]
	.loc	5 529 43 is_stmt 0              @ c:/Keil_v5\ARM\PACK\Keil\STM32L5xx_DFP\1.3.0\Drivers\STM32L5xx_HAL_Driver\Src\stm32l5xx_hal_dma.c:529:43
	str	r3, [r2, #4]
.Ltmp133:
.LBB4_3:
	@DEBUG_VALUE: HAL_DMA_Abort:hdma <- $r1
	@DEBUG_VALUE: HAL_DMA_Abort:status <- 0
	.loc	5 533 17 is_stmt 1              @ c:/Keil_v5\ARM\PACK\Keil\STM32L5xx_DFP\1.3.0\Drivers\STM32L5xx_HAL_Driver\Src\stm32l5xx_hal_dma.c:533:17
	strb.w	r0, [r1, #37]
	movs	r0, #0
	movs	r2, #0
.Ltmp134:
	.loc	5 0 0 is_stmt 0                 @ c:/Keil_v5\ARM\PACK\Keil\STM32L5xx_DFP\1.3.0\Drivers\STM32L5xx_HAL_Driver\Src\stm32l5xx_hal_dma.c:0:0
	strb.w	r2, [r1, #36]
.Ltmp135:
	.loc	5 540 1 is_stmt 1               @ c:/Keil_v5\ARM\PACK\Keil\STM32L5xx_DFP\1.3.0\Drivers\STM32L5xx_HAL_Driver\Src\stm32l5xx_hal_dma.c:540:1
	pop	{r7, pc}
.Ltmp136:
	.p2align	2
.LBB4_4:
	@DEBUG_VALUE: HAL_DMA_Abort:hdma <- $r1
	@DEBUG_VALUE: HAL_DMA_Abort:status <- 0
	.loc	5 0 1 is_stmt 0                 @ c:/Keil_v5\ARM\PACK\Keil\STM32L5xx_DFP\1.3.0\Drivers\STM32L5xx_HAL_Driver\Src\stm32l5xx_hal_dma.c:0:1
	movs	r0, #4
.Ltmp137:
	.loc	5 498 21 is_stmt 1              @ c:/Keil_v5\ARM\PACK\Keil\STM32L5xx_DFP\1.3.0\Drivers\STM32L5xx_HAL_Driver\Src\stm32l5xx_hal_dma.c:498:21
	str	r0, [r1, #68]
	movs	r0, #1
	movs	r2, #0
.Ltmp138:
	.loc	5 0 0 is_stmt 0                 @ c:/Keil_v5\ARM\PACK\Keil\STM32L5xx_DFP\1.3.0\Drivers\STM32L5xx_HAL_Driver\Src\stm32l5xx_hal_dma.c:0:0
	strb.w	r2, [r1, #36]
.Ltmp139:
	.loc	5 540 1 is_stmt 1               @ c:/Keil_v5\ARM\PACK\Keil\STM32L5xx_DFP\1.3.0\Drivers\STM32L5xx_HAL_Driver\Src\stm32l5xx_hal_dma.c:540:1
	pop	{r7, pc}
.Ltmp140:
.Lfunc_end4:
	.size	HAL_DMA_Abort, .Lfunc_end4-HAL_DMA_Abort
	.cfi_endproc
	.cantunwind
	.fnend
                                        @ -- End function
	.section	.text.HAL_DMA_Abort_IT,"ax",%progbits
	.hidden	HAL_DMA_Abort_IT                @ -- Begin function HAL_DMA_Abort_IT
	.globl	HAL_DMA_Abort_IT
	.p2align	2
	.type	HAL_DMA_Abort_IT,%function
	.code	16                              @ @HAL_DMA_Abort_IT
	.thumb_func
HAL_DMA_Abort_IT:
.Lfunc_begin5:
	.loc	5 549 0                         @ c:/Keil_v5\ARM\PACK\Keil\STM32L5xx_DFP\1.3.0\Drivers\STM32L5xx_HAL_Driver\Src\stm32l5xx_hal_dma.c:549:0
	.fnstart
	.cfi_startproc
@ %bb.0:
	@DEBUG_VALUE: HAL_DMA_Abort_IT:hdma <- $r0
	@DEBUG_VALUE: HAL_DMA_Abort_IT:hdma <- $r0
	.save	{r7, lr}
	push	{r7, lr}
	.cfi_def_cfa_offset 8
	.cfi_offset lr, -4
	.cfi_offset r7, -8
.Ltmp141:
	@DEBUG_VALUE: HAL_DMA_Abort_IT:status <- 0
	.loc	5 552 34 prologue_end           @ c:/Keil_v5\ARM\PACK\Keil\STM32L5xx_DFP\1.3.0\Drivers\STM32L5xx_HAL_Driver\Src\stm32l5xx_hal_dma.c:552:34
	ldrb.w	r1, [r0, #37]
.Ltmp142:
	.loc	5 552 6 is_stmt 0               @ c:/Keil_v5\ARM\PACK\Keil\STM32L5xx_DFP\1.3.0\Drivers\STM32L5xx_HAL_Driver\Src\stm32l5xx_hal_dma.c:552:6
	cmp	r1, #2
	bne	.LBB5_6
.Ltmp143:
@ %bb.1:
	@DEBUG_VALUE: HAL_DMA_Abort_IT:hdma <- $r0
	@DEBUG_VALUE: HAL_DMA_Abort_IT:status <- 0
	.loc	5 562 5 is_stmt 1               @ c:/Keil_v5\ARM\PACK\Keil\STM32L5xx_DFP\1.3.0\Drivers\STM32L5xx_HAL_Driver\Src\stm32l5xx_hal_dma.c:562:5
	ldr	r1, [r0]
	.loc	5 571 11                        @ c:/Keil_v5\ARM\PACK\Keil\STM32L5xx_DFP\1.3.0\Drivers\STM32L5xx_HAL_Driver\Src\stm32l5xx_hal_dma.c:571:11
	ldrd	r12, lr, [r0, #72]
	.loc	5 568 11                        @ c:/Keil_v5\ARM\PACK\Keil\STM32L5xx_DFP\1.3.0\Drivers\STM32L5xx_HAL_Driver\Src\stm32l5xx_hal_dma.c:568:11
	ldr	r2, [r0, #80]
	.loc	5 562 5                         @ c:/Keil_v5\ARM\PACK\Keil\STM32L5xx_DFP\1.3.0\Drivers\STM32L5xx_HAL_Driver\Src\stm32l5xx_hal_dma.c:562:5
	ldr	r3, [r1]
	bic	r3, r3, #14
	str	r3, [r1]
	.loc	5 565 5                         @ c:/Keil_v5\ARM\PACK\Keil\STM32L5xx_DFP\1.3.0\Drivers\STM32L5xx_HAL_Driver\Src\stm32l5xx_hal_dma.c:565:5
	ldr	r3, [r1]
	bic	r3, r3, #1
	str	r3, [r1]
	.loc	5 568 30                        @ c:/Keil_v5\ARM\PACK\Keil\STM32L5xx_DFP\1.3.0\Drivers\STM32L5xx_HAL_Driver\Src\stm32l5xx_hal_dma.c:568:30
	ldr	r1, [r2]
	bic	r1, r1, #256
	str	r1, [r2]
	.loc	5 571 71                        @ c:/Keil_v5\ARM\PACK\Keil\STM32L5xx_DFP\1.3.0\Drivers\STM32L5xx_HAL_Driver\Src\stm32l5xx_hal_dma.c:571:71
	and	r2, lr, #28
	movs	r1, #1
	.loc	5 571 48 is_stmt 0              @ c:/Keil_v5\ARM\PACK\Keil\STM32L5xx_DFP\1.3.0\Drivers\STM32L5xx_HAL_Driver\Src\stm32l5xx_hal_dma.c:571:48
	lsl.w	r2, r1, r2
	.loc	5 571 32                        @ c:/Keil_v5\ARM\PACK\Keil\STM32L5xx_DFP\1.3.0\Drivers\STM32L5xx_HAL_Driver\Src\stm32l5xx_hal_dma.c:571:32
	str.w	r2, [r12, #4]
	.loc	5 574 11 is_stmt 1              @ c:/Keil_v5\ARM\PACK\Keil\STM32L5xx_DFP\1.3.0\Drivers\STM32L5xx_HAL_Driver\Src\stm32l5xx_hal_dma.c:574:11
	ldrd	r3, r2, [r0, #84]
	.loc	5 574 36 is_stmt 0              @ c:/Keil_v5\ARM\PACK\Keil\STM32L5xx_DFP\1.3.0\Drivers\STM32L5xx_HAL_Driver\Src\stm32l5xx_hal_dma.c:574:36
	str	r2, [r3, #4]
.Ltmp144:
	.loc	5 576 14 is_stmt 1              @ c:/Keil_v5\ARM\PACK\Keil\STM32L5xx_DFP\1.3.0\Drivers\STM32L5xx_HAL_Driver\Src\stm32l5xx_hal_dma.c:576:14
	ldr	r2, [r0, #92]
.Ltmp145:
	.loc	5 576 8 is_stmt 0               @ c:/Keil_v5\ARM\PACK\Keil\STM32L5xx_DFP\1.3.0\Drivers\STM32L5xx_HAL_Driver\Src\stm32l5xx_hal_dma.c:576:8
	cbz	r2, .LBB5_3
.Ltmp146:
@ %bb.2:
	@DEBUG_VALUE: HAL_DMA_Abort_IT:hdma <- $r0
	@DEBUG_VALUE: HAL_DMA_Abort_IT:status <- 0
	.loc	5 580 36 is_stmt 1              @ c:/Keil_v5\ARM\PACK\Keil\STM32L5xx_DFP\1.3.0\Drivers\STM32L5xx_HAL_Driver\Src\stm32l5xx_hal_dma.c:580:36
	ldr	r3, [r2]
	bic	r3, r3, #256
	str	r3, [r2]
	.loc	5 583 13                        @ c:/Keil_v5\ARM\PACK\Keil\STM32L5xx_DFP\1.3.0\Drivers\STM32L5xx_HAL_Driver\Src\stm32l5xx_hal_dma.c:583:13
	ldrd	r2, r3, [r0, #96]
	.loc	5 583 43 is_stmt 0              @ c:/Keil_v5\ARM\PACK\Keil\STM32L5xx_DFP\1.3.0\Drivers\STM32L5xx_HAL_Driver\Src\stm32l5xx_hal_dma.c:583:43
	str	r3, [r2, #4]
.Ltmp147:
.LBB5_3:
	@DEBUG_VALUE: HAL_DMA_Abort_IT:hdma <- $r0
	@DEBUG_VALUE: HAL_DMA_Abort_IT:status <- 0
	.loc	5 587 17 is_stmt 1              @ c:/Keil_v5\ARM\PACK\Keil\STM32L5xx_DFP\1.3.0\Drivers\STM32L5xx_HAL_Driver\Src\stm32l5xx_hal_dma.c:587:17
	strb.w	r1, [r0, #37]
.Ltmp148:
	.loc	5 593 14                        @ c:/Keil_v5\ARM\PACK\Keil\STM32L5xx_DFP\1.3.0\Drivers\STM32L5xx_HAL_Driver\Src\stm32l5xx_hal_dma.c:593:14
	ldr	r2, [r0, #64]
	movs	r1, #0
.Ltmp149:
	.loc	5 590 5                         @ c:/Keil_v5\ARM\PACK\Keil\STM32L5xx_DFP\1.3.0\Drivers\STM32L5xx_HAL_Driver\Src\stm32l5xx_hal_dma.c:590:5
	strb.w	r1, [r0, #36]
.Ltmp150:
	.loc	5 593 8                         @ c:/Keil_v5\ARM\PACK\Keil\STM32L5xx_DFP\1.3.0\Drivers\STM32L5xx_HAL_Driver\Src\stm32l5xx_hal_dma.c:593:8
	cbz	r2, .LBB5_5
.Ltmp151:
@ %bb.4:
	@DEBUG_VALUE: HAL_DMA_Abort_IT:hdma <- $r0
	@DEBUG_VALUE: HAL_DMA_Abort_IT:status <- 0
	.loc	5 595 7                         @ c:/Keil_v5\ARM\PACK\Keil\STM32L5xx_DFP\1.3.0\Drivers\STM32L5xx_HAL_Driver\Src\stm32l5xx_hal_dma.c:595:7
	blx	r2
.Ltmp152:
	@DEBUG_VALUE: HAL_DMA_Abort_IT:hdma <- [DW_OP_LLVM_entry_value 1] $r0
	.loc	5 0 7 is_stmt 0                 @ c:/Keil_v5\ARM\PACK\Keil\STM32L5xx_DFP\1.3.0\Drivers\STM32L5xx_HAL_Driver\Src\stm32l5xx_hal_dma.c:0:7
	movs	r1, #0
.Ltmp153:
.LBB5_5:
	@DEBUG_VALUE: HAL_DMA_Abort_IT:status <- 0
	@DEBUG_VALUE: HAL_DMA_Abort_IT:status <- $r1
	.loc	5 598 3 is_stmt 1               @ c:/Keil_v5\ARM\PACK\Keil\STM32L5xx_DFP\1.3.0\Drivers\STM32L5xx_HAL_Driver\Src\stm32l5xx_hal_dma.c:598:3
	mov	r0, r1
	pop	{r7, pc}
.Ltmp154:
	.p2align	2
.LBB5_6:
	@DEBUG_VALUE: HAL_DMA_Abort_IT:hdma <- $r0
	@DEBUG_VALUE: HAL_DMA_Abort_IT:status <- 0
	.loc	5 0 3 is_stmt 0                 @ c:/Keil_v5\ARM\PACK\Keil\STM32L5xx_DFP\1.3.0\Drivers\STM32L5xx_HAL_Driver\Src\stm32l5xx_hal_dma.c:0:3
	movs	r1, #4
.Ltmp155:
	.loc	5 555 21 is_stmt 1              @ c:/Keil_v5\ARM\PACK\Keil\STM32L5xx_DFP\1.3.0\Drivers\STM32L5xx_HAL_Driver\Src\stm32l5xx_hal_dma.c:555:21
	str	r1, [r0, #68]
	movs	r1, #1
.Ltmp156:
	@DEBUG_VALUE: HAL_DMA_Abort_IT:status <- 1
	@DEBUG_VALUE: HAL_DMA_Abort_IT:status <- $r1
	.loc	5 598 3                         @ c:/Keil_v5\ARM\PACK\Keil\STM32L5xx_DFP\1.3.0\Drivers\STM32L5xx_HAL_Driver\Src\stm32l5xx_hal_dma.c:598:3
	mov	r0, r1
.Ltmp157:
	@DEBUG_VALUE: HAL_DMA_Abort_IT:hdma <- [DW_OP_LLVM_entry_value 1] $r0
	pop	{r7, pc}
.Ltmp158:
.Lfunc_end5:
	.size	HAL_DMA_Abort_IT, .Lfunc_end5-HAL_DMA_Abort_IT
	.cfi_endproc
	.cantunwind
	.fnend
                                        @ -- End function
	.section	.text.HAL_DMA_PollForTransfer,"ax",%progbits
	.hidden	HAL_DMA_PollForTransfer         @ -- Begin function HAL_DMA_PollForTransfer
	.globl	HAL_DMA_PollForTransfer
	.p2align	2
	.type	HAL_DMA_PollForTransfer,%function
	.code	16                              @ @HAL_DMA_PollForTransfer
	.thumb_func
HAL_DMA_PollForTransfer:
.Lfunc_begin6:
	.loc	5 610 0                         @ c:/Keil_v5\ARM\PACK\Keil\STM32L5xx_DFP\1.3.0\Drivers\STM32L5xx_HAL_Driver\Src\stm32l5xx_hal_dma.c:610:0
	.fnstart
	.cfi_startproc
@ %bb.0:
	@DEBUG_VALUE: HAL_DMA_PollForTransfer:hdma <- $r0
	@DEBUG_VALUE: HAL_DMA_PollForTransfer:CompleteLevel <- $r1
	@DEBUG_VALUE: HAL_DMA_PollForTransfer:Timeout <- $r2
	.save	{r4, r5, r6, r7, r8, lr}
	push.w	{r4, r5, r6, r7, r8, lr}
	.cfi_def_cfa_offset 24
	.cfi_offset lr, -4
	.cfi_offset r8, -8
	.cfi_offset r7, -12
	.cfi_offset r6, -16
	.cfi_offset r5, -20
	.cfi_offset r4, -24
	mov	r4, r0
.Ltmp159:
	@DEBUG_VALUE: HAL_DMA_PollForTransfer:CompleteLevel <- undef
	@DEBUG_VALUE: HAL_DMA_PollForTransfer:hdma <- $r4
	.loc	5 614 34 prologue_end           @ c:/Keil_v5\ARM\PACK\Keil\STM32L5xx_DFP\1.3.0\Drivers\STM32L5xx_HAL_Driver\Src\stm32l5xx_hal_dma.c:614:34
	ldrb.w	r0, [r0, #37]
.Ltmp160:
	@DEBUG_VALUE: HAL_DMA_PollForTransfer:Timeout <- $r2
	.loc	5 614 6 is_stmt 0               @ c:/Keil_v5\ARM\PACK\Keil\STM32L5xx_DFP\1.3.0\Drivers\STM32L5xx_HAL_Driver\Src\stm32l5xx_hal_dma.c:614:6
	cmp	r0, #2
.Ltmp161:
	@DEBUG_VALUE: HAL_DMA_PollForTransfer:CompleteLevel <- $r1
	bne	.LBB6_10
.Ltmp162:
@ %bb.1:
	@DEBUG_VALUE: HAL_DMA_PollForTransfer:hdma <- $r4
	@DEBUG_VALUE: HAL_DMA_PollForTransfer:Timeout <- $r2
	@DEBUG_VALUE: HAL_DMA_PollForTransfer:CompleteLevel <- $r1
	@DEBUG_VALUE: HAL_DMA_PollForTransfer:Timeout <- $r2
	@DEBUG_VALUE: HAL_DMA_PollForTransfer:CompleteLevel <- $r1
	.loc	5 623 14 is_stmt 1              @ c:/Keil_v5\ARM\PACK\Keil\STM32L5xx_DFP\1.3.0\Drivers\STM32L5xx_HAL_Driver\Src\stm32l5xx_hal_dma.c:623:14
	ldr	r0, [r4]
	.loc	5 623 24 is_stmt 0              @ c:/Keil_v5\ARM\PACK\Keil\STM32L5xx_DFP\1.3.0\Drivers\STM32L5xx_HAL_Driver\Src\stm32l5xx_hal_dma.c:623:24
	ldr	r0, [r0]
.Ltmp163:
	.loc	5 623 7                         @ c:/Keil_v5\ARM\PACK\Keil\STM32L5xx_DFP\1.3.0\Drivers\STM32L5xx_HAL_Driver\Src\stm32l5xx_hal_dma.c:623:7
	lsls	r0, r0, #26
	bmi	.LBB6_11
.Ltmp164:
@ %bb.2:
	@DEBUG_VALUE: HAL_DMA_PollForTransfer:hdma <- $r4
	@DEBUG_VALUE: HAL_DMA_PollForTransfer:Timeout <- $r2
	@DEBUG_VALUE: HAL_DMA_PollForTransfer:CompleteLevel <- $r1
	.loc	5 0 0                           @ c:/Keil_v5\ARM\PACK\Keil\STM32L5xx_DFP\1.3.0\Drivers\STM32L5xx_HAL_Driver\Src\stm32l5xx_hal_dma.c:0:0
	ldr	r0, [r4, #76]
	mov	r5, r1
.Ltmp165:
	@DEBUG_VALUE: HAL_DMA_PollForTransfer:CompleteLevel <- $r5
	@DEBUG_VALUE: HAL_DMA_PollForTransfer:CompleteLevel <- $r5
	and	r0, r0, #28
	movs	r1, #4
	mov	r6, r2
.Ltmp166:
	@DEBUG_VALUE: HAL_DMA_PollForTransfer:Timeout <- $r6
	@DEBUG_VALUE: HAL_DMA_PollForTransfer:Timeout <- $r6
	.loc	5 630 7 is_stmt 1               @ c:/Keil_v5\ARM\PACK\Keil\STM32L5xx_DFP\1.3.0\Drivers\STM32L5xx_HAL_Driver\Src\stm32l5xx_hal_dma.c:630:7
	cmp	r5, #0
	it	eq
	moveq	r1, #2
.Ltmp167:
	.loc	5 0 0 is_stmt 0                 @ c:/Keil_v5\ARM\PACK\Keil\STM32L5xx_DFP\1.3.0\Drivers\STM32L5xx_HAL_Driver\Src\stm32l5xx_hal_dma.c:0:0
	lsl.w	r7, r1, r0
.Ltmp168:
	@DEBUG_VALUE: HAL_DMA_PollForTransfer:temp <- $r7
	.loc	5 642 15 is_stmt 1              @ c:/Keil_v5\ARM\PACK\Keil\STM32L5xx_DFP\1.3.0\Drivers\STM32L5xx_HAL_Driver\Src\stm32l5xx_hal_dma.c:642:15
	bl	HAL_GetTick
	.loc	5 644 16                        @ c:/Keil_v5\ARM\PACK\Keil\STM32L5xx_DFP\1.3.0\Drivers\STM32L5xx_HAL_Driver\Src\stm32l5xx_hal_dma.c:644:16
	ldr	r1, [r4, #72]
	.loc	5 644 32 is_stmt 0              @ c:/Keil_v5\ARM\PACK\Keil\STM32L5xx_DFP\1.3.0\Drivers\STM32L5xx_HAL_Driver\Src\stm32l5xx_hal_dma.c:644:32
	ldr	r2, [r1]
	.loc	5 644 3                         @ c:/Keil_v5\ARM\PACK\Keil\STM32L5xx_DFP\1.3.0\Drivers\STM32L5xx_HAL_Driver\Src\stm32l5xx_hal_dma.c:644:3
	tst	r2, r7
.Ltmp169:
	@DEBUG_VALUE: HAL_DMA_PollForTransfer:tickstart <- $r0
	beq	.LBB6_12
.Ltmp170:
.LBB6_3:
	@DEBUG_VALUE: HAL_DMA_PollForTransfer:temp <- $r7
	@DEBUG_VALUE: HAL_DMA_PollForTransfer:Timeout <- $r6
	@DEBUG_VALUE: HAL_DMA_PollForTransfer:CompleteLevel <- $r5
	@DEBUG_VALUE: HAL_DMA_PollForTransfer:hdma <- $r4
	.loc	5 684 12 is_stmt 1              @ c:/Keil_v5\ARM\PACK\Keil\STM32L5xx_DFP\1.3.0\Drivers\STM32L5xx_HAL_Driver\Src\stm32l5xx_hal_dma.c:684:12
	ldr	r0, [r4, #92]
	cbz	r0, .LBB6_6
.Ltmp171:
@ %bb.4:
	@DEBUG_VALUE: HAL_DMA_PollForTransfer:temp <- $r7
	@DEBUG_VALUE: HAL_DMA_PollForTransfer:Timeout <- $r6
	@DEBUG_VALUE: HAL_DMA_PollForTransfer:CompleteLevel <- $r5
	@DEBUG_VALUE: HAL_DMA_PollForTransfer:hdma <- $r4
	.loc	5 687 15                        @ c:/Keil_v5\ARM\PACK\Keil\STM32L5xx_DFP\1.3.0\Drivers\STM32L5xx_HAL_Driver\Src\stm32l5xx_hal_dma.c:687:15
	ldrd	r2, r3, [r4, #96]
	.loc	5 687 39 is_stmt 0              @ c:/Keil_v5\ARM\PACK\Keil\STM32L5xx_DFP\1.3.0\Drivers\STM32L5xx_HAL_Driver\Src\stm32l5xx_hal_dma.c:687:39
	ldr	r7, [r2]
.Ltmp172:
	.loc	5 687 8                         @ c:/Keil_v5\ARM\PACK\Keil\STM32L5xx_DFP\1.3.0\Drivers\STM32L5xx_HAL_Driver\Src\stm32l5xx_hal_dma.c:687:8
	tst	r3, r7
	beq	.LBB6_6
.Ltmp173:
@ %bb.5:
	@DEBUG_VALUE: HAL_DMA_PollForTransfer:Timeout <- $r6
	@DEBUG_VALUE: HAL_DMA_PollForTransfer:CompleteLevel <- $r5
	@DEBUG_VALUE: HAL_DMA_PollForTransfer:hdma <- $r4
	.loc	5 690 36 is_stmt 1              @ c:/Keil_v5\ARM\PACK\Keil\STM32L5xx_DFP\1.3.0\Drivers\STM32L5xx_HAL_Driver\Src\stm32l5xx_hal_dma.c:690:36
	ldr	r7, [r0]
	orr	r7, r7, #256
	str	r7, [r0]
	.loc	5 693 43                        @ c:/Keil_v5\ARM\PACK\Keil\STM32L5xx_DFP\1.3.0\Drivers\STM32L5xx_HAL_Driver\Src\stm32l5xx_hal_dma.c:693:43
	str	r3, [r2, #4]
	.loc	5 696 23                        @ c:/Keil_v5\ARM\PACK\Keil\STM32L5xx_DFP\1.3.0\Drivers\STM32L5xx_HAL_Driver\Src\stm32l5xx_hal_dma.c:696:23
	ldr	r0, [r4, #68]
	orr	r0, r0, #1024
	str	r0, [r4, #68]
.Ltmp174:
.LBB6_6:
	@DEBUG_VALUE: HAL_DMA_PollForTransfer:Timeout <- $r6
	@DEBUG_VALUE: HAL_DMA_PollForTransfer:CompleteLevel <- $r5
	@DEBUG_VALUE: HAL_DMA_PollForTransfer:hdma <- $r4
	.loc	5 701 13                        @ c:/Keil_v5\ARM\PACK\Keil\STM32L5xx_DFP\1.3.0\Drivers\STM32L5xx_HAL_Driver\Src\stm32l5xx_hal_dma.c:701:13
	ldrd	r0, r2, [r4, #84]
	.loc	5 701 34 is_stmt 0              @ c:/Keil_v5\ARM\PACK\Keil\STM32L5xx_DFP\1.3.0\Drivers\STM32L5xx_HAL_Driver\Src\stm32l5xx_hal_dma.c:701:34
	ldr	r3, [r0]
.Ltmp175:
	.loc	5 701 6                         @ c:/Keil_v5\ARM\PACK\Keil\STM32L5xx_DFP\1.3.0\Drivers\STM32L5xx_HAL_Driver\Src\stm32l5xx_hal_dma.c:701:6
	tst	r2, r3
	beq	.LBB6_8
.Ltmp176:
@ %bb.7:
	@DEBUG_VALUE: HAL_DMA_PollForTransfer:Timeout <- $r6
	@DEBUG_VALUE: HAL_DMA_PollForTransfer:CompleteLevel <- $r5
	@DEBUG_VALUE: HAL_DMA_PollForTransfer:hdma <- $r4
	.loc	5 704 36 is_stmt 1              @ c:/Keil_v5\ARM\PACK\Keil\STM32L5xx_DFP\1.3.0\Drivers\STM32L5xx_HAL_Driver\Src\stm32l5xx_hal_dma.c:704:36
	str	r2, [r0, #4]
	.loc	5 707 21                        @ c:/Keil_v5\ARM\PACK\Keil\STM32L5xx_DFP\1.3.0\Drivers\STM32L5xx_HAL_Driver\Src\stm32l5xx_hal_dma.c:707:21
	ldr	r0, [r4, #68]
	orr	r0, r0, #512
	str	r0, [r4, #68]
.Ltmp177:
.LBB6_8:
	@DEBUG_VALUE: HAL_DMA_PollForTransfer:Timeout <- $r6
	@DEBUG_VALUE: HAL_DMA_PollForTransfer:CompleteLevel <- $r5
	@DEBUG_VALUE: HAL_DMA_PollForTransfer:hdma <- $r4
	.loc	5 0 0 is_stmt 0                 @ c:/Keil_v5\ARM\PACK\Keil\STM32L5xx_DFP\1.3.0\Drivers\STM32L5xx_HAL_Driver\Src\stm32l5xx_hal_dma.c:0:0
	ldr	r0, [r4, #76]
.Ltmp178:
	.loc	5 710 6 is_stmt 1               @ c:/Keil_v5\ARM\PACK\Keil\STM32L5xx_DFP\1.3.0\Drivers\STM32L5xx_HAL_Driver\Src\stm32l5xx_hal_dma.c:710:6
	cmp	r5, #0
.Ltmp179:
	.loc	5 0 0 is_stmt 0                 @ c:/Keil_v5\ARM\PACK\Keil\STM32L5xx_DFP\1.3.0\Drivers\STM32L5xx_HAL_Driver\Src\stm32l5xx_hal_dma.c:0:0
	and	r0, r0, #28
	beq	.LBB6_22
.Ltmp180:
@ %bb.9:
	@DEBUG_VALUE: HAL_DMA_PollForTransfer:Timeout <- $r6
	@DEBUG_VALUE: HAL_DMA_PollForTransfer:CompleteLevel <- $r5
	@DEBUG_VALUE: HAL_DMA_PollForTransfer:hdma <- $r4
	movs	r2, #4
.Ltmp181:
	.loc	5 725 48 is_stmt 1              @ c:/Keil_v5\ARM\PACK\Keil\STM32L5xx_DFP\1.3.0\Drivers\STM32L5xx_HAL_Driver\Src\stm32l5xx_hal_dma.c:725:48
	lsl.w	r0, r2, r0
	.loc	5 725 32 is_stmt 0              @ c:/Keil_v5\ARM\PACK\Keil\STM32L5xx_DFP\1.3.0\Drivers\STM32L5xx_HAL_Driver\Src\stm32l5xx_hal_dma.c:725:32
	str	r0, [r1, #4]
	movs	r0, #0
.Ltmp182:
	.loc	5 729 1 is_stmt 1               @ c:/Keil_v5\ARM\PACK\Keil\STM32L5xx_DFP\1.3.0\Drivers\STM32L5xx_HAL_Driver\Src\stm32l5xx_hal_dma.c:729:1
	pop.w	{r4, r5, r6, r7, r8, pc}
.Ltmp183:
	.p2align	2
.LBB6_10:
	@DEBUG_VALUE: HAL_DMA_PollForTransfer:hdma <- $r4
	@DEBUG_VALUE: HAL_DMA_PollForTransfer:Timeout <- $r2
	@DEBUG_VALUE: HAL_DMA_PollForTransfer:CompleteLevel <- $r1
	.loc	5 0 1 is_stmt 0                 @ c:/Keil_v5\ARM\PACK\Keil\STM32L5xx_DFP\1.3.0\Drivers\STM32L5xx_HAL_Driver\Src\stm32l5xx_hal_dma.c:0:1
	movs	r0, #4
.Ltmp184:
	.loc	5 617 21 is_stmt 1              @ c:/Keil_v5\ARM\PACK\Keil\STM32L5xx_DFP\1.3.0\Drivers\STM32L5xx_HAL_Driver\Src\stm32l5xx_hal_dma.c:617:21
	str	r0, [r4, #68]
	movs	r0, #0
.Ltmp185:
	.loc	5 618 5                         @ c:/Keil_v5\ARM\PACK\Keil\STM32L5xx_DFP\1.3.0\Drivers\STM32L5xx_HAL_Driver\Src\stm32l5xx_hal_dma.c:618:5
	strb.w	r0, [r4, #36]
	movs	r0, #1
.Ltmp186:
	.loc	5 729 1                         @ c:/Keil_v5\ARM\PACK\Keil\STM32L5xx_DFP\1.3.0\Drivers\STM32L5xx_HAL_Driver\Src\stm32l5xx_hal_dma.c:729:1
	pop.w	{r4, r5, r6, r7, r8, pc}
.Ltmp187:
	.p2align	2
.LBB6_11:
	@DEBUG_VALUE: HAL_DMA_PollForTransfer:hdma <- $r4
	@DEBUG_VALUE: HAL_DMA_PollForTransfer:Timeout <- $r2
	@DEBUG_VALUE: HAL_DMA_PollForTransfer:CompleteLevel <- $r1
	.loc	5 0 1 is_stmt 0                 @ c:/Keil_v5\ARM\PACK\Keil\STM32L5xx_DFP\1.3.0\Drivers\STM32L5xx_HAL_Driver\Src\stm32l5xx_hal_dma.c:0:1
	mov.w	r0, #256
.Ltmp188:
	.loc	5 625 21 is_stmt 1              @ c:/Keil_v5\ARM\PACK\Keil\STM32L5xx_DFP\1.3.0\Drivers\STM32L5xx_HAL_Driver\Src\stm32l5xx_hal_dma.c:625:21
	str	r0, [r4, #68]
	movs	r0, #1
.Ltmp189:
	.loc	5 729 1                         @ c:/Keil_v5\ARM\PACK\Keil\STM32L5xx_DFP\1.3.0\Drivers\STM32L5xx_HAL_Driver\Src\stm32l5xx_hal_dma.c:729:1
	pop.w	{r4, r5, r6, r7, r8, pc}
.Ltmp190:
	.p2align	2
.LBB6_12:
	@DEBUG_VALUE: HAL_DMA_PollForTransfer:temp <- $r7
	@DEBUG_VALUE: HAL_DMA_PollForTransfer:Timeout <- $r6
	@DEBUG_VALUE: HAL_DMA_PollForTransfer:CompleteLevel <- $r5
	@DEBUG_VALUE: HAL_DMA_PollForTransfer:hdma <- $r4
	@DEBUG_VALUE: HAL_DMA_PollForTransfer:tickstart <- $r0
	.loc	5 0 0 is_stmt 0                 @ c:/Keil_v5\ARM\PACK\Keil\STM32L5xx_DFP\1.3.0\Drivers\STM32L5xx_HAL_Driver\Src\stm32l5xx_hal_dma.c:0:0
	mov	r8, r0
.Ltmp191:
	@DEBUG_VALUE: HAL_DMA_PollForTransfer:tickstart <- $r8
	@DEBUG_VALUE: HAL_DMA_PollForTransfer:tickstart <- $r8
	.loc	5 644 3 is_stmt 1               @ c:/Keil_v5\ARM\PACK\Keil\STM32L5xx_DFP\1.3.0\Drivers\STM32L5xx_HAL_Driver\Src\stm32l5xx_hal_dma.c:644:3
	adds	r0, r6, #1
	beq	.LBB6_23
.Ltmp192:
@ %bb.13:
	@DEBUG_VALUE: HAL_DMA_PollForTransfer:tickstart <- $r8
	@DEBUG_VALUE: HAL_DMA_PollForTransfer:temp <- $r7
	@DEBUG_VALUE: HAL_DMA_PollForTransfer:Timeout <- $r6
	@DEBUG_VALUE: HAL_DMA_PollForTransfer:CompleteLevel <- $r5
	@DEBUG_VALUE: HAL_DMA_PollForTransfer:hdma <- $r4
	cbnz	r6, .LBB6_19
.Ltmp193:
@ %bb.14:
	@DEBUG_VALUE: HAL_DMA_PollForTransfer:tickstart <- $r8
	@DEBUG_VALUE: HAL_DMA_PollForTransfer:temp <- $r7
	@DEBUG_VALUE: HAL_DMA_PollForTransfer:Timeout <- $r6
	@DEBUG_VALUE: HAL_DMA_PollForTransfer:CompleteLevel <- $r5
	@DEBUG_VALUE: HAL_DMA_PollForTransfer:hdma <- $r4
	.loc	5 646 31                        @ c:/Keil_v5\ARM\PACK\Keil\STM32L5xx_DFP\1.3.0\Drivers\STM32L5xx_HAL_Driver\Src\stm32l5xx_hal_dma.c:646:31
	ldr	r0, [r1]
	.loc	5 646 61 is_stmt 0              @ c:/Keil_v5\ARM\PACK\Keil\STM32L5xx_DFP\1.3.0\Drivers\STM32L5xx_HAL_Driver\Src\stm32l5xx_hal_dma.c:646:61
	ldr	r2, [r4, #76]
	.loc	5 646 73                        @ c:/Keil_v5\ARM\PACK\Keil\STM32L5xx_DFP\1.3.0\Drivers\STM32L5xx_HAL_Driver\Src\stm32l5xx_hal_dma.c:646:73
	and	r2, r2, #28
.Ltmp194:
	.loc	5 646 8                         @ c:/Keil_v5\ARM\PACK\Keil\STM32L5xx_DFP\1.3.0\Drivers\STM32L5xx_HAL_Driver\Src\stm32l5xx_hal_dma.c:646:8
	lsrs	r0, r2
	lsls	r0, r0, #28
	bmi	.LBB6_20
.Ltmp195:
@ %bb.15:
	@DEBUG_VALUE: HAL_DMA_PollForTransfer:tickstart <- $r8
	@DEBUG_VALUE: HAL_DMA_PollForTransfer:temp <- $r7
	@DEBUG_VALUE: HAL_DMA_PollForTransfer:Timeout <- $r6
	@DEBUG_VALUE: HAL_DMA_PollForTransfer:CompleteLevel <- $r5
	@DEBUG_VALUE: HAL_DMA_PollForTransfer:hdma <- $r4
	.loc	5 667 12 is_stmt 1              @ c:/Keil_v5\ARM\PACK\Keil\STM32L5xx_DFP\1.3.0\Drivers\STM32L5xx_HAL_Driver\Src\stm32l5xx_hal_dma.c:667:12
	bl	HAL_GetTick
.Ltmp196:
.LBB6_16:
	@DEBUG_VALUE: HAL_DMA_PollForTransfer:tickstart <- $r8
	@DEBUG_VALUE: HAL_DMA_PollForTransfer:temp <- $r7
	@DEBUG_VALUE: HAL_DMA_PollForTransfer:Timeout <- $r6
	@DEBUG_VALUE: HAL_DMA_PollForTransfer:CompleteLevel <- $r5
	@DEBUG_VALUE: HAL_DMA_PollForTransfer:hdma <- $r4
	.loc	5 0 12 is_stmt 0                @ c:/Keil_v5\ARM\PACK\Keil\STM32L5xx_DFP\1.3.0\Drivers\STM32L5xx_HAL_Driver\Src\stm32l5xx_hal_dma.c:0:12
	movs	r0, #32
.Ltmp197:
	.loc	5 670 25 is_stmt 1              @ c:/Keil_v5\ARM\PACK\Keil\STM32L5xx_DFP\1.3.0\Drivers\STM32L5xx_HAL_Driver\Src\stm32l5xx_hal_dma.c:670:25
	str	r0, [r4, #68]
	movs	r0, #1
	b	.LBB6_21
.Ltmp198:
	.p2align	2
.LBB6_17:                               @   in Loop: Header=BB6_19 Depth=1
	@DEBUG_VALUE: HAL_DMA_PollForTransfer:tickstart <- $r8
	@DEBUG_VALUE: HAL_DMA_PollForTransfer:temp <- $r7
	@DEBUG_VALUE: HAL_DMA_PollForTransfer:Timeout <- $r6
	@DEBUG_VALUE: HAL_DMA_PollForTransfer:CompleteLevel <- $r5
	@DEBUG_VALUE: HAL_DMA_PollForTransfer:hdma <- $r4
	.loc	5 667 12                        @ c:/Keil_v5\ARM\PACK\Keil\STM32L5xx_DFP\1.3.0\Drivers\STM32L5xx_HAL_Driver\Src\stm32l5xx_hal_dma.c:667:12
	bl	HAL_GetTick
	.loc	5 667 26 is_stmt 0              @ c:/Keil_v5\ARM\PACK\Keil\STM32L5xx_DFP\1.3.0\Drivers\STM32L5xx_HAL_Driver\Src\stm32l5xx_hal_dma.c:667:26
	sub.w	r0, r0, r8
	.loc	5 667 50                        @ c:/Keil_v5\ARM\PACK\Keil\STM32L5xx_DFP\1.3.0\Drivers\STM32L5xx_HAL_Driver\Src\stm32l5xx_hal_dma.c:667:50
	cmp	r0, r6
	bhi	.LBB6_16
.Ltmp199:
@ %bb.18:                               @   in Loop: Header=BB6_19 Depth=1
	@DEBUG_VALUE: HAL_DMA_PollForTransfer:tickstart <- $r8
	@DEBUG_VALUE: HAL_DMA_PollForTransfer:temp <- $r7
	@DEBUG_VALUE: HAL_DMA_PollForTransfer:Timeout <- $r6
	@DEBUG_VALUE: HAL_DMA_PollForTransfer:CompleteLevel <- $r5
	@DEBUG_VALUE: HAL_DMA_PollForTransfer:hdma <- $r4
	.loc	5 644 16 is_stmt 1              @ c:/Keil_v5\ARM\PACK\Keil\STM32L5xx_DFP\1.3.0\Drivers\STM32L5xx_HAL_Driver\Src\stm32l5xx_hal_dma.c:644:16
	ldr	r1, [r4, #72]
	.loc	5 644 32 is_stmt 0              @ c:/Keil_v5\ARM\PACK\Keil\STM32L5xx_DFP\1.3.0\Drivers\STM32L5xx_HAL_Driver\Src\stm32l5xx_hal_dma.c:644:32
	ldr	r0, [r1]
	.loc	5 644 3                         @ c:/Keil_v5\ARM\PACK\Keil\STM32L5xx_DFP\1.3.0\Drivers\STM32L5xx_HAL_Driver\Src\stm32l5xx_hal_dma.c:644:3
	tst	r0, r7
	bne	.LBB6_3
.Ltmp200:
.LBB6_19:                               @ =>This Inner Loop Header: Depth=1
	@DEBUG_VALUE: HAL_DMA_PollForTransfer:tickstart <- $r8
	@DEBUG_VALUE: HAL_DMA_PollForTransfer:temp <- $r7
	@DEBUG_VALUE: HAL_DMA_PollForTransfer:Timeout <- $r6
	@DEBUG_VALUE: HAL_DMA_PollForTransfer:CompleteLevel <- $r5
	@DEBUG_VALUE: HAL_DMA_PollForTransfer:hdma <- $r4
	.loc	5 646 31 is_stmt 1              @ c:/Keil_v5\ARM\PACK\Keil\STM32L5xx_DFP\1.3.0\Drivers\STM32L5xx_HAL_Driver\Src\stm32l5xx_hal_dma.c:646:31
	ldr	r0, [r1]
	.loc	5 646 61 is_stmt 0              @ c:/Keil_v5\ARM\PACK\Keil\STM32L5xx_DFP\1.3.0\Drivers\STM32L5xx_HAL_Driver\Src\stm32l5xx_hal_dma.c:646:61
	ldr	r2, [r4, #76]
	.loc	5 646 73                        @ c:/Keil_v5\ARM\PACK\Keil\STM32L5xx_DFP\1.3.0\Drivers\STM32L5xx_HAL_Driver\Src\stm32l5xx_hal_dma.c:646:73
	and	r2, r2, #28
.Ltmp201:
	.loc	5 646 8                         @ c:/Keil_v5\ARM\PACK\Keil\STM32L5xx_DFP\1.3.0\Drivers\STM32L5xx_HAL_Driver\Src\stm32l5xx_hal_dma.c:646:8
	lsrs	r0, r2
	lsls	r0, r0, #28
	bpl	.LBB6_17
.Ltmp202:
.LBB6_20:
	@DEBUG_VALUE: HAL_DMA_PollForTransfer:tickstart <- $r8
	@DEBUG_VALUE: HAL_DMA_PollForTransfer:temp <- $r7
	@DEBUG_VALUE: HAL_DMA_PollForTransfer:Timeout <- $r6
	@DEBUG_VALUE: HAL_DMA_PollForTransfer:CompleteLevel <- $r5
	@DEBUG_VALUE: HAL_DMA_PollForTransfer:hdma <- $r4
	.loc	5 0 8                           @ c:/Keil_v5\ARM\PACK\Keil\STM32L5xx_DFP\1.3.0\Drivers\STM32L5xx_HAL_Driver\Src\stm32l5xx_hal_dma.c:0:8
	movs	r0, #1
.Ltmp203:
	.loc	5 651 50 is_stmt 1              @ c:/Keil_v5\ARM\PACK\Keil\STM32L5xx_DFP\1.3.0\Drivers\STM32L5xx_HAL_Driver\Src\stm32l5xx_hal_dma.c:651:50
	lsl.w	r2, r0, r2
	.loc	5 651 34 is_stmt 0              @ c:/Keil_v5\ARM\PACK\Keil\STM32L5xx_DFP\1.3.0\Drivers\STM32L5xx_HAL_Driver\Src\stm32l5xx_hal_dma.c:651:34
	str	r2, [r1, #4]
	.loc	5 654 23 is_stmt 1              @ c:/Keil_v5\ARM\PACK\Keil\STM32L5xx_DFP\1.3.0\Drivers\STM32L5xx_HAL_Driver\Src\stm32l5xx_hal_dma.c:654:23
	str	r0, [r4, #68]
.Ltmp204:
.LBB6_21:
	@DEBUG_VALUE: HAL_DMA_PollForTransfer:tickstart <- $r8
	@DEBUG_VALUE: HAL_DMA_PollForTransfer:temp <- $r7
	@DEBUG_VALUE: HAL_DMA_PollForTransfer:Timeout <- $r6
	@DEBUG_VALUE: HAL_DMA_PollForTransfer:CompleteLevel <- $r5
	@DEBUG_VALUE: HAL_DMA_PollForTransfer:hdma <- $r4
	.loc	5 0 23 is_stmt 0                @ c:/Keil_v5\ARM\PACK\Keil\STM32L5xx_DFP\1.3.0\Drivers\STM32L5xx_HAL_Driver\Src\stm32l5xx_hal_dma.c:0:23
	movs	r1, #0
	strb.w	r0, [r4, #37]
	strb.w	r1, [r4, #36]
.Ltmp205:
	.loc	5 729 1 is_stmt 1               @ c:/Keil_v5\ARM\PACK\Keil\STM32L5xx_DFP\1.3.0\Drivers\STM32L5xx_HAL_Driver\Src\stm32l5xx_hal_dma.c:729:1
	pop.w	{r4, r5, r6, r7, r8, pc}
.Ltmp206:
	.p2align	2
.LBB6_22:
	@DEBUG_VALUE: HAL_DMA_PollForTransfer:Timeout <- $r6
	@DEBUG_VALUE: HAL_DMA_PollForTransfer:CompleteLevel <- $r5
	@DEBUG_VALUE: HAL_DMA_PollForTransfer:hdma <- $r4
	.loc	5 0 1 is_stmt 0                 @ c:/Keil_v5\ARM\PACK\Keil\STM32L5xx_DFP\1.3.0\Drivers\STM32L5xx_HAL_Driver\Src\stm32l5xx_hal_dma.c:0:1
	movs	r2, #2
.Ltmp207:
	.loc	5 713 48 is_stmt 1              @ c:/Keil_v5\ARM\PACK\Keil\STM32L5xx_DFP\1.3.0\Drivers\STM32L5xx_HAL_Driver\Src\stm32l5xx_hal_dma.c:713:48
	lsl.w	r0, r2, r0
	.loc	5 713 32 is_stmt 0              @ c:/Keil_v5\ARM\PACK\Keil\STM32L5xx_DFP\1.3.0\Drivers\STM32L5xx_HAL_Driver\Src\stm32l5xx_hal_dma.c:713:32
	str	r0, [r1, #4]
	movs	r0, #0
	movs	r1, #1
.Ltmp208:
	.loc	5 716 5 is_stmt 1               @ c:/Keil_v5\ARM\PACK\Keil\STM32L5xx_DFP\1.3.0\Drivers\STM32L5xx_HAL_Driver\Src\stm32l5xx_hal_dma.c:716:5
	strb.w	r0, [r4, #36]
.Ltmp209:
	.loc	5 720 17                        @ c:/Keil_v5\ARM\PACK\Keil\STM32L5xx_DFP\1.3.0\Drivers\STM32L5xx_HAL_Driver\Src\stm32l5xx_hal_dma.c:720:17
	strb.w	r1, [r4, #37]
.Ltmp210:
	.loc	5 729 1                         @ c:/Keil_v5\ARM\PACK\Keil\STM32L5xx_DFP\1.3.0\Drivers\STM32L5xx_HAL_Driver\Src\stm32l5xx_hal_dma.c:729:1
	pop.w	{r4, r5, r6, r7, r8, pc}
.Ltmp211:
	.p2align	2
.LBB6_23:
	@DEBUG_VALUE: HAL_DMA_PollForTransfer:tickstart <- $r8
	@DEBUG_VALUE: HAL_DMA_PollForTransfer:temp <- $r7
	@DEBUG_VALUE: HAL_DMA_PollForTransfer:Timeout <- $r6
	@DEBUG_VALUE: HAL_DMA_PollForTransfer:CompleteLevel <- $r5
	@DEBUG_VALUE: HAL_DMA_PollForTransfer:hdma <- $r4
	.loc	5 646 61                        @ c:/Keil_v5\ARM\PACK\Keil\STM32L5xx_DFP\1.3.0\Drivers\STM32L5xx_HAL_Driver\Src\stm32l5xx_hal_dma.c:646:61
	ldr	r0, [r4, #76]
	and	r2, r0, #28
	movs	r0, #8
	lsls	r0, r2
.Ltmp212:
.LBB6_24:                               @ =>This Inner Loop Header: Depth=1
	@DEBUG_VALUE: HAL_DMA_PollForTransfer:tickstart <- $r8
	@DEBUG_VALUE: HAL_DMA_PollForTransfer:temp <- $r7
	@DEBUG_VALUE: HAL_DMA_PollForTransfer:Timeout <- $r6
	@DEBUG_VALUE: HAL_DMA_PollForTransfer:CompleteLevel <- $r5
	@DEBUG_VALUE: HAL_DMA_PollForTransfer:hdma <- $r4
	.loc	5 646 31 is_stmt 0              @ c:/Keil_v5\ARM\PACK\Keil\STM32L5xx_DFP\1.3.0\Drivers\STM32L5xx_HAL_Driver\Src\stm32l5xx_hal_dma.c:646:31
	ldr	r3, [r1]
.Ltmp213:
	.loc	5 646 8                         @ c:/Keil_v5\ARM\PACK\Keil\STM32L5xx_DFP\1.3.0\Drivers\STM32L5xx_HAL_Driver\Src\stm32l5xx_hal_dma.c:646:8
	tst	r0, r3
	bne	.LBB6_20
.Ltmp214:
@ %bb.25:                               @   in Loop: Header=BB6_24 Depth=1
	@DEBUG_VALUE: HAL_DMA_PollForTransfer:tickstart <- $r8
	@DEBUG_VALUE: HAL_DMA_PollForTransfer:temp <- $r7
	@DEBUG_VALUE: HAL_DMA_PollForTransfer:Timeout <- $r6
	@DEBUG_VALUE: HAL_DMA_PollForTransfer:CompleteLevel <- $r5
	@DEBUG_VALUE: HAL_DMA_PollForTransfer:hdma <- $r4
	.loc	5 644 32 is_stmt 1              @ c:/Keil_v5\ARM\PACK\Keil\STM32L5xx_DFP\1.3.0\Drivers\STM32L5xx_HAL_Driver\Src\stm32l5xx_hal_dma.c:644:32
	ldr	r3, [r1]
	.loc	5 644 3 is_stmt 0               @ c:/Keil_v5\ARM\PACK\Keil\STM32L5xx_DFP\1.3.0\Drivers\STM32L5xx_HAL_Driver\Src\stm32l5xx_hal_dma.c:644:3
	tst	r3, r7
	bne.w	.LBB6_3
.Ltmp215:
@ %bb.26:                               @   in Loop: Header=BB6_24 Depth=1
	@DEBUG_VALUE: HAL_DMA_PollForTransfer:tickstart <- $r8
	@DEBUG_VALUE: HAL_DMA_PollForTransfer:temp <- $r7
	@DEBUG_VALUE: HAL_DMA_PollForTransfer:Timeout <- $r6
	@DEBUG_VALUE: HAL_DMA_PollForTransfer:CompleteLevel <- $r5
	@DEBUG_VALUE: HAL_DMA_PollForTransfer:hdma <- $r4
	.loc	5 646 31 is_stmt 1              @ c:/Keil_v5\ARM\PACK\Keil\STM32L5xx_DFP\1.3.0\Drivers\STM32L5xx_HAL_Driver\Src\stm32l5xx_hal_dma.c:646:31
	ldr	r3, [r1]
.Ltmp216:
	.loc	5 646 8 is_stmt 0               @ c:/Keil_v5\ARM\PACK\Keil\STM32L5xx_DFP\1.3.0\Drivers\STM32L5xx_HAL_Driver\Src\stm32l5xx_hal_dma.c:646:8
	tst	r0, r3
	bne	.LBB6_20
.Ltmp217:
@ %bb.27:                               @   in Loop: Header=BB6_24 Depth=1
	@DEBUG_VALUE: HAL_DMA_PollForTransfer:tickstart <- $r8
	@DEBUG_VALUE: HAL_DMA_PollForTransfer:temp <- $r7
	@DEBUG_VALUE: HAL_DMA_PollForTransfer:Timeout <- $r6
	@DEBUG_VALUE: HAL_DMA_PollForTransfer:CompleteLevel <- $r5
	@DEBUG_VALUE: HAL_DMA_PollForTransfer:hdma <- $r4
	.loc	5 644 32 is_stmt 1              @ c:/Keil_v5\ARM\PACK\Keil\STM32L5xx_DFP\1.3.0\Drivers\STM32L5xx_HAL_Driver\Src\stm32l5xx_hal_dma.c:644:32
	ldr	r3, [r1]
	.loc	5 644 3 is_stmt 0               @ c:/Keil_v5\ARM\PACK\Keil\STM32L5xx_DFP\1.3.0\Drivers\STM32L5xx_HAL_Driver\Src\stm32l5xx_hal_dma.c:644:3
	tst	r3, r7
	bne.w	.LBB6_3
.Ltmp218:
@ %bb.28:                               @   in Loop: Header=BB6_24 Depth=1
	@DEBUG_VALUE: HAL_DMA_PollForTransfer:tickstart <- $r8
	@DEBUG_VALUE: HAL_DMA_PollForTransfer:temp <- $r7
	@DEBUG_VALUE: HAL_DMA_PollForTransfer:Timeout <- $r6
	@DEBUG_VALUE: HAL_DMA_PollForTransfer:CompleteLevel <- $r5
	@DEBUG_VALUE: HAL_DMA_PollForTransfer:hdma <- $r4
	.loc	5 646 31 is_stmt 1              @ c:/Keil_v5\ARM\PACK\Keil\STM32L5xx_DFP\1.3.0\Drivers\STM32L5xx_HAL_Driver\Src\stm32l5xx_hal_dma.c:646:31
	ldr	r3, [r1]
.Ltmp219:
	.loc	5 646 8 is_stmt 0               @ c:/Keil_v5\ARM\PACK\Keil\STM32L5xx_DFP\1.3.0\Drivers\STM32L5xx_HAL_Driver\Src\stm32l5xx_hal_dma.c:646:8
	tst	r0, r3
	bne	.LBB6_20
.Ltmp220:
@ %bb.29:                               @   in Loop: Header=BB6_24 Depth=1
	@DEBUG_VALUE: HAL_DMA_PollForTransfer:tickstart <- $r8
	@DEBUG_VALUE: HAL_DMA_PollForTransfer:temp <- $r7
	@DEBUG_VALUE: HAL_DMA_PollForTransfer:Timeout <- $r6
	@DEBUG_VALUE: HAL_DMA_PollForTransfer:CompleteLevel <- $r5
	@DEBUG_VALUE: HAL_DMA_PollForTransfer:hdma <- $r4
	.loc	5 644 32 is_stmt 1              @ c:/Keil_v5\ARM\PACK\Keil\STM32L5xx_DFP\1.3.0\Drivers\STM32L5xx_HAL_Driver\Src\stm32l5xx_hal_dma.c:644:32
	ldr	r3, [r1]
	.loc	5 644 3 is_stmt 0               @ c:/Keil_v5\ARM\PACK\Keil\STM32L5xx_DFP\1.3.0\Drivers\STM32L5xx_HAL_Driver\Src\stm32l5xx_hal_dma.c:644:3
	tst	r3, r7
	bne.w	.LBB6_3
.Ltmp221:
@ %bb.30:                               @   in Loop: Header=BB6_24 Depth=1
	@DEBUG_VALUE: HAL_DMA_PollForTransfer:tickstart <- $r8
	@DEBUG_VALUE: HAL_DMA_PollForTransfer:temp <- $r7
	@DEBUG_VALUE: HAL_DMA_PollForTransfer:Timeout <- $r6
	@DEBUG_VALUE: HAL_DMA_PollForTransfer:CompleteLevel <- $r5
	@DEBUG_VALUE: HAL_DMA_PollForTransfer:hdma <- $r4
	.loc	5 646 31 is_stmt 1              @ c:/Keil_v5\ARM\PACK\Keil\STM32L5xx_DFP\1.3.0\Drivers\STM32L5xx_HAL_Driver\Src\stm32l5xx_hal_dma.c:646:31
	ldr	r3, [r1]
.Ltmp222:
	.loc	5 646 8 is_stmt 0               @ c:/Keil_v5\ARM\PACK\Keil\STM32L5xx_DFP\1.3.0\Drivers\STM32L5xx_HAL_Driver\Src\stm32l5xx_hal_dma.c:646:8
	tst	r0, r3
	bne	.LBB6_20
.Ltmp223:
@ %bb.31:                               @   in Loop: Header=BB6_24 Depth=1
	@DEBUG_VALUE: HAL_DMA_PollForTransfer:tickstart <- $r8
	@DEBUG_VALUE: HAL_DMA_PollForTransfer:temp <- $r7
	@DEBUG_VALUE: HAL_DMA_PollForTransfer:Timeout <- $r6
	@DEBUG_VALUE: HAL_DMA_PollForTransfer:CompleteLevel <- $r5
	@DEBUG_VALUE: HAL_DMA_PollForTransfer:hdma <- $r4
	.loc	5 644 32 is_stmt 1              @ c:/Keil_v5\ARM\PACK\Keil\STM32L5xx_DFP\1.3.0\Drivers\STM32L5xx_HAL_Driver\Src\stm32l5xx_hal_dma.c:644:32
	ldr	r3, [r1]
	.loc	5 644 3 is_stmt 0               @ c:/Keil_v5\ARM\PACK\Keil\STM32L5xx_DFP\1.3.0\Drivers\STM32L5xx_HAL_Driver\Src\stm32l5xx_hal_dma.c:644:3
	tst	r3, r7
	beq	.LBB6_24
	b	.LBB6_3
.Ltmp224:
.Lfunc_end6:
	.size	HAL_DMA_PollForTransfer, .Lfunc_end6-HAL_DMA_PollForTransfer
	.cfi_endproc
	.cantunwind
	.fnend
                                        @ -- End function
	.section	.text.HAL_DMA_IRQHandler,"ax",%progbits
	.hidden	HAL_DMA_IRQHandler              @ -- Begin function HAL_DMA_IRQHandler
	.globl	HAL_DMA_IRQHandler
	.p2align	2
	.type	HAL_DMA_IRQHandler,%function
	.code	16                              @ @HAL_DMA_IRQHandler
	.thumb_func
HAL_DMA_IRQHandler:
.Lfunc_begin7:
	.loc	5 738 0 is_stmt 1               @ c:/Keil_v5\ARM\PACK\Keil\STM32L5xx_DFP\1.3.0\Drivers\STM32L5xx_HAL_Driver\Src\stm32l5xx_hal_dma.c:738:0
	.fnstart
	.cfi_startproc
@ %bb.0:
	@DEBUG_VALUE: HAL_DMA_IRQHandler:hdma <- $r0
	@DEBUG_VALUE: HAL_DMA_IRQHandler:hdma <- $r0
	.save	{r4, r5, r7, lr}
	push	{r4, r5, r7, lr}
	.cfi_def_cfa_offset 16
	.cfi_offset lr, -4
	.cfi_offset r7, -8
	.cfi_offset r5, -12
	.cfi_offset r4, -16
.Ltmp225:
	.loc	5 740 30 prologue_end           @ c:/Keil_v5\ARM\PACK\Keil\STM32L5xx_DFP\1.3.0\Drivers\STM32L5xx_HAL_Driver\Src\stm32l5xx_hal_dma.c:740:30
	ldr	r2, [r0]
	.loc	5 739 28                        @ c:/Keil_v5\ARM\PACK\Keil\STM32L5xx_DFP\1.3.0\Drivers\STM32L5xx_HAL_Driver\Src\stm32l5xx_hal_dma.c:739:28
	ldrd	r12, r4, [r0, #72]
	.loc	5 739 44 is_stmt 0              @ c:/Keil_v5\ARM\PACK\Keil\STM32L5xx_DFP\1.3.0\Drivers\STM32L5xx_HAL_Driver\Src\stm32l5xx_hal_dma.c:739:44
	ldr.w	r5, [r12]
.Ltmp226:
	@DEBUG_VALUE: HAL_DMA_IRQHandler:flag_it <- $r5
	.loc	5 740 40 is_stmt 1              @ c:/Keil_v5\ARM\PACK\Keil\STM32L5xx_DFP\1.3.0\Drivers\STM32L5xx_HAL_Driver\Src\stm32l5xx_hal_dma.c:740:40
	ldr	r3, [r2]
.Ltmp227:
	@DEBUG_VALUE: HAL_DMA_IRQHandler:source_it <- $r3
	.loc	5 743 56                        @ c:/Keil_v5\ARM\PACK\Keil\STM32L5xx_DFP\1.3.0\Drivers\STM32L5xx_HAL_Driver\Src\stm32l5xx_hal_dma.c:743:56
	and	lr, r4, #28
	.loc	5 743 74 is_stmt 0              @ c:/Keil_v5\ARM\PACK\Keil\STM32L5xx_DFP\1.3.0\Drivers\STM32L5xx_HAL_Driver\Src\stm32l5xx_hal_dma.c:743:74
	lsls	r1, r3, #29
	bpl	.LBB7_7
.Ltmp228:
@ %bb.1:
	@DEBUG_VALUE: HAL_DMA_IRQHandler:flag_it <- $r5
	@DEBUG_VALUE: HAL_DMA_IRQHandler:source_it <- $r3
	@DEBUG_VALUE: HAL_DMA_IRQHandler:hdma <- $r0
	.loc	5 0 74                          @ c:/Keil_v5\ARM\PACK\Keil\STM32L5xx_DFP\1.3.0\Drivers\STM32L5xx_HAL_Driver\Src\stm32l5xx_hal_dma.c:0:74
	movs	r1, #4
	lsl.w	r4, r1, lr
	ands.w	r1, r4, r5
	.loc	5 743 74                        @ c:/Keil_v5\ARM\PACK\Keil\STM32L5xx_DFP\1.3.0\Drivers\STM32L5xx_HAL_Driver\Src\stm32l5xx_hal_dma.c:743:74
	beq	.LBB7_7
.Ltmp229:
@ %bb.2:
	@DEBUG_VALUE: HAL_DMA_IRQHandler:flag_it <- $r5
	@DEBUG_VALUE: HAL_DMA_IRQHandler:source_it <- $r3
	@DEBUG_VALUE: HAL_DMA_IRQHandler:hdma <- $r0
	.loc	5 746 26 is_stmt 1              @ c:/Keil_v5\ARM\PACK\Keil\STM32L5xx_DFP\1.3.0\Drivers\STM32L5xx_HAL_Driver\Src\stm32l5xx_hal_dma.c:746:26
	ldr	r1, [r2]
.Ltmp230:
	.loc	5 746 8 is_stmt 0               @ c:/Keil_v5\ARM\PACK\Keil\STM32L5xx_DFP\1.3.0\Drivers\STM32L5xx_HAL_Driver\Src\stm32l5xx_hal_dma.c:746:8
	lsls	r1, r1, #16
	bmi	.LBB7_14
.Ltmp231:
@ %bb.3:
	@DEBUG_VALUE: HAL_DMA_IRQHandler:flag_it <- $r5
	@DEBUG_VALUE: HAL_DMA_IRQHandler:source_it <- $r3
	@DEBUG_VALUE: HAL_DMA_IRQHandler:hdma <- $r0
	.loc	5 773 27 is_stmt 1              @ c:/Keil_v5\ARM\PACK\Keil\STM32L5xx_DFP\1.3.0\Drivers\STM32L5xx_HAL_Driver\Src\stm32l5xx_hal_dma.c:773:27
	ldr	r1, [r2]
.Ltmp232:
	.loc	5 773 10 is_stmt 0              @ c:/Keil_v5\ARM\PACK\Keil\STM32L5xx_DFP\1.3.0\Drivers\STM32L5xx_HAL_Driver\Src\stm32l5xx_hal_dma.c:773:10
	lsls	r1, r1, #26
	bmi	.LBB7_5
.Ltmp233:
@ %bb.4:
	@DEBUG_VALUE: HAL_DMA_IRQHandler:flag_it <- $r5
	@DEBUG_VALUE: HAL_DMA_IRQHandler:source_it <- $r3
	@DEBUG_VALUE: HAL_DMA_IRQHandler:hdma <- $r0
	.loc	5 776 9 is_stmt 1               @ c:/Keil_v5\ARM\PACK\Keil\STM32L5xx_DFP\1.3.0\Drivers\STM32L5xx_HAL_Driver\Src\stm32l5xx_hal_dma.c:776:9
	ldr	r1, [r2]
	bic	r1, r1, #4
	str	r1, [r2]
.Ltmp234:
.LBB7_5:
	@DEBUG_VALUE: HAL_DMA_IRQHandler:flag_it <- $r5
	@DEBUG_VALUE: HAL_DMA_IRQHandler:source_it <- $r3
	@DEBUG_VALUE: HAL_DMA_IRQHandler:hdma <- $r0
	.loc	5 779 34                        @ c:/Keil_v5\ARM\PACK\Keil\STM32L5xx_DFP\1.3.0\Drivers\STM32L5xx_HAL_Driver\Src\stm32l5xx_hal_dma.c:779:34
	str.w	r4, [r12, #4]
.Ltmp235:
	.loc	5 784 16                        @ c:/Keil_v5\ARM\PACK\Keil\STM32L5xx_DFP\1.3.0\Drivers\STM32L5xx_HAL_Driver\Src\stm32l5xx_hal_dma.c:784:16
	ldr	r1, [r0, #48]
.Ltmp236:
	.loc	5 784 10 is_stmt 0              @ c:/Keil_v5\ARM\PACK\Keil\STM32L5xx_DFP\1.3.0\Drivers\STM32L5xx_HAL_Driver\Src\stm32l5xx_hal_dma.c:784:10
	cmp	r1, #0
	beq	.LBB7_28
.Ltmp237:
@ %bb.6:
	@DEBUG_VALUE: HAL_DMA_IRQHandler:flag_it <- $r5
	@DEBUG_VALUE: HAL_DMA_IRQHandler:source_it <- $r3
	@DEBUG_VALUE: HAL_DMA_IRQHandler:hdma <- $r0
	.loc	5 787 9 is_stmt 1               @ c:/Keil_v5\ARM\PACK\Keil\STM32L5xx_DFP\1.3.0\Drivers\STM32L5xx_HAL_Driver\Src\stm32l5xx_hal_dma.c:787:9
	pop.w	{r4, r5, r7, lr}
.Ltmp238:
	bx	r1
.Ltmp239:
	.p2align	2
.LBB7_7:
	@DEBUG_VALUE: HAL_DMA_IRQHandler:flag_it <- $r5
	@DEBUG_VALUE: HAL_DMA_IRQHandler:source_it <- $r3
	@DEBUG_VALUE: HAL_DMA_IRQHandler:hdma <- $r0
	.loc	5 793 79                        @ c:/Keil_v5\ARM\PACK\Keil\STM32L5xx_DFP\1.3.0\Drivers\STM32L5xx_HAL_Driver\Src\stm32l5xx_hal_dma.c:793:79
	lsls	r1, r3, #30
	bpl	.LBB7_17
.Ltmp240:
@ %bb.8:
	@DEBUG_VALUE: HAL_DMA_IRQHandler:flag_it <- $r5
	@DEBUG_VALUE: HAL_DMA_IRQHandler:source_it <- $r3
	@DEBUG_VALUE: HAL_DMA_IRQHandler:hdma <- $r0
	.loc	5 0 79 is_stmt 0                @ c:/Keil_v5\ARM\PACK\Keil\STM32L5xx_DFP\1.3.0\Drivers\STM32L5xx_HAL_Driver\Src\stm32l5xx_hal_dma.c:0:79
	movs	r1, #2
	lsl.w	r4, r1, lr
	ands.w	r1, r4, r5
	.loc	5 793 79                        @ c:/Keil_v5\ARM\PACK\Keil\STM32L5xx_DFP\1.3.0\Drivers\STM32L5xx_HAL_Driver\Src\stm32l5xx_hal_dma.c:793:79
	beq	.LBB7_17
.Ltmp241:
@ %bb.9:
	@DEBUG_VALUE: HAL_DMA_IRQHandler:flag_it <- $r5
	@DEBUG_VALUE: HAL_DMA_IRQHandler:source_it <- $r3
	@DEBUG_VALUE: HAL_DMA_IRQHandler:hdma <- $r0
	.loc	5 795 26 is_stmt 1              @ c:/Keil_v5\ARM\PACK\Keil\STM32L5xx_DFP\1.3.0\Drivers\STM32L5xx_HAL_Driver\Src\stm32l5xx_hal_dma.c:795:26
	ldr	r3, [r2]
.Ltmp242:
	.loc	5 0 0 is_stmt 0                 @ c:/Keil_v5\ARM\PACK\Keil\STM32L5xx_DFP\1.3.0\Drivers\STM32L5xx_HAL_Driver\Src\stm32l5xx_hal_dma.c:0:0
	ldr	r1, [r2]
.Ltmp243:
	.loc	5 795 8                         @ c:/Keil_v5\ARM\PACK\Keil\STM32L5xx_DFP\1.3.0\Drivers\STM32L5xx_HAL_Driver\Src\stm32l5xx_hal_dma.c:795:8
	lsls	r3, r3, #16
	bmi	.LBB7_21
.Ltmp244:
@ %bb.10:
	@DEBUG_VALUE: HAL_DMA_IRQHandler:flag_it <- $r5
	@DEBUG_VALUE: HAL_DMA_IRQHandler:hdma <- $r0
	.loc	5 818 10 is_stmt 1              @ c:/Keil_v5\ARM\PACK\Keil\STM32L5xx_DFP\1.3.0\Drivers\STM32L5xx_HAL_Driver\Src\stm32l5xx_hal_dma.c:818:10
	lsls	r1, r1, #26
	bmi	.LBB7_12
.Ltmp245:
@ %bb.11:
	@DEBUG_VALUE: HAL_DMA_IRQHandler:flag_it <- $r5
	@DEBUG_VALUE: HAL_DMA_IRQHandler:hdma <- $r0
	.loc	5 823 9                         @ c:/Keil_v5\ARM\PACK\Keil\STM32L5xx_DFP\1.3.0\Drivers\STM32L5xx_HAL_Driver\Src\stm32l5xx_hal_dma.c:823:9
	ldr	r1, [r2]
	bic	r1, r1, #10
	str	r1, [r2]
	movs	r1, #1
	.loc	5 826 21                        @ c:/Keil_v5\ARM\PACK\Keil\STM32L5xx_DFP\1.3.0\Drivers\STM32L5xx_HAL_Driver\Src\stm32l5xx_hal_dma.c:826:21
	strb.w	r1, [r0, #37]
.Ltmp246:
.LBB7_12:
	@DEBUG_VALUE: HAL_DMA_IRQHandler:flag_it <- $r5
	@DEBUG_VALUE: HAL_DMA_IRQHandler:hdma <- $r0
	.loc	5 829 34                        @ c:/Keil_v5\ARM\PACK\Keil\STM32L5xx_DFP\1.3.0\Drivers\STM32L5xx_HAL_Driver\Src\stm32l5xx_hal_dma.c:829:34
	str.w	r4, [r12, #4]
.Ltmp247:
	.loc	5 834 16                        @ c:/Keil_v5\ARM\PACK\Keil\STM32L5xx_DFP\1.3.0\Drivers\STM32L5xx_HAL_Driver\Src\stm32l5xx_hal_dma.c:834:16
	ldr	r1, [r0, #44]
	movs	r2, #0
.Ltmp248:
	.loc	5 834 10 is_stmt 0              @ c:/Keil_v5\ARM\PACK\Keil\STM32L5xx_DFP\1.3.0\Drivers\STM32L5xx_HAL_Driver\Src\stm32l5xx_hal_dma.c:834:10
	cmp	r1, #0
.Ltmp249:
	.loc	5 832 7 is_stmt 1               @ c:/Keil_v5\ARM\PACK\Keil\STM32L5xx_DFP\1.3.0\Drivers\STM32L5xx_HAL_Driver\Src\stm32l5xx_hal_dma.c:832:7
	strb.w	r2, [r0, #36]
.Ltmp250:
	.loc	5 834 10                        @ c:/Keil_v5\ARM\PACK\Keil\STM32L5xx_DFP\1.3.0\Drivers\STM32L5xx_HAL_Driver\Src\stm32l5xx_hal_dma.c:834:10
	beq	.LBB7_28
.Ltmp251:
@ %bb.13:
	@DEBUG_VALUE: HAL_DMA_IRQHandler:flag_it <- $r5
	@DEBUG_VALUE: HAL_DMA_IRQHandler:hdma <- $r0
	.loc	5 837 9                         @ c:/Keil_v5\ARM\PACK\Keil\STM32L5xx_DFP\1.3.0\Drivers\STM32L5xx_HAL_Driver\Src\stm32l5xx_hal_dma.c:837:9
	pop.w	{r4, r5, r7, lr}
.Ltmp252:
	bx	r1
.Ltmp253:
	.p2align	2
.LBB7_14:
	@DEBUG_VALUE: HAL_DMA_IRQHandler:flag_it <- $r5
	@DEBUG_VALUE: HAL_DMA_IRQHandler:source_it <- $r3
	@DEBUG_VALUE: HAL_DMA_IRQHandler:hdma <- $r0
	.loc	5 749 34                        @ c:/Keil_v5\ARM\PACK\Keil\STM32L5xx_DFP\1.3.0\Drivers\STM32L5xx_HAL_Driver\Src\stm32l5xx_hal_dma.c:749:34
	str.w	r4, [r12, #4]
.Ltmp254:
	.loc	5 752 27                        @ c:/Keil_v5\ARM\PACK\Keil\STM32L5xx_DFP\1.3.0\Drivers\STM32L5xx_HAL_Driver\Src\stm32l5xx_hal_dma.c:752:27
	ldr	r1, [r2]
.Ltmp255:
	.loc	5 752 10 is_stmt 0              @ c:/Keil_v5\ARM\PACK\Keil\STM32L5xx_DFP\1.3.0\Drivers\STM32L5xx_HAL_Driver\Src\stm32l5xx_hal_dma.c:752:10
	lsls	r1, r1, #15
	bmi	.LBB7_24
.Ltmp256:
@ %bb.15:
	@DEBUG_VALUE: HAL_DMA_IRQHandler:flag_it <- $r5
	@DEBUG_VALUE: HAL_DMA_IRQHandler:source_it <- $r3
	@DEBUG_VALUE: HAL_DMA_IRQHandler:hdma <- $r0
	.loc	5 754 18 is_stmt 1              @ c:/Keil_v5\ARM\PACK\Keil\STM32L5xx_DFP\1.3.0\Drivers\STM32L5xx_HAL_Driver\Src\stm32l5xx_hal_dma.c:754:18
	ldr	r1, [r0, #48]
.Ltmp257:
	.loc	5 754 12 is_stmt 0              @ c:/Keil_v5\ARM\PACK\Keil\STM32L5xx_DFP\1.3.0\Drivers\STM32L5xx_HAL_Driver\Src\stm32l5xx_hal_dma.c:754:12
	cbz	r1, .LBB7_28
.Ltmp258:
@ %bb.16:
	@DEBUG_VALUE: HAL_DMA_IRQHandler:flag_it <- $r5
	@DEBUG_VALUE: HAL_DMA_IRQHandler:source_it <- $r3
	@DEBUG_VALUE: HAL_DMA_IRQHandler:hdma <- $r0
	.loc	5 757 11 is_stmt 1              @ c:/Keil_v5\ARM\PACK\Keil\STM32L5xx_DFP\1.3.0\Drivers\STM32L5xx_HAL_Driver\Src\stm32l5xx_hal_dma.c:757:11
	pop.w	{r4, r5, r7, lr}
.Ltmp259:
	bx	r1
.Ltmp260:
	.p2align	2
.LBB7_17:
	@DEBUG_VALUE: HAL_DMA_IRQHandler:flag_it <- $r5
	@DEBUG_VALUE: HAL_DMA_IRQHandler:source_it <- $r3
	@DEBUG_VALUE: HAL_DMA_IRQHandler:hdma <- $r0
	.loc	5 843 79                        @ c:/Keil_v5\ARM\PACK\Keil\STM32L5xx_DFP\1.3.0\Drivers\STM32L5xx_HAL_Driver\Src\stm32l5xx_hal_dma.c:843:79
	lsls	r1, r3, #28
	bpl	.LBB7_28
.Ltmp261:
@ %bb.18:
	@DEBUG_VALUE: HAL_DMA_IRQHandler:flag_it <- $r5
	@DEBUG_VALUE: HAL_DMA_IRQHandler:source_it <- $r3
	@DEBUG_VALUE: HAL_DMA_IRQHandler:hdma <- $r0
	.loc	5 0 79 is_stmt 0                @ c:/Keil_v5\ARM\PACK\Keil\STM32L5xx_DFP\1.3.0\Drivers\STM32L5xx_HAL_Driver\Src\stm32l5xx_hal_dma.c:0:79
	movs	r1, #8
	lsl.w	r1, r1, lr
	ands	r1, r5
.Ltmp262:
	.loc	5 873 1 is_stmt 1               @ c:/Keil_v5\ARM\PACK\Keil\STM32L5xx_DFP\1.3.0\Drivers\STM32L5xx_HAL_Driver\Src\stm32l5xx_hal_dma.c:873:1
	it	eq
	popeq	{r4, r5, r7, pc}
.Ltmp263:
.LBB7_19:
	@DEBUG_VALUE: HAL_DMA_IRQHandler:source_it <- $r3
	@DEBUG_VALUE: HAL_DMA_IRQHandler:hdma <- $r0
	.loc	5 848 5                         @ c:/Keil_v5\ARM\PACK\Keil\STM32L5xx_DFP\1.3.0\Drivers\STM32L5xx_HAL_Driver\Src\stm32l5xx_hal_dma.c:848:5
	ldr	r1, [r2]
	bic	r1, r1, #14
	str	r1, [r2]
	movs	r1, #1
	.loc	5 851 48                        @ c:/Keil_v5\ARM\PACK\Keil\STM32L5xx_DFP\1.3.0\Drivers\STM32L5xx_HAL_Driver\Src\stm32l5xx_hal_dma.c:851:48
	lsl.w	r2, r1, lr
	.loc	5 851 32 is_stmt 0              @ c:/Keil_v5\ARM\PACK\Keil\STM32L5xx_DFP\1.3.0\Drivers\STM32L5xx_HAL_Driver\Src\stm32l5xx_hal_dma.c:851:32
	str.w	r2, [r12, #4]
	.loc	5 854 21 is_stmt 1              @ c:/Keil_v5\ARM\PACK\Keil\STM32L5xx_DFP\1.3.0\Drivers\STM32L5xx_HAL_Driver\Src\stm32l5xx_hal_dma.c:854:21
	str	r1, [r0, #68]
	.loc	5 857 17                        @ c:/Keil_v5\ARM\PACK\Keil\STM32L5xx_DFP\1.3.0\Drivers\STM32L5xx_HAL_Driver\Src\stm32l5xx_hal_dma.c:857:17
	strb.w	r1, [r0, #37]
.Ltmp264:
	.loc	5 862 15                        @ c:/Keil_v5\ARM\PACK\Keil\STM32L5xx_DFP\1.3.0\Drivers\STM32L5xx_HAL_Driver\Src\stm32l5xx_hal_dma.c:862:15
	ldr	r1, [r0, #60]
	movs	r2, #0
.Ltmp265:
	.loc	5 860 5                         @ c:/Keil_v5\ARM\PACK\Keil\STM32L5xx_DFP\1.3.0\Drivers\STM32L5xx_HAL_Driver\Src\stm32l5xx_hal_dma.c:860:5
	strb.w	r2, [r0, #36]
.Ltmp266:
	.loc	5 862 9                         @ c:/Keil_v5\ARM\PACK\Keil\STM32L5xx_DFP\1.3.0\Drivers\STM32L5xx_HAL_Driver\Src\stm32l5xx_hal_dma.c:862:9
	cbz	r1, .LBB7_28
.Ltmp267:
@ %bb.20:
	@DEBUG_VALUE: HAL_DMA_IRQHandler:source_it <- $r3
	@DEBUG_VALUE: HAL_DMA_IRQHandler:hdma <- $r0
	.loc	5 865 7                         @ c:/Keil_v5\ARM\PACK\Keil\STM32L5xx_DFP\1.3.0\Drivers\STM32L5xx_HAL_Driver\Src\stm32l5xx_hal_dma.c:865:7
	pop.w	{r4, r5, r7, lr}
	bx	r1
.Ltmp268:
	.p2align	2
.LBB7_21:
	@DEBUG_VALUE: HAL_DMA_IRQHandler:flag_it <- $r5
	@DEBUG_VALUE: HAL_DMA_IRQHandler:hdma <- $r0
	.loc	5 798 10                        @ c:/Keil_v5\ARM\PACK\Keil\STM32L5xx_DFP\1.3.0\Drivers\STM32L5xx_HAL_Driver\Src\stm32l5xx_hal_dma.c:798:10
	lsls	r1, r1, #15
	bmi	.LBB7_26
.Ltmp269:
@ %bb.22:
	@DEBUG_VALUE: HAL_DMA_IRQHandler:flag_it <- $r5
	@DEBUG_VALUE: HAL_DMA_IRQHandler:hdma <- $r0
	.loc	5 800 18                        @ c:/Keil_v5\ARM\PACK\Keil\STM32L5xx_DFP\1.3.0\Drivers\STM32L5xx_HAL_Driver\Src\stm32l5xx_hal_dma.c:800:18
	ldr	r1, [r0, #52]
.Ltmp270:
	.loc	5 800 12 is_stmt 0              @ c:/Keil_v5\ARM\PACK\Keil\STM32L5xx_DFP\1.3.0\Drivers\STM32L5xx_HAL_Driver\Src\stm32l5xx_hal_dma.c:800:12
	cbz	r1, .LBB7_28
.Ltmp271:
@ %bb.23:
	@DEBUG_VALUE: HAL_DMA_IRQHandler:flag_it <- $r5
	@DEBUG_VALUE: HAL_DMA_IRQHandler:hdma <- $r0
	.loc	5 803 11 is_stmt 1              @ c:/Keil_v5\ARM\PACK\Keil\STM32L5xx_DFP\1.3.0\Drivers\STM32L5xx_HAL_Driver\Src\stm32l5xx_hal_dma.c:803:11
	pop.w	{r4, r5, r7, lr}
.Ltmp272:
	bx	r1
.Ltmp273:
	.p2align	2
.LBB7_24:
	@DEBUG_VALUE: HAL_DMA_IRQHandler:flag_it <- $r5
	@DEBUG_VALUE: HAL_DMA_IRQHandler:source_it <- $r3
	@DEBUG_VALUE: HAL_DMA_IRQHandler:hdma <- $r0
	.loc	5 763 18                        @ c:/Keil_v5\ARM\PACK\Keil\STM32L5xx_DFP\1.3.0\Drivers\STM32L5xx_HAL_Driver\Src\stm32l5xx_hal_dma.c:763:18
	ldr	r1, [r0, #56]
.Ltmp274:
	.loc	5 763 12 is_stmt 0              @ c:/Keil_v5\ARM\PACK\Keil\STM32L5xx_DFP\1.3.0\Drivers\STM32L5xx_HAL_Driver\Src\stm32l5xx_hal_dma.c:763:12
	cbz	r1, .LBB7_28
.Ltmp275:
@ %bb.25:
	@DEBUG_VALUE: HAL_DMA_IRQHandler:flag_it <- $r5
	@DEBUG_VALUE: HAL_DMA_IRQHandler:source_it <- $r3
	@DEBUG_VALUE: HAL_DMA_IRQHandler:hdma <- $r0
	.loc	5 766 11 is_stmt 1              @ c:/Keil_v5\ARM\PACK\Keil\STM32L5xx_DFP\1.3.0\Drivers\STM32L5xx_HAL_Driver\Src\stm32l5xx_hal_dma.c:766:11
	pop.w	{r4, r5, r7, lr}
.Ltmp276:
	bx	r1
.Ltmp277:
	.p2align	2
.LBB7_26:
	@DEBUG_VALUE: HAL_DMA_IRQHandler:flag_it <- $r5
	@DEBUG_VALUE: HAL_DMA_IRQHandler:hdma <- $r0
	.loc	5 809 18                        @ c:/Keil_v5\ARM\PACK\Keil\STM32L5xx_DFP\1.3.0\Drivers\STM32L5xx_HAL_Driver\Src\stm32l5xx_hal_dma.c:809:18
	ldr	r1, [r0, #44]
.Ltmp278:
	.loc	5 809 12 is_stmt 0              @ c:/Keil_v5\ARM\PACK\Keil\STM32L5xx_DFP\1.3.0\Drivers\STM32L5xx_HAL_Driver\Src\stm32l5xx_hal_dma.c:809:12
	cbz	r1, .LBB7_28
.Ltmp279:
@ %bb.27:
	@DEBUG_VALUE: HAL_DMA_IRQHandler:flag_it <- $r5
	@DEBUG_VALUE: HAL_DMA_IRQHandler:hdma <- $r0
	.loc	5 812 11 is_stmt 1              @ c:/Keil_v5\ARM\PACK\Keil\STM32L5xx_DFP\1.3.0\Drivers\STM32L5xx_HAL_Driver\Src\stm32l5xx_hal_dma.c:812:11
	pop.w	{r4, r5, r7, lr}
.Ltmp280:
	bx	r1
.Ltmp281:
	.p2align	2
.LBB7_28:
	@DEBUG_VALUE: HAL_DMA_IRQHandler:hdma <- $r0
	.loc	5 873 1                         @ c:/Keil_v5\ARM\PACK\Keil\STM32L5xx_DFP\1.3.0\Drivers\STM32L5xx_HAL_Driver\Src\stm32l5xx_hal_dma.c:873:1
	pop	{r4, r5, r7, pc}
.Ltmp282:
.Lfunc_end7:
	.size	HAL_DMA_IRQHandler, .Lfunc_end7-HAL_DMA_IRQHandler
	.cfi_endproc
	.cantunwind
	.fnend
                                        @ -- End function
	.section	.text.HAL_DMA_RegisterCallback,"ax",%progbits
	.hidden	HAL_DMA_RegisterCallback        @ -- Begin function HAL_DMA_RegisterCallback
	.globl	HAL_DMA_RegisterCallback
	.p2align	2
	.type	HAL_DMA_RegisterCallback,%function
	.code	16                              @ @HAL_DMA_RegisterCallback
	.thumb_func
HAL_DMA_RegisterCallback:
.Lfunc_begin8:
	.loc	5 886 0                         @ c:/Keil_v5\ARM\PACK\Keil\STM32L5xx_DFP\1.3.0\Drivers\STM32L5xx_HAL_Driver\Src\stm32l5xx_hal_dma.c:886:0
	.fnstart
	.cfi_startproc
@ %bb.0:
	@DEBUG_VALUE: HAL_DMA_RegisterCallback:hdma <- $r0
	@DEBUG_VALUE: HAL_DMA_RegisterCallback:hdma <- $r0
	@DEBUG_VALUE: HAL_DMA_RegisterCallback:CallbackID <- $r1
	@DEBUG_VALUE: HAL_DMA_RegisterCallback:CallbackID <- undef
	@DEBUG_VALUE: HAL_DMA_RegisterCallback:pCallback <- $r2
	@DEBUG_VALUE: HAL_DMA_RegisterCallback:status <- 0
	.loc	5 890 3 prologue_end            @ c:/Keil_v5\ARM\PACK\Keil\STM32L5xx_DFP\1.3.0\Drivers\STM32L5xx_HAL_Driver\Src\stm32l5xx_hal_dma.c:890:3
	ldrb.w	r3, [r0, #36]
.Ltmp283:
	@DEBUG_VALUE: HAL_DMA_RegisterCallback:pCallback <- $r2
	.loc	5 890 3 is_stmt 0               @ c:/Keil_v5\ARM\PACK\Keil\STM32L5xx_DFP\1.3.0\Drivers\STM32L5xx_HAL_Driver\Src\stm32l5xx_hal_dma.c:890:3
	cmp	r3, #1
.Ltmp284:
	@DEBUG_VALUE: HAL_DMA_RegisterCallback:CallbackID <- $r1
	.loc	5 0 3                           @ c:/Keil_v5\ARM\PACK\Keil\STM32L5xx_DFP\1.3.0\Drivers\STM32L5xx_HAL_Driver\Src\stm32l5xx_hal_dma.c:0:3
	itt	eq
	moveq	r0, #2
.Ltmp285:
	@DEBUG_VALUE: HAL_DMA_RegisterCallback:hdma <- [DW_OP_LLVM_entry_value 1] $r0
	.loc	5 934 1 is_stmt 1               @ c:/Keil_v5\ARM\PACK\Keil\STM32L5xx_DFP\1.3.0\Drivers\STM32L5xx_HAL_Driver\Src\stm32l5xx_hal_dma.c:934:1
	bxeq	lr
.Ltmp286:
.LBB8_1:
	@DEBUG_VALUE: HAL_DMA_RegisterCallback:pCallback <- $r2
	@DEBUG_VALUE: HAL_DMA_RegisterCallback:CallbackID <- $r1
	@DEBUG_VALUE: HAL_DMA_RegisterCallback:hdma <- [DW_OP_LLVM_entry_value 1] $r0
	@DEBUG_VALUE: HAL_DMA_RegisterCallback:status <- 0
	@DEBUG_VALUE: HAL_DMA_RegisterCallback:CallbackID <- $r1
	.loc	5 892 35                        @ c:/Keil_v5\ARM\PACK\Keil\STM32L5xx_DFP\1.3.0\Drivers\STM32L5xx_HAL_Driver\Src\stm32l5xx_hal_dma.c:892:35
	ldrb.w	r3, [r0, #37]
.Ltmp287:
	.loc	5 892 6 is_stmt 0               @ c:/Keil_v5\ARM\PACK\Keil\STM32L5xx_DFP\1.3.0\Drivers\STM32L5xx_HAL_Driver\Src\stm32l5xx_hal_dma.c:892:6
	cmp	r3, #1
	bne	.LBB8_6
.Ltmp288:
@ %bb.2:
	@DEBUG_VALUE: HAL_DMA_RegisterCallback:pCallback <- $r2
	@DEBUG_VALUE: HAL_DMA_RegisterCallback:CallbackID <- $r1
	@DEBUG_VALUE: HAL_DMA_RegisterCallback:hdma <- [DW_OP_LLVM_entry_value 1] $r0
	@DEBUG_VALUE: HAL_DMA_RegisterCallback:status <- 0
	@DEBUG_VALUE: HAL_DMA_RegisterCallback:CallbackID <- $r1
	.loc	5 894 5 is_stmt 1               @ c:/Keil_v5\ARM\PACK\Keil\STM32L5xx_DFP\1.3.0\Drivers\STM32L5xx_HAL_Driver\Src\stm32l5xx_hal_dma.c:894:5
	cmp	r1, #5
	bhi	.LBB8_6
.Ltmp289:
@ %bb.3:
	@DEBUG_VALUE: HAL_DMA_RegisterCallback:pCallback <- $r2
	@DEBUG_VALUE: HAL_DMA_RegisterCallback:CallbackID <- $r1
	@DEBUG_VALUE: HAL_DMA_RegisterCallback:hdma <- [DW_OP_LLVM_entry_value 1] $r0
	@DEBUG_VALUE: HAL_DMA_RegisterCallback:status <- 0
	@DEBUG_VALUE: HAL_DMA_RegisterCallback:CallbackID <- $r1
	.loc	5 0 5 is_stmt 0                 @ c:/Keil_v5\ARM\PACK\Keil\STM32L5xx_DFP\1.3.0\Drivers\STM32L5xx_HAL_Driver\Src\stm32l5xx_hal_dma.c:0:5
.LCPI8_0:
	tbb	[pc, r1]
.Ltmp290:
@ %bb.4:
.LJTI8_0:
	.byte	(.LBB8_5-(.LCPI8_0+4))/2
	.byte	(.LBB8_7-(.LCPI8_0+4))/2
	.byte	(.LBB8_8-(.LCPI8_0+4))/2
	.byte	(.LBB8_9-(.LCPI8_0+4))/2
	.byte	(.LBB8_10-(.LCPI8_0+4))/2
	.byte	(.LBB8_11-(.LCPI8_0+4))/2
	.p2align	1
	.p2align	2
.LBB8_5:
.Ltmp291:
	@DEBUG_VALUE: HAL_DMA_RegisterCallback:pCallback <- $r2
	@DEBUG_VALUE: HAL_DMA_RegisterCallback:CallbackID <- $r1
	@DEBUG_VALUE: HAL_DMA_RegisterCallback:hdma <- [DW_OP_LLVM_entry_value 1] $r0
	@DEBUG_VALUE: HAL_DMA_RegisterCallback:status <- 0
	.loc	5 897 35 is_stmt 1              @ c:/Keil_v5\ARM\PACK\Keil\STM32L5xx_DFP\1.3.0\Drivers\STM32L5xx_HAL_Driver\Src\stm32l5xx_hal_dma.c:897:35
	str	r2, [r0, #44]
	b	.LBB8_12
.Ltmp292:
	.p2align	2
.LBB8_6:
	@DEBUG_VALUE: HAL_DMA_RegisterCallback:pCallback <- $r2
	@DEBUG_VALUE: HAL_DMA_RegisterCallback:CallbackID <- $r1
	@DEBUG_VALUE: HAL_DMA_RegisterCallback:hdma <- [DW_OP_LLVM_entry_value 1] $r0
	@DEBUG_VALUE: HAL_DMA_RegisterCallback:status <- 0
	.loc	5 0 35 is_stmt 0                @ c:/Keil_v5\ARM\PACK\Keil\STM32L5xx_DFP\1.3.0\Drivers\STM32L5xx_HAL_Driver\Src\stm32l5xx_hal_dma.c:0:35
	movs	r1, #1
.Ltmp293:
	@DEBUG_VALUE: HAL_DMA_RegisterCallback:status <- $r1
	movs	r2, #0
.Ltmp294:
	@DEBUG_VALUE: HAL_DMA_RegisterCallback:pCallback <- [DW_OP_LLVM_entry_value 1] $r2
	.loc	5 931 3 is_stmt 1               @ c:/Keil_v5\ARM\PACK\Keil\STM32L5xx_DFP\1.3.0\Drivers\STM32L5xx_HAL_Driver\Src\stm32l5xx_hal_dma.c:931:3
	strb.w	r2, [r0, #36]
.Ltmp295:
	.loc	5 934 1                         @ c:/Keil_v5\ARM\PACK\Keil\STM32L5xx_DFP\1.3.0\Drivers\STM32L5xx_HAL_Driver\Src\stm32l5xx_hal_dma.c:934:1
	mov	r0, r1
	bx	lr
.Ltmp296:
	.p2align	2
.LBB8_7:
	@DEBUG_VALUE: HAL_DMA_RegisterCallback:pCallback <- $r2
	@DEBUG_VALUE: HAL_DMA_RegisterCallback:CallbackID <- $r1
	@DEBUG_VALUE: HAL_DMA_RegisterCallback:hdma <- [DW_OP_LLVM_entry_value 1] $r0
	@DEBUG_VALUE: HAL_DMA_RegisterCallback:status <- 0
	.loc	5 901 39                        @ c:/Keil_v5\ARM\PACK\Keil\STM32L5xx_DFP\1.3.0\Drivers\STM32L5xx_HAL_Driver\Src\stm32l5xx_hal_dma.c:901:39
	str	r2, [r0, #48]
	b	.LBB8_12
.Ltmp297:
	.p2align	2
.LBB8_8:
	@DEBUG_VALUE: HAL_DMA_RegisterCallback:pCallback <- $r2
	@DEBUG_VALUE: HAL_DMA_RegisterCallback:CallbackID <- $r1
	@DEBUG_VALUE: HAL_DMA_RegisterCallback:hdma <- [DW_OP_LLVM_entry_value 1] $r0
	@DEBUG_VALUE: HAL_DMA_RegisterCallback:status <- 0
	.loc	5 905 37                        @ c:/Keil_v5\ARM\PACK\Keil\STM32L5xx_DFP\1.3.0\Drivers\STM32L5xx_HAL_Driver\Src\stm32l5xx_hal_dma.c:905:37
	str	r2, [r0, #52]
	b	.LBB8_12
.Ltmp298:
	.p2align	2
.LBB8_9:
	@DEBUG_VALUE: HAL_DMA_RegisterCallback:pCallback <- $r2
	@DEBUG_VALUE: HAL_DMA_RegisterCallback:CallbackID <- $r1
	@DEBUG_VALUE: HAL_DMA_RegisterCallback:hdma <- [DW_OP_LLVM_entry_value 1] $r0
	@DEBUG_VALUE: HAL_DMA_RegisterCallback:status <- 0
	.loc	5 909 41                        @ c:/Keil_v5\ARM\PACK\Keil\STM32L5xx_DFP\1.3.0\Drivers\STM32L5xx_HAL_Driver\Src\stm32l5xx_hal_dma.c:909:41
	str	r2, [r0, #56]
	b	.LBB8_12
.Ltmp299:
	.p2align	2
.LBB8_10:
	@DEBUG_VALUE: HAL_DMA_RegisterCallback:pCallback <- $r2
	@DEBUG_VALUE: HAL_DMA_RegisterCallback:CallbackID <- $r1
	@DEBUG_VALUE: HAL_DMA_RegisterCallback:hdma <- [DW_OP_LLVM_entry_value 1] $r0
	@DEBUG_VALUE: HAL_DMA_RegisterCallback:status <- 0
	.loc	5 913 36                        @ c:/Keil_v5\ARM\PACK\Keil\STM32L5xx_DFP\1.3.0\Drivers\STM32L5xx_HAL_Driver\Src\stm32l5xx_hal_dma.c:913:36
	str	r2, [r0, #60]
	b	.LBB8_12
.Ltmp300:
	.p2align	2
.LBB8_11:
	@DEBUG_VALUE: HAL_DMA_RegisterCallback:pCallback <- $r2
	@DEBUG_VALUE: HAL_DMA_RegisterCallback:CallbackID <- $r1
	@DEBUG_VALUE: HAL_DMA_RegisterCallback:hdma <- [DW_OP_LLVM_entry_value 1] $r0
	@DEBUG_VALUE: HAL_DMA_RegisterCallback:status <- 0
	.loc	5 917 36                        @ c:/Keil_v5\ARM\PACK\Keil\STM32L5xx_DFP\1.3.0\Drivers\STM32L5xx_HAL_Driver\Src\stm32l5xx_hal_dma.c:917:36
	str	r2, [r0, #64]
.Ltmp301:
.LBB8_12:
	@DEBUG_VALUE: HAL_DMA_RegisterCallback:pCallback <- $r2
	@DEBUG_VALUE: HAL_DMA_RegisterCallback:CallbackID <- $r1
	@DEBUG_VALUE: HAL_DMA_RegisterCallback:hdma <- [DW_OP_LLVM_entry_value 1] $r0
	@DEBUG_VALUE: HAL_DMA_RegisterCallback:status <- 0
	.loc	5 0 36 is_stmt 0                @ c:/Keil_v5\ARM\PACK\Keil\STM32L5xx_DFP\1.3.0\Drivers\STM32L5xx_HAL_Driver\Src\stm32l5xx_hal_dma.c:0:36
	movs	r1, #0
.Ltmp302:
	@DEBUG_VALUE: HAL_DMA_RegisterCallback:status <- $r1
	movs	r2, #0
.Ltmp303:
	@DEBUG_VALUE: HAL_DMA_RegisterCallback:pCallback <- [DW_OP_LLVM_entry_value 1] $r2
	.loc	5 931 3 is_stmt 1               @ c:/Keil_v5\ARM\PACK\Keil\STM32L5xx_DFP\1.3.0\Drivers\STM32L5xx_HAL_Driver\Src\stm32l5xx_hal_dma.c:931:3
	strb.w	r2, [r0, #36]
.Ltmp304:
	.loc	5 934 1                         @ c:/Keil_v5\ARM\PACK\Keil\STM32L5xx_DFP\1.3.0\Drivers\STM32L5xx_HAL_Driver\Src\stm32l5xx_hal_dma.c:934:1
	mov	r0, r1
	bx	lr
.Ltmp305:
.Lfunc_end8:
	.size	HAL_DMA_RegisterCallback, .Lfunc_end8-HAL_DMA_RegisterCallback
	.cfi_endproc
	.cantunwind
	.fnend
                                        @ -- End function
	.section	.text.HAL_DMA_UnRegisterCallback,"ax",%progbits
	.hidden	HAL_DMA_UnRegisterCallback      @ -- Begin function HAL_DMA_UnRegisterCallback
	.globl	HAL_DMA_UnRegisterCallback
	.p2align	2
	.type	HAL_DMA_UnRegisterCallback,%function
	.code	16                              @ @HAL_DMA_UnRegisterCallback
	.thumb_func
HAL_DMA_UnRegisterCallback:
.Lfunc_begin9:
	.loc	5 945 0                         @ c:/Keil_v5\ARM\PACK\Keil\STM32L5xx_DFP\1.3.0\Drivers\STM32L5xx_HAL_Driver\Src\stm32l5xx_hal_dma.c:945:0
	.fnstart
	.cfi_startproc
@ %bb.0:
	@DEBUG_VALUE: HAL_DMA_UnRegisterCallback:hdma <- $r0
	@DEBUG_VALUE: HAL_DMA_UnRegisterCallback:hdma <- $r0
	@DEBUG_VALUE: HAL_DMA_UnRegisterCallback:CallbackID <- $r1
	@DEBUG_VALUE: HAL_DMA_UnRegisterCallback:CallbackID <- undef
	@DEBUG_VALUE: HAL_DMA_UnRegisterCallback:status <- 0
	.loc	5 949 3 prologue_end            @ c:/Keil_v5\ARM\PACK\Keil\STM32L5xx_DFP\1.3.0\Drivers\STM32L5xx_HAL_Driver\Src\stm32l5xx_hal_dma.c:949:3
	ldrb.w	r2, [r0, #36]
.Ltmp306:
	.loc	5 949 3 is_stmt 0               @ c:/Keil_v5\ARM\PACK\Keil\STM32L5xx_DFP\1.3.0\Drivers\STM32L5xx_HAL_Driver\Src\stm32l5xx_hal_dma.c:949:3
	cmp	r2, #1
.Ltmp307:
	@DEBUG_VALUE: HAL_DMA_UnRegisterCallback:CallbackID <- $r1
	.loc	5 0 3                           @ c:/Keil_v5\ARM\PACK\Keil\STM32L5xx_DFP\1.3.0\Drivers\STM32L5xx_HAL_Driver\Src\stm32l5xx_hal_dma.c:0:3
	itt	eq
	moveq	r0, #2
.Ltmp308:
	@DEBUG_VALUE: HAL_DMA_UnRegisterCallback:hdma <- [DW_OP_LLVM_entry_value 1] $r0
	.loc	5 1002 1 is_stmt 1              @ c:/Keil_v5\ARM\PACK\Keil\STM32L5xx_DFP\1.3.0\Drivers\STM32L5xx_HAL_Driver\Src\stm32l5xx_hal_dma.c:1002:1
	bxeq	lr
.Ltmp309:
.LBB9_1:
	@DEBUG_VALUE: HAL_DMA_UnRegisterCallback:CallbackID <- $r1
	@DEBUG_VALUE: HAL_DMA_UnRegisterCallback:hdma <- [DW_OP_LLVM_entry_value 1] $r0
	@DEBUG_VALUE: HAL_DMA_UnRegisterCallback:status <- 0
	@DEBUG_VALUE: HAL_DMA_UnRegisterCallback:CallbackID <- $r1
	.loc	5 951 35                        @ c:/Keil_v5\ARM\PACK\Keil\STM32L5xx_DFP\1.3.0\Drivers\STM32L5xx_HAL_Driver\Src\stm32l5xx_hal_dma.c:951:35
	ldrb.w	r2, [r0, #37]
.Ltmp310:
	.loc	5 951 6 is_stmt 0               @ c:/Keil_v5\ARM\PACK\Keil\STM32L5xx_DFP\1.3.0\Drivers\STM32L5xx_HAL_Driver\Src\stm32l5xx_hal_dma.c:951:6
	cmp	r2, #1
	bne	.LBB9_6
.Ltmp311:
@ %bb.2:
	@DEBUG_VALUE: HAL_DMA_UnRegisterCallback:CallbackID <- $r1
	@DEBUG_VALUE: HAL_DMA_UnRegisterCallback:hdma <- [DW_OP_LLVM_entry_value 1] $r0
	@DEBUG_VALUE: HAL_DMA_UnRegisterCallback:status <- 0
	@DEBUG_VALUE: HAL_DMA_UnRegisterCallback:CallbackID <- $r1
	.loc	5 953 5 is_stmt 1               @ c:/Keil_v5\ARM\PACK\Keil\STM32L5xx_DFP\1.3.0\Drivers\STM32L5xx_HAL_Driver\Src\stm32l5xx_hal_dma.c:953:5
	cmp	r1, #6
	bhi	.LBB9_6
.Ltmp312:
@ %bb.3:
	@DEBUG_VALUE: HAL_DMA_UnRegisterCallback:CallbackID <- $r1
	@DEBUG_VALUE: HAL_DMA_UnRegisterCallback:hdma <- [DW_OP_LLVM_entry_value 1] $r0
	@DEBUG_VALUE: HAL_DMA_UnRegisterCallback:status <- 0
	@DEBUG_VALUE: HAL_DMA_UnRegisterCallback:CallbackID <- $r1
	.loc	5 0 5 is_stmt 0                 @ c:/Keil_v5\ARM\PACK\Keil\STM32L5xx_DFP\1.3.0\Drivers\STM32L5xx_HAL_Driver\Src\stm32l5xx_hal_dma.c:0:5
.LCPI9_0:
	tbb	[pc, r1]
.Ltmp313:
@ %bb.4:
.LJTI9_0:
	.byte	(.LBB9_5-(.LCPI9_0+4))/2
	.byte	(.LBB9_7-(.LCPI9_0+4))/2
	.byte	(.LBB9_8-(.LCPI9_0+4))/2
	.byte	(.LBB9_9-(.LCPI9_0+4))/2
	.byte	(.LBB9_10-(.LCPI9_0+4))/2
	.byte	(.LBB9_11-(.LCPI9_0+4))/2
	.byte	(.LBB9_12-(.LCPI9_0+4))/2
	.p2align	1
	.p2align	2
.LBB9_5:
.Ltmp314:
	@DEBUG_VALUE: HAL_DMA_UnRegisterCallback:CallbackID <- $r1
	@DEBUG_VALUE: HAL_DMA_UnRegisterCallback:hdma <- [DW_OP_LLVM_entry_value 1] $r0
	@DEBUG_VALUE: HAL_DMA_UnRegisterCallback:status <- 0
	movs	r1, #0
.Ltmp315:
	.loc	5 956 35 is_stmt 1              @ c:/Keil_v5\ARM\PACK\Keil\STM32L5xx_DFP\1.3.0\Drivers\STM32L5xx_HAL_Driver\Src\stm32l5xx_hal_dma.c:956:35
	str	r1, [r0, #44]
.Ltmp316:
	@DEBUG_VALUE: HAL_DMA_UnRegisterCallback:status <- $r1
	.loc	5 0 35 is_stmt 0                @ c:/Keil_v5\ARM\PACK\Keil\STM32L5xx_DFP\1.3.0\Drivers\STM32L5xx_HAL_Driver\Src\stm32l5xx_hal_dma.c:0:35
	movs	r2, #0
.Ltmp317:
	.loc	5 999 3 is_stmt 1               @ c:/Keil_v5\ARM\PACK\Keil\STM32L5xx_DFP\1.3.0\Drivers\STM32L5xx_HAL_Driver\Src\stm32l5xx_hal_dma.c:999:3
	strb.w	r2, [r0, #36]
.Ltmp318:
	.loc	5 1002 1                        @ c:/Keil_v5\ARM\PACK\Keil\STM32L5xx_DFP\1.3.0\Drivers\STM32L5xx_HAL_Driver\Src\stm32l5xx_hal_dma.c:1002:1
	mov	r0, r1
	bx	lr
.Ltmp319:
	.p2align	2
.LBB9_6:
	@DEBUG_VALUE: HAL_DMA_UnRegisterCallback:CallbackID <- $r1
	@DEBUG_VALUE: HAL_DMA_UnRegisterCallback:hdma <- [DW_OP_LLVM_entry_value 1] $r0
	@DEBUG_VALUE: HAL_DMA_UnRegisterCallback:status <- 0
	.loc	5 0 1 is_stmt 0                 @ c:/Keil_v5\ARM\PACK\Keil\STM32L5xx_DFP\1.3.0\Drivers\STM32L5xx_HAL_Driver\Src\stm32l5xx_hal_dma.c:0:1
	movs	r1, #1
.Ltmp320:
	@DEBUG_VALUE: HAL_DMA_UnRegisterCallback:status <- $r1
	movs	r2, #0
.Ltmp321:
	.loc	5 999 3 is_stmt 1               @ c:/Keil_v5\ARM\PACK\Keil\STM32L5xx_DFP\1.3.0\Drivers\STM32L5xx_HAL_Driver\Src\stm32l5xx_hal_dma.c:999:3
	strb.w	r2, [r0, #36]
.Ltmp322:
	.loc	5 1002 1                        @ c:/Keil_v5\ARM\PACK\Keil\STM32L5xx_DFP\1.3.0\Drivers\STM32L5xx_HAL_Driver\Src\stm32l5xx_hal_dma.c:1002:1
	mov	r0, r1
	bx	lr
.Ltmp323:
	.p2align	2
.LBB9_7:
	@DEBUG_VALUE: HAL_DMA_UnRegisterCallback:CallbackID <- $r1
	@DEBUG_VALUE: HAL_DMA_UnRegisterCallback:hdma <- [DW_OP_LLVM_entry_value 1] $r0
	@DEBUG_VALUE: HAL_DMA_UnRegisterCallback:status <- 0
	.loc	5 0 1 is_stmt 0                 @ c:/Keil_v5\ARM\PACK\Keil\STM32L5xx_DFP\1.3.0\Drivers\STM32L5xx_HAL_Driver\Src\stm32l5xx_hal_dma.c:0:1
	movs	r1, #0
.Ltmp324:
	.loc	5 960 39 is_stmt 1              @ c:/Keil_v5\ARM\PACK\Keil\STM32L5xx_DFP\1.3.0\Drivers\STM32L5xx_HAL_Driver\Src\stm32l5xx_hal_dma.c:960:39
	str	r1, [r0, #48]
.Ltmp325:
	@DEBUG_VALUE: HAL_DMA_UnRegisterCallback:status <- $r1
	.loc	5 0 39 is_stmt 0                @ c:/Keil_v5\ARM\PACK\Keil\STM32L5xx_DFP\1.3.0\Drivers\STM32L5xx_HAL_Driver\Src\stm32l5xx_hal_dma.c:0:39
	movs	r2, #0
.Ltmp326:
	.loc	5 999 3 is_stmt 1               @ c:/Keil_v5\ARM\PACK\Keil\STM32L5xx_DFP\1.3.0\Drivers\STM32L5xx_HAL_Driver\Src\stm32l5xx_hal_dma.c:999:3
	strb.w	r2, [r0, #36]
.Ltmp327:
	.loc	5 1002 1                        @ c:/Keil_v5\ARM\PACK\Keil\STM32L5xx_DFP\1.3.0\Drivers\STM32L5xx_HAL_Driver\Src\stm32l5xx_hal_dma.c:1002:1
	mov	r0, r1
	bx	lr
.Ltmp328:
	.p2align	2
.LBB9_8:
	@DEBUG_VALUE: HAL_DMA_UnRegisterCallback:CallbackID <- $r1
	@DEBUG_VALUE: HAL_DMA_UnRegisterCallback:hdma <- [DW_OP_LLVM_entry_value 1] $r0
	@DEBUG_VALUE: HAL_DMA_UnRegisterCallback:status <- 0
	.loc	5 0 1 is_stmt 0                 @ c:/Keil_v5\ARM\PACK\Keil\STM32L5xx_DFP\1.3.0\Drivers\STM32L5xx_HAL_Driver\Src\stm32l5xx_hal_dma.c:0:1
	movs	r1, #0
.Ltmp329:
	.loc	5 964 37 is_stmt 1              @ c:/Keil_v5\ARM\PACK\Keil\STM32L5xx_DFP\1.3.0\Drivers\STM32L5xx_HAL_Driver\Src\stm32l5xx_hal_dma.c:964:37
	str	r1, [r0, #52]
.Ltmp330:
	@DEBUG_VALUE: HAL_DMA_UnRegisterCallback:status <- $r1
	.loc	5 0 37 is_stmt 0                @ c:/Keil_v5\ARM\PACK\Keil\STM32L5xx_DFP\1.3.0\Drivers\STM32L5xx_HAL_Driver\Src\stm32l5xx_hal_dma.c:0:37
	movs	r2, #0
.Ltmp331:
	.loc	5 999 3 is_stmt 1               @ c:/Keil_v5\ARM\PACK\Keil\STM32L5xx_DFP\1.3.0\Drivers\STM32L5xx_HAL_Driver\Src\stm32l5xx_hal_dma.c:999:3
	strb.w	r2, [r0, #36]
.Ltmp332:
	.loc	5 1002 1                        @ c:/Keil_v5\ARM\PACK\Keil\STM32L5xx_DFP\1.3.0\Drivers\STM32L5xx_HAL_Driver\Src\stm32l5xx_hal_dma.c:1002:1
	mov	r0, r1
	bx	lr
.Ltmp333:
	.p2align	2
.LBB9_9:
	@DEBUG_VALUE: HAL_DMA_UnRegisterCallback:CallbackID <- $r1
	@DEBUG_VALUE: HAL_DMA_UnRegisterCallback:hdma <- [DW_OP_LLVM_entry_value 1] $r0
	@DEBUG_VALUE: HAL_DMA_UnRegisterCallback:status <- 0
	.loc	5 0 1 is_stmt 0                 @ c:/Keil_v5\ARM\PACK\Keil\STM32L5xx_DFP\1.3.0\Drivers\STM32L5xx_HAL_Driver\Src\stm32l5xx_hal_dma.c:0:1
	movs	r1, #0
.Ltmp334:
	.loc	5 968 41 is_stmt 1              @ c:/Keil_v5\ARM\PACK\Keil\STM32L5xx_DFP\1.3.0\Drivers\STM32L5xx_HAL_Driver\Src\stm32l5xx_hal_dma.c:968:41
	str	r1, [r0, #56]
.Ltmp335:
	@DEBUG_VALUE: HAL_DMA_UnRegisterCallback:status <- $r1
	.loc	5 0 41 is_stmt 0                @ c:/Keil_v5\ARM\PACK\Keil\STM32L5xx_DFP\1.3.0\Drivers\STM32L5xx_HAL_Driver\Src\stm32l5xx_hal_dma.c:0:41
	movs	r2, #0
.Ltmp336:
	.loc	5 999 3 is_stmt 1               @ c:/Keil_v5\ARM\PACK\Keil\STM32L5xx_DFP\1.3.0\Drivers\STM32L5xx_HAL_Driver\Src\stm32l5xx_hal_dma.c:999:3
	strb.w	r2, [r0, #36]
.Ltmp337:
	.loc	5 1002 1                        @ c:/Keil_v5\ARM\PACK\Keil\STM32L5xx_DFP\1.3.0\Drivers\STM32L5xx_HAL_Driver\Src\stm32l5xx_hal_dma.c:1002:1
	mov	r0, r1
	bx	lr
.Ltmp338:
	.p2align	2
.LBB9_10:
	@DEBUG_VALUE: HAL_DMA_UnRegisterCallback:CallbackID <- $r1
	@DEBUG_VALUE: HAL_DMA_UnRegisterCallback:hdma <- [DW_OP_LLVM_entry_value 1] $r0
	@DEBUG_VALUE: HAL_DMA_UnRegisterCallback:status <- 0
	.loc	5 0 1 is_stmt 0                 @ c:/Keil_v5\ARM\PACK\Keil\STM32L5xx_DFP\1.3.0\Drivers\STM32L5xx_HAL_Driver\Src\stm32l5xx_hal_dma.c:0:1
	movs	r1, #0
.Ltmp339:
	.loc	5 972 36 is_stmt 1              @ c:/Keil_v5\ARM\PACK\Keil\STM32L5xx_DFP\1.3.0\Drivers\STM32L5xx_HAL_Driver\Src\stm32l5xx_hal_dma.c:972:36
	str	r1, [r0, #60]
.Ltmp340:
	@DEBUG_VALUE: HAL_DMA_UnRegisterCallback:status <- $r1
	.loc	5 0 36 is_stmt 0                @ c:/Keil_v5\ARM\PACK\Keil\STM32L5xx_DFP\1.3.0\Drivers\STM32L5xx_HAL_Driver\Src\stm32l5xx_hal_dma.c:0:36
	movs	r2, #0
.Ltmp341:
	.loc	5 999 3 is_stmt 1               @ c:/Keil_v5\ARM\PACK\Keil\STM32L5xx_DFP\1.3.0\Drivers\STM32L5xx_HAL_Driver\Src\stm32l5xx_hal_dma.c:999:3
	strb.w	r2, [r0, #36]
.Ltmp342:
	.loc	5 1002 1                        @ c:/Keil_v5\ARM\PACK\Keil\STM32L5xx_DFP\1.3.0\Drivers\STM32L5xx_HAL_Driver\Src\stm32l5xx_hal_dma.c:1002:1
	mov	r0, r1
	bx	lr
.Ltmp343:
	.p2align	2
.LBB9_11:
	@DEBUG_VALUE: HAL_DMA_UnRegisterCallback:CallbackID <- $r1
	@DEBUG_VALUE: HAL_DMA_UnRegisterCallback:hdma <- [DW_OP_LLVM_entry_value 1] $r0
	@DEBUG_VALUE: HAL_DMA_UnRegisterCallback:status <- 0
	.loc	5 0 1 is_stmt 0                 @ c:/Keil_v5\ARM\PACK\Keil\STM32L5xx_DFP\1.3.0\Drivers\STM32L5xx_HAL_Driver\Src\stm32l5xx_hal_dma.c:0:1
	movs	r1, #0
.Ltmp344:
	b	.LBB9_13
.Ltmp345:
	.p2align	2
.LBB9_12:
	@DEBUG_VALUE: HAL_DMA_UnRegisterCallback:CallbackID <- $r1
	@DEBUG_VALUE: HAL_DMA_UnRegisterCallback:hdma <- [DW_OP_LLVM_entry_value 1] $r0
	@DEBUG_VALUE: HAL_DMA_UnRegisterCallback:status <- 0
	movs	r1, #0
.Ltmp346:
	.loc	5 981 39 is_stmt 1              @ c:/Keil_v5\ARM\PACK\Keil\STM32L5xx_DFP\1.3.0\Drivers\STM32L5xx_HAL_Driver\Src\stm32l5xx_hal_dma.c:981:39
	strd	r1, r1, [r0, #44]
	strd	r1, r1, [r0, #52]
	str	r1, [r0, #60]
.Ltmp347:
.LBB9_13:
	@DEBUG_VALUE: HAL_DMA_UnRegisterCallback:hdma <- [DW_OP_LLVM_entry_value 1] $r0
	@DEBUG_VALUE: HAL_DMA_UnRegisterCallback:status <- 0
	.loc	5 0 0 is_stmt 0                 @ c:/Keil_v5\ARM\PACK\Keil\STM32L5xx_DFP\1.3.0\Drivers\STM32L5xx_HAL_Driver\Src\stm32l5xx_hal_dma.c:0:0
	str	r1, [r0, #64]
.Ltmp348:
	@DEBUG_VALUE: HAL_DMA_UnRegisterCallback:status <- $r1
	movs	r2, #0
.Ltmp349:
	.loc	5 999 3 is_stmt 1               @ c:/Keil_v5\ARM\PACK\Keil\STM32L5xx_DFP\1.3.0\Drivers\STM32L5xx_HAL_Driver\Src\stm32l5xx_hal_dma.c:999:3
	strb.w	r2, [r0, #36]
.Ltmp350:
	.loc	5 1002 1                        @ c:/Keil_v5\ARM\PACK\Keil\STM32L5xx_DFP\1.3.0\Drivers\STM32L5xx_HAL_Driver\Src\stm32l5xx_hal_dma.c:1002:1
	mov	r0, r1
	bx	lr
.Ltmp351:
.Lfunc_end9:
	.size	HAL_DMA_UnRegisterCallback, .Lfunc_end9-HAL_DMA_UnRegisterCallback
	.cfi_endproc
	.cantunwind
	.fnend
                                        @ -- End function
	.section	.text.HAL_DMA_GetState,"ax",%progbits
	.hidden	HAL_DMA_GetState                @ -- Begin function HAL_DMA_GetState
	.globl	HAL_DMA_GetState
	.p2align	2
	.type	HAL_DMA_GetState,%function
	.code	16                              @ @HAL_DMA_GetState
	.thumb_func
HAL_DMA_GetState:
.Lfunc_begin10:
	.loc	5 1033 0                        @ c:/Keil_v5\ARM\PACK\Keil\STM32L5xx_DFP\1.3.0\Drivers\STM32L5xx_HAL_Driver\Src\stm32l5xx_hal_dma.c:1033:0
	.fnstart
	.cfi_startproc
@ %bb.0:
	@DEBUG_VALUE: HAL_DMA_GetState:hdma <- $r0
	@DEBUG_VALUE: HAL_DMA_GetState:hdma <- $r0
	.loc	5 1035 16 prologue_end          @ c:/Keil_v5\ARM\PACK\Keil\STM32L5xx_DFP\1.3.0\Drivers\STM32L5xx_HAL_Driver\Src\stm32l5xx_hal_dma.c:1035:16
	ldrb.w	r0, [r0, #37]
.Ltmp352:
	@DEBUG_VALUE: HAL_DMA_GetState:hdma <- [DW_OP_LLVM_entry_value 1] $r0
	.loc	5 1035 3 is_stmt 0              @ c:/Keil_v5\ARM\PACK\Keil\STM32L5xx_DFP\1.3.0\Drivers\STM32L5xx_HAL_Driver\Src\stm32l5xx_hal_dma.c:1035:3
	bx	lr
.Ltmp353:
.Lfunc_end10:
	.size	HAL_DMA_GetState, .Lfunc_end10-HAL_DMA_GetState
	.cfi_endproc
	.cantunwind
	.fnend
                                        @ -- End function
	.section	.text.HAL_DMA_GetError,"ax",%progbits
	.hidden	HAL_DMA_GetError                @ -- Begin function HAL_DMA_GetError
	.globl	HAL_DMA_GetError
	.p2align	2
	.type	HAL_DMA_GetError,%function
	.code	16                              @ @HAL_DMA_GetError
	.thumb_func
HAL_DMA_GetError:
.Lfunc_begin11:
	.loc	5 1045 0 is_stmt 1              @ c:/Keil_v5\ARM\PACK\Keil\STM32L5xx_DFP\1.3.0\Drivers\STM32L5xx_HAL_Driver\Src\stm32l5xx_hal_dma.c:1045:0
	.fnstart
	.cfi_startproc
@ %bb.0:
	@DEBUG_VALUE: HAL_DMA_GetError:hdma <- $r0
	@DEBUG_VALUE: HAL_DMA_GetError:hdma <- $r0
	.loc	5 1046 16 prologue_end          @ c:/Keil_v5\ARM\PACK\Keil\STM32L5xx_DFP\1.3.0\Drivers\STM32L5xx_HAL_Driver\Src\stm32l5xx_hal_dma.c:1046:16
	ldr	r0, [r0, #68]
.Ltmp354:
	@DEBUG_VALUE: HAL_DMA_GetError:hdma <- [DW_OP_LLVM_entry_value 1] $r0
	.loc	5 1046 3 is_stmt 0              @ c:/Keil_v5\ARM\PACK\Keil\STM32L5xx_DFP\1.3.0\Drivers\STM32L5xx_HAL_Driver\Src\stm32l5xx_hal_dma.c:1046:3
	bx	lr
.Ltmp355:
.Lfunc_end11:
	.size	HAL_DMA_GetError, .Lfunc_end11-HAL_DMA_GetError
	.cfi_endproc
	.cantunwind
	.fnend
                                        @ -- End function
	.section	.text.HAL_DMA_ConfigChannelAttributes,"ax",%progbits
	.hidden	HAL_DMA_ConfigChannelAttributes @ -- Begin function HAL_DMA_ConfigChannelAttributes
	.globl	HAL_DMA_ConfigChannelAttributes
	.p2align	2
	.type	HAL_DMA_ConfigChannelAttributes,%function
	.code	16                              @ @HAL_DMA_ConfigChannelAttributes
	.thumb_func
HAL_DMA_ConfigChannelAttributes:
.Lfunc_begin12:
	.loc	5 1087 0 is_stmt 1              @ c:/Keil_v5\ARM\PACK\Keil\STM32L5xx_DFP\1.3.0\Drivers\STM32L5xx_HAL_Driver\Src\stm32l5xx_hal_dma.c:1087:0
	.fnstart
	.cfi_startproc
@ %bb.0:
	@DEBUG_VALUE: HAL_DMA_ConfigChannelAttributes:hdma <- $r0
	@DEBUG_VALUE: HAL_DMA_ConfigChannelAttributes:hdma <- $r0
	@DEBUG_VALUE: HAL_DMA_ConfigChannelAttributes:ChannelAttributes <- $r1
	@DEBUG_VALUE: HAL_DMA_ConfigChannelAttributes:status <- 0
	.loc	5 1096 6 prologue_end           @ c:/Keil_v5\ARM\PACK\Keil\STM32L5xx_DFP\1.3.0\Drivers\STM32L5xx_HAL_Driver\Src\stm32l5xx_hal_dma.c:1096:6
	cmp	r0, #0
	@DEBUG_VALUE: HAL_DMA_ConfigChannelAttributes:ChannelAttributes <- $r1
	itt	eq
	moveq	r0, #1
.Ltmp356:
	@DEBUG_VALUE: HAL_DMA_ConfigChannelAttributes:hdma <- [DW_OP_LLVM_entry_value 1] $r0
	.loc	5 1205 1                        @ c:/Keil_v5\ARM\PACK\Keil\STM32L5xx_DFP\1.3.0\Drivers\STM32L5xx_HAL_Driver\Src\stm32l5xx_hal_dma.c:1205:1
	bxeq	lr
.Ltmp357:
.LBB12_1:
	@DEBUG_VALUE: HAL_DMA_ConfigChannelAttributes:ChannelAttributes <- $r1
	@DEBUG_VALUE: HAL_DMA_ConfigChannelAttributes:hdma <- [DW_OP_LLVM_entry_value 1] $r0
	@DEBUG_VALUE: HAL_DMA_ConfigChannelAttributes:status <- 0
	.loc	5 1106 9                        @ c:/Keil_v5\ARM\PACK\Keil\STM32L5xx_DFP\1.3.0\Drivers\STM32L5xx_HAL_Driver\Src\stm32l5xx_hal_dma.c:1106:9
	ldr	r0, [r0]
	.loc	5 1109 7                        @ c:/Keil_v5\ARM\PACK\Keil\STM32L5xx_DFP\1.3.0\Drivers\STM32L5xx_HAL_Driver\Src\stm32l5xx_hal_dma.c:1109:7
	lsls	r3, r1, #27
	.loc	5 1106 9                        @ c:/Keil_v5\ARM\PACK\Keil\STM32L5xx_DFP\1.3.0\Drivers\STM32L5xx_HAL_Driver\Src\stm32l5xx_hal_dma.c:1106:9
	ldr	r2, [r0]
.Ltmp358:
	@DEBUG_VALUE: HAL_DMA_ConfigChannelAttributes:ccr <- $r2
	.loc	5 1109 7                        @ c:/Keil_v5\ARM\PACK\Keil\STM32L5xx_DFP\1.3.0\Drivers\STM32L5xx_HAL_Driver\Src\stm32l5xx_hal_dma.c:1109:7
	bpl	.LBB12_3
.Ltmp359:
@ %bb.2:
	@DEBUG_VALUE: HAL_DMA_ConfigChannelAttributes:ccr <- $r2
	@DEBUG_VALUE: HAL_DMA_ConfigChannelAttributes:ChannelAttributes <- $r1
	@DEBUG_VALUE: HAL_DMA_ConfigChannelAttributes:hdma <- [DW_OP_LLVM_entry_value 1] $r0
	@DEBUG_VALUE: HAL_DMA_ConfigChannelAttributes:status <- 0
	.loc	5 1111 8                        @ c:/Keil_v5\ARM\PACK\Keil\STM32L5xx_DFP\1.3.0\Drivers\STM32L5xx_HAL_Driver\Src\stm32l5xx_hal_dma.c:1111:8
	lsls	r1, r1, #11
.Ltmp360:
	@DEBUG_VALUE: HAL_DMA_ConfigChannelAttributes:ChannelAttributes <- [DW_OP_LLVM_entry_value 1] $r1
	.loc	5 1117 7                        @ c:/Keil_v5\ARM\PACK\Keil\STM32L5xx_DFP\1.3.0\Drivers\STM32L5xx_HAL_Driver\Src\stm32l5xx_hal_dma.c:1117:7
	ite	pl
	bicpl	r2, r2, #1048576
.Ltmp361:
	.loc	5 1113 7                        @ c:/Keil_v5\ARM\PACK\Keil\STM32L5xx_DFP\1.3.0\Drivers\STM32L5xx_HAL_Driver\Src\stm32l5xx_hal_dma.c:1113:7
	orrmi	r2, r2, #1048576
.Ltmp362:
	@DEBUG_VALUE: HAL_DMA_ConfigChannelAttributes:ccr <- $r2
.LBB12_3:
	@DEBUG_VALUE: HAL_DMA_ConfigChannelAttributes:ccr <- $r2
	@DEBUG_VALUE: HAL_DMA_ConfigChannelAttributes:hdma <- [DW_OP_LLVM_entry_value 1] $r0
	@DEBUG_VALUE: HAL_DMA_ConfigChannelAttributes:status <- 0
	@DEBUG_VALUE: HAL_DMA_ConfigChannelAttributes:ccr <- $r2
	.loc	5 1202 3                        @ c:/Keil_v5\ARM\PACK\Keil\STM32L5xx_DFP\1.3.0\Drivers\STM32L5xx_HAL_Driver\Src\stm32l5xx_hal_dma.c:1202:3
	str	r2, [r0]
	movs	r0, #0
	.loc	5 1205 1                        @ c:/Keil_v5\ARM\PACK\Keil\STM32L5xx_DFP\1.3.0\Drivers\STM32L5xx_HAL_Driver\Src\stm32l5xx_hal_dma.c:1205:1
	bx	lr
.Ltmp363:
.Lfunc_end12:
	.size	HAL_DMA_ConfigChannelAttributes, .Lfunc_end12-HAL_DMA_ConfigChannelAttributes
	.cfi_endproc
	.cantunwind
	.fnend
                                        @ -- End function
	.section	.text.HAL_DMA_GetConfigChannelAttributes,"ax",%progbits
	.hidden	HAL_DMA_GetConfigChannelAttributes @ -- Begin function HAL_DMA_GetConfigChannelAttributes
	.globl	HAL_DMA_GetConfigChannelAttributes
	.p2align	2
	.type	HAL_DMA_GetConfigChannelAttributes,%function
	.code	16                              @ @HAL_DMA_GetConfigChannelAttributes
	.thumb_func
HAL_DMA_GetConfigChannelAttributes:
.Lfunc_begin13:
	.loc	5 1217 0                        @ c:/Keil_v5\ARM\PACK\Keil\STM32L5xx_DFP\1.3.0\Drivers\STM32L5xx_HAL_Driver\Src\stm32l5xx_hal_dma.c:1217:0
	.fnstart
	.cfi_startproc
@ %bb.0:
	@DEBUG_VALUE: HAL_DMA_GetConfigChannelAttributes:hdma <- $r0
	@DEBUG_VALUE: HAL_DMA_GetConfigChannelAttributes:ChannelAttributes <- $r1
	mov	r2, r0
	@DEBUG_VALUE: HAL_DMA_GetConfigChannelAttributes:ChannelAttributes <- $r1
.Ltmp364:
	@DEBUG_VALUE: HAL_DMA_GetConfigChannelAttributes:hdma <- $r2
	.loc	5 1222 21 prologue_end          @ c:/Keil_v5\ARM\PACK\Keil\STM32L5xx_DFP\1.3.0\Drivers\STM32L5xx_HAL_Driver\Src\stm32l5xx_hal_dma.c:1222:21
	cmp	r0, #0
	mov.w	r0, #1
	it	ne
	cmpne	r1, #0
	bne	.LBB13_2
.Ltmp365:
@ %bb.1:
	@DEBUG_VALUE: HAL_DMA_GetConfigChannelAttributes:hdma <- $r2
	@DEBUG_VALUE: HAL_DMA_GetConfigChannelAttributes:ChannelAttributes <- $r1
	.loc	5 1254 1                        @ c:/Keil_v5\ARM\PACK\Keil\STM32L5xx_DFP\1.3.0\Drivers\STM32L5xx_HAL_Driver\Src\stm32l5xx_hal_dma.c:1254:1
	bx	lr
.Ltmp366:
	.p2align	2
.LBB13_2:
	@DEBUG_VALUE: HAL_DMA_GetConfigChannelAttributes:hdma <- $r2
	@DEBUG_VALUE: HAL_DMA_GetConfigChannelAttributes:ChannelAttributes <- $r1
	.loc	5 1245 21                       @ c:/Keil_v5\ARM\PACK\Keil\STM32L5xx_DFP\1.3.0\Drivers\STM32L5xx_HAL_Driver\Src\stm32l5xx_hal_dma.c:1245:21
	ldr	r0, [r2]
	ldr	r0, [r0]
	and	r0, r0, #1048576
.Ltmp367:
	@DEBUG_VALUE: HAL_DMA_GetConfigChannelAttributes:read_attributes <- $r0
	.loc	5 1247 16                       @ c:/Keil_v5\ARM\PACK\Keil\STM32L5xx_DFP\1.3.0\Drivers\STM32L5xx_HAL_Driver\Src\stm32l5xx_hal_dma.c:1247:16
	adds	r0, #16
.Ltmp368:
	@DEBUG_VALUE: HAL_DMA_GetConfigChannelAttributes:attributes <- $r0
	.loc	5 1251 22                       @ c:/Keil_v5\ARM\PACK\Keil\STM32L5xx_DFP\1.3.0\Drivers\STM32L5xx_HAL_Driver\Src\stm32l5xx_hal_dma.c:1251:22
	str	r0, [r1]
	movs	r0, #0
.Ltmp369:
	.loc	5 1254 1                        @ c:/Keil_v5\ARM\PACK\Keil\STM32L5xx_DFP\1.3.0\Drivers\STM32L5xx_HAL_Driver\Src\stm32l5xx_hal_dma.c:1254:1
	bx	lr
.Ltmp370:
.Lfunc_end13:
	.size	HAL_DMA_GetConfigChannelAttributes, .Lfunc_end13-HAL_DMA_GetConfigChannelAttributes
	.cfi_endproc
	.cantunwind
	.fnend
                                        @ -- End function
	.section	".note.GNU-stack","",%progbits
	.eabi_attribute	30, 2	@ Tag_ABI_optimization_goals
	.ARM_attribute	16, 1	@ Tag_AV_eba