	.text
	.syntax unified
	.eabi_attribute	67, "2.09"	@ Tag_conformance
	.cpu	cortex-m33
	.eabi_attribute	6, 17	@ Tag_CPU_arch
	.eabi_attribute	7, 77	@ Tag_CPU_arch_profile
	.eabi_attribute	8, 0	@ Tag_ARM_ISA_use
	.eabi_attribute	9, 3	@ Tag_THUMB_ISA_use
	.fpu	fpv5-sp-d16
	.eabi_attribute	27, 1	@ Tag_ABI_HardFP_use
	.eabi_attribute	36, 1	@ Tag_FP_HP_extension
	.eabi_attribute	46, 1	@ Tag_DSP_extension
	.eabi_attribute	34, 1	@ Tag_CPU_unaligned_access
	.eabi_attribute	17, 1	@ Tag_ABI_PCS_GOT_use
	.eabi_attribute	20, 2	@ Tag_ABI_FP_denormal
	.eabi_attribute	21, 0	@ Tag_ABI_FP_exceptions
	.eabi_attribute	23, 1	@ Tag_ABI_FP_number_model
	.eabi_attribute	24, 1	@ Tag_ABI_align_needed
	.eabi_attribute	25, 1	@ Tag_ABI_align_preserved
	.eabi_attribute	28, 1	@ Tag_ABI_VFP_args
	.eabi_attribute	38, 1	@ Tag_ABI_FP_16bit_format
	.eabi_attribute	18, 2	@ Tag_ABI_PCS_wchar_t
	.eabi_attribute	26, 1	@ Tag_ABI_enum_size
	.eabi_attribute	14, 0	@ Tag_ABI_PCS_R9_use
	.file	"stm32l5xx_hal_usart.c"
	.file	1 "c:/Keil_v5\\ARM\\PACK\\Keil\\STM32L5xx_DFP\\1.3.0\\Drivers\\STM32L5xx_HAL_Driver\\Inc" "stm32l5xx_hal_def.h"
	.file	2 "c:/Keil_v5\\ARM\\PACK\\Keil\\STM32L5xx_DFP\\1.3.0\\Drivers\\STM32L5xx_HAL_Driver\\Inc" "stm32l5xx_hal_dma.h"
	.file	3 "c:/Keil_v5\\ARM\\PACK\\Keil\\STM32L5xx_DFP\\1.3.0\\Drivers\\STM32L5xx_HAL_Driver\\Inc" "stm32l5xx_hal_usart.h"
	.file	4 "c:/Keil_v5\\ARM\\PACK\\Keil\\STM32L5xx_DFP\\1.3.0\\Drivers\\CMSIS\\Device\\ST\\STM32L5xx\\Include" "stm32l5xx.h"
	.file	5 "c:\\Keil_v5\\ARM\\ARMCLANG\\Bin\\..\\include" "stdint.h"
	.file	6 "c:/Keil_v5\\ARM\\PACK\\Keil\\STM32L5xx_DFP\\1.3.0\\Drivers\\CMSIS\\Device\\ST\\STM32L5xx\\Include" "stm32l552xx.h"
	.section	.text.HAL_USART_Init,"ax",%progbits
	.hidden	HAL_USART_Init                  @ -- Begin function HAL_USART_Init
	.globl	HAL_USART_Init
	.p2align	2
	.type	HAL_USART_Init,%function
	.code	16                              @ @HAL_USART_Init
	.thumb_func
HAL_USART_Init:
.Lfunc_begin0:
	.file	7 "c:/Keil_v5\\ARM\\PACK\\Keil\\STM32L5xx_DFP\\1.3.0\\Drivers\\STM32L5xx_HAL_Driver\\Src" "stm32l5xx_hal_usart.c"
	.loc	7 277 0                         @ c:/Keil_v5\ARM\PACK\Keil\STM32L5xx_DFP\1.3.0\Drivers\STM32L5xx_HAL_Driver\Src\stm32l5xx_hal_usart.c:277:0
	.fnstart
	.cfi_sections .debug_frame
	.cfi_startproc
@ %bb.0:
	@DEBUG_VALUE: HAL_USART_Init:husart <- $r0
	@DEBUG_VALUE: HAL_USART_Init:husart <- $r0
	.save	{r4, r5, r6, lr}
	push	{r4, r5, r6, lr}
	.cfi_def_cfa_offset 16
	.cfi_offset lr, -4
	.cfi_offset r6, -8
	.cfi_offset r5, -12
	.cfi_offset r4, -16
.Ltmp0:
	.loc	7 279 7 prologue_end            @ c:/Keil_v5\ARM\PACK\Keil\STM32L5xx_DFP\1.3.0\Drivers\STM32L5xx_HAL_Driver\Src\stm32l5xx_hal_usart.c:279:7
	cmp	r0, #0
	itt	eq
	moveq	r0, #1
.Ltmp1:
	@DEBUG_VALUE: HAL_USART_Init:husart <- [DW_OP_LLVM_entry_value 1] $r0
	.loc	7 331 1                         @ c:/Keil_v5\ARM\PACK\Keil\STM32L5xx_DFP\1.3.0\Drivers\STM32L5xx_HAL_Driver\Src\stm32l5xx_hal_usart.c:331:1
	popeq	{r4, r5, r6, pc}
.Ltmp2:
.LBB0_1:
	@DEBUG_VALUE: HAL_USART_Init:husart <- [DW_OP_LLVM_entry_value 1] $r0
	.loc	7 0 1 is_stmt 0                 @ c:/Keil_v5\ARM\PACK\Keil\STM32L5xx_DFP\1.3.0\Drivers\STM32L5xx_HAL_Driver\Src\stm32l5xx_hal_usart.c:0:1
	mov	r6, r0
.Ltmp3:
	@DEBUG_VALUE: HAL_USART_Init:husart <- $r6
	.loc	7 287 15 is_stmt 1              @ c:/Keil_v5\ARM\PACK\Keil\STM32L5xx_DFP\1.3.0\Drivers\STM32L5xx_HAL_Driver\Src\stm32l5xx_hal_usart.c:287:15
	ldrb.w	r0, [r0, #89]
.Ltmp4:
	.loc	7 287 7 is_stmt 0               @ c:/Keil_v5\ARM\PACK\Keil\STM32L5xx_DFP\1.3.0\Drivers\STM32L5xx_HAL_Driver\Src\stm32l5xx_hal_usart.c:287:7
	cbnz	r0, .LBB0_3
.Ltmp5:
@ %bb.2:
	@DEBUG_VALUE: HAL_USART_Init:husart <- $r6
	.loc	7 0 7                           @ c:/Keil_v5\ARM\PACK\Keil\STM32L5xx_DFP\1.3.0\Drivers\STM32L5xx_HAL_Driver\Src\stm32l5xx_hal_usart.c:0:7
	movs	r0, #0
.Ltmp6:
	.loc	7 290 18 is_stmt 1              @ c:/Keil_v5\ARM\PACK\Keil\STM32L5xx_DFP\1.3.0\Drivers\STM32L5xx_HAL_Driver\Src\stm32l5xx_hal_usart.c:290:18
	strb.w	r0, [r6, #88]
	.loc	7 304 5                         @ c:/Keil_v5\ARM\PACK\Keil\STM32L5xx_DFP\1.3.0\Drivers\STM32L5xx_HAL_Driver\Src\stm32l5xx_hal_usart.c:304:5
	mov	r0, r6
	bl	HAL_USART_MspInit
.Ltmp7:
.LBB0_3:
	@DEBUG_VALUE: HAL_USART_Init:husart <- $r6
	.loc	7 0 5 is_stmt 0                 @ c:/Keil_v5\ARM\PACK\Keil\STM32L5xx_DFP\1.3.0\Drivers\STM32L5xx_HAL_Driver\Src\stm32l5xx_hal_usart.c:0:5
	movs	r0, #2
	.loc	7 308 17 is_stmt 1              @ c:/Keil_v5\ARM\PACK\Keil\STM32L5xx_DFP\1.3.0\Drivers\STM32L5xx_HAL_Driver\Src\stm32l5xx_hal_usart.c:308:17
	strb.w	r0, [r6, #89]
	.loc	7 311 3                         @ c:/Keil_v5\ARM\PACK\Keil\STM32L5xx_DFP\1.3.0\Drivers\STM32L5xx_HAL_Driver\Src\stm32l5xx_hal_usart.c:311:3
	ldr	r1, [r6]
.Ltmp8:
	@DEBUG_VALUE: USART_SetConfig:usartdiv <- 0
	@DEBUG_VALUE: USART_SetConfig:ret <- 0
	@DEBUG_VALUE: USART_SetConfig:husart <- $r6
	@DEBUG_VALUE: USART_SetConfig:tmpreg <- [DW_OP_constu 2048, DW_OP_or, DW_OP_stack_value] undef
	.loc	7 2876 35                       @ c:/Keil_v5\ARM\PACK\Keil\STM32L5xx_DFP\1.3.0\Drivers\STM32L5xx_HAL_Driver\Src\stm32l5xx_hal_usart.c:2876:35
	ldrd	r0, r12, [r6, #8]
	.loc	7 2876 61 is_stmt 0             @ c:/Keil_v5\ARM\PACK\Keil\STM32L5xx_DFP\1.3.0\Drivers\STM32L5xx_HAL_Driver\Src\stm32l5xx_hal_usart.c:2876:61
	ldr	r3, [r6, #16]
.Ltmp9:
	.loc	7 311 3 is_stmt 1               @ c:/Keil_v5\ARM\PACK\Keil\STM32L5xx_DFP\1.3.0\Drivers\STM32L5xx_HAL_Driver\Src\stm32l5xx_hal_usart.c:311:3
	ldr	r5, [r1]
	movw	r4, #27123
	bic	r5, r5, #1
	str	r5, [r1]
.Ltmp10:
	.loc	7 2876 83                       @ c:/Keil_v5\ARM\PACK\Keil\STM32L5xx_DFP\1.3.0\Drivers\STM32L5xx_HAL_Driver\Src\stm32l5xx_hal_usart.c:2876:83
	ldr	r5, [r6, #20]
.Ltmp11:
	@DEBUG_VALUE: USART_SetConfig:tmpreg <- undef
	@DEBUG_VALUE: USART_SetConfig:usartdiv <- 0
	@DEBUG_VALUE: USART_SetConfig:ret <- 0
	@DEBUG_VALUE: USART_SetConfig:husart <- $r6
	.loc	7 2877 3                        @ c:/Keil_v5\ARM\PACK\Keil\STM32L5xx_DFP\1.3.0\Drivers\STM32L5xx_HAL_Driver\Src\stm32l5xx_hal_usart.c:2877:3
	ldr	r2, [r1]
	movt	r4, #53247
	.loc	7 2876 88                       @ c:/Keil_v5\ARM\PACK\Keil\STM32L5xx_DFP\1.3.0\Drivers\STM32L5xx_HAL_Driver\Src\stm32l5xx_hal_usart.c:2876:88
	orrs	r0, r3
	.loc	7 2877 3                        @ c:/Keil_v5\ARM\PACK\Keil\STM32L5xx_DFP\1.3.0\Drivers\STM32L5xx_HAL_Driver\Src\stm32l5xx_hal_usart.c:2877:3
	ands	r2, r4
	orrs	r0, r5
	orrs	r0, r2
	orr	r0, r0, #32768
	str	r0, [r1]
.Ltmp12:
	@DEBUG_VALUE: USART_SetConfig:tmpreg <- 2048
	.loc	7 2887 37                       @ c:/Keil_v5\ARM\PACK\Keil\STM32L5xx_DFP\1.3.0\Drivers\STM32L5xx_HAL_Driver\Src\stm32l5xx_hal_usart.c:2887:37
	ldrd	r2, r3, [r6, #24]
.Ltmp13:
	@DEBUG_VALUE: USART_SetConfig:tmpreg <- undef
	.loc	7 2886 36                       @ c:/Keil_v5\ARM\PACK\Keil\STM32L5xx_DFP\1.3.0\Drivers\STM32L5xx_HAL_Driver\Src\stm32l5xx_hal_usart.c:2886:36
	ldr	r0, [r6, #32]
.Ltmp14:
	@DEBUG_VALUE: USART_SetConfig:tmpreg <- [DW_OP_constu 2048, DW_OP_or, DW_OP_stack_value] $r0
	.loc	7 2889 3                        @ c:/Keil_v5\ARM\PACK\Keil\STM32L5xx_DFP\1.3.0\Drivers\STM32L5xx_HAL_Driver\Src\stm32l5xx_hal_usart.c:2889:3
	ldr	r5, [r1, #4]
	.loc	7 2888 10                       @ c:/Keil_v5\ARM\PACK\Keil\STM32L5xx_DFP\1.3.0\Drivers\STM32L5xx_HAL_Driver\Src\stm32l5xx_hal_usart.c:2888:10
	orrs	r0, r2
.Ltmp15:
	.loc	7 0 10 is_stmt 0                @ c:/Keil_v5\ARM\PACK\Keil\STM32L5xx_DFP\1.3.0\Drivers\STM32L5xx_HAL_Driver\Src\stm32l5xx_hal_usart.c:0:10
	movw	r4, #16137
	.loc	7 2888 10                       @ c:/Keil_v5\ARM\PACK\Keil\STM32L5xx_DFP\1.3.0\Drivers\STM32L5xx_HAL_Driver\Src\stm32l5xx_hal_usart.c:2888:10
	orrs	r0, r3
	.loc	7 2889 3 is_stmt 1              @ c:/Keil_v5\ARM\PACK\Keil\STM32L5xx_DFP\1.3.0\Drivers\STM32L5xx_HAL_Driver\Src\stm32l5xx_hal_usart.c:2889:3
	bics	r5, r4
	orr.w	r0, r0, r12
	orrs	r0, r5
	orr	r0, r0, #2048
	str	r0, [r1, #4]
	.loc	7 2894 3                        @ c:/Keil_v5\ARM\PACK\Keil\STM32L5xx_DFP\1.3.0\Drivers\STM32L5xx_HAL_Driver\Src\stm32l5xx_hal_usart.c:2894:3
	ldr	r2, [r1, #44]
	ldr	r0, [r6, #36]
	movw	r3, #17408
	bic	r2, r2, #15
	movt	r3, #16384
	orrs	r2, r0
.Ltmp16:
	.loc	7 2898 3                        @ c:/Keil_v5\ARM\PACK\Keil\STM32L5xx_DFP\1.3.0\Drivers\STM32L5xx_HAL_Driver\Src\stm32l5xx_hal_usart.c:2898:3
	cmp	r1, r3
.Ltmp17:
	.loc	7 2894 3                        @ c:/Keil_v5\ARM\PACK\Keil\STM32L5xx_DFP\1.3.0\Drivers\STM32L5xx_HAL_Driver\Src\stm32l5xx_hal_usart.c:2894:3
	str	r2, [r1, #44]
.Ltmp18:
	.loc	7 2898 3                        @ c:/Keil_v5\ARM\PACK\Keil\STM32L5xx_DFP\1.3.0\Drivers\STM32L5xx_HAL_Driver\Src\stm32l5xx_hal_usart.c:2898:3
	beq	.LBB0_9
.Ltmp19:
@ %bb.4:
	@DEBUG_VALUE: USART_SetConfig:husart <- $r6
	@DEBUG_VALUE: HAL_USART_Init:husart <- $r6
	@DEBUG_VALUE: USART_SetConfig:ret <- 0
	@DEBUG_VALUE: USART_SetConfig:usartdiv <- 0
	.loc	7 0 3 is_stmt 0                 @ c:/Keil_v5\ARM\PACK\Keil\STM32L5xx_DFP\1.3.0\Drivers\STM32L5xx_HAL_Driver\Src\stm32l5xx_hal_usart.c:0:3
	movw	r2, #18432
	movt	r2, #16384
	.loc	7 2898 3                        @ c:/Keil_v5\ARM\PACK\Keil\STM32L5xx_DFP\1.3.0\Drivers\STM32L5xx_HAL_Driver\Src\stm32l5xx_hal_usart.c:2898:3
	cmp	r1, r2
	beq	.LBB0_11
.Ltmp20:
@ %bb.5:
	@DEBUG_VALUE: USART_SetConfig:husart <- $r6
	@DEBUG_VALUE: HAL_USART_Init:husart <- $r6
	@DEBUG_VALUE: USART_SetConfig:ret <- 0
	@DEBUG_VALUE: USART_SetConfig:usartdiv <- 0
	.loc	7 0 3                           @ c:/Keil_v5\ARM\PACK\Keil\STM32L5xx_DFP\1.3.0\Drivers\STM32L5xx_HAL_Driver\Src\stm32l5xx_hal_usart.c:0:3
	movw	r2, #14336
	movt	r2, #16385
	.loc	7 2898 3                        @ c:/Keil_v5\ARM\PACK\Keil\STM32L5xx_DFP\1.3.0\Drivers\STM32L5xx_HAL_Driver\Src\stm32l5xx_hal_usart.c:2898:3
	cmp	r1, r2
	bne.w	.LBB0_45
.Ltmp21:
@ %bb.6:
	@DEBUG_VALUE: USART_SetConfig:husart <- $r6
	@DEBUG_VALUE: HAL_USART_Init:husart <- $r6
	@DEBUG_VALUE: USART_SetConfig:ret <- 0
	@DEBUG_VALUE: USART_SetConfig:usartdiv <- 0
	.loc	7 0 3                           @ c:/Keil_v5\ARM\PACK\Keil\STM32L5xx_DFP\1.3.0\Drivers\STM32L5xx_HAL_Driver\Src\stm32l5xx_hal_usart.c:0:3
	movw	r1, #4232
	movt	r1, #16386
.Ltmp22:
	.loc	7 2898 3                        @ c:/Keil_v5\ARM\PACK\Keil\STM32L5xx_DFP\1.3.0\Drivers\STM32L5xx_HAL_Driver\Src\stm32l5xx_hal_usart.c:2898:3
	ldr	r1, [r1]
	and	r1, r1, #3
.LCPI0_0:
	tbb	[pc, r1]
.Ltmp23:
@ %bb.7:
	.loc	7 0 3                           @ c:/Keil_v5\ARM\PACK\Keil\STM32L5xx_DFP\1.3.0\Drivers\STM32L5xx_HAL_Driver\Src\stm32l5xx_hal_usart.c:0:3
.LJTI0_2:
	.byte	(.LBB0_8-(.LCPI0_0+4))/2
	.byte	(.LBB0_15-(.LCPI0_0+4))/2
	.byte	(.LBB0_18-(.LCPI0_0+4))/2
	.byte	(.LBB0_20-(.LCPI0_0+4))/2
	.p2align	1
	.p2align	2
.LBB0_8:
.Ltmp24:
	@DEBUG_VALUE: USART_SetConfig:husart <- $r6
	@DEBUG_VALUE: HAL_USART_Init:husart <- $r6
	@DEBUG_VALUE: USART_SetConfig:ret <- 0
	@DEBUG_VALUE: USART_SetConfig:usartdiv <- 0
	@DEBUG_VALUE: USART_SetConfig:clocksource <- undef
	.loc	7 2907 14 is_stmt 1             @ c:/Keil_v5\ARM\PACK\Keil\STM32L5xx_DFP\1.3.0\Drivers\STM32L5xx_HAL_Driver\Src\stm32l5xx_hal_usart.c:2907:14
	bl	HAL_RCC_GetPCLK2Freq
	.loc	7 0 0 is_stmt 0                 @ c:/Keil_v5\ARM\PACK\Keil\STM32L5xx_DFP\1.3.0\Drivers\STM32L5xx_HAL_Driver\Src\stm32l5xx_hal_usart.c:0:0
	ldr	r1, [r6, #36]
	cmp	r1, #11
.Ltmp25:
	@DEBUG_VALUE: USART_SetConfig:pclk <- $r0
	bhs	.LBB0_14
	b	.LBB0_16
.Ltmp26:
	.p2align	2
.LBB0_9:
	@DEBUG_VALUE: USART_SetConfig:husart <- $r6
	@DEBUG_VALUE: HAL_USART_Init:husart <- $r6
	@DEBUG_VALUE: USART_SetConfig:ret <- 0
	@DEBUG_VALUE: USART_SetConfig:usartdiv <- 0
	movw	r1, #4232
	movt	r1, #16386
.Ltmp27:
	.loc	7 2898 3 is_stmt 1              @ c:/Keil_v5\ARM\PACK\Keil\STM32L5xx_DFP\1.3.0\Drivers\STM32L5xx_HAL_Driver\Src\stm32l5xx_hal_usart.c:2898:3
	ldr	r1, [r1]
	ubfx	r1, r1, #2, #2
.LCPI0_1:
	tbb	[pc, r1]
.Ltmp28:
@ %bb.10:
	.loc	7 0 3 is_stmt 0                 @ c:/Keil_v5\ARM\PACK\Keil\STM32L5xx_DFP\1.3.0\Drivers\STM32L5xx_HAL_Driver\Src\stm32l5xx_hal_usart.c:0:3
.LJTI0_1:
	.byte	(.LBB0_13-(.LCPI0_1+4))/2
	.byte	(.LBB0_15-(.LCPI0_1+4))/2
	.byte	(.LBB0_18-(.LCPI0_1+4))/2
	.byte	(.LBB0_20-(.LCPI0_1+4))/2
	.p2align	1
	.p2align	2
.LBB0_11:
.Ltmp29:
	@DEBUG_VALUE: USART_SetConfig:husart <- $r6
	@DEBUG_VALUE: HAL_USART_Init:husart <- $r6
	@DEBUG_VALUE: USART_SetConfig:ret <- 0
	@DEBUG_VALUE: USART_SetConfig:usartdiv <- 0
	movw	r1, #4232
	movt	r1, #16386
.Ltmp30:
	.loc	7 2898 3                        @ c:/Keil_v5\ARM\PACK\Keil\STM32L5xx_DFP\1.3.0\Drivers\STM32L5xx_HAL_Driver\Src\stm32l5xx_hal_usart.c:2898:3
	ldr	r1, [r1]
	ubfx	r1, r1, #4, #2
.LCPI0_2:
	tbb	[pc, r1]
.Ltmp31:
@ %bb.12:
	.loc	7 0 3                           @ c:/Keil_v5\ARM\PACK\Keil\STM32L5xx_DFP\1.3.0\Drivers\STM32L5xx_HAL_Driver\Src\stm32l5xx_hal_usart.c:0:3
.LJTI0_0:
	.byte	(.LBB0_13-(.LCPI0_2+4))/2
	.byte	(.LBB0_15-(.LCPI0_2+4))/2
	.byte	(.LBB0_18-(.LCPI0_2+4))/2
	.byte	(.LBB0_20-(.LCPI0_2+4))/2
	.p2align	1
	.p2align	2
.LBB0_13:
.Ltmp32:
	@DEBUG_VALUE: USART_SetConfig:husart <- $r6
	@DEBUG_VALUE: HAL_USART_Init:husart <- $r6
	@DEBUG_VALUE: USART_SetConfig:ret <- 0
	@DEBUG_VALUE: USART_SetConfig:usartdiv <- 0
	@DEBUG_VALUE: USART_SetConfig:clocksource <- undef
	.loc	7 2903 14 is_stmt 1             @ c:/Keil_v5\ARM\PACK\Keil\STM32L5xx_DFP\1.3.0\Drivers\STM32L5xx_HAL_Driver\Src\stm32l5xx_hal_usart.c:2903:14
	bl	HAL_RCC_GetPCLK1Freq
	.loc	7 0 0 is_stmt 0                 @ c:/Keil_v5\ARM\PACK\Keil\STM32L5xx_DFP\1.3.0\Drivers\STM32L5xx_HAL_Driver\Src\stm32l5xx_hal_usart.c:0:0
	ldr	r1, [r6, #36]
	cmp	r1, #11
.Ltmp33:
	@DEBUG_VALUE: USART_SetConfig:pclk <- $r0
	blo	.LBB0_16
.Ltmp34:
.LBB0_14:
	@DEBUG_VALUE: USART_SetConfig:husart <- $r6
	@DEBUG_VALUE: HAL_USART_Init:husart <- $r6
	@DEBUG_VALUE: USART_SetConfig:pclk <- $r0
	@DEBUG_VALUE: USART_SetConfig:ret <- 0
	@DEBUG_VALUE: USART_SetConfig:usartdiv <- 0
	mov.w	r1, #1
	it	eq
	moveq.w	r1, #256
	b	.LBB0_17
.Ltmp35:
	.p2align	2
.LBB0_15:
	@DEBUG_VALUE: USART_SetConfig:husart <- $r6
	@DEBUG_VALUE: HAL_USART_Init:husart <- $r6
	@DEBUG_VALUE: USART_SetConfig:ret <- 0
	@DEBUG_VALUE: USART_SetConfig:usartdiv <- 0
	@DEBUG_VALUE: USART_SetConfig:clocksource <- undef
	.loc	7 2914 14 is_stmt 1             @ c:/Keil_v5\ARM\PACK\Keil\STM32L5xx_DFP\1.3.0\Drivers\STM32L5xx_HAL_Driver\Src\stm32l5xx_hal_usart.c:2914:14
	bl	HAL_RCC_GetSysClockFreq
	.loc	7 0 0 is_stmt 0                 @ c:/Keil_v5\ARM\PACK\Keil\STM32L5xx_DFP\1.3.0\Drivers\STM32L5xx_HAL_Driver\Src\stm32l5xx_hal_usart.c:0:0
	ldr	r1, [r6, #36]
	cmp	r1, #11
.Ltmp36:
	@DEBUG_VALUE: USART_SetConfig:pclk <- $r0
	bhs	.LBB0_14
.Ltmp37:
.LBB0_16:
	@DEBUG_VALUE: USART_SetConfig:husart <- $r6
	@DEBUG_VALUE: HAL_USART_Init:husart <- $r6
	@DEBUG_VALUE: USART_SetConfig:pclk <- $r0
	@DEBUG_VALUE: USART_SetConfig:ret <- 0
	@DEBUG_VALUE: USART_SetConfig:usartdiv <- 0
	movw	r2, :lower16:.Lswitch.table.HAL_USART_Init.3
	movt	r2, :upper16:.Lswitch.table.HAL_USART_Init.3
	ldr.w	r1, [r2, r1, lsl #2]
.Ltmp38:
.LBB0_17:
	@DEBUG_VALUE: USART_SetConfig:husart <- $r6
	@DEBUG_VALUE: HAL_USART_Init:husart <- $r6
	@DEBUG_VALUE: USART_SetConfig:pclk <- $r0
	@DEBUG_VALUE: USART_SetConfig:ret <- 0
	@DEBUG_VALUE: USART_SetConfig:usartdiv <- 0
	udiv	r1, r0, r1
	b	.LBB0_26
.Ltmp39:
	.p2align	2
.LBB0_18:
	@DEBUG_VALUE: USART_SetConfig:husart <- $r6
	@DEBUG_VALUE: HAL_USART_Init:husart <- $r6
	@DEBUG_VALUE: USART_SetConfig:ret <- 0
	@DEBUG_VALUE: USART_SetConfig:usartdiv <- 0
	@DEBUG_VALUE: USART_SetConfig:clocksource <- undef
	.loc	7 2911 29 is_stmt 1             @ c:/Keil_v5\ARM\PACK\Keil\STM32L5xx_DFP\1.3.0\Drivers\STM32L5xx_HAL_Driver\Src\stm32l5xx_hal_usart.c:2911:29
	cmp	r0, #11
	bhs	.LBB0_24
.Ltmp40:
@ %bb.19:
	@DEBUG_VALUE: USART_SetConfig:husart <- $r6
	@DEBUG_VALUE: HAL_USART_Init:husart <- $r6
	@DEBUG_VALUE: USART_SetConfig:ret <- 0
	@DEBUG_VALUE: USART_SetConfig:usartdiv <- 0
	movw	r1, :lower16:.Lswitch.table.HAL_USART_Init.3
	movt	r1, :upper16:.Lswitch.table.HAL_USART_Init.3
	ldr.w	r0, [r1, r0, lsl #2]
	b	.LBB0_25
.Ltmp41:
	.p2align	2
.LBB0_20:
	@DEBUG_VALUE: USART_SetConfig:husart <- $r6
	@DEBUG_VALUE: HAL_USART_Init:husart <- $r6
	@DEBUG_VALUE: USART_SetConfig:ret <- 0
	@DEBUG_VALUE: USART_SetConfig:usartdiv <- 0
	.loc	7 2918 29                       @ c:/Keil_v5\ARM\PACK\Keil\STM32L5xx_DFP\1.3.0\Drivers\STM32L5xx_HAL_Driver\Src\stm32l5xx_hal_usart.c:2918:29
	cmp	r0, #10
	mov.w	r1, #1
.Ltmp42:
	@DEBUG_VALUE: USART_SetConfig:clocksource <- undef
	bhi	.LBB0_27
.Ltmp43:
@ %bb.21:
	@DEBUG_VALUE: USART_SetConfig:husart <- $r6
	@DEBUG_VALUE: HAL_USART_Init:husart <- $r6
	@DEBUG_VALUE: USART_SetConfig:ret <- 0
	@DEBUG_VALUE: USART_SetConfig:usartdiv <- 0
	.loc	7 0 29 is_stmt 0                @ c:/Keil_v5\ARM\PACK\Keil\STM32L5xx_DFP\1.3.0\Drivers\STM32L5xx_HAL_Driver\Src\stm32l5xx_hal_usart.c:0:29
.LCPI0_3:
	tbb	[pc, r0]
.Ltmp44:
@ %bb.22:
.LJTI0_3:
	.byte	(.LBB0_37-(.LCPI0_3+4))/2
	.byte	(.LBB0_23-(.LCPI0_3+4))/2
	.byte	(.LBB0_28-(.LCPI0_3+4))/2
	.byte	(.LBB0_29-(.LCPI0_3+4))/2
	.byte	(.LBB0_30-(.LCPI0_3+4))/2
	.byte	(.LBB0_31-(.LCPI0_3+4))/2
	.byte	(.LBB0_32-(.LCPI0_3+4))/2
	.byte	(.LBB0_33-(.LCPI0_3+4))/2
	.byte	(.LBB0_34-(.LCPI0_3+4))/2
	.byte	(.LBB0_35-(.LCPI0_3+4))/2
	.byte	(.LBB0_36-(.LCPI0_3+4))/2
	.p2align	1
	.p2align	2
.LBB0_23:
.Ltmp45:
	@DEBUG_VALUE: USART_SetConfig:husart <- $r6
	@DEBUG_VALUE: HAL_USART_Init:husart <- $r6
	@DEBUG_VALUE: USART_SetConfig:ret <- 0
	@DEBUG_VALUE: USART_SetConfig:usartdiv <- 0
	movs	r1, #2
	b	.LBB0_37
.Ltmp46:
	.p2align	2
.LBB0_24:
	@DEBUG_VALUE: USART_SetConfig:husart <- $r6
	@DEBUG_VALUE: HAL_USART_Init:husart <- $r6
	@DEBUG_VALUE: USART_SetConfig:ret <- 0
	@DEBUG_VALUE: USART_SetConfig:usartdiv <- 0
	mov.w	r0, #1
	.loc	7 2911 29 is_stmt 1             @ c:/Keil_v5\ARM\PACK\Keil\STM32L5xx_DFP\1.3.0\Drivers\STM32L5xx_HAL_Driver\Src\stm32l5xx_hal_usart.c:2911:29
	it	eq
	moveq.w	r0, #256
.Ltmp47:
.LBB0_25:
	@DEBUG_VALUE: USART_SetConfig:husart <- $r6
	@DEBUG_VALUE: HAL_USART_Init:husart <- $r6
	@DEBUG_VALUE: USART_SetConfig:ret <- 0
	@DEBUG_VALUE: USART_SetConfig:usartdiv <- 0
	.loc	7 0 29 is_stmt 0                @ c:/Keil_v5\ARM\PACK\Keil\STM32L5xx_DFP\1.3.0\Drivers\STM32L5xx_HAL_Driver\Src\stm32l5xx_hal_usart.c:0:29
	movw	r1, #9216
	movt	r1, #244
	.loc	7 2911 29                       @ c:/Keil_v5\ARM\PACK\Keil\STM32L5xx_DFP\1.3.0\Drivers\STM32L5xx_HAL_Driver\Src\stm32l5xx_hal_usart.c:2911:29
	udiv	r1, r1, r0
.Ltmp48:
.LBB0_26:
	@DEBUG_VALUE: USART_SetConfig:husart <- $r6
	@DEBUG_VALUE: HAL_USART_Init:husart <- $r6
	@DEBUG_VALUE: USART_SetConfig:ret <- 0
	@DEBUG_VALUE: USART_SetConfig:usartdiv <- 0
	.loc	7 0 0                           @ c:/Keil_v5\ARM\PACK\Keil\STM32L5xx_DFP\1.3.0\Drivers\STM32L5xx_HAL_Driver\Src\stm32l5xx_hal_usart.c:0:0
	ldr	r0, [r6, #4]
	lsls	r1, r1, #1
	lsrs	r2, r0, #1
.Ltmp49:
	@DEBUG_VALUE: USART_SetConfig:usartdiv <- undef
	b	.LBB0_38
.Ltmp50:
	.p2align	2
.LBB0_27:
	@DEBUG_VALUE: USART_SetConfig:husart <- $r6
	@DEBUG_VALUE: HAL_USART_Init:husart <- $r6
	@DEBUG_VALUE: USART_SetConfig:ret <- 0
	@DEBUG_VALUE: USART_SetConfig:usartdiv <- 0
	.loc	7 2918 29 is_stmt 1             @ c:/Keil_v5\ARM\PACK\Keil\STM32L5xx_DFP\1.3.0\Drivers\STM32L5xx_HAL_Driver\Src\stm32l5xx_hal_usart.c:2918:29
	cmp	r0, #11
	it	eq
	moveq.w	r1, #256
	b	.LBB0_37
.Ltmp51:
	.p2align	2
.LBB0_28:
	@DEBUG_VALUE: USART_SetConfig:husart <- $r6
	@DEBUG_VALUE: HAL_USART_Init:husart <- $r6
	@DEBUG_VALUE: USART_SetConfig:ret <- 0
	@DEBUG_VALUE: USART_SetConfig:usartdiv <- 0
	.loc	7 0 29 is_stmt 0                @ c:/Keil_v5\ARM\PACK\Keil\STM32L5xx_DFP\1.3.0\Drivers\STM32L5xx_HAL_Driver\Src\stm32l5xx_hal_usart.c:0:29
	movs	r1, #4
	b	.LBB0_37
.Ltmp52:
	.p2align	2
.LBB0_29:
	@DEBUG_VALUE: USART_SetConfig:husart <- $r6
	@DEBUG_VALUE: HAL_USART_Init:husart <- $r6
	@DEBUG_VALUE: USART_SetConfig:ret <- 0
	@DEBUG_VALUE: USART_SetConfig:usartdiv <- 0
	movs	r1, #6
	b	.LBB0_37
.Ltmp53:
	.p2align	2
.LBB0_30:
	@DEBUG_VALUE: USART_SetConfig:husart <- $r6
	@DEBUG_VALUE: HAL_USART_Init:husart <- $r6
	@DEBUG_VALUE: USART_SetConfig:ret <- 0
	@DEBUG_VALUE: USART_SetConfig:usartdiv <- 0
	movs	r1, #8
	b	.LBB0_37
.Ltmp54:
	.p2align	2
.LBB0_31:
	@DEBUG_VALUE: USART_SetConfig:husart <- $r6
	@DEBUG_VALUE: HAL_USART_Init:husart <- $r6
	@DEBUG_VALUE: USART_SetConfig:ret <- 0
	@DEBUG_VALUE: USART_SetConfig:usartdiv <- 0
	movs	r1, #10
	b	.LBB0_37
.Ltmp55:
	.p2align	2
.LBB0_32:
	@DEBUG_VALUE: USART_SetConfig:husart <- $r6
	@DEBUG_VALUE: HAL_USART_Init:husart <- $r6
	@DEBUG_VALUE: USART_SetConfig:ret <- 0
	@DEBUG_VALUE: USART_SetConfig:usartdiv <- 0
	movs	r1, #12
	b	.LBB0_37
.Ltmp56:
	.p2align	2
.LBB0_33:
	@DEBUG_VALUE: USART_SetConfig:husart <- $r6
	@DEBUG_VALUE: HAL_USART_Init:husart <- $r6
	@DEBUG_VALUE: USART_SetConfig:ret <- 0
	@DEBUG_VALUE: USART_SetConfig:usartdiv <- 0
	movs	r1, #16
	b	.LBB0_37
.Ltmp57:
	.p2align	2
.LBB0_34:
	@DEBUG_VALUE: USART_SetConfig:husart <- $r6
	@DEBUG_VALUE: HAL_USART_Init:husart <- $r6
	@DEBUG_VALUE: USART_SetConfig:ret <- 0
	@DEBUG_VALUE: USART_SetConfig:usartdiv <- 0
	movs	r1, #32
	b	.LBB0_37
.Ltmp58:
	.p2align	2
.LBB0_35:
	@DEBUG_VALUE: USART_SetConfig:husart <- $r6
	@DEBUG_VALUE: HAL_USART_Init:husart <- $r6
	@DEBUG_VALUE: USART_SetConfig:ret <- 0
	@DEBUG_VALUE: USART_SetConfig:usartdiv <- 0
	movs	r1, #64
	b	.LBB0_37
.Ltmp59:
	.p2align	2
.LBB0_36:
	@DEBUG_VALUE: USART_SetConfig:husart <- $r6
	@DEBUG_VALUE: HAL_USART_Init:husart <- $r6
	@DEBUG_VALUE: USART_SetConfig:ret <- 0
	@DEBUG_VALUE: USART_SetConfig:usartdiv <- 0
	movs	r1, #128
.Ltmp60:
.LBB0_37:
	@DEBUG_VALUE: USART_SetConfig:husart <- $r6
	@DEBUG_VALUE: HAL_USART_Init:husart <- $r6
	@DEBUG_VALUE: USART_SetConfig:ret <- 0
	@DEBUG_VALUE: USART_SetConfig:usartdiv <- 0
	mov.w	r0, #32768
	.loc	7 2918 29                       @ c:/Keil_v5\ARM\PACK\Keil\STM32L5xx_DFP\1.3.0\Drivers\STM32L5xx_HAL_Driver\Src\stm32l5xx_hal_usart.c:2918:29
	udiv	r1, r0, r1
	ldr	r0, [r6, #4]
	lsls	r2, r1, #1
	lsrs	r1, r0, #1
.Ltmp61:
.LBB0_38:
	@DEBUG_VALUE: USART_SetConfig:husart <- $r6
	@DEBUG_VALUE: HAL_USART_Init:husart <- $r6
	@DEBUG_VALUE: USART_SetConfig:ret <- 0
	.loc	7 0 0                           @ c:/Keil_v5\ARM\PACK\Keil\STM32L5xx_DFP\1.3.0\Drivers\STM32L5xx_HAL_Driver\Src\stm32l5xx_hal_usart.c:0:0
	add	r1, r2
	udiv	r0, r1, r0
.Ltmp62:
	@DEBUG_VALUE: USART_SetConfig:usartdiv <- $r0
	@DEBUG_VALUE: USART_SetConfig:ret <- 0
	movw	r2, #65519
.Ltmp63:
	.loc	7 2926 35 is_stmt 1             @ c:/Keil_v5\ARM\PACK\Keil\STM32L5xx_DFP\1.3.0\Drivers\STM32L5xx_HAL_Driver\Src\stm32l5xx_hal_usart.c:2926:35
	sub.w	r1, r0, #16
	cmp	r1, r2
	bhi	.LBB0_45
.Ltmp64:
@ %bb.39:
	@DEBUG_VALUE: USART_SetConfig:husart <- $r6
	@DEBUG_VALUE: HAL_USART_Init:husart <- $r6
	@DEBUG_VALUE: USART_SetConfig:usartdiv <- $r0
	@DEBUG_VALUE: USART_SetConfig:ret <- 0
	.loc	7 0 35 is_stmt 0                @ c:/Keil_v5\ARM\PACK\Keil\STM32L5xx_DFP\1.3.0\Drivers\STM32L5xx_HAL_Driver\Src\stm32l5xx_hal_usart.c:0:35
	movw	r1, #65520
.Ltmp65:
	.loc	7 2928 15 is_stmt 1             @ c:/Keil_v5\ARM\PACK\Keil\STM32L5xx_DFP\1.3.0\Drivers\STM32L5xx_HAL_Driver\Src\stm32l5xx_hal_usart.c:2928:15
	ands	r1, r0
.Ltmp66:
	@DEBUG_VALUE: USART_SetConfig:brrtemp <- [DW_OP_LLVM_convert 32 7, DW_OP_LLVM_convert 16 7, DW_OP_constu 18446744073709551600, DW_OP_and, DW_OP_stack_value] $r0
	.loc	7 2929 16                       @ c:/Keil_v5\ARM\PACK\Keil\STM32L5xx_DFP\1.3.0\Drivers\STM32L5xx_HAL_Driver\Src\stm32l5xx_hal_usart.c:2929:16
	ubfx	r0, r0, #1, #3
.Ltmp67:
	.loc	7 2930 13                       @ c:/Keil_v5\ARM\PACK\Keil\STM32L5xx_DFP\1.3.0\Drivers\STM32L5xx_HAL_Driver\Src\stm32l5xx_hal_usart.c:2930:13
	ldr	r2, [r6]
	.loc	7 2929 13                       @ c:/Keil_v5\ARM\PACK\Keil\STM32L5xx_DFP\1.3.0\Drivers\STM32L5xx_HAL_Driver\Src\stm32l5xx_hal_usart.c:2929:13
	add	r0, r1
.Ltmp68:
	@DEBUG_VALUE: USART_SetConfig:brrtemp <- $r0
	.loc	7 2930 27                       @ c:/Keil_v5\ARM\PACK\Keil\STM32L5xx_DFP\1.3.0\Drivers\STM32L5xx_HAL_Driver\Src\stm32l5xx_hal_usart.c:2930:27
	str	r0, [r2, #12]
	mov.w	r0, #65537
.Ltmp69:
	@DEBUG_VALUE: USART_SetConfig:ret <- undef
	.loc	7 2939 29                       @ c:/Keil_v5\ARM\PACK\Keil\STM32L5xx_DFP\1.3.0\Drivers\STM32L5xx_HAL_Driver\Src\stm32l5xx_hal_usart.c:2939:29
	str.w	r0, [r6, #58]
	movs	r0, #0
	.loc	7 2942 19                       @ c:/Keil_v5\ARM\PACK\Keil\STM32L5xx_DFP\1.3.0\Drivers\STM32L5xx_HAL_Driver\Src\stm32l5xx_hal_usart.c:2942:19
	strd	r0, r0, [r6, #72]
.Ltmp70:
	.loc	7 323 25                        @ c:/Keil_v5\ARM\PACK\Keil\STM32L5xx_DFP\1.3.0\Drivers\STM32L5xx_HAL_Driver\Src\stm32l5xx_hal_usart.c:323:25
	ldr	r1, [r2, #4]
	bic	r1, r1, #16384
	str	r1, [r2, #4]
	.loc	7 324 25                        @ c:/Keil_v5\ARM\PACK\Keil\STM32L5xx_DFP\1.3.0\Drivers\STM32L5xx_HAL_Driver\Src\stm32l5xx_hal_usart.c:324:25
	ldr	r1, [r2, #8]
	bic	r1, r1, #42
	str	r1, [r2, #8]
	.loc	7 327 3                         @ c:/Keil_v5\ARM\PACK\Keil\STM32L5xx_DFP\1.3.0\Drivers\STM32L5xx_HAL_Driver\Src\stm32l5xx_hal_usart.c:327:3
	ldr	r1, [r2]
	orr	r1, r1, #1
	str	r1, [r2]
.Ltmp71:
	@DEBUG_VALUE: USART_CheckIdleState:husart <- $r6
	.loc	7 2958 21                       @ c:/Keil_v5\ARM\PACK\Keil\STM32L5xx_DFP\1.3.0\Drivers\STM32L5xx_HAL_Driver\Src\stm32l5xx_hal_usart.c:2958:21
	str	r0, [r6, #92]
	.loc	7 2961 15                       @ c:/Keil_v5\ARM\PACK\Keil\STM32L5xx_DFP\1.3.0\Drivers\STM32L5xx_HAL_Driver\Src\stm32l5xx_hal_usart.c:2961:15
	bl	HAL_GetTick
.Ltmp72:
	.loc	7 2964 16                       @ c:/Keil_v5\ARM\PACK\Keil\STM32L5xx_DFP\1.3.0\Drivers\STM32L5xx_HAL_Driver\Src\stm32l5xx_hal_usart.c:2964:16
	ldr	r1, [r6]
.Ltmp73:
	.loc	7 2961 15                       @ c:/Keil_v5\ARM\PACK\Keil\STM32L5xx_DFP\1.3.0\Drivers\STM32L5xx_HAL_Driver\Src\stm32l5xx_hal_usart.c:2961:15
	mov	r5, r0
.Ltmp74:
	@DEBUG_VALUE: USART_CheckIdleState:tickstart <- $r5
	.loc	7 2964 26                       @ c:/Keil_v5\ARM\PACK\Keil\STM32L5xx_DFP\1.3.0\Drivers\STM32L5xx_HAL_Driver\Src\stm32l5xx_hal_usart.c:2964:26
	ldr	r2, [r1]
.Ltmp75:
	.loc	7 2964 7 is_stmt 0              @ c:/Keil_v5\ARM\PACK\Keil\STM32L5xx_DFP\1.3.0\Drivers\STM32L5xx_HAL_Driver\Src\stm32l5xx_hal_usart.c:2964:7
	lsls	r2, r2, #28
	bmi	.LBB0_42
.Ltmp76:
.LBB0_40:
	@DEBUG_VALUE: USART_CheckIdleState:husart <- $r6
	@DEBUG_VALUE: HAL_USART_Init:husart <- $r6
	@DEBUG_VALUE: USART_CheckIdleState:tickstart <- $r5
	.loc	7 2974 26 is_stmt 1             @ c:/Keil_v5\ARM\PACK\Keil\STM32L5xx_DFP\1.3.0\Drivers\STM32L5xx_HAL_Driver\Src\stm32l5xx_hal_usart.c:2974:26
	ldr	r0, [r1]
.Ltmp77:
	.loc	7 2974 7 is_stmt 0              @ c:/Keil_v5\ARM\PACK\Keil\STM32L5xx_DFP\1.3.0\Drivers\STM32L5xx_HAL_Driver\Src\stm32l5xx_hal_usart.c:2974:7
	lsls	r0, r0, #29
	bmi	.LBB0_46
.Ltmp78:
.LBB0_41:
	@DEBUG_VALUE: USART_CheckIdleState:husart <- $r6
	@DEBUG_VALUE: HAL_USART_Init:husart <- $r6
	@DEBUG_VALUE: USART_CheckIdleState:tickstart <- $r5
	.loc	7 0 7                           @ c:/Keil_v5\ARM\PACK\Keil\STM32L5xx_DFP\1.3.0\Drivers\STM32L5xx_HAL_Driver\Src\stm32l5xx_hal_usart.c:0:7
	movs	r0, #1
	.loc	7 2985 17 is_stmt 1             @ c:/Keil_v5\ARM\PACK\Keil\STM32L5xx_DFP\1.3.0\Drivers\STM32L5xx_HAL_Driver\Src\stm32l5xx_hal_usart.c:2985:17
	strb.w	r0, [r6, #89]
	movs	r0, #0
.Ltmp79:
	.loc	7 2988 3                        @ c:/Keil_v5\ARM\PACK\Keil\STM32L5xx_DFP\1.3.0\Drivers\STM32L5xx_HAL_Driver\Src\stm32l5xx_hal_usart.c:2988:3
	strb.w	r0, [r6, #88]
.Ltmp80:
	.loc	7 331 1                         @ c:/Keil_v5\ARM\PACK\Keil\STM32L5xx_DFP\1.3.0\Drivers\STM32L5xx_HAL_Driver\Src\stm32l5xx_hal_usart.c:331:1
	pop	{r4, r5, r6, pc}
.Ltmp81:
	.p2align	2
.LBB0_42:                               @ =>This Inner Loop Header: Depth=1
	@DEBUG_VALUE: USART_CheckIdleState:husart <- $r6
	@DEBUG_VALUE: HAL_USART_Init:husart <- $r6
	@DEBUG_VALUE: USART_CheckIdleState:tickstart <- $r5
	@DEBUG_VALUE: USART_WaitOnFlagUntilTimeout:husart <- $r6
	@DEBUG_VALUE: USART_WaitOnFlagUntilTimeout:Flag <- 2097152
	@DEBUG_VALUE: USART_WaitOnFlagUntilTimeout:Status <- 0
	@DEBUG_VALUE: USART_WaitOnFlagUntilTimeout:Tickstart <- $r5
	@DEBUG_VALUE: USART_WaitOnFlagUntilTimeout:Timeout <- 1000
	.loc	7 2825 11                       @ c:/Keil_v5\ARM\PACK\Keil\STM32L5xx_DFP\1.3.0\Drivers\STM32L5xx_HAL_Driver\Src\stm32l5xx_hal_usart.c:2825:11
	ldr	r0, [r1, #28]
	.loc	7 2825 3 is_stmt 0              @ c:/Keil_v5\ARM\PACK\Keil\STM32L5xx_DFP\1.3.0\Drivers\STM32L5xx_HAL_Driver\Src\stm32l5xx_hal_usart.c:2825:3
	lsls	r0, r0, #10
	bmi	.LBB0_40
.Ltmp82:
@ %bb.43:                               @   in Loop: Header=BB0_42 Depth=1
	@DEBUG_VALUE: USART_WaitOnFlagUntilTimeout:husart <- $r6
	@DEBUG_VALUE: USART_CheckIdleState:husart <- $r6
	@DEBUG_VALUE: HAL_USART_Init:husart <- $r6
	@DEBUG_VALUE: USART_WaitOnFlagUntilTimeout:Tickstart <- $r5
	@DEBUG_VALUE: USART_CheckIdleState:tickstart <- $r5
	@DEBUG_VALUE: USART_WaitOnFlagUntilTimeout:Timeout <- 1000
	@DEBUG_VALUE: USART_WaitOnFlagUntilTimeout:Status <- 0
	@DEBUG_VALUE: USART_WaitOnFlagUntilTimeout:Flag <- 2097152
	.loc	7 2830 13 is_stmt 1             @ c:/Keil_v5\ARM\PACK\Keil\STM32L5xx_DFP\1.3.0\Drivers\STM32L5xx_HAL_Driver\Src\stm32l5xx_hal_usart.c:2830:13
	bl	HAL_GetTick
	.loc	7 2830 27 is_stmt 0             @ c:/Keil_v5\ARM\PACK\Keil\STM32L5xx_DFP\1.3.0\Drivers\STM32L5xx_HAL_Driver\Src\stm32l5xx_hal_usart.c:2830:27
	subs	r0, r0, r5
	.loc	7 2830 51                       @ c:/Keil_v5\ARM\PACK\Keil\STM32L5xx_DFP\1.3.0\Drivers\STM32L5xx_HAL_Driver\Src\stm32l5xx_hal_usart.c:2830:51
	cmp.w	r0, #1000
	bhi	.LBB0_49
.Ltmp83:
@ %bb.44:                               @   in Loop: Header=BB0_42 Depth=1
	@DEBUG_VALUE: USART_WaitOnFlagUntilTimeout:husart <- $r6
	@DEBUG_VALUE: USART_CheckIdleState:husart <- $r6
	@DEBUG_VALUE: HAL_USART_Init:husart <- $r6
	@DEBUG_VALUE: USART_WaitOnFlagUntilTimeout:Tickstart <- $r5
	@DEBUG_VALUE: USART_CheckIdleState:tickstart <- $r5
	@DEBUG_VALUE: USART_WaitOnFlagUntilTimeout:Timeout <- 1000
	@DEBUG_VALUE: USART_WaitOnFlagUntilTimeout:Status <- 0
	@DEBUG_VALUE: USART_WaitOnFlagUntilTimeout:Flag <- 2097152
	.loc	7 2825 11 is_stmt 1             @ c:/Keil_v5\ARM\PACK\Keil\STM32L5xx_DFP\1.3.0\Drivers\STM32L5xx_HAL_Driver\Src\stm32l5xx_hal_usart.c:2825:11
	ldr	r1, [r6]
	b	.LBB0_42
.Ltmp84:
	.p2align	2
.LBB0_45:
	@DEBUG_VALUE: USART_SetConfig:husart <- $r6
	@DEBUG_VALUE: HAL_USART_Init:husart <- $r6
	@DEBUG_VALUE: USART_SetConfig:ret <- 0
	@DEBUG_VALUE: USART_SetConfig:ret <- undef
	.loc	7 0 11 is_stmt 0                @ c:/Keil_v5\ARM\PACK\Keil\STM32L5xx_DFP\1.3.0\Drivers\STM32L5xx_HAL_Driver\Src\stm32l5xx_hal_usart.c:0:11
	mov.w	r0, #65537
.Ltmp85:
	.loc	7 2939 29 is_stmt 1             @ c:/Keil_v5\ARM\PACK\Keil\STM32L5xx_DFP\1.3.0\Drivers\STM32L5xx_HAL_Driver\Src\stm32l5xx_hal_usart.c:2939:29
	str.w	r0, [r6, #58]
	movs	r0, #0
	.loc	7 2942 19                       @ c:/Keil_v5\ARM\PACK\Keil\STM32L5xx_DFP\1.3.0\Drivers\STM32L5xx_HAL_Driver\Src\stm32l5xx_hal_usart.c:2942:19
	strd	r0, r0, [r6, #72]
	movs	r0, #1
.Ltmp86:
	.loc	7 331 1                         @ c:/Keil_v5\ARM\PACK\Keil\STM32L5xx_DFP\1.3.0\Drivers\STM32L5xx_HAL_Driver\Src\stm32l5xx_hal_usart.c:331:1
	pop	{r4, r5, r6, pc}
.Ltmp87:
	.p2align	2
.LBB0_46:
	@DEBUG_VALUE: USART_CheckIdleState:husart <- $r6
	@DEBUG_VALUE: HAL_USART_Init:husart <- $r6
	@DEBUG_VALUE: USART_CheckIdleState:tickstart <- $r5
	@DEBUG_VALUE: USART_WaitOnFlagUntilTimeout:husart <- $r6
	@DEBUG_VALUE: USART_WaitOnFlagUntilTimeout:Flag <- 4194304
	@DEBUG_VALUE: USART_WaitOnFlagUntilTimeout:Status <- 0
	@DEBUG_VALUE: USART_WaitOnFlagUntilTimeout:Tickstart <- $r5
	@DEBUG_VALUE: USART_WaitOnFlagUntilTimeout:Timeout <- 1000
	.loc	7 2825 11                       @ c:/Keil_v5\ARM\PACK\Keil\STM32L5xx_DFP\1.3.0\Drivers\STM32L5xx_HAL_Driver\Src\stm32l5xx_hal_usart.c:2825:11
	ldr	r0, [r1, #28]
	.loc	7 2825 3 is_stmt 0              @ c:/Keil_v5\ARM\PACK\Keil\STM32L5xx_DFP\1.3.0\Drivers\STM32L5xx_HAL_Driver\Src\stm32l5xx_hal_usart.c:2825:3
	lsls	r0, r0, #9
	bmi	.LBB0_41
.Ltmp88:
	.p2align	2
.LBB0_47:                               @ =>This Inner Loop Header: Depth=1
	@DEBUG_VALUE: USART_WaitOnFlagUntilTimeout:husart <- $r6
	@DEBUG_VALUE: USART_CheckIdleState:husart <- $r6
	@DEBUG_VALUE: HAL_USART_Init:husart <- $r6
	@DEBUG_VALUE: USART_WaitOnFlagUntilTimeout:Tickstart <- $r5
	@DEBUG_VALUE: USART_CheckIdleState:tickstart <- $r5
	@DEBUG_VALUE: USART_WaitOnFlagUntilTimeout:Timeout <- 1000
	@DEBUG_VALUE: USART_WaitOnFlagUntilTimeout:Status <- 0
	@DEBUG_VALUE: USART_WaitOnFlagUntilTimeout:Flag <- 4194304
	.loc	7 2830 13 is_stmt 1             @ c:/Keil_v5\ARM\PACK\Keil\STM32L5xx_DFP\1.3.0\Drivers\STM32L5xx_HAL_Driver\Src\stm32l5xx_hal_usart.c:2830:13
	bl	HAL_GetTick
	.loc	7 2830 27 is_stmt 0             @ c:/Keil_v5\ARM\PACK\Keil\STM32L5xx_DFP\1.3.0\Drivers\STM32L5xx_HAL_Driver\Src\stm32l5xx_hal_usart.c:2830:27
	subs	r0, r0, r5
	.loc	7 2830 51                       @ c:/Keil_v5\ARM\PACK\Keil\STM32L5xx_DFP\1.3.0\Drivers\STM32L5xx_HAL_Driver\Src\stm32l5xx_hal_usart.c:2830:51
	cmp.w	r0, #1000
	bhi	.LBB0_49
.Ltmp89:
@ %bb.48:                               @   in Loop: Header=BB0_47 Depth=1
	@DEBUG_VALUE: USART_WaitOnFlagUntilTimeout:husart <- $r6
	@DEBUG_VALUE: USART_CheckIdleState:husart <- $r6
	@DEBUG_VALUE: HAL_USART_Init:husart <- $r6
	@DEBUG_VALUE: USART_WaitOnFlagUntilTimeout:Tickstart <- $r5
	@DEBUG_VALUE: USART_CheckIdleState:tickstart <- $r5
	@DEBUG_VALUE: USART_WaitOnFlagUntilTimeout:Timeout <- 1000
	@DEBUG_VALUE: USART_WaitOnFlagUntilTimeout:Status <- 0
	@DEBUG_VALUE: USART_WaitOnFlagUntilTimeout:Flag <- 4194304
	.loc	7 2825 11 is_stmt 1             @ c:/Keil_v5\ARM\PACK\Keil\STM32L5xx_DFP\1.3.0\Drivers\STM32L5xx_HAL_Driver\Src\stm32l5xx_hal_usart.c:2825:11
	ldr	r0, [r6]
	ldr	r0, [r0, #28]
	.loc	7 2825 3 is_stmt 0              @ c:/Keil_v5\ARM\PACK\Keil\STM32L5xx_DFP\1.3.0\Drivers\STM32L5xx_HAL_Driver\Src\stm32l5xx_hal_usart.c:2825:3
	lsls	r0, r0, #9
	bpl	.LBB0_47
	b	.LBB0_41
.Ltmp90:
	.p2align	2
.LBB0_49:
	@DEBUG_VALUE: USART_CheckIdleState:husart <- $r6
	@DEBUG_VALUE: HAL_USART_Init:husart <- $r6
	@DEBUG_VALUE: USART_CheckIdleState:tickstart <- $r5
	.loc	7 0 3                           @ c:/Keil_v5\ARM\PACK\Keil\STM32L5xx_DFP\1.3.0\Drivers\STM32L5xx_HAL_Driver\Src\stm32l5xx_hal_usart.c:0:3
	movs	r0, #1
	strb.w	r0, [r6, #89]
	movs	r0, #0
	strb.w	r0, [r6, #88]
	movs	r0, #3
.Ltmp91:
	.loc	7 331 1 is_stmt 1               @ c:/Keil_v5\ARM\PACK\Keil\STM32L5xx_DFP\1.3.0\Drivers\STM32L5xx_HAL_Driver\Src\stm32l5xx_hal_usart.c:331:1
	pop	{r4, r5, r6, pc}
.Ltmp92:
.Lfunc_end0:
	.size	HAL_USART_Init, .Lfunc_end0-HAL_USART_Init
	.cfi_endproc
	.cantunwind
	.fnend
                                        @ -- End function
	.section	.text.HAL_USART_MspInit,"ax",%progbits
	.hidden	HAL_USART_MspInit               @ -- Begin function HAL_USART_MspInit
	.weak	HAL_USART_MspInit
	.p2align	2
	.type	HAL_USART_MspInit,%function
	.code	16                              @ @HAL_USART_MspInit
	.thumb_func
HAL_USART_MspInit:
.Lfunc_begin1:
	.loc	7 382 0                         @ c:/Keil_v5\ARM\PACK\Keil\STM32L5xx_DFP\1.3.0\Drivers\STM32L5xx_HAL_Driver\Src\stm32l5xx_hal_usart.c:382:0
	.fnstart
	.cfi_startproc
@ %bb.0:
	@DEBUG_VALUE: HAL_USART_MspInit:husart <- $r0
	.loc	7 389 1 prologue_end            @ c:/Keil_v5\ARM\PACK\Keil\STM32L5xx_DFP\1.3.0\Drivers\STM32L5xx_HAL_Driver\Src\stm32l5xx_hal_usart.c:389:1
	bx	lr
.Ltmp93:
.Lfunc_end1:
	.size	HAL_USART_MspInit, .Lfunc_end1-HAL_USART_MspInit
	.cfi_endproc
	.cantunwind
	.fnend
                                        @ -- End function
	.section	.text.HAL_USART_DeInit,"ax",%progbits
	.hidden	HAL_USART_DeInit                @ -- Begin function HAL_USART_DeInit
	.globl	HAL_USART_DeInit
	.p2align	2
	.type	HAL_USART_DeInit,%function
	.code	16                              @ @HAL_USART_DeInit
	.thumb_func
HAL_USART_DeInit:
.Lfunc_begin2:
	.loc	7 339 0                         @ c:/Keil_v5\ARM\PACK\Keil\STM32L5xx_DFP\1.3.0\Drivers\STM32L5xx_HAL_Driver\Src\stm32l5xx_hal_usart.c:339:0
	.fnstart
	.cfi_startproc
@ %bb.0:
	@DEBUG_VALUE: HAL_USART_DeInit:husart <- $r0
	@DEBUG_VALUE: HAL_USART_DeInit:husart <- $r0
	.save	{r4, r5, r7, lr}
	push	{r4, r5, r7, lr}
	.cfi_def_cfa_offset 16
	.cfi_offset lr, -4
	.cfi_offset r7, -8
	.cfi_offset r5, -12
	.cfi_offset r4, -16
.Ltmp94:
	.loc	7 341 7 prologue_end            @ c:/Keil_v5\ARM\PACK\Keil\STM32L5xx_DFP\1.3.0\Drivers\STM32L5xx_HAL_Driver\Src\stm32l5xx_hal_usart.c:341:7
	cmp	r0, #0
	itt	eq
	moveq	r0, #1
.Ltmp95:
	@DEBUG_VALUE: HAL_USART_DeInit:husart <- [DW_OP_LLVM_entry_value 1] $r0
	.loc	7 374 1                         @ c:/Keil_v5\ARM\PACK\Keil\STM32L5xx_DFP\1.3.0\Drivers\STM32L5xx_HAL_Driver\Src\stm32l5xx_hal_usart.c:374:1
	popeq	{r4, r5, r7, pc}
.Ltmp96:
.LBB2_1:
	@DEBUG_VALUE: HAL_USART_DeInit:husart <- [DW_OP_LLVM_entry_value 1] $r0
	.loc	7 0 1 is_stmt 0                 @ c:/Keil_v5\ARM\PACK\Keil\STM32L5xx_DFP\1.3.0\Drivers\STM32L5xx_HAL_Driver\Src\stm32l5xx_hal_usart.c:0:1
	mov	r5, r0
.Ltmp97:
	@DEBUG_VALUE: HAL_USART_DeInit:husart <- $r5
	movs	r0, #2
	.loc	7 349 17 is_stmt 1              @ c:/Keil_v5\ARM\PACK\Keil\STM32L5xx_DFP\1.3.0\Drivers\STM32L5xx_HAL_Driver\Src\stm32l5xx_hal_usart.c:349:17
	strb.w	r0, [r5, #89]
	.loc	7 351 11                        @ c:/Keil_v5\ARM\PACK\Keil\STM32L5xx_DFP\1.3.0\Drivers\STM32L5xx_HAL_Driver\Src\stm32l5xx_hal_usart.c:351:11
	ldr	r0, [r5]
	movs	r4, #0
	.loc	7 351 25 is_stmt 0              @ c:/Keil_v5\ARM\PACK\Keil\STM32L5xx_DFP\1.3.0\Drivers\STM32L5xx_HAL_Driver\Src\stm32l5xx_hal_usart.c:351:25
	str	r4, [r0]
	.loc	7 352 25 is_stmt 1              @ c:/Keil_v5\ARM\PACK\Keil\STM32L5xx_DFP\1.3.0\Drivers\STM32L5xx_HAL_Driver\Src\stm32l5xx_hal_usart.c:352:25
	str	r4, [r0, #4]
	.loc	7 353 25                        @ c:/Keil_v5\ARM\PACK\Keil\STM32L5xx_DFP\1.3.0\Drivers\STM32L5xx_HAL_Driver\Src\stm32l5xx_hal_usart.c:353:25
	str	r4, [r0, #8]
	.loc	7 364 3                         @ c:/Keil_v5\ARM\PACK\Keil\STM32L5xx_DFP\1.3.0\Drivers\STM32L5xx_HAL_Driver\Src\stm32l5xx_hal_usart.c:364:3
	mov	r0, r5
	bl	HAL_USART_MspDeInit
	.loc	7 374 1                         @ c:/Keil_v5\ARM\PACK\Keil\STM32L5xx_DFP\1.3.0\Drivers\STM32L5xx_HAL_Driver\Src\stm32l5xx_hal_usart.c:374:1
	mov	r0, r4
	.loc	7 367 21                        @ c:/Keil_v5\ARM\PACK\Keil\STM32L5xx_DFP\1.3.0\Drivers\STM32L5xx_HAL_Driver\Src\stm32l5xx_hal_usart.c:367:21
	str	r4, [r5, #92]
	.loc	7 368 17                        @ c:/Keil_v5\ARM\PACK\Keil\STM32L5xx_DFP\1.3.0\Drivers\STM32L5xx_HAL_Driver\Src\stm32l5xx_hal_usart.c:368:17
	strb.w	r4, [r5, #89]
.Ltmp98:
	.loc	7 371 3                         @ c:/Keil_v5\ARM\PACK\Keil\STM32L5xx_DFP\1.3.0\Drivers\STM32L5xx_HAL_Driver\Src\stm32l5xx_hal_usart.c:371:3
	strb.w	r4, [r5, #88]
.Ltmp99:
	.loc	7 374 1                         @ c:/Keil_v5\ARM\PACK\Keil\STM32L5xx_DFP\1.3.0\Drivers\STM32L5xx_HAL_Driver\Src\stm32l5xx_hal_usart.c:374:1
	pop	{r4, r5, r7, pc}
.Ltmp100:
.Lfunc_end2:
	.size	HAL_USART_DeInit, .Lfunc_end2-HAL_USART_DeInit
	.cfi_endproc
	.cantunwind
	.fnend
                                        @ -- End function
	.section	.text.HAL_USART_MspDeInit,"ax",%progbits
	.hidden	HAL_USART_MspDeInit             @ -- Begin function HAL_USART_MspDeInit
	.weak	HAL_USART_MspDeInit
	.p2align	2
	.type	HAL_USART_MspDeInit,%function
	.code	16                              @ @HAL_USART_MspDeInit
	.thumb_func
HAL_USART_MspDeInit:
.Lfunc_begin3:
	.loc	7 397 0                         @ c:/Keil_v5\ARM\PACK\Keil\STM32L5xx_DFP\1.3.0\Drivers\STM32L5xx_HAL_Driver\Src\stm32l5xx_hal_usart.c:397:0
	.fnstart
	.cfi_startproc
@ %bb.0:
	@DEBUG_VALUE: HAL_USART_MspDeInit:husart <- $r0
	.loc	7 404 1 prologue_end            @ c:/Keil_v5\ARM\PACK\Keil\STM32L5xx_DFP\1.3.0\Drivers\STM32L5xx_HAL_Driver\Src\stm32l5xx_hal_usart.c:404:1
	bx	lr
.Ltmp101:
.Lfunc_end3:
	.size	HAL_USART_MspDeInit, .Lfunc_end3-HAL_USART_MspDeInit
	.cfi_endproc
	.cantunwind
	.fnend
                                        @ -- End function
	.section	.text.HAL_USART_Transmit,"ax",%progbits
	.hidden	HAL_USART_Transmit              @ -- Begin function HAL_USART_Transmit
	.globl	HAL_USART_Transmit
	.p2align	2
	.type	HAL_USART_Transmit,%function
	.code	16                              @ @HAL_USART_Transmit
	.thumb_func
HAL_USART_Transmit:
.Lfunc_begin4:
	.loc	7 752 0                         @ c:/Keil_v5\ARM\PACK\Keil\STM32L5xx_DFP\1.3.0\Drivers\STM32L5xx_HAL_Driver\Src\stm32l5xx_hal_usart.c:752:0
	.fnstart
	.cfi_startproc
@ %bb.0:
	@DEBUG_VALUE: HAL_USART_Transmit:husart <- $r0
	@DEBUG_VALUE: HAL_USART_Transmit:pTxData <- $r1
	@DEBUG_VALUE: HAL_USART_Transmit:Size <- $r2
	@DEBUG_VALUE: HAL_USART_Transmit:Timeout <- $r3
	.save	{r4, r5, r6, r7, r8, lr}
	push.w	{r4, r5, r6, r7, r8, lr}
	.cfi_def_cfa_offset 24
	.cfi_offset lr, -4
	.cfi_offset r8, -8
	.cfi_offset r7, -12
	.cfi_offset r6, -16
	.cfi_offset r5, -20
	.cfi_offset r4, -24
	mov	r4, r0
	@DEBUG_VALUE: HAL_USART_Transmit:Timeout <- $r3
.Ltmp102:
	@DEBUG_VALUE: HAL_USART_Transmit:Size <- undef
	@DEBUG_VALUE: HAL_USART_Transmit:husart <- $r4
	.loc	7 757 15 prologue_end           @ c:/Keil_v5\ARM\PACK\Keil\STM32L5xx_DFP\1.3.0\Drivers\STM32L5xx_HAL_Driver\Src\stm32l5xx_hal_usart.c:757:15
	ldrb.w	r0, [r0, #89]
.Ltmp103:
	@DEBUG_VALUE: HAL_USART_Transmit:Size <- $r2
	.loc	7 757 7 is_stmt 0               @ c:/Keil_v5\ARM\PACK\Keil\STM32L5xx_DFP\1.3.0\Drivers\STM32L5xx_HAL_Driver\Src\stm32l5xx_hal_usart.c:757:7
	cmp	r0, #1
	@DEBUG_VALUE: HAL_USART_Transmit:pTxData <- $r1
	bne	.LBB4_4
.Ltmp104:
@ %bb.1:
	@DEBUG_VALUE: HAL_USART_Transmit:husart <- $r4
	@DEBUG_VALUE: HAL_USART_Transmit:Timeout <- $r3
	@DEBUG_VALUE: HAL_USART_Transmit:Size <- $r2
	@DEBUG_VALUE: HAL_USART_Transmit:pTxData <- $r1
	@DEBUG_VALUE: HAL_USART_Transmit:Timeout <- $r3
	@DEBUG_VALUE: HAL_USART_Transmit:Size <- $r2
	.loc	7 0 7                           @ c:/Keil_v5\ARM\PACK\Keil\STM32L5xx_DFP\1.3.0\Drivers\STM32L5xx_HAL_Driver\Src\stm32l5xx_hal_usart.c:0:7
	mov	r7, r1
.Ltmp105:
	@DEBUG_VALUE: HAL_USART_Transmit:pTxData <- $r7
	@DEBUG_VALUE: HAL_USART_Transmit:Size <- $r2
	.loc	7 759 27 is_stmt 1              @ c:/Keil_v5\ARM\PACK\Keil\STM32L5xx_DFP\1.3.0\Drivers\STM32L5xx_HAL_Driver\Src\stm32l5xx_hal_usart.c:759:27
	cmp	r1, #0
	mov.w	r0, #1
	@DEBUG_VALUE: HAL_USART_Transmit:Timeout <- $r3
	itt	ne
	movne	r6, r2
.Ltmp106:
	@DEBUG_VALUE: HAL_USART_Transmit:Size <- $r6
	@DEBUG_VALUE: HAL_USART_Transmit:Size <- $r6
	@DEBUG_VALUE: HAL_USART_Transmit:Size <- $r6
	cmpne	r2, #0
	bne	.LBB4_3
.Ltmp107:
@ %bb.2:
	@DEBUG_VALUE: HAL_USART_Transmit:pTxData <- $r7
	@DEBUG_VALUE: HAL_USART_Transmit:Size <- $r6
	@DEBUG_VALUE: HAL_USART_Transmit:husart <- $r4
	@DEBUG_VALUE: HAL_USART_Transmit:Timeout <- $r3
	.loc	7 834 1                         @ c:/Keil_v5\ARM\PACK\Keil\STM32L5xx_DFP\1.3.0\Drivers\STM32L5xx_HAL_Driver\Src\stm32l5xx_hal_usart.c:834:1
	pop.w	{r4, r5, r6, r7, r8, pc}
.Ltmp108:
	.p2align	2
.LBB4_3:
	@DEBUG_VALUE: HAL_USART_Transmit:pTxData <- $r7
	@DEBUG_VALUE: HAL_USART_Transmit:Size <- $r6
	@DEBUG_VALUE: HAL_USART_Transmit:husart <- $r4
	@DEBUG_VALUE: HAL_USART_Transmit:Timeout <- $r3
	@DEBUG_VALUE: HAL_USART_Transmit:Timeout <- $r3
	@DEBUG_VALUE: HAL_USART_Transmit:Size <- $r6
	.loc	7 765 5                         @ c:/Keil_v5\ARM\PACK\Keil\STM32L5xx_DFP\1.3.0\Drivers\STM32L5xx_HAL_Driver\Src\stm32l5xx_hal_usart.c:765:5
	ldrb.w	r0, [r4, #88]
.Ltmp109:
	.loc	7 765 5 is_stmt 0               @ c:/Keil_v5\ARM\PACK\Keil\STM32L5xx_DFP\1.3.0\Drivers\STM32L5xx_HAL_Driver\Src\stm32l5xx_hal_usart.c:765:5
	cmp	r0, #1
	bne	.LBB4_5
.Ltmp110:
.LBB4_4:
	@DEBUG_VALUE: HAL_USART_Transmit:husart <- $r4
	@DEBUG_VALUE: HAL_USART_Transmit:Timeout <- $r3
	.loc	7 0 5                           @ c:/Keil_v5\ARM\PACK\Keil\STM32L5xx_DFP\1.3.0\Drivers\STM32L5xx_HAL_Driver\Src\stm32l5xx_hal_usart.c:0:5
	movs	r0, #2
	.loc	7 834 1 is_stmt 1               @ c:/Keil_v5\ARM\PACK\Keil\STM32L5xx_DFP\1.3.0\Drivers\STM32L5xx_HAL_Driver\Src\stm32l5xx_hal_usart.c:834:1
	pop.w	{r4, r5, r6, r7, r8, pc}
.Ltmp111:
	.p2align	2
.LBB4_5:
	@DEBUG_VALUE: HAL_USART_Transmit:pTxData <- $r7
	@DEBUG_VALUE: HAL_USART_Transmit:Size <- $r6
	@DEBUG_VALUE: HAL_USART_Transmit:husart <- $r4
	@DEBUG_VALUE: HAL_USART_Transmit:Timeout <- $r3
	.loc	7 0 1 is_stmt 0                 @ c:/Keil_v5\ARM\PACK\Keil\STM32L5xx_DFP\1.3.0\Drivers\STM32L5xx_HAL_Driver\Src\stm32l5xx_hal_usart.c:0:1
	movs	r0, #1
.Ltmp112:
	.loc	7 765 5 is_stmt 1               @ c:/Keil_v5\ARM\PACK\Keil\STM32L5xx_DFP\1.3.0\Drivers\STM32L5xx_HAL_Driver\Src\stm32l5xx_hal_usart.c:765:5
	strb.w	r0, [r4, #88]
	mov.w	r8, #0
	movs	r0, #18
	mov	r5, r3
.Ltmp113:
	@DEBUG_VALUE: HAL_USART_Transmit:Timeout <- $r5
	@DEBUG_VALUE: HAL_USART_Transmit:Timeout <- $r5
	@DEBUG_VALUE: HAL_USART_Transmit:Size <- $r6
	.loc	7 767 23                        @ c:/Keil_v5\ARM\PACK\Keil\STM32L5xx_DFP\1.3.0\Drivers\STM32L5xx_HAL_Driver\Src\stm32l5xx_hal_usart.c:767:23
	str.w	r8, [r4, #92]
	.loc	7 768 19                        @ c:/Keil_v5\ARM\PACK\Keil\STM32L5xx_DFP\1.3.0\Drivers\STM32L5xx_HAL_Driver\Src\stm32l5xx_hal_usart.c:768:19
	strb.w	r0, [r4, #89]
	.loc	7 771 17                        @ c:/Keil_v5\ARM\PACK\Keil\STM32L5xx_DFP\1.3.0\Drivers\STM32L5xx_HAL_Driver\Src\stm32l5xx_hal_usart.c:771:17
	bl	HAL_GetTick
	.loc	7 773 24                        @ c:/Keil_v5\ARM\PACK\Keil\STM32L5xx_DFP\1.3.0\Drivers\STM32L5xx_HAL_Driver\Src\stm32l5xx_hal_usart.c:773:24
	strh	r6, [r4, #44]
	.loc	7 774 25                        @ c:/Keil_v5\ARM\PACK\Keil\STM32L5xx_DFP\1.3.0\Drivers\STM32L5xx_HAL_Driver\Src\stm32l5xx_hal_usart.c:774:25
	strh	r6, [r4, #46]
.Ltmp114:
	.loc	7 777 23                        @ c:/Keil_v5\ARM\PACK\Keil\STM32L5xx_DFP\1.3.0\Drivers\STM32L5xx_HAL_Driver\Src\stm32l5xx_hal_usart.c:777:23
	ldr	r1, [r4, #8]
.Ltmp115:
	.loc	7 771 17                        @ c:/Keil_v5\ARM\PACK\Keil\STM32L5xx_DFP\1.3.0\Drivers\STM32L5xx_HAL_Driver\Src\stm32l5xx_hal_usart.c:771:17
	mov	r6, r0
.Ltmp116:
	@DEBUG_VALUE: HAL_USART_Transmit:tickstart <- $r6
	.loc	7 777 58                        @ c:/Keil_v5\ARM\PACK\Keil\STM32L5xx_DFP\1.3.0\Drivers\STM32L5xx_HAL_Driver\Src\stm32l5xx_hal_usart.c:777:58
	cmp.w	r1, #4096
	bne	.LBB4_7
.Ltmp117:
@ %bb.6:
	@DEBUG_VALUE: HAL_USART_Transmit:pTxData <- $r7
	@DEBUG_VALUE: HAL_USART_Transmit:tickstart <- $r6
	@DEBUG_VALUE: HAL_USART_Transmit:Timeout <- $r5
	@DEBUG_VALUE: HAL_USART_Transmit:husart <- $r4
	.loc	7 777 75 is_stmt 0              @ c:/Keil_v5\ARM\PACK\Keil\STM32L5xx_DFP\1.3.0\Drivers\STM32L5xx_HAL_Driver\Src\stm32l5xx_hal_usart.c:777:75
	ldr	r0, [r4, #16]
.Ltmp118:
	.loc	7 777 9                         @ c:/Keil_v5\ARM\PACK\Keil\STM32L5xx_DFP\1.3.0\Drivers\STM32L5xx_HAL_Driver\Src\stm32l5xx_hal_usart.c:777:9
	cmp	r0, #0
	ite	ne
	movne	r0, r7
	moveq	r8, r7
.Ltmp119:
	@DEBUG_VALUE: HAL_USART_Transmit:pTxData <- $r8
	.loc	7 0 0                           @ c:/Keil_v5\ARM\PACK\Keil\STM32L5xx_DFP\1.3.0\Drivers\STM32L5xx_HAL_Driver\Src\stm32l5xx_hal_usart.c:0:0
	mov	r7, r0
.Ltmp120:
.LBB4_7:
	@DEBUG_VALUE: HAL_USART_Transmit:tickstart <- $r6
	@DEBUG_VALUE: HAL_USART_Transmit:Timeout <- $r5
	@DEBUG_VALUE: HAL_USART_Transmit:husart <- $r4
	@DEBUG_VALUE: HAL_USART_Transmit:ptxdata16bits <- $r8
	@DEBUG_VALUE: HAL_USART_Transmit:ptxdata8bits <- $r7
	.loc	7 789 20 is_stmt 1              @ c:/Keil_v5\ARM\PACK\Keil\STM32L5xx_DFP\1.3.0\Drivers\STM32L5xx_HAL_Driver\Src\stm32l5xx_hal_usart.c:789:20
	ldrh	r0, [r4, #46]
	.loc	7 789 5 is_stmt 0               @ c:/Keil_v5\ARM\PACK\Keil\STM32L5xx_DFP\1.3.0\Drivers\STM32L5xx_HAL_Driver\Src\stm32l5xx_hal_usart.c:789:5
	cbz	r0, .LBB4_23
.Ltmp121:
@ %bb.8:
	@DEBUG_VALUE: HAL_USART_Transmit:ptxdata16bits <- $r8
	@DEBUG_VALUE: HAL_USART_Transmit:ptxdata8bits <- $r7
	@DEBUG_VALUE: HAL_USART_Transmit:tickstart <- $r6
	@DEBUG_VALUE: HAL_USART_Transmit:Timeout <- $r5
	@DEBUG_VALUE: HAL_USART_Transmit:husart <- $r4
	adds	r0, r5, #1
	beq	.LBB4_24
.Ltmp122:
@ %bb.9:
	@DEBUG_VALUE: HAL_USART_Transmit:ptxdata16bits <- $r8
	@DEBUG_VALUE: HAL_USART_Transmit:ptxdata8bits <- $r7
	@DEBUG_VALUE: HAL_USART_Transmit:tickstart <- $r6
	@DEBUG_VALUE: HAL_USART_Transmit:Timeout <- $r5
	@DEBUG_VALUE: HAL_USART_Transmit:husart <- $r4
	cbnz	r5, .LBB4_12
.Ltmp123:
@ %bb.10:
	@DEBUG_VALUE: HAL_USART_Transmit:ptxdata16bits <- $r8
	@DEBUG_VALUE: HAL_USART_Transmit:ptxdata8bits <- $r7
	@DEBUG_VALUE: HAL_USART_Transmit:tickstart <- $r6
	@DEBUG_VALUE: HAL_USART_Transmit:Timeout <- $r5
	@DEBUG_VALUE: HAL_USART_Transmit:husart <- $r4
	.loc	7 2825 11 is_stmt 1             @ c:/Keil_v5\ARM\PACK\Keil\STM32L5xx_DFP\1.3.0\Drivers\STM32L5xx_HAL_Driver\Src\stm32l5xx_hal_usart.c:2825:11
	ldr	r0, [r4]
	b	.LBB4_20
.Ltmp124:
	.p2align	2
.LBB4_11:                               @   in Loop: Header=BB4_12 Depth=1
	@DEBUG_VALUE: HAL_USART_Transmit:ptxdata16bits <- $r8
	@DEBUG_VALUE: HAL_USART_Transmit:ptxdata8bits <- $r7
	@DEBUG_VALUE: USART_WaitOnFlagUntilTimeout:Tickstart <- $r6
	@DEBUG_VALUE: HAL_USART_Transmit:tickstart <- $r6
	@DEBUG_VALUE: USART_WaitOnFlagUntilTimeout:Timeout <- $r5
	@DEBUG_VALUE: HAL_USART_Transmit:Timeout <- $r5
	@DEBUG_VALUE: USART_WaitOnFlagUntilTimeout:husart <- $r4
	@DEBUG_VALUE: HAL_USART_Transmit:husart <- $r4
	@DEBUG_VALUE: USART_WaitOnFlagUntilTimeout:Status <- 0
	@DEBUG_VALUE: USART_WaitOnFlagUntilTimeout:Flag <- 128
	.loc	7 2830 13                       @ c:/Keil_v5\ARM\PACK\Keil\STM32L5xx_DFP\1.3.0\Drivers\STM32L5xx_HAL_Driver\Src\stm32l5xx_hal_usart.c:2830:13
	bl	HAL_GetTick
	.loc	7 2830 27 is_stmt 0             @ c:/Keil_v5\ARM\PACK\Keil\STM32L5xx_DFP\1.3.0\Drivers\STM32L5xx_HAL_Driver\Src\stm32l5xx_hal_usart.c:2830:27
	subs	r0, r0, r6
	.loc	7 2830 51                       @ c:/Keil_v5\ARM\PACK\Keil\STM32L5xx_DFP\1.3.0\Drivers\STM32L5xx_HAL_Driver\Src\stm32l5xx_hal_usart.c:2830:51
	cmp	r0, r5
	bhi.w	.LBB4_41
.Ltmp125:
.LBB4_12:                               @ =>This Loop Header: Depth=1
                                        @     Child Loop BB4_13 Depth 2
	@DEBUG_VALUE: HAL_USART_Transmit:ptxdata16bits <- $r8
	@DEBUG_VALUE: HAL_USART_Transmit:ptxdata8bits <- $r7
	@DEBUG_VALUE: HAL_USART_Transmit:tickstart <- $r6
	@DEBUG_VALUE: HAL_USART_Transmit:Timeout <- $r5
	@DEBUG_VALUE: HAL_USART_Transmit:husart <- $r4
	.loc	7 2825 11 is_stmt 1             @ c:/Keil_v5\ARM\PACK\Keil\STM32L5xx_DFP\1.3.0\Drivers\STM32L5xx_HAL_Driver\Src\stm32l5xx_hal_usart.c:2825:11
	ldr	r0, [r4]
.Ltmp126:
.LBB4_13:                               @   Parent Loop BB4_12 Depth=1
                                        @ =>  This Inner Loop Header: Depth=2
	@DEBUG_VALUE: HAL_USART_Transmit:ptxdata16bits <- $r8
	@DEBUG_VALUE: HAL_USART_Transmit:ptxdata8bits <- $r7
	@DEBUG_VALUE: HAL_USART_Transmit:tickstart <- $r6
	@DEBUG_VALUE: HAL_USART_Transmit:Timeout <- $r5
	@DEBUG_VALUE: HAL_USART_Transmit:husart <- $r4
	@DEBUG_VALUE: HAL_USART_Transmit:ptxdata16bits <- $r8
	@DEBUG_VALUE: HAL_USART_Transmit:ptxdata8bits <- $r7
	@DEBUG_VALUE: USART_WaitOnFlagUntilTimeout:husart <- $r4
	@DEBUG_VALUE: USART_WaitOnFlagUntilTimeout:Flag <- 128
	@DEBUG_VALUE: USART_WaitOnFlagUntilTimeout:Status <- 0
	@DEBUG_VALUE: USART_WaitOnFlagUntilTimeout:Tickstart <- $r6
	@DEBUG_VALUE: USART_WaitOnFlagUntilTimeout:Timeout <- $r5
	ldr	r1, [r0, #28]
	.loc	7 2825 3 is_stmt 0              @ c:/Keil_v5\ARM\PACK\Keil\STM32L5xx_DFP\1.3.0\Drivers\STM32L5xx_HAL_Driver\Src\stm32l5xx_hal_usart.c:2825:3
	lsls	r1, r1, #24
	bpl	.LBB4_11
.Ltmp127:
@ %bb.14:                               @   in Loop: Header=BB4_13 Depth=2
	@DEBUG_VALUE: HAL_USART_Transmit:ptxdata16bits <- $r8
	@DEBUG_VALUE: HAL_USART_Transmit:ptxdata8bits <- $r7
	@DEBUG_VALUE: HAL_USART_Transmit:tickstart <- $r6
	@DEBUG_VALUE: HAL_USART_Transmit:Timeout <- $r5
	@DEBUG_VALUE: HAL_USART_Transmit:husart <- $r4
	.loc	7 795 11 is_stmt 1              @ c:/Keil_v5\ARM\PACK\Keil\STM32L5xx_DFP\1.3.0\Drivers\STM32L5xx_HAL_Driver\Src\stm32l5xx_hal_usart.c:795:11
	cbz	r7, .LBB4_16
.Ltmp128:
@ %bb.15:                               @   in Loop: Header=BB4_13 Depth=2
	@DEBUG_VALUE: HAL_USART_Transmit:ptxdata16bits <- $r8
	@DEBUG_VALUE: HAL_USART_Transmit:ptxdata8bits <- $r7
	@DEBUG_VALUE: HAL_USART_Transmit:tickstart <- $r6
	@DEBUG_VALUE: HAL_USART_Transmit:Timeout <- $r5
	@DEBUG_VALUE: HAL_USART_Transmit:husart <- $r4
	.loc	7 802 43                        @ c:/Keil_v5\ARM\PACK\Keil\STM32L5xx_DFP\1.3.0\Drivers\STM32L5xx_HAL_Driver\Src\stm32l5xx_hal_usart.c:802:43
	ldrb	r1, [r7], #1
.Ltmp129:
	.loc	7 0 43 is_stmt 0                @ c:/Keil_v5\ARM\PACK\Keil\STM32L5xx_DFP\1.3.0\Drivers\STM32L5xx_HAL_Driver\Src\stm32l5xx_hal_usart.c:0:43
	b	.LBB4_17
.Ltmp130:
	.p2align	2
.LBB4_16:                               @   in Loop: Header=BB4_13 Depth=2
	@DEBUG_VALUE: HAL_USART_Transmit:ptxdata16bits <- $r8
	@DEBUG_VALUE: HAL_USART_Transmit:ptxdata8bits <- $r7
	@DEBUG_VALUE: HAL_USART_Transmit:tickstart <- $r6
	@DEBUG_VALUE: HAL_USART_Transmit:Timeout <- $r5
	@DEBUG_VALUE: HAL_USART_Transmit:husart <- $r4
	.loc	7 797 44 is_stmt 1              @ c:/Keil_v5\ARM\PACK\Keil\STM32L5xx_DFP\1.3.0\Drivers\STM32L5xx_HAL_Driver\Src\stm32l5xx_hal_usart.c:797:44
	ldrh	r1, [r8], #2
.Ltmp131:
	.loc	7 0 44 is_stmt 0                @ c:/Keil_v5\ARM\PACK\Keil\STM32L5xx_DFP\1.3.0\Drivers\STM32L5xx_HAL_Driver\Src\stm32l5xx_hal_usart.c:0:44
	movs	r7, #0
.Ltmp132:
	@DEBUG_VALUE: HAL_USART_Transmit:ptxdata16bits <- $r8
	.loc	7 797 33                        @ c:/Keil_v5\ARM\PACK\Keil\STM32L5xx_DFP\1.3.0\Drivers\STM32L5xx_HAL_Driver\Src\stm32l5xx_hal_usart.c:797:33
	bfc	r1, #9, #23
.Ltmp133:
.LBB4_17:                               @   in Loop: Header=BB4_13 Depth=2
	@DEBUG_VALUE: HAL_USART_Transmit:ptxdata16bits <- $r8
	@DEBUG_VALUE: HAL_USART_Transmit:tickstart <- $r6
	@DEBUG_VALUE: HAL_USART_Transmit:Timeout <- $r5
	@DEBUG_VALUE: HAL_USART_Transmit:husart <- $r4
	.loc	7 0 0                           @ c:/Keil_v5\ARM\PACK\Keil\STM32L5xx_DFP\1.3.0\Drivers\STM32L5xx_HAL_Driver\Src\stm32l5xx_hal_usart.c:0:0
	str	r1, [r0, #40]
.Ltmp134:
	@DEBUG_VALUE: HAL_USART_Transmit:ptxdata16bits <- $r8
	@DEBUG_VALUE: HAL_USART_Transmit:ptxdata8bits <- $r7
	.loc	7 806 26 is_stmt 1              @ c:/Keil_v5\ARM\PACK\Keil\STM32L5xx_DFP\1.3.0\Drivers\STM32L5xx_HAL_Driver\Src\stm32l5xx_hal_usart.c:806:26
	ldrh	r1, [r4, #46]
	subs	r1, #1
	strh	r1, [r4, #46]
.Ltmp135:
	.loc	7 789 20                        @ c:/Keil_v5\ARM\PACK\Keil\STM32L5xx_DFP\1.3.0\Drivers\STM32L5xx_HAL_Driver\Src\stm32l5xx_hal_usart.c:789:20
	ldrh	r1, [r4, #46]
	.loc	7 789 5 is_stmt 0               @ c:/Keil_v5\ARM\PACK\Keil\STM32L5xx_DFP\1.3.0\Drivers\STM32L5xx_HAL_Driver\Src\stm32l5xx_hal_usart.c:789:5
	cmp	r1, #0
	bne	.LBB4_13
	b	.LBB4_31
.Ltmp136:
	.p2align	2
.LBB4_18:                               @   in Loop: Header=BB4_20 Depth=1
	@DEBUG_VALUE: HAL_USART_Transmit:ptxdata16bits <- $r8
	@DEBUG_VALUE: HAL_USART_Transmit:ptxdata8bits <- $r7
	@DEBUG_VALUE: HAL_USART_Transmit:tickstart <- $r6
	@DEBUG_VALUE: HAL_USART_Transmit:Timeout <- $r5
	@DEBUG_VALUE: HAL_USART_Transmit:husart <- $r4
	.loc	7 797 44 is_stmt 1              @ c:/Keil_v5\ARM\PACK\Keil\STM32L5xx_DFP\1.3.0\Drivers\STM32L5xx_HAL_Driver\Src\stm32l5xx_hal_usart.c:797:44
	ldrh	r1, [r8], #2
.Ltmp137:
	.loc	7 0 44 is_stmt 0                @ c:/Keil_v5\ARM\PACK\Keil\STM32L5xx_DFP\1.3.0\Drivers\STM32L5xx_HAL_Driver\Src\stm32l5xx_hal_usart.c:0:44
	movs	r7, #0
.Ltmp138:
	@DEBUG_VALUE: HAL_USART_Transmit:ptxdata16bits <- $r8
	.loc	7 797 33                        @ c:/Keil_v5\ARM\PACK\Keil\STM32L5xx_DFP\1.3.0\Drivers\STM32L5xx_HAL_Driver\Src\stm32l5xx_hal_usart.c:797:33
	bfc	r1, #9, #23
.Ltmp139:
.LBB4_19:                               @   in Loop: Header=BB4_20 Depth=1
	@DEBUG_VALUE: HAL_USART_Transmit:ptxdata16bits <- $r8
	@DEBUG_VALUE: HAL_USART_Transmit:tickstart <- $r6
	@DEBUG_VALUE: HAL_USART_Transmit:Timeout <- $r5
	@DEBUG_VALUE: HAL_USART_Transmit:husart <- $r4
	.loc	7 0 0                           @ c:/Keil_v5\ARM\PACK\Keil\STM32L5xx_DFP\1.3.0\Drivers\STM32L5xx_HAL_Driver\Src\stm32l5xx_hal_usart.c:0:0
	str	r1, [r0, #40]
.Ltmp140:
	@DEBUG_VALUE: HAL_USART_Transmit:ptxdata16bits <- $r8
	@DEBUG_VALUE: HAL_USART_Transmit:ptxdata8bits <- $r7
	.loc	7 806 26 is_stmt 1              @ c:/Keil_v5\ARM\PACK\Keil\STM32L5xx_DFP\1.3.0\Drivers\STM32L5xx_HAL_Driver\Src\stm32l5xx_hal_usart.c:806:26
	ldrh	r1, [r4, #46]
	subs	r1, #1
	strh	r1, [r4, #46]
.Ltmp141:
	.loc	7 789 20                        @ c:/Keil_v5\ARM\PACK\Keil\STM32L5xx_DFP\1.3.0\Drivers\STM32L5xx_HAL_Driver\Src\stm32l5xx_hal_usart.c:789:20
	ldrh	r1, [r4, #46]
	.loc	7 789 5 is_stmt 0               @ c:/Keil_v5\ARM\PACK\Keil\STM32L5xx_DFP\1.3.0\Drivers\STM32L5xx_HAL_Driver\Src\stm32l5xx_hal_usart.c:789:5
	cbz	r1, .LBB4_31
.Ltmp142:
.LBB4_20:                               @ =>This Inner Loop Header: Depth=1
	@DEBUG_VALUE: HAL_USART_Transmit:ptxdata16bits <- $r8
	@DEBUG_VALUE: HAL_USART_Transmit:ptxdata8bits <- $r7
	@DEBUG_VALUE: HAL_USART_Transmit:tickstart <- $r6
	@DEBUG_VALUE: HAL_USART_Transmit:Timeout <- $r5
	@DEBUG_VALUE: HAL_USART_Transmit:husart <- $r4
	@DEBUG_VALUE: HAL_USART_Transmit:ptxdata16bits <- $r8
	@DEBUG_VALUE: HAL_USART_Transmit:ptxdata8bits <- $r7
	@DEBUG_VALUE: USART_WaitOnFlagUntilTimeout:husart <- $r4
	@DEBUG_VALUE: USART_WaitOnFlagUntilTimeout:Flag <- 128
	@DEBUG_VALUE: USART_WaitOnFlagUntilTimeout:Status <- 0
	@DEBUG_VALUE: USART_WaitOnFlagUntilTimeout:Tickstart <- $r6
	@DEBUG_VALUE: USART_WaitOnFlagUntilTimeout:Timeout <- $r5
	.loc	7 2825 11 is_stmt 1             @ c:/Keil_v5\ARM\PACK\Keil\STM32L5xx_DFP\1.3.0\Drivers\STM32L5xx_HAL_Driver\Src\stm32l5xx_hal_usart.c:2825:11
	ldr	r1, [r0, #28]
	.loc	7 2825 3 is_stmt 0              @ c:/Keil_v5\ARM\PACK\Keil\STM32L5xx_DFP\1.3.0\Drivers\STM32L5xx_HAL_Driver\Src\stm32l5xx_hal_usart.c:2825:3
	lsls	r1, r1, #24
	bpl	.LBB4_40
.Ltmp143:
@ %bb.21:                               @   in Loop: Header=BB4_20 Depth=1
	@DEBUG_VALUE: HAL_USART_Transmit:ptxdata16bits <- $r8
	@DEBUG_VALUE: HAL_USART_Transmit:ptxdata8bits <- $r7
	@DEBUG_VALUE: HAL_USART_Transmit:tickstart <- $r6
	@DEBUG_VALUE: HAL_USART_Transmit:Timeout <- $r5
	@DEBUG_VALUE: HAL_USART_Transmit:husart <- $r4
	.loc	7 795 11 is_stmt 1              @ c:/Keil_v5\ARM\PACK\Keil\STM32L5xx_DFP\1.3.0\Drivers\STM32L5xx_HAL_Driver\Src\stm32l5xx_hal_usart.c:795:11
	cmp	r7, #0
	beq	.LBB4_18
.Ltmp144:
@ %bb.22:                               @   in Loop: Header=BB4_20 Depth=1
	@DEBUG_VALUE: HAL_USART_Transmit:ptxdata16bits <- $r8
	@DEBUG_VALUE: HAL_USART_Transmit:ptxdata8bits <- $r7
	@DEBUG_VALUE: HAL_USART_Transmit:tickstart <- $r6
	@DEBUG_VALUE: HAL_USART_Transmit:Timeout <- $r5
	@DEBUG_VALUE: HAL_USART_Transmit:husart <- $r4
	.loc	7 802 43                        @ c:/Keil_v5\ARM\PACK\Keil\STM32L5xx_DFP\1.3.0\Drivers\STM32L5xx_HAL_Driver\Src\stm32l5xx_hal_usart.c:802:43
	ldrb	r1, [r7], #1
.Ltmp145:
	.loc	7 0 43 is_stmt 0                @ c:/Keil_v5\ARM\PACK\Keil\STM32L5xx_DFP\1.3.0\Drivers\STM32L5xx_HAL_Driver\Src\stm32l5xx_hal_usart.c:0:43
	b	.LBB4_19
.Ltmp146:
	.p2align	2
.LBB4_23:
	@DEBUG_VALUE: HAL_USART_Transmit:ptxdata16bits <- $r8
	@DEBUG_VALUE: HAL_USART_Transmit:ptxdata8bits <- $r7
	@DEBUG_VALUE: HAL_USART_Transmit:tickstart <- $r6
	@DEBUG_VALUE: HAL_USART_Transmit:Timeout <- $r5
	@DEBUG_VALUE: HAL_USART_Transmit:husart <- $r4
	.loc	7 2825 11 is_stmt 1             @ c:/Keil_v5\ARM\PACK\Keil\STM32L5xx_DFP\1.3.0\Drivers\STM32L5xx_HAL_Driver\Src\stm32l5xx_hal_usart.c:2825:11
	ldr	r0, [r4]
	b	.LBB4_31
.Ltmp147:
	.p2align	2
.LBB4_24:
	@DEBUG_VALUE: HAL_USART_Transmit:ptxdata16bits <- $r8
	@DEBUG_VALUE: HAL_USART_Transmit:ptxdata8bits <- $r7
	@DEBUG_VALUE: HAL_USART_Transmit:tickstart <- $r6
	@DEBUG_VALUE: HAL_USART_Transmit:Timeout <- $r5
	@DEBUG_VALUE: HAL_USART_Transmit:husart <- $r4
	.loc	7 2825 11 is_stmt 0             @ c:/Keil_v5\ARM\PACK\Keil\STM32L5xx_DFP\1.3.0\Drivers\STM32L5xx_HAL_Driver\Src\stm32l5xx_hal_usart.c:2825:11
	ldr	r0, [r4]
	b	.LBB4_26
.Ltmp148:
	.p2align	2
.LBB4_25:                               @   in Loop: Header=BB4_26 Depth=1
	@DEBUG_VALUE: HAL_USART_Transmit:ptxdata16bits <- $r8
	@DEBUG_VALUE: HAL_USART_Transmit:ptxdata8bits <- $r7
	@DEBUG_VALUE: USART_WaitOnFlagUntilTimeout:Tickstart <- $r6
	@DEBUG_VALUE: HAL_USART_Transmit:tickstart <- $r6
	@DEBUG_VALUE: USART_WaitOnFlagUntilTimeout:Timeout <- $r5
	@DEBUG_VALUE: HAL_USART_Transmit:Timeout <- $r5
	@DEBUG_VALUE: USART_WaitOnFlagUntilTimeout:husart <- $r4
	@DEBUG_VALUE: HAL_USART_Transmit:husart <- $r4
	@DEBUG_VALUE: USART_WaitOnFlagUntilTimeout:Status <- 0
	@DEBUG_VALUE: USART_WaitOnFlagUntilTimeout:Flag <- 128
	ldr	r1, [r0, #28]
	.loc	7 2825 3                        @ c:/Keil_v5\ARM\PACK\Keil\STM32L5xx_DFP\1.3.0\Drivers\STM32L5xx_HAL_Driver\Src\stm32l5xx_hal_usart.c:2825:3
	lsls	r1, r1, #24
	bmi	.LBB4_27
.Ltmp149:
.LBB4_26:                               @ =>This Inner Loop Header: Depth=1
	@DEBUG_VALUE: HAL_USART_Transmit:ptxdata16bits <- $r8
	@DEBUG_VALUE: HAL_USART_Transmit:ptxdata8bits <- $r7
	@DEBUG_VALUE: HAL_USART_Transmit:tickstart <- $r6
	@DEBUG_VALUE: HAL_USART_Transmit:Timeout <- $r5
	@DEBUG_VALUE: HAL_USART_Transmit:husart <- $r4
	@DEBUG_VALUE: HAL_USART_Transmit:ptxdata16bits <- $r8
	@DEBUG_VALUE: HAL_USART_Transmit:ptxdata8bits <- $r7
	@DEBUG_VALUE: USART_WaitOnFlagUntilTimeout:husart <- $r4
	@DEBUG_VALUE: USART_WaitOnFlagUntilTimeout:Flag <- 128
	@DEBUG_VALUE: USART_WaitOnFlagUntilTimeout:Status <- 0
	@DEBUG_VALUE: USART_WaitOnFlagUntilTimeout:Tickstart <- $r6
	@DEBUG_VALUE: USART_WaitOnFlagUntilTimeout:Timeout <- $r5
	.loc	7 2825 11                       @ c:/Keil_v5\ARM\PACK\Keil\STM32L5xx_DFP\1.3.0\Drivers\STM32L5xx_HAL_Driver\Src\stm32l5xx_hal_usart.c:2825:11
	ldr	r1, [r0, #28]
	.loc	7 2825 3                        @ c:/Keil_v5\ARM\PACK\Keil\STM32L5xx_DFP\1.3.0\Drivers\STM32L5xx_HAL_Driver\Src\stm32l5xx_hal_usart.c:2825:3
	lsls	r1, r1, #24
	.loc	7 2825 11                       @ c:/Keil_v5\ARM\PACK\Keil\STM32L5xx_DFP\1.3.0\Drivers\STM32L5xx_HAL_Driver\Src\stm32l5xx_hal_usart.c:2825:11
	itttt	pl
	ldrpl	r1, [r0, #28]
	.loc	7 2825 3                        @ c:/Keil_v5\ARM\PACK\Keil\STM32L5xx_DFP\1.3.0\Drivers\STM32L5xx_HAL_Driver\Src\stm32l5xx_hal_usart.c:2825:3
	lslspl.w	r1, r1, #24
	.loc	7 2825 11                       @ c:/Keil_v5\ARM\PACK\Keil\STM32L5xx_DFP\1.3.0\Drivers\STM32L5xx_HAL_Driver\Src\stm32l5xx_hal_usart.c:2825:11
	ldrpl	r1, [r0, #28]
	.loc	7 2825 3                        @ c:/Keil_v5\ARM\PACK\Keil\STM32L5xx_DFP\1.3.0\Drivers\STM32L5xx_HAL_Driver\Src\stm32l5xx_hal_usart.c:2825:3
	lslspl.w	r1, r1, #24
	bpl	.LBB4_25
.Ltmp150:
.LBB4_27:                               @   in Loop: Header=BB4_26 Depth=1
	@DEBUG_VALUE: HAL_USART_Transmit:ptxdata16bits <- $r8
	@DEBUG_VALUE: HAL_USART_Transmit:ptxdata8bits <- $r7
	@DEBUG_VALUE: HAL_USART_Transmit:tickstart <- $r6
	@DEBUG_VALUE: HAL_USART_Transmit:Timeout <- $r5
	@DEBUG_VALUE: HAL_USART_Transmit:husart <- $r4
	.loc	7 795 11 is_stmt 1              @ c:/Keil_v5\ARM\PACK\Keil\STM32L5xx_DFP\1.3.0\Drivers\STM32L5xx_HAL_Driver\Src\stm32l5xx_hal_usart.c:795:11
	cbz	r7, .LBB4_29
.Ltmp151:
@ %bb.28:                               @   in Loop: Header=BB4_26 Depth=1
	@DEBUG_VALUE: HAL_USART_Transmit:ptxdata16bits <- $r8
	@DEBUG_VALUE: HAL_USART_Transmit:ptxdata8bits <- $r7
	@DEBUG_VALUE: HAL_USART_Transmit:tickstart <- $r6
	@DEBUG_VALUE: HAL_USART_Transmit:Timeout <- $r5
	@DEBUG_VALUE: HAL_USART_Transmit:husart <- $r4
	.loc	7 802 43                        @ c:/Keil_v5\ARM\PACK\Keil\STM32L5xx_DFP\1.3.0\Drivers\STM32L5xx_HAL_Driver\Src\stm32l5xx_hal_usart.c:802:43
	ldrb	r1, [r7], #1
.Ltmp152:
	.loc	7 0 43 is_stmt 0                @ c:/Keil_v5\ARM\PACK\Keil\STM32L5xx_DFP\1.3.0\Drivers\STM32L5xx_HAL_Driver\Src\stm32l5xx_hal_usart.c:0:43
	b	.LBB4_30
.Ltmp153:
	.p2align	2
.LBB4_29:                               @   in Loop: Header=BB4_26 Depth=1
	@DEBUG_VALUE: HAL_USART_Transmit:ptxdata16bits <- $r8
	@DEBUG_VALUE: HAL_USART_Transmit:ptxdata8bits <- $r7
	@DEBUG_VALUE: HAL_USART_Transmit:tickstart <- $r6
	@DEBUG_VALUE: HAL_USART_Transmit:Timeout <- $r5
	@DEBUG_VALUE: HAL_USART_Transmit:husart <- $r4
	.loc	7 797 44 is_stmt 1              @ c:/Keil_v5\ARM\PACK\Keil\STM32L5xx_DFP\1.3.0\Drivers\STM32L5xx_HAL_Driver\Src\stm32l5xx_hal_usart.c:797:44
	ldrh	r1, [r8], #2
.Ltmp154:
	.loc	7 0 44 is_stmt 0                @ c:/Keil_v5\ARM\PACK\Keil\STM32L5xx_DFP\1.3.0\Drivers\STM32L5xx_HAL_Driver\Src\stm32l5xx_hal_usart.c:0:44
	movs	r7, #0
.Ltmp155:
	@DEBUG_VALUE: HAL_USART_Transmit:ptxdata16bits <- $r8
	.loc	7 797 33                        @ c:/Keil_v5\ARM\PACK\Keil\STM32L5xx_DFP\1.3.0\Drivers\STM32L5xx_HAL_Driver\Src\stm32l5xx_hal_usart.c:797:33
	bfc	r1, #9, #23
.Ltmp156:
.LBB4_30:                               @   in Loop: Header=BB4_26 Depth=1
	@DEBUG_VALUE: HAL_USART_Transmit:ptxdata16bits <- $r8
	@DEBUG_VALUE: HAL_USART_Transmit:tickstart <- $r6
	@DEBUG_VALUE: HAL_USART_Transmit:Timeout <- $r5
	@DEBUG_VALUE: HAL_USART_Transmit:husart <- $r4
	.loc	7 0 0                           @ c:/Keil_v5\ARM\PACK\Keil\STM32L5xx_DFP\1.3.0\Drivers\STM32L5xx_HAL_Driver\Src\stm32l5xx_hal_usart.c:0:0
	str	r1, [r0, #40]
.Ltmp157:
	@DEBUG_VALUE: HAL_USART_Transmit:ptxdata16bits <- $r8
	@DEBUG_VALUE: HAL_USART_Transmit:ptxdata8bits <- $r7
	.loc	7 806 26 is_stmt 1              @ c:/Keil_v5\ARM\PACK\Keil\STM32L5xx_DFP\1.3.0\Drivers\STM32L5xx_HAL_Driver\Src\stm32l5xx_hal_usart.c:806:26
	ldrh	r1, [r4, #46]
	subs	r1, #1
	strh	r1, [r4, #46]
.Ltmp158:
	.loc	7 789 20                        @ c:/Keil_v5\ARM\PACK\Keil\STM32L5xx_DFP\1.3.0\Drivers\STM32L5xx_HAL_Driver\Src\stm32l5xx_hal_usart.c:789:20
	ldrh	r1, [r4, #46]
	.loc	7 789 5 is_stmt 0               @ c:/Keil_v5\ARM\PACK\Keil\STM32L5xx_DFP\1.3.0\Drivers\STM32L5xx_HAL_Driver\Src\stm32l5xx_hal_usart.c:789:5
	cmp	r1, #0
	bne	.LBB4_26
.Ltmp159:
.LBB4_31:
	@DEBUG_VALUE: HAL_USART_Transmit:ptxdata16bits <- $r8
	@DEBUG_VALUE: HAL_USART_Transmit:ptxdata8bits <- $r7
	@DEBUG_VALUE: HAL_USART_Transmit:tickstart <- $r6
	@DEBUG_VALUE: HAL_USART_Transmit:Timeout <- $r5
	@DEBUG_VALUE: HAL_USART_Transmit:husart <- $r4
	@DEBUG_VALUE: USART_WaitOnFlagUntilTimeout:husart <- $r4
	@DEBUG_VALUE: USART_WaitOnFlagUntilTimeout:Flag <- 64
	@DEBUG_VALUE: USART_WaitOnFlagUntilTimeout:Status <- 0
	@DEBUG_VALUE: USART_WaitOnFlagUntilTimeout:Tickstart <- $r6
	@DEBUG_VALUE: USART_WaitOnFlagUntilTimeout:Timeout <- $r5
	.loc	7 2825 11 is_stmt 1             @ c:/Keil_v5\ARM\PACK\Keil\STM32L5xx_DFP\1.3.0\Drivers\STM32L5xx_HAL_Driver\Src\stm32l5xx_hal_usart.c:2825:11
	ldr	r1, [r0, #28]
	.loc	7 2825 3 is_stmt 0              @ c:/Keil_v5\ARM\PACK\Keil\STM32L5xx_DFP\1.3.0\Drivers\STM32L5xx_HAL_Driver\Src\stm32l5xx_hal_usart.c:2825:3
	lsls	r1, r1, #25
	bmi	.LBB4_39
.Ltmp160:
@ %bb.32:
	@DEBUG_VALUE: HAL_USART_Transmit:ptxdata16bits <- $r8
	@DEBUG_VALUE: HAL_USART_Transmit:ptxdata8bits <- $r7
	@DEBUG_VALUE: USART_WaitOnFlagUntilTimeout:Tickstart <- $r6
	@DEBUG_VALUE: HAL_USART_Transmit:tickstart <- $r6
	@DEBUG_VALUE: USART_WaitOnFlagUntilTimeout:Timeout <- $r5
	@DEBUG_VALUE: HAL_USART_Transmit:Timeout <- $r5
	@DEBUG_VALUE: USART_WaitOnFlagUntilTimeout:husart <- $r4
	@DEBUG_VALUE: HAL_USART_Transmit:husart <- $r4
	@DEBUG_VALUE: USART_WaitOnFlagUntilTimeout:Status <- 0
	@DEBUG_VALUE: USART_WaitOnFlagUntilTimeout:Flag <- 64
	cbz	r5, .LBB4_40
.Ltmp161:
@ %bb.33:
	@DEBUG_VALUE: HAL_USART_Transmit:ptxdata16bits <- $r8
	@DEBUG_VALUE: HAL_USART_Transmit:ptxdata8bits <- $r7
	@DEBUG_VALUE: USART_WaitOnFlagUntilTimeout:Tickstart <- $r6
	@DEBUG_VALUE: HAL_USART_Transmit:tickstart <- $r6
	@DEBUG_VALUE: USART_WaitOnFlagUntilTimeout:Timeout <- $r5
	@DEBUG_VALUE: HAL_USART_Transmit:Timeout <- $r5
	@DEBUG_VALUE: USART_WaitOnFlagUntilTimeout:husart <- $r4
	@DEBUG_VALUE: HAL_USART_Transmit:husart <- $r4
	@DEBUG_VALUE: USART_WaitOnFlagUntilTimeout:Status <- 0
	@DEBUG_VALUE: USART_WaitOnFlagUntilTimeout:Flag <- 64
	adds	r1, r5, #1
	bne	.LBB4_37
.Ltmp162:
.LBB4_34:                               @ =>This Inner Loop Header: Depth=1
	@DEBUG_VALUE: HAL_USART_Transmit:ptxdata16bits <- $r8
	@DEBUG_VALUE: HAL_USART_Transmit:ptxdata8bits <- $r7
	@DEBUG_VALUE: USART_WaitOnFlagUntilTimeout:Tickstart <- $r6
	@DEBUG_VALUE: HAL_USART_Transmit:tickstart <- $r6
	@DEBUG_VALUE: USART_WaitOnFlagUntilTimeout:Timeout <- $r5
	@DEBUG_VALUE: HAL_USART_Transmit:Timeout <- $r5
	@DEBUG_VALUE: USART_WaitOnFlagUntilTimeout:husart <- $r4
	@DEBUG_VALUE: HAL_USART_Transmit:husart <- $r4
	@DEBUG_VALUE: USART_WaitOnFlagUntilTimeout:Status <- 0
	@DEBUG_VALUE: USART_WaitOnFlagUntilTimeout:Flag <- 64
	.loc	7 2825 11                       @ c:/Keil_v5\ARM\PACK\Keil\STM32L5xx_DFP\1.3.0\Drivers\STM32L5xx_HAL_Driver\Src\stm32l5xx_hal_usart.c:2825:11
	ldr	r1, [r0, #28]
	.loc	7 2825 3                        @ c:/Keil_v5\ARM\PACK\Keil\STM32L5xx_DFP\1.3.0\Drivers\STM32L5xx_HAL_Driver\Src\stm32l5xx_hal_usart.c:2825:3
	lsls	r1, r1, #25
	bmi	.LBB4_39
.Ltmp163:
@ %bb.35:                               @   in Loop: Header=BB4_34 Depth=1
	@DEBUG_VALUE: HAL_USART_Transmit:ptxdata16bits <- $r8
	@DEBUG_VALUE: HAL_USART_Transmit:ptxdata8bits <- $r7
	@DEBUG_VALUE: USART_WaitOnFlagUntilTimeout:Tickstart <- $r6
	@DEBUG_VALUE: HAL_USART_Transmit:tickstart <- $r6
	@DEBUG_VALUE: USART_WaitOnFlagUntilTimeout:Timeout <- $r5
	@DEBUG_VALUE: HAL_USART_Transmit:Timeout <- $r5
	@DEBUG_VALUE: USART_WaitOnFlagUntilTimeout:husart <- $r4
	@DEBUG_VALUE: HAL_USART_Transmit:husart <- $r4
	@DEBUG_VALUE: USART_WaitOnFlagUntilTimeout:Status <- 0
	@DEBUG_VALUE: USART_WaitOnFlagUntilTimeout:Flag <- 64
	.loc	7 2825 11                       @ c:/Keil_v5\ARM\PACK\Keil\STM32L5xx_DFP\1.3.0\Drivers\STM32L5xx_HAL_Driver\Src\stm32l5xx_hal_usart.c:2825:11
	ldr	r1, [r0, #28]
	.loc	7 2825 3                        @ c:/Keil_v5\ARM\PACK\Keil\STM32L5xx_DFP\1.3.0\Drivers\STM32L5xx_HAL_Driver\Src\stm32l5xx_hal_usart.c:2825:3
	lsls	r1, r1, #25
	.loc	7 2825 11                       @ c:/Keil_v5\ARM\PACK\Keil\STM32L5xx_DFP\1.3.0\Drivers\STM32L5xx_HAL_Driver\Src\stm32l5xx_hal_usart.c:2825:11
	itt	pl
	ldrpl	r1, [r0, #28]
	.loc	7 2825 3                        @ c:/Keil_v5\ARM\PACK\Keil\STM32L5xx_DFP\1.3.0\Drivers\STM32L5xx_HAL_Driver\Src\stm32l5xx_hal_usart.c:2825:3
	lslspl.w	r1, r1, #25
	bmi	.LBB4_39
.Ltmp164:
@ %bb.36:                               @   in Loop: Header=BB4_34 Depth=1
	@DEBUG_VALUE: HAL_USART_Transmit:ptxdata16bits <- $r8
	@DEBUG_VALUE: HAL_USART_Transmit:ptxdata8bits <- $r7
	@DEBUG_VALUE: USART_WaitOnFlagUntilTimeout:Tickstart <- $r6
	@DEBUG_VALUE: HAL_USART_Transmit:tickstart <- $r6
	@DEBUG_VALUE: USART_WaitOnFlagUntilTimeout:Timeout <- $r5
	@DEBUG_VALUE: HAL_USART_Transmit:Timeout <- $r5
	@DEBUG_VALUE: USART_WaitOnFlagUntilTimeout:husart <- $r4
	@DEBUG_VALUE: HAL_USART_Transmit:husart <- $r4
	@DEBUG_VALUE: USART_WaitOnFlagUntilTimeout:Status <- 0
	@DEBUG_VALUE: USART_WaitOnFlagUntilTimeout:Flag <- 64
	.loc	7 2825 11                       @ c:/Keil_v5\ARM\PACK\Keil\STM32L5xx_DFP\1.3.0\Drivers\STM32L5xx_HAL_Driver\Src\stm32l5xx_hal_usart.c:2825:11
	ldr	r1, [r0, #28]
	.loc	7 2825 3                        @ c:/Keil_v5\ARM\PACK\Keil\STM32L5xx_DFP\1.3.0\Drivers\STM32L5xx_HAL_Driver\Src\stm32l5xx_hal_usart.c:2825:3
	lsls	r1, r1, #25
	bpl	.LBB4_34
	b	.LBB4_39
.Ltmp165:
	.p2align	2
.LBB4_37:                               @ =>This Inner Loop Header: Depth=1
	@DEBUG_VALUE: HAL_USART_Transmit:ptxdata16bits <- $r8
	@DEBUG_VALUE: HAL_USART_Transmit:ptxdata8bits <- $r7
	@DEBUG_VALUE: USART_WaitOnFlagUntilTimeout:Tickstart <- $r6
	@DEBUG_VALUE: HAL_USART_Transmit:tickstart <- $r6
	@DEBUG_VALUE: USART_WaitOnFlagUntilTimeout:Timeout <- $r5
	@DEBUG_VALUE: HAL_USART_Transmit:Timeout <- $r5
	@DEBUG_VALUE: USART_WaitOnFlagUntilTimeout:husart <- $r4
	@DEBUG_VALUE: HAL_USART_Transmit:husart <- $r4
	@DEBUG_VALUE: USART_WaitOnFlagUntilTimeout:Status <- 0
	@DEBUG_VALUE: USART_WaitOnFlagUntilTimeout:Flag <- 64
	.loc	7 2830 13 is_stmt 1             @ c:/Keil_v5\ARM\PACK\Keil\STM32L5xx_DFP\1.3.0\Drivers\STM32L5xx_HAL_Driver\Src\stm32l5xx_hal_usart.c:2830:13
	bl	HAL_GetTick
	.loc	7 2830 27 is_stmt 0             @ c:/Keil_v5\ARM\PACK\Keil\STM32L5xx_DFP\1.3.0\Drivers\STM32L5xx_HAL_Driver\Src\stm32l5xx_hal_usart.c:2830:27
	subs	r0, r0, r6
	.loc	7 2830 51                       @ c:/Keil_v5\ARM\PACK\Keil\STM32L5xx_DFP\1.3.0\Drivers\STM32L5xx_HAL_Driver\Src\stm32l5xx_hal_usart.c:2830:51
	cmp	r0, r5
	bhi	.LBB4_41
.Ltmp166:
@ %bb.38:                               @   in Loop: Header=BB4_37 Depth=1
	@DEBUG_VALUE: HAL_USART_Transmit:ptxdata16bits <- $r8
	@DEBUG_VALUE: HAL_USART_Transmit:ptxdata8bits <- $r7
	@DEBUG_VALUE: USART_WaitOnFlagUntilTimeout:Tickstart <- $r6
	@DEBUG_VALUE: HAL_USART_Transmit:tickstart <- $r6
	@DEBUG_VALUE: USART_WaitOnFlagUntilTimeout:Timeout <- $r5
	@DEBUG_VALUE: HAL_USART_Transmit:Timeout <- $r5
	@DEBUG_VALUE: USART_WaitOnFlagUntilTimeout:husart <- $r4
	@DEBUG_VALUE: HAL_USART_Transmit:husart <- $r4
	@DEBUG_VALUE: USART_WaitOnFlagUntilTimeout:Status <- 0
	@DEBUG_VALUE: USART_WaitOnFlagUntilTimeout:Flag <- 64
	.loc	7 2825 11 is_stmt 1             @ c:/Keil_v5\ARM\PACK\Keil\STM32L5xx_DFP\1.3.0\Drivers\STM32L5xx_HAL_Driver\Src\stm32l5xx_hal_usart.c:2825:11
	ldr	r0, [r4]
	ldr	r1, [r0, #28]
	.loc	7 2825 3 is_stmt 0              @ c:/Keil_v5\ARM\PACK\Keil\STM32L5xx_DFP\1.3.0\Drivers\STM32L5xx_HAL_Driver\Src\stm32l5xx_hal_usart.c:2825:3
	lsls	r1, r1, #25
	bpl	.LBB4_37
.Ltmp167:
.LBB4_39:
	@DEBUG_VALUE: HAL_USART_Transmit:ptxdata16bits <- $r8
	@DEBUG_VALUE: HAL_USART_Transmit:ptxdata8bits <- $r7
	@DEBUG_VALUE: HAL_USART_Transmit:tickstart <- $r6
	@DEBUG_VALUE: HAL_USART_Transmit:Timeout <- $r5
	@DEBUG_VALUE: HAL_USART_Transmit:husart <- $r4
	.loc	7 0 3                           @ c:/Keil_v5\ARM\PACK\Keil\STM32L5xx_DFP\1.3.0\Drivers\STM32L5xx_HAL_Driver\Src\stm32l5xx_hal_usart.c:0:3
	movs	r1, #64
	.loc	7 815 5 is_stmt 1               @ c:/Keil_v5\ARM\PACK\Keil\STM32L5xx_DFP\1.3.0\Drivers\STM32L5xx_HAL_Driver\Src\stm32l5xx_hal_usart.c:815:5
	str	r1, [r0, #32]
	movs	r1, #8
	.loc	7 818 5                         @ c:/Keil_v5\ARM\PACK\Keil\STM32L5xx_DFP\1.3.0\Drivers\STM32L5xx_HAL_Driver\Src\stm32l5xx_hal_usart.c:818:5
	str	r1, [r0, #32]
	.loc	7 819 5                         @ c:/Keil_v5\ARM\PACK\Keil\STM32L5xx_DFP\1.3.0\Drivers\STM32L5xx_HAL_Driver\Src\stm32l5xx_hal_usart.c:819:5
	ldr	r1, [r0, #24]
	orr	r1, r1, #8
	str	r1, [r0, #24]
	.loc	7 820 5                         @ c:/Keil_v5\ARM\PACK\Keil\STM32L5xx_DFP\1.3.0\Drivers\STM32L5xx_HAL_Driver\Src\stm32l5xx_hal_usart.c:820:5
	ldr	r1, [r0, #24]
	orr	r1, r1, #16
	str	r1, [r0, #24]
	movs	r0, #1
	.loc	7 823 19                        @ c:/Keil_v5\ARM\PACK\Keil\STM32L5xx_DFP\1.3.0\Drivers\STM32L5xx_HAL_Driver\Src\stm32l5xx_hal_usart.c:823:19
	strb.w	r0, [r4, #89]
	movs	r0, #0
.Ltmp168:
	.loc	7 826 5                         @ c:/Keil_v5\ARM\PACK\Keil\STM32L5xx_DFP\1.3.0\Drivers\STM32L5xx_HAL_Driver\Src\stm32l5xx_hal_usart.c:826:5
	strb.w	r0, [r4, #88]
.Ltmp169:
	.loc	7 834 1                         @ c:/Keil_v5\ARM\PACK\Keil\STM32L5xx_DFP\1.3.0\Drivers\STM32L5xx_HAL_Driver\Src\stm32l5xx_hal_usart.c:834:1
	pop.w	{r4, r5, r6, r7, r8, pc}
.Ltmp170:
	.p2align	2
.LBB4_40:
	@DEBUG_VALUE: HAL_USART_Transmit:ptxdata16bits <- $r8
	@DEBUG_VALUE: HAL_USART_Transmit:ptxdata8bits <- $r7
	@DEBUG_VALUE: HAL_USART_Transmit:tickstart <- $r6
	@DEBUG_VALUE: HAL_USART_Transmit:Timeout <- $r5
	@DEBUG_VALUE: HAL_USART_Transmit:husart <- $r4
	.loc	7 0 0 is_stmt 0                 @ c:/Keil_v5\ARM\PACK\Keil\STM32L5xx_DFP\1.3.0\Drivers\STM32L5xx_HAL_Driver\Src\stm32l5xx_hal_usart.c:0:0
	bl	HAL_GetTick
.Ltmp171:
.LBB4_41:
	@DEBUG_VALUE: HAL_USART_Transmit:ptxdata16bits <- $r8
	@DEBUG_VALUE: HAL_USART_Transmit:ptxdata8bits <- $r7
	@DEBUG_VALUE: HAL_USART_Transmit:tickstart <- $r6
	@DEBUG_VALUE: HAL_USART_Transmit:Timeout <- $r5
	@DEBUG_VALUE: HAL_USART_Transmit:husart <- $r4
	movs	r0, #1
	strb.w	r0, [r4, #89]
	movs	r0, #0
	strb.w	r0, [r4, #88]
	movs	r0, #3
.Ltmp172:
	.loc	7 834 1                         @ c:/Keil_v5\ARM\PACK\Keil\STM32L5xx_DFP\1.3.0\Drivers\STM32L5xx_HAL_Driver\Src\stm32l5xx_hal_usart.c:834:1
	pop.w	{r4, r5, r6, r7, r8, pc}
.Ltmp173:
.Lfunc_end4:
	.size	HAL_USART_Transmit, .Lfunc_end4-HAL_USART_Transmit
	.cfi_endproc
	.cantunwind
	.fnend
                                        @ -- End function
	.section	.text.HAL_USART_Receive,"ax",%progbits
	.hidden	HAL_USART_Receive               @ -- Begin function HAL_USART_Receive
	.globl	HAL_USART_Receive
	.p2align	2
	.type	HAL_USART_Receive,%function
	.code	16                              @ @HAL_USART_Receive
	.thumb_func
HAL_USART_Receive:
.Lfunc_begin5:
	.loc	7 849 0 is_stmt 1               @ c:/Keil_v5\ARM\PACK\Keil\STM32L5xx_DFP\1.3.0\Drivers\STM32L5xx_HAL_Driver\Src\stm32l5xx_hal_usart.c:849:0
	.fnstart
	.cfi_startproc
@ %bb.0:
	@DEBUG_VALUE: HAL_USART_Receive:husart <- $r0
	@DEBUG_VALUE: HAL_USART_Receive:pRxData <- $r1
	@DEBUG_VALUE: HAL_USART_Receive:Size <- $r2
	@DEBUG_VALUE: HAL_USART_Receive:Timeout <- $r3
	.save	{r4, r5, r6, r7, r8, r9, r10, lr}
	push.w	{r4, r5, r6, r7, r8, r9, r10, lr}
	.cfi_def_cfa_offset 32
	.cfi_offset lr, -4
	.cfi_offset r10, -8
	.cfi_offset r9, -12
	.cfi_offset r8, -16
	.cfi_offset r7, -20
	.cfi_offset r6, -24
	.cfi_offset r5, -28
	.cfi_offset r4, -32
	mov	r4, r0
	@DEBUG_VALUE: HAL_USART_Receive:Timeout <- $r3
.Ltmp174:
	@DEBUG_VALUE: HAL_USART_Receive:Size <- undef
	@DEBUG_VALUE: HAL_USART_Receive:husart <- $r4
	.loc	7 855 15 prologue_end           @ c:/Keil_v5\ARM\PACK\Keil\STM32L5xx_DFP\1.3.0\Drivers\STM32L5xx_HAL_Driver\Src\stm32l5xx_hal_usart.c:855:15
	ldrb.w	r0, [r0, #89]
.Ltmp175:
	@DEBUG_VALUE: HAL_USART_Receive:Size <- $r2
	.loc	7 855 7 is_stmt 0               @ c:/Keil_v5\ARM\PACK\Keil\STM32L5xx_DFP\1.3.0\Drivers\STM32L5xx_HAL_Driver\Src\stm32l5xx_hal_usart.c:855:7
	cmp	r0, #1
	@DEBUG_VALUE: HAL_USART_Receive:pRxData <- $r1
	bne	.LBB5_4
.Ltmp176:
@ %bb.1:
	@DEBUG_VALUE: HAL_USART_Receive:husart <- $r4
	@DEBUG_VALUE: HAL_USART_Receive:Timeout <- $r3
	@DEBUG_VALUE: HAL_USART_Receive:Size <- $r2
	@DEBUG_VALUE: HAL_USART_Receive:pRxData <- $r1
	@DEBUG_VALUE: HAL_USART_Receive:Timeout <- $r3
	@DEBUG_VALUE: HAL_USART_Receive:Size <- $r2
	.loc	7 0 7                           @ c:/Keil_v5\ARM\PACK\Keil\STM32L5xx_DFP\1.3.0\Drivers\STM32L5xx_HAL_Driver\Src\stm32l5xx_hal_usart.c:0:7
	mov	r5, r1
.Ltmp177:
	@DEBUG_VALUE: HAL_USART_Receive:pRxData <- $r5
	@DEBUG_VALUE: HAL_USART_Receive:Size <- $r2
	.loc	7 857 27 is_stmt 1              @ c:/Keil_v5\ARM\PACK\Keil\STM32L5xx_DFP\1.3.0\Drivers\STM32L5xx_HAL_Driver\Src\stm32l5xx_hal_usart.c:857:27
	cmp	r1, #0
	mov.w	r0, #1
	@DEBUG_VALUE: HAL_USART_Receive:Timeout <- $r3
	itt	ne
	movne	r7, r2
.Ltmp178:
	@DEBUG_VALUE: HAL_USART_Receive:Size <- $r7
	@DEBUG_VALUE: HAL_USART_Receive:Size <- $r7
	@DEBUG_VALUE: HAL_USART_Receive:Size <- $r7
	cmpne	r2, #0
	bne	.LBB5_3
.Ltmp179:
@ %bb.2:
	@DEBUG_VALUE: HAL_USART_Receive:Size <- $r7
	@DEBUG_VALUE: HAL_USART_Receive:pRxData <- $r5
	@DEBUG_VALUE: HAL_USART_Receive:husart <- $r4
	@DEBUG_VALUE: HAL_USART_Receive:Timeout <- $r3
	.loc	7 946 1                         @ c:/Keil_v5\ARM\PACK\Keil\STM32L5xx_DFP\1.3.0\Drivers\STM32L5xx_HAL_Driver\Src\stm32l5xx_hal_usart.c:946:1
	pop.w	{r4, r5, r6, r7, r8, r9, r10, pc}
.Ltmp180:
	.p2align	2
.LBB5_3:
	@DEBUG_VALUE: HAL_USART_Receive:Size <- $r7
	@DEBUG_VALUE: HAL_USART_Receive:pRxData <- $r5
	@DEBUG_VALUE: HAL_USART_Receive:husart <- $r4
	@DEBUG_VALUE: HAL_USART_Receive:Timeout <- $r3
	@DEBUG_VALUE: HAL_USART_Receive:Timeout <- $r3
	@DEBUG_VALUE: HAL_USART_Receive:Size <- $r7
	.loc	7 863 5                         @ c:/Keil_v5\ARM\PACK\Keil\STM32L5xx_DFP\1.3.0\Drivers\STM32L5xx_HAL_Driver\Src\stm32l5xx_hal_usart.c:863:5
	ldrb.w	r0, [r4, #88]
.Ltmp181:
	.loc	7 863 5 is_stmt 0               @ c:/Keil_v5\ARM\PACK\Keil\STM32L5xx_DFP\1.3.0\Drivers\STM32L5xx_HAL_Driver\Src\stm32l5xx_hal_usart.c:863:5
	cmp	r0, #1
	bne	.LBB5_5
.Ltmp182:
.LBB5_4:
	@DEBUG_VALUE: HAL_USART_Receive:husart <- $r4
	@DEBUG_VALUE: HAL_USART_Receive:Timeout <- $r3
	.loc	7 0 5                           @ c:/Keil_v5\ARM\PACK\Keil\STM32L5xx_DFP\1.3.0\Drivers\STM32L5xx_HAL_Driver\Src\stm32l5xx_hal_usart.c:0:5
	movs	r0, #2
	.loc	7 946 1 is_stmt 1               @ c:/Keil_v5\ARM\PACK\Keil\STM32L5xx_DFP\1.3.0\Drivers\STM32L5xx_HAL_Driver\Src\stm32l5xx_hal_usart.c:946:1
	pop.w	{r4, r5, r6, r7, r8, r9, r10, pc}
.Ltmp183:
	.p2align	2
.LBB5_5:
	@DEBUG_VALUE: HAL_USART_Receive:Size <- $r7
	@DEBUG_VALUE: HAL_USART_Receive:pRxData <- $r5
	@DEBUG_VALUE: HAL_USART_Receive:husart <- $r4
	@DEBUG_VALUE: HAL_USART_Receive:Timeout <- $r3
	.loc	7 0 1 is_stmt 0                 @ c:/Keil_v5\ARM\PACK\Keil\STM32L5xx_DFP\1.3.0\Drivers\STM32L5xx_HAL_Driver\Src\stm32l5xx_hal_usart.c:0:1
	movs	r0, #1
.Ltmp184:
	.loc	7 863 5 is_stmt 1               @ c:/Keil_v5\ARM\PACK\Keil\STM32L5xx_DFP\1.3.0\Drivers\STM32L5xx_HAL_Driver\Src\stm32l5xx_hal_usart.c:863:5
	strb.w	r0, [r4, #88]
	movs	r0, #0
.Ltmp185:
	.loc	7 865 23                        @ c:/Keil_v5\ARM\PACK\Keil\STM32L5xx_DFP\1.3.0\Drivers\STM32L5xx_HAL_Driver\Src\stm32l5xx_hal_usart.c:865:23
	str	r0, [r4, #92]
	movs	r0, #34
	mov	r6, r3
.Ltmp186:
	@DEBUG_VALUE: HAL_USART_Receive:Timeout <- $r6
	@DEBUG_VALUE: HAL_USART_Receive:Timeout <- $r6
	@DEBUG_VALUE: HAL_USART_Receive:Size <- $r7
	.loc	7 866 19                        @ c:/Keil_v5\ARM\PACK\Keil\STM32L5xx_DFP\1.3.0\Drivers\STM32L5xx_HAL_Driver\Src\stm32l5xx_hal_usart.c:866:19
	strb.w	r0, [r4, #89]
	.loc	7 869 17                        @ c:/Keil_v5\ARM\PACK\Keil\STM32L5xx_DFP\1.3.0\Drivers\STM32L5xx_HAL_Driver\Src\stm32l5xx_hal_usart.c:869:17
	bl	HAL_GetTick
	.loc	7 871 24                        @ c:/Keil_v5\ARM\PACK\Keil\STM32L5xx_DFP\1.3.0\Drivers\STM32L5xx_HAL_Driver\Src\stm32l5xx_hal_usart.c:871:24
	strh	r7, [r4, #52]
	.loc	7 872 25                        @ c:/Keil_v5\ARM\PACK\Keil\STM32L5xx_DFP\1.3.0\Drivers\STM32L5xx_HAL_Driver\Src\stm32l5xx_hal_usart.c:872:25
	strh	r7, [r4, #54]
.Ltmp187:
	.loc	7 875 5                         @ c:/Keil_v5\ARM\PACK\Keil\STM32L5xx_DFP\1.3.0\Drivers\STM32L5xx_HAL_Driver\Src\stm32l5xx_hal_usart.c:875:5
	ldr	r1, [r4, #8]
.Ltmp188:
	.loc	7 869 17                        @ c:/Keil_v5\ARM\PACK\Keil\STM32L5xx_DFP\1.3.0\Drivers\STM32L5xx_HAL_Driver\Src\stm32l5xx_hal_usart.c:869:17
	mov	r7, r0
.Ltmp189:
	@DEBUG_VALUE: HAL_USART_Receive:tickstart <- $r7
	.loc	7 875 5                         @ c:/Keil_v5\ARM\PACK\Keil\STM32L5xx_DFP\1.3.0\Drivers\STM32L5xx_HAL_Driver\Src\stm32l5xx_hal_usart.c:875:5
	cbz	r1, .LBB5_9
.Ltmp190:
@ %bb.6:
	@DEBUG_VALUE: HAL_USART_Receive:tickstart <- $r7
	@DEBUG_VALUE: HAL_USART_Receive:Timeout <- $r6
	@DEBUG_VALUE: HAL_USART_Receive:pRxData <- $r5
	@DEBUG_VALUE: HAL_USART_Receive:husart <- $r4
	cmp.w	r1, #268435456
	beq	.LBB5_11
.Ltmp191:
@ %bb.7:
	@DEBUG_VALUE: HAL_USART_Receive:tickstart <- $r7
	@DEBUG_VALUE: HAL_USART_Receive:Timeout <- $r6
	@DEBUG_VALUE: HAL_USART_Receive:pRxData <- $r5
	@DEBUG_VALUE: HAL_USART_Receive:husart <- $r4
	cmp.w	r1, #4096
	bne	.LBB5_13
.Ltmp192:
@ %bb.8:
	@DEBUG_VALUE: HAL_USART_Receive:tickstart <- $r7
	@DEBUG_VALUE: HAL_USART_Receive:Timeout <- $r6
	@DEBUG_VALUE: HAL_USART_Receive:pRxData <- $r5
	@DEBUG_VALUE: HAL_USART_Receive:husart <- $r4
	.loc	7 875 5 is_stmt 0               @ c:/Keil_v5\ARM\PACK\Keil\STM32L5xx_DFP\1.3.0\Drivers\STM32L5xx_HAL_Driver\Src\stm32l5xx_hal_usart.c:875:5
	ldr	r0, [r4, #16]
	mov.w	r8, #255
.Ltmp193:
	.loc	7 875 5                         @ c:/Keil_v5\ARM\PACK\Keil\STM32L5xx_DFP\1.3.0\Drivers\STM32L5xx_HAL_Driver\Src\stm32l5xx_hal_usart.c:875:5
	cmp	r0, #0
	mov	r1, r0
	it	ne
	movne	r1, r5
	it	eq
	movweq	r8, #511
.Ltmp194:
	.loc	7 875 5                         @ c:/Keil_v5\ARM\PACK\Keil\STM32L5xx_DFP\1.3.0\Drivers\STM32L5xx_HAL_Driver\Src\stm32l5xx_hal_usart.c:875:5
	strh.w	r8, [r4, #56]
.Ltmp195:
	@DEBUG_VALUE: HAL_USART_Receive:uhMask <- undef
	.loc	7 879 9 is_stmt 1               @ c:/Keil_v5\ARM\PACK\Keil\STM32L5xx_DFP\1.3.0\Drivers\STM32L5xx_HAL_Driver\Src\stm32l5xx_hal_usart.c:879:9
	cmp	r0, #0
	it	ne
	movne	r5, #0
.Ltmp196:
	@DEBUG_VALUE: HAL_USART_Receive:pRxData <- [DW_OP_LLVM_entry_value 1] $r1
	.loc	7 0 0 is_stmt 0                 @ c:/Keil_v5\ARM\PACK\Keil\STM32L5xx_DFP\1.3.0\Drivers\STM32L5xx_HAL_Driver\Src\stm32l5xx_hal_usart.c:0:0
	mov	r9, r5
	mov	r5, r1
	b	.LBB5_16
.Ltmp197:
	.p2align	2
.LBB5_9:
	@DEBUG_VALUE: HAL_USART_Receive:tickstart <- $r7
	@DEBUG_VALUE: HAL_USART_Receive:Timeout <- $r6
	@DEBUG_VALUE: HAL_USART_Receive:pRxData <- $r5
	@DEBUG_VALUE: HAL_USART_Receive:husart <- $r4
	.loc	7 875 5 is_stmt 1               @ c:/Keil_v5\ARM\PACK\Keil\STM32L5xx_DFP\1.3.0\Drivers\STM32L5xx_HAL_Driver\Src\stm32l5xx_hal_usart.c:875:5
	ldr	r0, [r4, #16]
.Ltmp198:
	.loc	7 875 5 is_stmt 0               @ c:/Keil_v5\ARM\PACK\Keil\STM32L5xx_DFP\1.3.0\Drivers\STM32L5xx_HAL_Driver\Src\stm32l5xx_hal_usart.c:875:5
	cbnz	r0, .LBB5_14
.Ltmp199:
@ %bb.10:
	@DEBUG_VALUE: HAL_USART_Receive:tickstart <- $r7
	@DEBUG_VALUE: HAL_USART_Receive:Timeout <- $r6
	@DEBUG_VALUE: HAL_USART_Receive:pRxData <- $r5
	@DEBUG_VALUE: HAL_USART_Receive:husart <- $r4
	.loc	7 0 5                           @ c:/Keil_v5\ARM\PACK\Keil\STM32L5xx_DFP\1.3.0\Drivers\STM32L5xx_HAL_Driver\Src\stm32l5xx_hal_usart.c:0:5
	mov.w	r8, #255
	b	.LBB5_15
.Ltmp200:
	.p2align	2
.LBB5_11:
	@DEBUG_VALUE: HAL_USART_Receive:tickstart <- $r7
	@DEBUG_VALUE: HAL_USART_Receive:Timeout <- $r6
	@DEBUG_VALUE: HAL_USART_Receive:pRxData <- $r5
	@DEBUG_VALUE: HAL_USART_Receive:husart <- $r4
	.loc	7 875 5                         @ c:/Keil_v5\ARM\PACK\Keil\STM32L5xx_DFP\1.3.0\Drivers\STM32L5xx_HAL_Driver\Src\stm32l5xx_hal_usart.c:875:5
	ldr	r0, [r4, #16]
.Ltmp201:
	.loc	7 875 5                         @ c:/Keil_v5\ARM\PACK\Keil\STM32L5xx_DFP\1.3.0\Drivers\STM32L5xx_HAL_Driver\Src\stm32l5xx_hal_usart.c:875:5
	cbz	r0, .LBB5_14
.Ltmp202:
@ %bb.12:
	@DEBUG_VALUE: HAL_USART_Receive:tickstart <- $r7
	@DEBUG_VALUE: HAL_USART_Receive:Timeout <- $r6
	@DEBUG_VALUE: HAL_USART_Receive:pRxData <- $r5
	@DEBUG_VALUE: HAL_USART_Receive:husart <- $r4
	.loc	7 0 5                           @ c:/Keil_v5\ARM\PACK\Keil\STM32L5xx_DFP\1.3.0\Drivers\STM32L5xx_HAL_Driver\Src\stm32l5xx_hal_usart.c:0:5
	mov.w	r8, #63
	b	.LBB5_15
.Ltmp203:
	.p2align	2
.LBB5_13:
	@DEBUG_VALUE: HAL_USART_Receive:tickstart <- $r7
	@DEBUG_VALUE: HAL_USART_Receive:Timeout <- $r6
	@DEBUG_VALUE: HAL_USART_Receive:pRxData <- $r5
	@DEBUG_VALUE: HAL_USART_Receive:husart <- $r4
	mov.w	r8, #0
	b	.LBB5_15
.Ltmp204:
	.p2align	2
.LBB5_14:
	@DEBUG_VALUE: HAL_USART_Receive:tickstart <- $r7
	@DEBUG_VALUE: HAL_USART_Receive:Timeout <- $r6
	@DEBUG_VALUE: HAL_USART_Receive:pRxData <- $r5
	@DEBUG_VALUE: HAL_USART_Receive:husart <- $r4
	mov.w	r8, #127
.Ltmp205:
.LBB5_15:
	@DEBUG_VALUE: HAL_USART_Receive:tickstart <- $r7
	@DEBUG_VALUE: HAL_USART_Receive:Timeout <- $r6
	@DEBUG_VALUE: HAL_USART_Receive:pRxData <- $r5
	@DEBUG_VALUE: HAL_USART_Receive:husart <- $r4
	mov.w	r9, #0
	strh.w	r8, [r4, #56]
.Ltmp206:
	@DEBUG_VALUE: HAL_USART_Receive:uhMask <- undef
.LBB5_16:
	@DEBUG_VALUE: HAL_USART_Receive:tickstart <- $r7
	@DEBUG_VALUE: HAL_USART_Receive:Timeout <- $r6
	@DEBUG_VALUE: HAL_USART_Receive:husart <- $r4
	@DEBUG_VALUE: HAL_USART_Receive:prxdata8bits <- $r5
	@DEBUG_VALUE: HAL_USART_Receive:prxdata16bits <- $r9
	.loc	7 891 20 is_stmt 1              @ c:/Keil_v5\ARM\PACK\Keil\STM32L5xx_DFP\1.3.0\Drivers\STM32L5xx_HAL_Driver\Src\stm32l5xx_hal_usart.c:891:20
	ldrh	r0, [r4, #54]
	.loc	7 891 5 is_stmt 0               @ c:/Keil_v5\ARM\PACK\Keil\STM32L5xx_DFP\1.3.0\Drivers\STM32L5xx_HAL_Driver\Src\stm32l5xx_hal_usart.c:891:5
	cmp	r0, #0
	beq	.LBB5_33
.Ltmp207:
@ %bb.17:
	@DEBUG_VALUE: HAL_USART_Receive:prxdata16bits <- $r9
	@DEBUG_VALUE: HAL_USART_Receive:tickstart <- $r7
	@DEBUG_VALUE: HAL_USART_Receive:Timeout <- $r6
	@DEBUG_VALUE: HAL_USART_Receive:prxdata8bits <- $r5
	@DEBUG_VALUE: HAL_USART_Receive:husart <- $r4
	adds	r0, r6, #1
	beq	.LBB5_36
.Ltmp208:
@ %bb.18:
	@DEBUG_VALUE: HAL_USART_Receive:prxdata16bits <- $r9
	@DEBUG_VALUE: HAL_USART_Receive:tickstart <- $r7
	@DEBUG_VALUE: HAL_USART_Receive:Timeout <- $r6
	@DEBUG_VALUE: HAL_USART_Receive:prxdata8bits <- $r5
	@DEBUG_VALUE: HAL_USART_Receive:husart <- $r4
	.loc	7 0 5                           @ c:/Keil_v5\ARM\PACK\Keil\STM32L5xx_DFP\1.3.0\Drivers\STM32L5xx_HAL_Driver\Src\stm32l5xx_hal_usart.c:0:5
	mov.w	r10, #255
.Ltmp209:
.LBB5_19:                               @ =>This Loop Header: Depth=1
                                        @     Child Loop BB5_23 Depth 2
                                        @     Child Loop BB5_27 Depth 2
	@DEBUG_VALUE: HAL_USART_Receive:prxdata16bits <- $r9
	@DEBUG_VALUE: HAL_USART_Receive:tickstart <- $r7
	@DEBUG_VALUE: HAL_USART_Receive:Timeout <- $r6
	@DEBUG_VALUE: HAL_USART_Receive:prxdata8bits <- $r5
	@DEBUG_VALUE: HAL_USART_Receive:husart <- $r4
	@DEBUG_VALUE: HAL_USART_Receive:prxdata8bits <- $r5
	@DEBUG_VALUE: HAL_USART_Receive:prxdata16bits <- $r9
	.loc	7 893 19 is_stmt 1              @ c:/Keil_v5\ARM\PACK\Keil\STM32L5xx_DFP\1.3.0\Drivers\STM32L5xx_HAL_Driver\Src\stm32l5xx_hal_usart.c:893:19
	ldr	r1, [r4, #64]
.Ltmp210:
	.loc	7 0 0 is_stmt 0                 @ c:/Keil_v5\ARM\PACK\Keil\STM32L5xx_DFP\1.3.0\Drivers\STM32L5xx_HAL_Driver\Src\stm32l5xx_hal_usart.c:0:0
	ldr	r0, [r4]
	.loc	7 893 11                        @ c:/Keil_v5\ARM\PACK\Keil\STM32L5xx_DFP\1.3.0\Drivers\STM32L5xx_HAL_Driver\Src\stm32l5xx_hal_usart.c:893:11
	cbz	r1, .LBB5_21
.Ltmp211:
@ %bb.20:                               @   in Loop: Header=BB5_19 Depth=1
	@DEBUG_VALUE: HAL_USART_Receive:prxdata16bits <- $r9
	@DEBUG_VALUE: HAL_USART_Receive:tickstart <- $r7
	@DEBUG_VALUE: HAL_USART_Receive:Timeout <- $r6
	@DEBUG_VALUE: HAL_USART_Receive:prxdata8bits <- $r5
	@DEBUG_VALUE: HAL_USART_Receive:husart <- $r4
	@DEBUG_VALUE: USART_WaitOnFlagUntilTimeout:husart <- $r4
	@DEBUG_VALUE: USART_WaitOnFlagUntilTimeout:Flag <- 32
	@DEBUG_VALUE: USART_WaitOnFlagUntilTimeout:Status <- 0
	@DEBUG_VALUE: USART_WaitOnFlagUntilTimeout:Tickstart <- $r7
	@DEBUG_VALUE: USART_WaitOnFlagUntilTimeout:Timeout <- $r6
	.loc	7 2825 11 is_stmt 1             @ c:/Keil_v5\ARM\PACK\Keil\STM32L5xx_DFP\1.3.0\Drivers\STM32L5xx_HAL_Driver\Src\stm32l5xx_hal_usart.c:2825:11
	ldr	r1, [r0, #28]
	.loc	7 2825 3 is_stmt 0              @ c:/Keil_v5\ARM\PACK\Keil\STM32L5xx_DFP\1.3.0\Drivers\STM32L5xx_HAL_Driver\Src\stm32l5xx_hal_usart.c:2825:3
	lsls	r1, r1, #26
	bpl	.LBB5_26
	b	.LBB5_29
.Ltmp212:
	.p2align	2
.LBB5_21:                               @   in Loop: Header=BB5_19 Depth=1
	@DEBUG_VALUE: HAL_USART_Receive:prxdata16bits <- $r9
	@DEBUG_VALUE: HAL_USART_Receive:tickstart <- $r7
	@DEBUG_VALUE: HAL_USART_Receive:Timeout <- $r6
	@DEBUG_VALUE: HAL_USART_Receive:prxdata8bits <- $r5
	@DEBUG_VALUE: HAL_USART_Receive:husart <- $r4
	@DEBUG_VALUE: USART_WaitOnFlagUntilTimeout:husart <- $r4
	@DEBUG_VALUE: USART_WaitOnFlagUntilTimeout:Flag <- 128
	@DEBUG_VALUE: USART_WaitOnFlagUntilTimeout:Status <- 0
	@DEBUG_VALUE: USART_WaitOnFlagUntilTimeout:Tickstart <- $r7
	@DEBUG_VALUE: USART_WaitOnFlagUntilTimeout:Timeout <- $r6
	.loc	7 2825 11                       @ c:/Keil_v5\ARM\PACK\Keil\STM32L5xx_DFP\1.3.0\Drivers\STM32L5xx_HAL_Driver\Src\stm32l5xx_hal_usart.c:2825:11
	ldr	r1, [r0, #28]
	.loc	7 2825 3                        @ c:/Keil_v5\ARM\PACK\Keil\STM32L5xx_DFP\1.3.0\Drivers\STM32L5xx_HAL_Driver\Src\stm32l5xx_hal_usart.c:2825:3
	lsls	r1, r1, #24
	bmi	.LBB5_25
.Ltmp213:
@ %bb.22:                               @   in Loop: Header=BB5_19 Depth=1
	@DEBUG_VALUE: HAL_USART_Receive:prxdata16bits <- $r9
	@DEBUG_VALUE: USART_WaitOnFlagUntilTimeout:Tickstart <- $r7
	@DEBUG_VALUE: HAL_USART_Receive:tickstart <- $r7
	@DEBUG_VALUE: USART_WaitOnFlagUntilTimeout:Timeout <- $r6
	@DEBUG_VALUE: HAL_USART_Receive:Timeout <- $r6
	@DEBUG_VALUE: HAL_USART_Receive:prxdata8bits <- $r5
	@DEBUG_VALUE: USART_WaitOnFlagUntilTimeout:husart <- $r4
	@DEBUG_VALUE: HAL_USART_Receive:husart <- $r4
	@DEBUG_VALUE: USART_WaitOnFlagUntilTimeout:Status <- 0
	@DEBUG_VALUE: USART_WaitOnFlagUntilTimeout:Flag <- 128
	cmp	r6, #0
	beq	.LBB5_48
.Ltmp214:
	.p2align	2
.LBB5_23:                               @   Parent Loop BB5_19 Depth=1
                                        @ =>  This Inner Loop Header: Depth=2
	@DEBUG_VALUE: HAL_USART_Receive:prxdata16bits <- $r9
	@DEBUG_VALUE: USART_WaitOnFlagUntilTimeout:Tickstart <- $r7
	@DEBUG_VALUE: HAL_USART_Receive:tickstart <- $r7
	@DEBUG_VALUE: USART_WaitOnFlagUntilTimeout:Timeout <- $r6
	@DEBUG_VALUE: HAL_USART_Receive:Timeout <- $r6
	@DEBUG_VALUE: HAL_USART_Receive:prxdata8bits <- $r5
	@DEBUG_VALUE: USART_WaitOnFlagUntilTimeout:husart <- $r4
	@DEBUG_VALUE: HAL_USART_Receive:husart <- $r4
	@DEBUG_VALUE: USART_WaitOnFlagUntilTimeout:Status <- 0
	@DEBUG_VALUE: USART_WaitOnFlagUntilTimeout:Flag <- 128
	.loc	7 2830 13 is_stmt 1             @ c:/Keil_v5\ARM\PACK\Keil\STM32L5xx_DFP\1.3.0\Drivers\STM32L5xx_HAL_Driver\Src\stm32l5xx_hal_usart.c:2830:13
	bl	HAL_GetTick
	.loc	7 2830 27 is_stmt 0             @ c:/Keil_v5\ARM\PACK\Keil\STM32L5xx_DFP\1.3.0\Drivers\STM32L5xx_HAL_Driver\Src\stm32l5xx_hal_usart.c:2830:27
	subs	r0, r0, r7
	.loc	7 2830 51                       @ c:/Keil_v5\ARM\PACK\Keil\STM32L5xx_DFP\1.3.0\Drivers\STM32L5xx_HAL_Driver\Src\stm32l5xx_hal_usart.c:2830:51
	cmp	r0, r6
	bhi	.LBB5_49
.Ltmp215:
@ %bb.24:                               @   in Loop: Header=BB5_23 Depth=2
	@DEBUG_VALUE: HAL_USART_Receive:prxdata16bits <- $r9
	@DEBUG_VALUE: USART_WaitOnFlagUntilTimeout:Tickstart <- $r7
	@DEBUG_VALUE: HAL_USART_Receive:tickstart <- $r7
	@DEBUG_VALUE: USART_WaitOnFlagUntilTimeout:Timeout <- $r6
	@DEBUG_VALUE: HAL_USART_Receive:Timeout <- $r6
	@DEBUG_VALUE: HAL_USART_Receive:prxdata8bits <- $r5
	@DEBUG_VALUE: USART_WaitOnFlagUntilTimeout:husart <- $r4
	@DEBUG_VALUE: HAL_USART_Receive:husart <- $r4
	@DEBUG_VALUE: USART_WaitOnFlagUntilTimeout:Status <- 0
	@DEBUG_VALUE: USART_WaitOnFlagUntilTimeout:Flag <- 128
	.loc	7 2825 11 is_stmt 1             @ c:/Keil_v5\ARM\PACK\Keil\STM32L5xx_DFP\1.3.0\Drivers\STM32L5xx_HAL_Driver\Src\stm32l5xx_hal_usart.c:2825:11
	ldr	r0, [r4]
	ldr	r1, [r0, #28]
	.loc	7 2825 3 is_stmt 0              @ c:/Keil_v5\ARM\PACK\Keil\STM32L5xx_DFP\1.3.0\Drivers\STM32L5xx_HAL_Driver\Src\stm32l5xx_hal_usart.c:2825:3
	lsls	r1, r1, #24
	bpl	.LBB5_23
.Ltmp216:
.LBB5_25:                               @   in Loop: Header=BB5_19 Depth=1
	@DEBUG_VALUE: HAL_USART_Receive:prxdata16bits <- $r9
	@DEBUG_VALUE: HAL_USART_Receive:tickstart <- $r7
	@DEBUG_VALUE: HAL_USART_Receive:Timeout <- $r6
	@DEBUG_VALUE: HAL_USART_Receive:prxdata8bits <- $r5
	@DEBUG_VALUE: HAL_USART_Receive:husart <- $r4
	.loc	7 903 31 is_stmt 1              @ c:/Keil_v5\ARM\PACK\Keil\STM32L5xx_DFP\1.3.0\Drivers\STM32L5xx_HAL_Driver\Src\stm32l5xx_hal_usart.c:903:31
	str.w	r10, [r0, #40]
.Ltmp217:
	@DEBUG_VALUE: USART_WaitOnFlagUntilTimeout:husart <- $r4
	@DEBUG_VALUE: USART_WaitOnFlagUntilTimeout:Flag <- 32
	@DEBUG_VALUE: USART_WaitOnFlagUntilTimeout:Status <- 0
	@DEBUG_VALUE: USART_WaitOnFlagUntilTimeout:Tickstart <- $r7
	@DEBUG_VALUE: USART_WaitOnFlagUntilTimeout:Timeout <- $r6
	.loc	7 2825 11                       @ c:/Keil_v5\ARM\PACK\Keil\STM32L5xx_DFP\1.3.0\Drivers\STM32L5xx_HAL_Driver\Src\stm32l5xx_hal_usart.c:2825:11
	ldr	r1, [r0, #28]
	.loc	7 2825 3 is_stmt 0              @ c:/Keil_v5\ARM\PACK\Keil\STM32L5xx_DFP\1.3.0\Drivers\STM32L5xx_HAL_Driver\Src\stm32l5xx_hal_usart.c:2825:3
	lsls	r1, r1, #26
	bmi	.LBB5_29
.Ltmp218:
.LBB5_26:                               @   in Loop: Header=BB5_19 Depth=1
	@DEBUG_VALUE: HAL_USART_Receive:prxdata16bits <- $r9
	@DEBUG_VALUE: USART_WaitOnFlagUntilTimeout:Tickstart <- $r7
	@DEBUG_VALUE: HAL_USART_Receive:tickstart <- $r7
	@DEBUG_VALUE: USART_WaitOnFlagUntilTimeout:Timeout <- $r6
	@DEBUG_VALUE: HAL_USART_Receive:Timeout <- $r6
	@DEBUG_VALUE: HAL_USART_Receive:prxdata8bits <- $r5
	@DEBUG_VALUE: USART_WaitOnFlagUntilTimeout:husart <- $r4
	@DEBUG_VALUE: HAL_USART_Receive:husart <- $r4
	@DEBUG_VALUE: USART_WaitOnFlagUntilTimeout:Status <- 0
	@DEBUG_VALUE: USART_WaitOnFlagUntilTimeout:Flag <- 32
	cmp	r6, #0
	beq	.LBB5_47
.Ltmp219:
	.p2align	2
.LBB5_27:                               @   Parent Loop BB5_19 Depth=1
                                        @ =>  This Inner Loop Header: Depth=2
	@DEBUG_VALUE: HAL_USART_Receive:prxdata16bits <- $r9
	@DEBUG_VALUE: USART_WaitOnFlagUntilTimeout:Tickstart <- $r7
	@DEBUG_VALUE: HAL_USART_Receive:tickstart <- $r7
	@DEBUG_VALUE: USART_WaitOnFlagUntilTimeout:Timeout <- $r6
	@DEBUG_VALUE: HAL_USART_Receive:Timeout <- $r6
	@DEBUG_VALUE: HAL_USART_Receive:prxdata8bits <- $r5
	@DEBUG_VALUE: USART_WaitOnFlagUntilTimeout:husart <- $r4
	@DEBUG_VALUE: HAL_USART_Receive:husart <- $r4
	@DEBUG_VALUE: USART_WaitOnFlagUntilTimeout:Status <- 0
	@DEBUG_VALUE: USART_WaitOnFlagUntilTimeout:Flag <- 32
	.loc	7 2830 13 is_stmt 1             @ c:/Keil_v5\ARM\PACK\Keil\STM32L5xx_DFP\1.3.0\Drivers\STM32L5xx_HAL_Driver\Src\stm32l5xx_hal_usart.c:2830:13
	bl	HAL_GetTick
	.loc	7 2830 27 is_stmt 0             @ c:/Keil_v5\ARM\PACK\Keil\STM32L5xx_DFP\1.3.0\Drivers\STM32L5xx_HAL_Driver\Src\stm32l5xx_hal_usart.c:2830:27
	subs	r0, r0, r7
	.loc	7 2830 51                       @ c:/Keil_v5\ARM\PACK\Keil\STM32L5xx_DFP\1.3.0\Drivers\STM32L5xx_HAL_Driver\Src\stm32l5xx_hal_usart.c:2830:51
	cmp	r0, r6
	bhi	.LBB5_49
.Ltmp220:
@ %bb.28:                               @   in Loop: Header=BB5_27 Depth=2
	@DEBUG_VALUE: HAL_USART_Receive:prxdata16bits <- $r9
	@DEBUG_VALUE: USART_WaitOnFlagUntilTimeout:Tickstart <- $r7
	@DEBUG_VALUE: HAL_USART_Receive:tickstart <- $r7
	@DEBUG_VALUE: USART_WaitOnFlagUntilTimeout:Timeout <- $r6
	@DEBUG_VALUE: HAL_USART_Receive:Timeout <- $r6
	@DEBUG_VALUE: HAL_USART_Receive:prxdata8bits <- $r5
	@DEBUG_VALUE: USART_WaitOnFlagUntilTimeout:husart <- $r4
	@DEBUG_VALUE: HAL_USART_Receive:husart <- $r4
	@DEBUG_VALUE: USART_WaitOnFlagUntilTimeout:Status <- 0
	@DEBUG_VALUE: USART_WaitOnFlagUntilTimeout:Flag <- 32
	.loc	7 2825 11 is_stmt 1             @ c:/Keil_v5\ARM\PACK\Keil\STM32L5xx_DFP\1.3.0\Drivers\STM32L5xx_HAL_Driver\Src\stm32l5xx_hal_usart.c:2825:11
	ldr	r0, [r4]
	ldr	r1, [r0, #28]
	.loc	7 2825 3 is_stmt 0              @ c:/Keil_v5\ARM\PACK\Keil\STM32L5xx_DFP\1.3.0\Drivers\STM32L5xx_HAL_Driver\Src\stm32l5xx_hal_usart.c:2825:3
	lsls	r1, r1, #26
	bpl	.LBB5_27
.Ltmp221:
.LBB5_29:                               @   in Loop: Header=BB5_19 Depth=1
	@DEBUG_VALUE: HAL_USART_Receive:prxdata16bits <- $r9
	@DEBUG_VALUE: HAL_USART_Receive:tickstart <- $r7
	@DEBUG_VALUE: HAL_USART_Receive:Timeout <- $r6
	@DEBUG_VALUE: HAL_USART_Receive:prxdata8bits <- $r5
	@DEBUG_VALUE: HAL_USART_Receive:husart <- $r4
	.loc	7 0 0                           @ c:/Keil_v5\ARM\PACK\Keil\STM32L5xx_DFP\1.3.0\Drivers\STM32L5xx_HAL_Driver\Src\stm32l5xx_hal_usart.c:0:0
	ldr	r0, [r0, #36]
.Ltmp222:
	.loc	7 912 11 is_stmt 1              @ c:/Keil_v5\ARM\PACK\Keil\STM32L5xx_DFP\1.3.0\Drivers\STM32L5xx_HAL_Driver\Src\stm32l5xx_hal_usart.c:912:11
	cbz	r5, .LBB5_31
.Ltmp223:
@ %bb.30:                               @   in Loop: Header=BB5_19 Depth=1
	@DEBUG_VALUE: HAL_USART_Receive:prxdata16bits <- $r9
	@DEBUG_VALUE: HAL_USART_Receive:tickstart <- $r7
	@DEBUG_VALUE: HAL_USART_Receive:Timeout <- $r6
	@DEBUG_VALUE: HAL_USART_Receive:prxdata8bits <- $r5
	@DEBUG_VALUE: HAL_USART_Receive:husart <- $r4
	.loc	7 919 57                        @ c:/Keil_v5\ARM\PACK\Keil\STM32L5xx_DFP\1.3.0\Drivers\STM32L5xx_HAL_Driver\Src\stm32l5xx_hal_usart.c:919:57
	and.w	r0, r0, r8
	.loc	7 919 23 is_stmt 0              @ c:/Keil_v5\ARM\PACK\Keil\STM32L5xx_DFP\1.3.0\Drivers\STM32L5xx_HAL_Driver\Src\stm32l5xx_hal_usart.c:919:23
	strb	r0, [r5], #1
.Ltmp224:
	@DEBUG_VALUE: HAL_USART_Receive:prxdata8bits <- $r5
	.loc	7 0 23                          @ c:/Keil_v5\ARM\PACK\Keil\STM32L5xx_DFP\1.3.0\Drivers\STM32L5xx_HAL_Driver\Src\stm32l5xx_hal_usart.c:0:23
	b	.LBB5_32
.Ltmp225:
	.p2align	2
.LBB5_31:                               @   in Loop: Header=BB5_19 Depth=1
	@DEBUG_VALUE: HAL_USART_Receive:prxdata16bits <- $r9
	@DEBUG_VALUE: HAL_USART_Receive:tickstart <- $r7
	@DEBUG_VALUE: HAL_USART_Receive:Timeout <- $r6
	@DEBUG_VALUE: HAL_USART_Receive:prxdata8bits <- $r5
	@DEBUG_VALUE: HAL_USART_Receive:husart <- $r4
	.loc	7 914 26 is_stmt 1              @ c:/Keil_v5\ARM\PACK\Keil\STM32L5xx_DFP\1.3.0\Drivers\STM32L5xx_HAL_Driver\Src\stm32l5xx_hal_usart.c:914:26
	and.w	r0, r0, r8
	.loc	7 914 24 is_stmt 0              @ c:/Keil_v5\ARM\PACK\Keil\STM32L5xx_DFP\1.3.0\Drivers\STM32L5xx_HAL_Driver\Src\stm32l5xx_hal_usart.c:914:24
	strh	r0, [r9], #2
.Ltmp226:
	.loc	7 0 24                          @ c:/Keil_v5\ARM\PACK\Keil\STM32L5xx_DFP\1.3.0\Drivers\STM32L5xx_HAL_Driver\Src\stm32l5xx_hal_usart.c:0:24
	movs	r5, #0
.Ltmp227:
	@DEBUG_VALUE: HAL_USART_Receive:prxdata16bits <- $r9
.LBB5_32:                               @   in Loop: Header=BB5_19 Depth=1
	@DEBUG_VALUE: HAL_USART_Receive:prxdata16bits <- $r9
	@DEBUG_VALUE: HAL_USART_Receive:tickstart <- $r7
	@DEBUG_VALUE: HAL_USART_Receive:Timeout <- $r6
	@DEBUG_VALUE: HAL_USART_Receive:husart <- $r4
	@DEBUG_VALUE: HAL_USART_Receive:prxdata8bits <- $r5
	@DEBUG_VALUE: HAL_USART_Receive:prxdata16bits <- $r9
	.loc	7 923 26 is_stmt 1              @ c:/Keil_v5\ARM\PACK\Keil\STM32L5xx_DFP\1.3.0\Drivers\STM32L5xx_HAL_Driver\Src\stm32l5xx_hal_usart.c:923:26
	ldrh	r0, [r4, #54]
	subs	r0, #1
	strh	r0, [r4, #54]
.Ltmp228:
	.loc	7 891 20                        @ c:/Keil_v5\ARM\PACK\Keil\STM32L5xx_DFP\1.3.0\Drivers\STM32L5xx_HAL_Driver\Src\stm32l5xx_hal_usart.c:891:20
	ldrh	r0, [r4, #54]
	.loc	7 891 5 is_stmt 0               @ c:/Keil_v5\ARM\PACK\Keil\STM32L5xx_DFP\1.3.0\Drivers\STM32L5xx_HAL_Driver\Src\stm32l5xx_hal_usart.c:891:5
	cmp	r0, #0
	bne	.LBB5_19
.Ltmp229:
.LBB5_33:
	@DEBUG_VALUE: HAL_USART_Receive:prxdata16bits <- $r9
	@DEBUG_VALUE: HAL_USART_Receive:tickstart <- $r7
	@DEBUG_VALUE: HAL_USART_Receive:Timeout <- $r6
	@DEBUG_VALUE: HAL_USART_Receive:prxdata8bits <- $r5
	@DEBUG_VALUE: HAL_USART_Receive:husart <- $r4
	.loc	7 928 17 is_stmt 1              @ c:/Keil_v5\ARM\PACK\Keil\STM32L5xx_DFP\1.3.0\Drivers\STM32L5xx_HAL_Driver\Src\stm32l5xx_hal_usart.c:928:17
	ldr	r0, [r4, #64]
.Ltmp230:
	.loc	7 928 9 is_stmt 0               @ c:/Keil_v5\ARM\PACK\Keil\STM32L5xx_DFP\1.3.0\Drivers\STM32L5xx_HAL_Driver\Src\stm32l5xx_hal_usart.c:928:9
	cmp	r0, #1
	bne	.LBB5_35
.Ltmp231:
@ %bb.34:
	@DEBUG_VALUE: HAL_USART_Receive:prxdata16bits <- $r9
	@DEBUG_VALUE: HAL_USART_Receive:tickstart <- $r7
	@DEBUG_VALUE: HAL_USART_Receive:Timeout <- $r6
	@DEBUG_VALUE: HAL_USART_Receive:prxdata8bits <- $r5
	@DEBUG_VALUE: HAL_USART_Receive:husart <- $r4
	.loc	7 930 7 is_stmt 1               @ c:/Keil_v5\ARM\PACK\Keil\STM32L5xx_DFP\1.3.0\Drivers\STM32L5xx_HAL_Driver\Src\stm32l5xx_hal_usart.c:930:7
	ldr	r0, [r4]
	mov.w	r1, #8192
	str	r1, [r0, #32]
	.loc	7 931 7                         @ c:/Keil_v5\ARM\PACK\Keil\STM32L5xx_DFP\1.3.0\Drivers\STM32L5xx_HAL_Driver\Src\stm32l5xx_hal_usart.c:931:7
	ldr	r1, [r0, #24]
	orr	r1, r1, #16
	str	r1, [r0, #24]
.Ltmp232:
.LBB5_35:
	@DEBUG_VALUE: HAL_USART_Receive:prxdata16bits <- $r9
	@DEBUG_VALUE: HAL_USART_Receive:tickstart <- $r7
	@DEBUG_VALUE: HAL_USART_Receive:Timeout <- $r6
	@DEBUG_VALUE: HAL_USART_Receive:prxdata8bits <- $r5
	@DEBUG_VALUE: HAL_USART_Receive:husart <- $r4
	.loc	7 0 7 is_stmt 0                 @ c:/Keil_v5\ARM\PACK\Keil\STM32L5xx_DFP\1.3.0\Drivers\STM32L5xx_HAL_Driver\Src\stm32l5xx_hal_usart.c:0:7
	movs	r0, #1
	.loc	7 935 19 is_stmt 1              @ c:/Keil_v5\ARM\PACK\Keil\STM32L5xx_DFP\1.3.0\Drivers\STM32L5xx_HAL_Driver\Src\stm32l5xx_hal_usart.c:935:19
	strb.w	r0, [r4, #89]
	movs	r0, #0
.Ltmp233:
	.loc	7 938 5                         @ c:/Keil_v5\ARM\PACK\Keil\STM32L5xx_DFP\1.3.0\Drivers\STM32L5xx_HAL_Driver\Src\stm32l5xx_hal_usart.c:938:5
	strb.w	r0, [r4, #88]
.Ltmp234:
	.loc	7 946 1                         @ c:/Keil_v5\ARM\PACK\Keil\STM32L5xx_DFP\1.3.0\Drivers\STM32L5xx_HAL_Driver\Src\stm32l5xx_hal_usart.c:946:1
	pop.w	{r4, r5, r6, r7, r8, r9, r10, pc}
.Ltmp235:
	.p2align	2
.LBB5_36:
	@DEBUG_VALUE: HAL_USART_Receive:prxdata16bits <- $r9
	@DEBUG_VALUE: HAL_USART_Receive:tickstart <- $r7
	@DEBUG_VALUE: HAL_USART_Receive:Timeout <- $r6
	@DEBUG_VALUE: HAL_USART_Receive:prxdata8bits <- $r5
	@DEBUG_VALUE: HAL_USART_Receive:husart <- $r4
	.loc	7 0 1 is_stmt 0                 @ c:/Keil_v5\ARM\PACK\Keil\STM32L5xx_DFP\1.3.0\Drivers\STM32L5xx_HAL_Driver\Src\stm32l5xx_hal_usart.c:0:1
	movs	r0, #255
	b	.LBB5_39
.Ltmp236:
	.p2align	2
.LBB5_37:                               @   in Loop: Header=BB5_39 Depth=1
	@DEBUG_VALUE: HAL_USART_Receive:prxdata16bits <- $r9
	@DEBUG_VALUE: HAL_USART_Receive:tickstart <- $r7
	@DEBUG_VALUE: HAL_USART_Receive:Timeout <- $r6
	@DEBUG_VALUE: HAL_USART_Receive:prxdata8bits <- $r5
	@DEBUG_VALUE: HAL_USART_Receive:husart <- $r4
	.loc	7 914 26 is_stmt 1              @ c:/Keil_v5\ARM\PACK\Keil\STM32L5xx_DFP\1.3.0\Drivers\STM32L5xx_HAL_Driver\Src\stm32l5xx_hal_usart.c:914:26
	and.w	r1, r1, r8
	.loc	7 914 24 is_stmt 0              @ c:/Keil_v5\ARM\PACK\Keil\STM32L5xx_DFP\1.3.0\Drivers\STM32L5xx_HAL_Driver\Src\stm32l5xx_hal_usart.c:914:24
	strh	r1, [r9], #2
.Ltmp237:
	.loc	7 0 24                          @ c:/Keil_v5\ARM\PACK\Keil\STM32L5xx_DFP\1.3.0\Drivers\STM32L5xx_HAL_Driver\Src\stm32l5xx_hal_usart.c:0:24
	movs	r5, #0
.Ltmp238:
	@DEBUG_VALUE: HAL_USART_Receive:prxdata16bits <- $r9
.LBB5_38:                               @   in Loop: Header=BB5_39 Depth=1
	@DEBUG_VALUE: HAL_USART_Receive:prxdata16bits <- $r9
	@DEBUG_VALUE: HAL_USART_Receive:tickstart <- $r7
	@DEBUG_VALUE: HAL_USART_Receive:Timeout <- $r6
	@DEBUG_VALUE: HAL_USART_Receive:husart <- $r4
	@DEBUG_VALUE: HAL_USART_Receive:prxdata8bits <- $r5
	@DEBUG_VALUE: HAL_USART_Receive:prxdata16bits <- $r9
	.loc	7 923 26 is_stmt 1              @ c:/Keil_v5\ARM\PACK\Keil\STM32L5xx_DFP\1.3.0\Drivers\STM32L5xx_HAL_Driver\Src\stm32l5xx_hal_usart.c:923:26
	ldrh	r1, [r4, #54]
	subs	r1, #1
	strh	r1, [r4, #54]
.Ltmp239:
	.loc	7 891 20                        @ c:/Keil_v5\ARM\PACK\Keil\STM32L5xx_DFP\1.3.0\Drivers\STM32L5xx_HAL_Driver\Src\stm32l5xx_hal_usart.c:891:20
	ldrh	r1, [r4, #54]
	.loc	7 891 5 is_stmt 0               @ c:/Keil_v5\ARM\PACK\Keil\STM32L5xx_DFP\1.3.0\Drivers\STM32L5xx_HAL_Driver\Src\stm32l5xx_hal_usart.c:891:5
	cmp	r1, #0
	beq	.LBB5_33
.Ltmp240:
.LBB5_39:                               @ =>This Loop Header: Depth=1
                                        @     Child Loop BB5_40 Depth 2
                                        @     Child Loop BB5_43 Depth 2
	@DEBUG_VALUE: HAL_USART_Receive:prxdata16bits <- $r9
	@DEBUG_VALUE: HAL_USART_Receive:tickstart <- $r7
	@DEBUG_VALUE: HAL_USART_Receive:Timeout <- $r6
	@DEBUG_VALUE: HAL_USART_Receive:prxdata8bits <- $r5
	@DEBUG_VALUE: HAL_USART_Receive:husart <- $r4
	@DEBUG_VALUE: HAL_USART_Receive:prxdata8bits <- $r5
	@DEBUG_VALUE: HAL_USART_Receive:prxdata16bits <- $r9
	.loc	7 893 19 is_stmt 1              @ c:/Keil_v5\ARM\PACK\Keil\STM32L5xx_DFP\1.3.0\Drivers\STM32L5xx_HAL_Driver\Src\stm32l5xx_hal_usart.c:893:19
	ldr	r2, [r4, #64]
.Ltmp241:
	.loc	7 0 0 is_stmt 0                 @ c:/Keil_v5\ARM\PACK\Keil\STM32L5xx_DFP\1.3.0\Drivers\STM32L5xx_HAL_Driver\Src\stm32l5xx_hal_usart.c:0:0
	ldr	r1, [r4]
	.loc	7 893 11                        @ c:/Keil_v5\ARM\PACK\Keil\STM32L5xx_DFP\1.3.0\Drivers\STM32L5xx_HAL_Driver\Src\stm32l5xx_hal_usart.c:893:11
	cbnz	r2, .LBB5_43
.Ltmp242:
.LBB5_40:                               @   Parent Loop BB5_39 Depth=1
                                        @ =>  This Inner Loop Header: Depth=2
	@DEBUG_VALUE: HAL_USART_Receive:prxdata16bits <- $r9
	@DEBUG_VALUE: HAL_USART_Receive:tickstart <- $r7
	@DEBUG_VALUE: HAL_USART_Receive:Timeout <- $r6
	@DEBUG_VALUE: HAL_USART_Receive:prxdata8bits <- $r5
	@DEBUG_VALUE: HAL_USART_Receive:husart <- $r4
	@DEBUG_VALUE: USART_WaitOnFlagUntilTimeout:husart <- $r4
	@DEBUG_VALUE: USART_WaitOnFlagUntilTimeout:Flag <- 128
	@DEBUG_VALUE: USART_WaitOnFlagUntilTimeout:Status <- 0
	@DEBUG_VALUE: USART_WaitOnFlagUntilTimeout:Tickstart <- undef
	@DEBUG_VALUE: USART_WaitOnFlagUntilTimeout:Timeout <- undef
	.loc	7 2825 11 is_stmt 1             @ c:/Keil_v5\ARM\PACK\Keil\STM32L5xx_DFP\1.3.0\Drivers\STM32L5xx_HAL_Driver\Src\stm32l5xx_hal_usart.c:2825:11
	ldr	r2, [r1, #28]
	.loc	7 2825 3 is_stmt 0              @ c:/Keil_v5\ARM\PACK\Keil\STM32L5xx_DFP\1.3.0\Drivers\STM32L5xx_HAL_Driver\Src\stm32l5xx_hal_usart.c:2825:3
	lsls	r2, r2, #24
	.loc	7 2825 11                       @ c:/Keil_v5\ARM\PACK\Keil\STM32L5xx_DFP\1.3.0\Drivers\STM32L5xx_HAL_Driver\Src\stm32l5xx_hal_usart.c:2825:11
	itttt	pl
	ldrpl	r2, [r1, #28]
	.loc	7 2825 3                        @ c:/Keil_v5\ARM\PACK\Keil\STM32L5xx_DFP\1.3.0\Drivers\STM32L5xx_HAL_Driver\Src\stm32l5xx_hal_usart.c:2825:3
	lslspl.w	r2, r2, #24
	.loc	7 2825 11                       @ c:/Keil_v5\ARM\PACK\Keil\STM32L5xx_DFP\1.3.0\Drivers\STM32L5xx_HAL_Driver\Src\stm32l5xx_hal_usart.c:2825:11
	ldrpl	r2, [r1, #28]
	.loc	7 2825 3                        @ c:/Keil_v5\ARM\PACK\Keil\STM32L5xx_DFP\1.3.0\Drivers\STM32L5xx_HAL_Driver\Src\stm32l5xx_hal_usart.c:2825:3
	lslspl.w	r2, r2, #24
	bmi	.LBB5_42
.Ltmp243:
@ %bb.41:                               @   in Loop: Header=BB5_40 Depth=2
	@DEBUG_VALUE: HAL_USART_Receive:prxdata16bits <- $r9
	@DEBUG_VALUE: HAL_USART_Receive:tickstart <- $r7
	@DEBUG_VALUE: HAL_USART_Receive:Timeout <- $r6
	@DEBUG_VALUE: HAL_USART_Receive:prxdata8bits <- $r5
	@DEBUG_VALUE: USART_WaitOnFlagUntilTimeout:husart <- $r4
	@DEBUG_VALUE: HAL_USART_Receive:husart <- $r4
	@DEBUG_VALUE: USART_WaitOnFlagUntilTimeout:Status <- 0
	@DEBUG_VALUE: USART_WaitOnFlagUntilTimeout:Flag <- 128
	.loc	7 2825 11                       @ c:/Keil_v5\ARM\PACK\Keil\STM32L5xx_DFP\1.3.0\Drivers\STM32L5xx_HAL_Driver\Src\stm32l5xx_hal_usart.c:2825:11
	ldr	r2, [r1, #28]
	.loc	7 2825 3                        @ c:/Keil_v5\ARM\PACK\Keil\STM32L5xx_DFP\1.3.0\Drivers\STM32L5xx_HAL_Driver\Src\stm32l5xx_hal_usart.c:2825:3
	lsls	r2, r2, #24
	bpl	.LBB5_40
.Ltmp244:
	.p2align	2
.LBB5_42:                               @   in Loop: Header=BB5_39 Depth=1
	@DEBUG_VALUE: HAL_USART_Receive:prxdata16bits <- $r9
	@DEBUG_VALUE: HAL_USART_Receive:tickstart <- $r7
	@DEBUG_VALUE: HAL_USART_Receive:Timeout <- $r6
	@DEBUG_VALUE: HAL_USART_Receive:prxdata8bits <- $r5
	@DEBUG_VALUE: HAL_USART_Receive:husart <- $r4
	.loc	7 903 31 is_stmt 1              @ c:/Keil_v5\ARM\PACK\Keil\STM32L5xx_DFP\1.3.0\Drivers\STM32L5xx_HAL_Driver\Src\stm32l5xx_hal_usart.c:903:31
	str	r0, [r1, #40]
.Ltmp245:
	.p2align	2
.LBB5_43:                               @   Parent Loop BB5_39 Depth=1
                                        @ =>  This Inner Loop Header: Depth=2
	@DEBUG_VALUE: HAL_USART_Receive:prxdata16bits <- $r9
	@DEBUG_VALUE: HAL_USART_Receive:tickstart <- $r7
	@DEBUG_VALUE: HAL_USART_Receive:Timeout <- $r6
	@DEBUG_VALUE: HAL_USART_Receive:prxdata8bits <- $r5
	@DEBUG_VALUE: HAL_USART_Receive:husart <- $r4
	@DEBUG_VALUE: USART_WaitOnFlagUntilTimeout:husart <- $r4
	@DEBUG_VALUE: USART_WaitOnFlagUntilTimeout:Flag <- 32
	@DEBUG_VALUE: USART_WaitOnFlagUntilTimeout:Status <- 0
	@DEBUG_VALUE: USART_WaitOnFlagUntilTimeout:Tickstart <- undef
	@DEBUG_VALUE: USART_WaitOnFlagUntilTimeout:Timeout <- undef
	.loc	7 2825 11                       @ c:/Keil_v5\ARM\PACK\Keil\STM32L5xx_DFP\1.3.0\Drivers\STM32L5xx_HAL_Driver\Src\stm32l5xx_hal_usart.c:2825:11
	ldr	r2, [r1, #28]
	.loc	7 2825 3 is_stmt 0              @ c:/Keil_v5\ARM\PACK\Keil\STM32L5xx_DFP\1.3.0\Drivers\STM32L5xx_HAL_Driver\Src\stm32l5xx_hal_usart.c:2825:3
	lsls	r2, r2, #26
	.loc	7 2825 11                       @ c:/Keil_v5\ARM\PACK\Keil\STM32L5xx_DFP\1.3.0\Drivers\STM32L5xx_HAL_Driver\Src\stm32l5xx_hal_usart.c:2825:11
	itttt	pl
	ldrpl	r2, [r1, #28]
	.loc	7 2825 3                        @ c:/Keil_v5\ARM\PACK\Keil\STM32L5xx_DFP\1.3.0\Drivers\STM32L5xx_HAL_Driver\Src\stm32l5xx_hal_usart.c:2825:3
	lslspl.w	r2, r2, #26
	.loc	7 2825 11                       @ c:/Keil_v5\ARM\PACK\Keil\STM32L5xx_DFP\1.3.0\Drivers\STM32L5xx_HAL_Driver\Src\stm32l5xx_hal_usart.c:2825:11
	ldrpl	r2, [r1, #28]
	.loc	7 2825 3                        @ c:/Keil_v5\ARM\PACK\Keil\STM32L5xx_DFP\1.3.0\Drivers\STM32L5xx_HAL_Driver\Src\stm32l5xx_hal_usart.c:2825:3
	lslspl.w	r2, r2, #26
	bmi	.LBB5_45
.Ltmp246:
@ %bb.44:                               @   in Loop: Header=BB5_43 Depth=2
	@DEBUG_VALUE: HAL_USART_Receive:prxdata16bits <- $r9
	@DEBUG_VALUE: HAL_USART_Receive:tickstart <- $r7
	@DEBUG_VALUE: HAL_USART_Receive:Timeout <- $r6
	@DEBUG_VALUE: HAL_USART_Receive:prxdata8bits <- $r5
	@DEBUG_VALUE: USART_WaitOnFlagUntilTimeout:husart <- $r4
	@DEBUG_VALUE: HAL_USART_Receive:husart <- $r4
	@DEBUG_VALUE: USART_WaitOnFlagUntilTimeout:Status <- 0
	@DEBUG_VALUE: USART_WaitOnFlagUntilTimeout:Flag <- 32
	.loc	7 2825 11                       @ c:/Keil_v5\ARM\PACK\Keil\STM32L5xx_DFP\1.3.0\Drivers\STM32L5xx_HAL_Driver\Src\stm32l5xx_hal_usart.c:2825:11
	ldr	r2, [r1, #28]
	.loc	7 2825 3                        @ c:/Keil_v5\ARM\PACK\Keil\STM32L5xx_DFP\1.3.0\Drivers\STM32L5xx_HAL_Driver\Src\stm32l5xx_hal_usart.c:2825:3
	lsls	r2, r2, #26
	bpl	.LBB5_43
.Ltmp247:
	.p2align	2
.LBB5_45:                               @   in Loop: Header=BB5_39 Depth=1
	@DEBUG_VALUE: HAL_USART_Receive:prxdata16bits <- $r9
	@DEBUG_VALUE: HAL_USART_Receive:tickstart <- $r7
	@DEBUG_VALUE: HAL_USART_Receive:Timeout <- $r6
	@DEBUG_VALUE: HAL_USART_Receive:prxdata8bits <- $r5
	@DEBUG_VALUE: HAL_USART_Receive:husart <- $r4
	.loc	7 0 0                           @ c:/Keil_v5\ARM\PACK\Keil\STM32L5xx_DFP\1.3.0\Drivers\STM32L5xx_HAL_Driver\Src\stm32l5xx_hal_usart.c:0:0
	ldr	r1, [r1, #36]
.Ltmp248:
	.loc	7 912 11 is_stmt 1              @ c:/Keil_v5\ARM\PACK\Keil\STM32L5xx_DFP\1.3.0\Drivers\STM32L5xx_HAL_Driver\Src\stm32l5xx_hal_usart.c:912:11
	cmp	r5, #0
	beq	.LBB5_37
.Ltmp249:
@ %bb.46:                               @   in Loop: Header=BB5_39 Depth=1
	@DEBUG_VALUE: HAL_USART_Receive:prxdata16bits <- $r9
	@DEBUG_VALUE: HAL_USART_Receive:tickstart <- $r7
	@DEBUG_VALUE: HAL_USART_Receive:Timeout <- $r6
	@DEBUG_VALUE: HAL_USART_Receive:prxdata8bits <- $r5
	@DEBUG_VALUE: HAL_USART_Receive:husart <- $r4
	.loc	7 919 57                        @ c:/Keil_v5\ARM\PACK\Keil\STM32L5xx_DFP\1.3.0\Drivers\STM32L5xx_HAL_Driver\Src\stm32l5xx_hal_usart.c:919:57
	and.w	r1, r1, r8
	.loc	7 919 23 is_stmt 0              @ c:/Keil_v5\ARM\PACK\Keil\STM32L5xx_DFP\1.3.0\Drivers\STM32L5xx_HAL_Driver\Src\stm32l5xx_hal_usart.c:919:23
	strb	r1, [r5], #1
.Ltmp250:
	@DEBUG_VALUE: HAL_USART_Receive:prxdata8bits <- $r5
	.loc	7 0 23                          @ c:/Keil_v5\ARM\PACK\Keil\STM32L5xx_DFP\1.3.0\Drivers\STM32L5xx_HAL_Driver\Src\stm32l5xx_hal_usart.c:0:23
	b	.LBB5_38
.Ltmp251:
	.p2align	2
.LBB5_47:
	@DEBUG_VALUE: HAL_USART_Receive:prxdata16bits <- $r9
	@DEBUG_VALUE: USART_WaitOnFlagUntilTimeout:Tickstart <- $r7
	@DEBUG_VALUE: HAL_USART_Receive:tickstart <- $r7
	@DEBUG_VALUE: USART_WaitOnFlagUntilTimeout:Timeout <- $r6
	@DEBUG_VALUE: HAL_USART_Receive:Timeout <- $r6
	@DEBUG_VALUE: HAL_USART_Receive:prxdata8bits <- $r5
	@DEBUG_VALUE: USART_WaitOnFlagUntilTimeout:husart <- $r4
	@DEBUG_VALUE: HAL_USART_Receive:husart <- $r4
	@DEBUG_VALUE: USART_WaitOnFlagUntilTimeout:Status <- 0
	@DEBUG_VALUE: USART_WaitOnFlagUntilTimeout:Flag <- 32
	.loc	7 2830 13 is_stmt 1             @ c:/Keil_v5\ARM\PACK\Keil\STM32L5xx_DFP\1.3.0\Drivers\STM32L5xx_HAL_Driver\Src\stm32l5xx_hal_usart.c:2830:13
	bl	HAL_GetTick
	b	.LBB5_49
.Ltmp252:
	.p2align	2
.LBB5_48:
	@DEBUG_VALUE: HAL_USART_Receive:prxdata16bits <- $r9
	@DEBUG_VALUE: USART_WaitOnFlagUntilTimeout:Tickstart <- $r7
	@DEBUG_VALUE: HAL_USART_Receive:tickstart <- $r7
	@DEBUG_VALUE: USART_WaitOnFlagUntilTimeout:Timeout <- $r6
	@DEBUG_VALUE: HAL_USART_Receive:Timeout <- $r6
	@DEBUG_VALUE: HAL_USART_Receive:prxdata8bits <- $r5
	@DEBUG_VALUE: USART_WaitOnFlagUntilTimeout:husart <- $r4
	@DEBUG_VALUE: HAL_USART_Receive:husart <- $r4
	@DEBUG_VALUE: USART_WaitOnFlagUntilTimeout:Status <- 0
	@DEBUG_VALUE: USART_WaitOnFlagUntilTimeout:Flag <- 128
	.loc	7 2830 13 is_stmt 0             @ c:/Keil_v5\ARM\PACK\Keil\STM32L5xx_DFP\1.3.0\Drivers\STM32L5xx_HAL_Driver\Src\stm32l5xx_hal_usart.c:2830:13
	bl	HAL_GetTick
.Ltmp253:
.LBB5_49:
	@DEBUG_VALUE: HAL_USART_Receive:prxdata16bits <- $r9
	@DEBUG_VALUE: HAL_USART_Receive:tickstart <- $r7
	@DEBUG_VALUE: HAL_USART_Receive:Timeout <- $r6
	@DEBUG_VALUE: HAL_USART_Receive:prxdata8bits <- $r5
	@DEBUG_VALUE: HAL_USART_Receive:husart <- $r4
	.loc	7 0 13                          @ c:/Keil_v5\ARM\PACK\Keil\STM32L5xx_DFP\1.3.0\Drivers\STM32L5xx_HAL_Driver\Src\stm32l5xx_hal_usart.c:0:13
	movs	r0, #1
	strb.w	r0, [r4, #89]
	movs	r0, #0
	strb.w	r0, [r4, #88]
	movs	r0, #3
.Ltmp254:
	.loc	7 946 1 is_stmt 1               @ c:/Keil_v5\ARM\PACK\Keil\STM32L5xx_DFP\1.3.0\Drivers\STM32L5xx_HAL_Driver\Src\stm32l5xx_hal_usart.c:946:1
	pop.w	{r4, r5, r6, r7, r8, r9, r10, pc}
.Ltmp255:
.Lfunc_end5:
	.size	HAL_USART_Receive, .Lfunc_end5-HAL_USART_Receive
	.cfi_endproc
	.cantunwind
	.fnend
                                        @ -- End function
	.section	.text.HAL_USART_TransmitReceive,"ax",%progbits
	.hidden	HAL_USART_TransmitReceive       @ -- Begin function HAL_USART_TransmitReceive
	.globl	HAL_USART_TransmitReceive
	.p2align	2
	.type	HAL_USART_TransmitReceive,%function
	.code	16                              @ @HAL_USART_TransmitReceive
	.thumb_func
HAL_USART_TransmitReceive:
.Lfunc_begin6:
	.loc	7 962 0                         @ c:/Keil_v5\ARM\PACK\Keil\STM32L5xx_DFP\1.3.0\Drivers\STM32L5xx_HAL_Driver\Src\stm32l5xx_hal_usart.c:962:0
	.fnstart
	.cfi_startproc
@ %bb.0:
	@DEBUG_VALUE: HAL_USART_TransmitReceive:husart <- $r0
	@DEBUG_VALUE: HAL_USART_TransmitReceive:pTxData <- $r1
	@DEBUG_VALUE: HAL_USART_TransmitReceive:pRxData <- $r2
	@DEBUG_VALUE: HAL_USART_TransmitReceive:Size <- $r3
	.save	{r4, r5, r6, r7, r8, r9, r10, r11, lr}
	push.w	{r4, r5, r6, r7, r8, r9, r10, r11, lr}
	.cfi_def_cfa_offset 36
	.cfi_offset lr, -4
	.cfi_offset r11, -8
	.cfi_offset r10, -12
	.cfi_offset r9, -16
	.cfi_offset r8, -20
	.cfi_offset r7, -24
	.cfi_offset r6, -28
	.cfi_offset r5, -32
	.cfi_offset r4, -36
	.pad	#4
	sub	sp, #4
	.cfi_def_cfa_offset 40
	mov	r4, r0
.Ltmp256:
	@DEBUG_VALUE: HAL_USART_TransmitReceive:Timeout <- [DW_OP_plus_uconst 40] [$sp+0]
	@DEBUG_VALUE: HAL_USART_TransmitReceive:Size <- $r3
	@DEBUG_VALUE: HAL_USART_TransmitReceive:husart <- $r4
	.loc	7 971 15 prologue_end           @ c:/Keil_v5\ARM\PACK\Keil\STM32L5xx_DFP\1.3.0\Drivers\STM32L5xx_HAL_Driver\Src\stm32l5xx_hal_usart.c:971:15
	ldrb.w	r0, [r0, #89]
.Ltmp257:
	@DEBUG_VALUE: HAL_USART_TransmitReceive:pRxData <- $r2
	.loc	7 971 7 is_stmt 0               @ c:/Keil_v5\ARM\PACK\Keil\STM32L5xx_DFP\1.3.0\Drivers\STM32L5xx_HAL_Driver\Src\stm32l5xx_hal_usart.c:971:7
	cmp	r0, #1
	@DEBUG_VALUE: HAL_USART_TransmitReceive:pTxData <- $r1
	bne	.LBB6_5
.Ltmp258:
@ %bb.1:
	@DEBUG_VALUE: HAL_USART_TransmitReceive:husart <- $r4
	@DEBUG_VALUE: HAL_USART_TransmitReceive:Size <- $r3
	@DEBUG_VALUE: HAL_USART_TransmitReceive:pRxData <- $r2
	@DEBUG_VALUE: HAL_USART_TransmitReceive:pTxData <- $r1
	@DEBUG_VALUE: HAL_USART_TransmitReceive:Timeout <- [DW_OP_plus_uconst 40] [$sp+0]
	@DEBUG_VALUE: HAL_USART_TransmitReceive:Size <- $r3
	@DEBUG_VALUE: HAL_USART_TransmitReceive:pRxData <- $r2
	.loc	7 0 7                           @ c:/Keil_v5\ARM\PACK\Keil\STM32L5xx_DFP\1.3.0\Drivers\STM32L5xx_HAL_Driver\Src\stm32l5xx_hal_usart.c:0:7
	mov	r6, r1
.Ltmp259:
	@DEBUG_VALUE: HAL_USART_TransmitReceive:pTxData <- $r6
	@DEBUG_VALUE: HAL_USART_TransmitReceive:Size <- $r3
	.loc	7 973 27 is_stmt 1              @ c:/Keil_v5\ARM\PACK\Keil\STM32L5xx_DFP\1.3.0\Drivers\STM32L5xx_HAL_Driver\Src\stm32l5xx_hal_usart.c:973:27
	cmp	r1, #0
	mov.w	r0, #1
	@DEBUG_VALUE: HAL_USART_TransmitReceive:Size <- $r3
	@DEBUG_VALUE: HAL_USART_TransmitReceive:Size <- $r3
	itt	ne
	movne	r5, r2
.Ltmp260:
	@DEBUG_VALUE: HAL_USART_TransmitReceive:pRxData <- $r5
	@DEBUG_VALUE: HAL_USART_TransmitReceive:Size <- $r3
	cmpne	r2, #0
	bne	.LBB6_3
.Ltmp261:
.LBB6_2:
	@DEBUG_VALUE: HAL_USART_TransmitReceive:pTxData <- $r6
	@DEBUG_VALUE: HAL_USART_TransmitReceive:pRxData <- $r5
	@DEBUG_VALUE: HAL_USART_TransmitReceive:husart <- $r4
	@DEBUG_VALUE: HAL_USART_TransmitReceive:Timeout <- [DW_OP_plus_uconst 40] [$sp+0]
	.loc	7 1095 1                        @ c:/Keil_v5\ARM\PACK\Keil\STM32L5xx_DFP\1.3.0\Drivers\STM32L5xx_HAL_Driver\Src\stm32l5xx_hal_usart.c:1095:1
	add	sp, #4
	pop.w	{r4, r5, r6, r7, r8, r9, r10, r11, pc}
.Ltmp262:
	.p2align	2
.LBB6_3:
	@DEBUG_VALUE: HAL_USART_TransmitReceive:pTxData <- $r6
	@DEBUG_VALUE: HAL_USART_TransmitReceive:pRxData <- $r5
	@DEBUG_VALUE: HAL_USART_TransmitReceive:husart <- $r4
	@DEBUG_VALUE: HAL_USART_TransmitReceive:Size <- $r3
	@DEBUG_VALUE: HAL_USART_TransmitReceive:Timeout <- [DW_OP_plus_uconst 40] [$sp+0]
	.loc	7 0 1 is_stmt 0                 @ c:/Keil_v5\ARM\PACK\Keil\STM32L5xx_DFP\1.3.0\Drivers\STM32L5xx_HAL_Driver\Src\stm32l5xx_hal_usart.c:0:1
	mov	r7, r3
.Ltmp263:
	@DEBUG_VALUE: HAL_USART_TransmitReceive:Size <- $r7
	@DEBUG_VALUE: HAL_USART_TransmitReceive:Size <- $r7
	@DEBUG_VALUE: HAL_USART_TransmitReceive:Size <- $r7
	@DEBUG_VALUE: HAL_USART_TransmitReceive:Size <- $r7
	.loc	7 973 27 is_stmt 1              @ c:/Keil_v5\ARM\PACK\Keil\STM32L5xx_DFP\1.3.0\Drivers\STM32L5xx_HAL_Driver\Src\stm32l5xx_hal_usart.c:973:27
	cmp	r3, #0
	beq	.LBB6_2
.Ltmp264:
@ %bb.4:
	@DEBUG_VALUE: HAL_USART_TransmitReceive:Size <- $r7
	@DEBUG_VALUE: HAL_USART_TransmitReceive:pTxData <- $r6
	@DEBUG_VALUE: HAL_USART_TransmitReceive:pRxData <- $r5
	@DEBUG_VALUE: HAL_USART_TransmitReceive:husart <- $r4
	@DEBUG_VALUE: HAL_USART_TransmitReceive:Timeout <- [DW_OP_plus_uconst 40] [$sp+0]
	@DEBUG_VALUE: HAL_USART_TransmitReceive:Size <- $r7
	.loc	7 979 5                         @ c:/Keil_v5\ARM\PACK\Keil\STM32L5xx_DFP\1.3.0\Drivers\STM32L5xx_HAL_Driver\Src\stm32l5xx_hal_usart.c:979:5
	ldrb.w	r0, [r4, #88]
.Ltmp265:
	.loc	7 979 5 is_stmt 0               @ c:/Keil_v5\ARM\PACK\Keil\STM32L5xx_DFP\1.3.0\Drivers\STM32L5xx_HAL_Driver\Src\stm32l5xx_hal_usart.c:979:5
	cmp	r0, #1
	bne	.LBB6_6
.Ltmp266:
.LBB6_5:
	@DEBUG_VALUE: HAL_USART_TransmitReceive:husart <- $r4
	@DEBUG_VALUE: HAL_USART_TransmitReceive:Timeout <- [DW_OP_plus_uconst 40] [$sp+0]
	.loc	7 0 5                           @ c:/Keil_v5\ARM\PACK\Keil\STM32L5xx_DFP\1.3.0\Drivers\STM32L5xx_HAL_Driver\Src\stm32l5xx_hal_usart.c:0:5
	movs	r0, #2
	.loc	7 1095 1 is_stmt 1              @ c:/Keil_v5\ARM\PACK\Keil\STM32L5xx_DFP\1.3.0\Drivers\STM32L5xx_HAL_Driver\Src\stm32l5xx_hal_usart.c:1095:1
	add	sp, #4
	pop.w	{r4, r5, r6, r7, r8, r9, r10, r11, pc}
.Ltmp267:
	.p2align	2
.LBB6_6:
	@DEBUG_VALUE: HAL_USART_TransmitReceive:Size <- $r7
	@DEBUG_VALUE: HAL_USART_TransmitReceive:pTxData <- $r6
	@DEBUG_VALUE: HAL_USART_TransmitReceive:pRxData <- $r5
	@DEBUG_VALUE: HAL_USART_TransmitReceive:husart <- $r4
	@DEBUG_VALUE: HAL_USART_TransmitReceive:Timeout <- [DW_OP_plus_uconst 40] [$sp+0]
	@DEBUG_VALUE: HAL_USART_TransmitReceive:Size <- $r7
	.loc	7 0 1 is_stmt 0                 @ c:/Keil_v5\ARM\PACK\Keil\STM32L5xx_DFP\1.3.0\Drivers\STM32L5xx_HAL_Driver\Src\stm32l5xx_hal_usart.c:0:1
	movs	r0, #1
.Ltmp268:
	.loc	7 979 5 is_stmt 1               @ c:/Keil_v5\ARM\PACK\Keil\STM32L5xx_DFP\1.3.0\Drivers\STM32L5xx_HAL_Driver\Src\stm32l5xx_hal_usart.c:979:5
	strb.w	r0, [r4, #88]
	movs	r0, #0
.Ltmp269:
	.loc	7 981 23                        @ c:/Keil_v5\ARM\PACK\Keil\STM32L5xx_DFP\1.3.0\Drivers\STM32L5xx_HAL_Driver\Src\stm32l5xx_hal_usart.c:981:23
	str	r0, [r4, #92]
	movs	r0, #34
	.loc	7 982 19                        @ c:/Keil_v5\ARM\PACK\Keil\STM32L5xx_DFP\1.3.0\Drivers\STM32L5xx_HAL_Driver\Src\stm32l5xx_hal_usart.c:982:19
	strb.w	r0, [r4, #89]
	.loc	7 985 17                        @ c:/Keil_v5\ARM\PACK\Keil\STM32L5xx_DFP\1.3.0\Drivers\STM32L5xx_HAL_Driver\Src\stm32l5xx_hal_usart.c:985:17
	bl	HAL_GetTick
	.loc	7 987 24                        @ c:/Keil_v5\ARM\PACK\Keil\STM32L5xx_DFP\1.3.0\Drivers\STM32L5xx_HAL_Driver\Src\stm32l5xx_hal_usart.c:987:24
	strh	r7, [r4, #52]
	.loc	7 988 24                        @ c:/Keil_v5\ARM\PACK\Keil\STM32L5xx_DFP\1.3.0\Drivers\STM32L5xx_HAL_Driver\Src\stm32l5xx_hal_usart.c:988:24
	strh	r7, [r4, #44]
	.loc	7 989 25                        @ c:/Keil_v5\ARM\PACK\Keil\STM32L5xx_DFP\1.3.0\Drivers\STM32L5xx_HAL_Driver\Src\stm32l5xx_hal_usart.c:989:25
	strh	r7, [r4, #46]
	.loc	7 990 25                        @ c:/Keil_v5\ARM\PACK\Keil\STM32L5xx_DFP\1.3.0\Drivers\STM32L5xx_HAL_Driver\Src\stm32l5xx_hal_usart.c:990:25
	strh	r7, [r4, #54]
.Ltmp270:
	.loc	7 993 5                         @ c:/Keil_v5\ARM\PACK\Keil\STM32L5xx_DFP\1.3.0\Drivers\STM32L5xx_HAL_Driver\Src\stm32l5xx_hal_usart.c:993:5
	ldr	r1, [r4, #8]
.Ltmp271:
	.loc	7 985 17                        @ c:/Keil_v5\ARM\PACK\Keil\STM32L5xx_DFP\1.3.0\Drivers\STM32L5xx_HAL_Driver\Src\stm32l5xx_hal_usart.c:985:17
	mov	r7, r0
.Ltmp272:
	@DEBUG_VALUE: HAL_USART_TransmitReceive:tickstart <- $r7
	.loc	7 993 5                         @ c:/Keil_v5\ARM\PACK\Keil\STM32L5xx_DFP\1.3.0\Drivers\STM32L5xx_HAL_Driver\Src\stm32l5xx_hal_usart.c:993:5
	cbz	r1, .LBB6_11
.Ltmp273:
@ %bb.7:
	@DEBUG_VALUE: HAL_USART_TransmitReceive:tickstart <- $r7
	@DEBUG_VALUE: HAL_USART_TransmitReceive:pTxData <- $r6
	@DEBUG_VALUE: HAL_USART_TransmitReceive:pRxData <- $r5
	@DEBUG_VALUE: HAL_USART_TransmitReceive:husart <- $r4
	@DEBUG_VALUE: HAL_USART_TransmitReceive:Timeout <- [DW_OP_plus_uconst 40] [$sp+0]
	cmp.w	r1, #268435456
	beq	.LBB6_13
.Ltmp274:
@ %bb.8:
	@DEBUG_VALUE: HAL_USART_TransmitReceive:tickstart <- $r7
	@DEBUG_VALUE: HAL_USART_TransmitReceive:pTxData <- $r6
	@DEBUG_VALUE: HAL_USART_TransmitReceive:pRxData <- $r5
	@DEBUG_VALUE: HAL_USART_TransmitReceive:husart <- $r4
	@DEBUG_VALUE: HAL_USART_TransmitReceive:Timeout <- [DW_OP_plus_uconst 40] [$sp+0]
	cmp.w	r1, #4096
	bne	.LBB6_15
.Ltmp275:
@ %bb.9:
	@DEBUG_VALUE: HAL_USART_TransmitReceive:tickstart <- $r7
	@DEBUG_VALUE: HAL_USART_TransmitReceive:pTxData <- $r6
	@DEBUG_VALUE: HAL_USART_TransmitReceive:pRxData <- $r5
	@DEBUG_VALUE: HAL_USART_TransmitReceive:husart <- $r4
	@DEBUG_VALUE: HAL_USART_TransmitReceive:Timeout <- [DW_OP_plus_uconst 40] [$sp+0]
	.loc	7 993 5 is_stmt 0               @ c:/Keil_v5\ARM\PACK\Keil\STM32L5xx_DFP\1.3.0\Drivers\STM32L5xx_HAL_Driver\Src\stm32l5xx_hal_usart.c:993:5
	ldr	r0, [r4, #16]
.Ltmp276:
	.loc	7 993 5                         @ c:/Keil_v5\ARM\PACK\Keil\STM32L5xx_DFP\1.3.0\Drivers\STM32L5xx_HAL_Driver\Src\stm32l5xx_hal_usart.c:993:5
	cbnz	r0, .LBB6_12
.Ltmp277:
@ %bb.10:
	@DEBUG_VALUE: HAL_USART_TransmitReceive:tickstart <- $r7
	@DEBUG_VALUE: HAL_USART_TransmitReceive:pTxData <- $r6
	@DEBUG_VALUE: HAL_USART_TransmitReceive:pRxData <- $r5
	@DEBUG_VALUE: HAL_USART_TransmitReceive:husart <- $r4
	@DEBUG_VALUE: HAL_USART_TransmitReceive:Timeout <- [DW_OP_plus_uconst 40] [$sp+0]
	.loc	7 0 5                           @ c:/Keil_v5\ARM\PACK\Keil\STM32L5xx_DFP\1.3.0\Drivers\STM32L5xx_HAL_Driver\Src\stm32l5xx_hal_usart.c:0:5
	movw	r8, #511
.Ltmp278:
	.loc	7 1001 23 is_stmt 1             @ c:/Keil_v5\ARM\PACK\Keil\STM32L5xx_DFP\1.3.0\Drivers\STM32L5xx_HAL_Driver\Src\stm32l5xx_hal_usart.c:1001:23
	mov	r10, r6
.Ltmp279:
	@DEBUG_VALUE: HAL_USART_TransmitReceive:pTxData <- $r10
	@DEBUG_VALUE: HAL_USART_TransmitReceive:ptxdata16bits <- $r10
	.loc	7 0 23 is_stmt 0                @ c:/Keil_v5\ARM\PACK\Keil\STM32L5xx_DFP\1.3.0\Drivers\STM32L5xx_HAL_Driver\Src\stm32l5xx_hal_usart.c:0:23
	movs	r6, #0
.Ltmp280:
	@DEBUG_VALUE: HAL_USART_TransmitReceive:prxdata16bits <- $r5
	mov	r9, r5
.Ltmp281:
	@DEBUG_VALUE: HAL_USART_TransmitReceive:pRxData <- $r9
	@DEBUG_VALUE: HAL_USART_TransmitReceive:prxdata16bits <- $r9
	movs	r5, #0
.Ltmp282:
	.loc	7 993 5 is_stmt 1               @ c:/Keil_v5\ARM\PACK\Keil\STM32L5xx_DFP\1.3.0\Drivers\STM32L5xx_HAL_Driver\Src\stm32l5xx_hal_usart.c:993:5
	strh.w	r8, [r4, #56]
.Ltmp283:
	@DEBUG_VALUE: HAL_USART_TransmitReceive:ptxdata16bits <- $r6
	@DEBUG_VALUE: HAL_USART_TransmitReceive:ptxdata8bits <- 0
	@DEBUG_VALUE: HAL_USART_TransmitReceive:prxdata8bits <- 0
	@DEBUG_VALUE: HAL_USART_TransmitReceive:uhMask <- 0
	.loc	7 0 5 is_stmt 0                 @ c:/Keil_v5\ARM\PACK\Keil\STM32L5xx_DFP\1.3.0\Drivers\STM32L5xx_HAL_Driver\Src\stm32l5xx_hal_usart.c:0:5
	b	.LBB6_18
.Ltmp284:
	.p2align	2
.LBB6_11:
	@DEBUG_VALUE: HAL_USART_TransmitReceive:tickstart <- $r7
	@DEBUG_VALUE: HAL_USART_TransmitReceive:pTxData <- $r6
	@DEBUG_VALUE: HAL_USART_TransmitReceive:pRxData <- $r5
	@DEBUG_VALUE: HAL_USART_TransmitReceive:husart <- $r4
	@DEBUG_VALUE: HAL_USART_TransmitReceive:Timeout <- [DW_OP_plus_uconst 40] [$sp+0]
	.loc	7 993 5                         @ c:/Keil_v5\ARM\PACK\Keil\STM32L5xx_DFP\1.3.0\Drivers\STM32L5xx_HAL_Driver\Src\stm32l5xx_hal_usart.c:993:5
	ldr	r0, [r4, #16]
.Ltmp285:
	.loc	7 993 5                         @ c:/Keil_v5\ARM\PACK\Keil\STM32L5xx_DFP\1.3.0\Drivers\STM32L5xx_HAL_Driver\Src\stm32l5xx_hal_usart.c:993:5
	cbnz	r0, .LBB6_16
.Ltmp286:
.LBB6_12:
	@DEBUG_VALUE: HAL_USART_TransmitReceive:tickstart <- $r7
	@DEBUG_VALUE: HAL_USART_TransmitReceive:pTxData <- $r6
	@DEBUG_VALUE: HAL_USART_TransmitReceive:pRxData <- $r5
	@DEBUG_VALUE: HAL_USART_TransmitReceive:husart <- $r4
	@DEBUG_VALUE: HAL_USART_TransmitReceive:Timeout <- [DW_OP_plus_uconst 40] [$sp+0]
	.loc	7 0 5                           @ c:/Keil_v5\ARM\PACK\Keil\STM32L5xx_DFP\1.3.0\Drivers\STM32L5xx_HAL_Driver\Src\stm32l5xx_hal_usart.c:0:5
	mov.w	r8, #255
	b	.LBB6_17
.Ltmp287:
	.p2align	2
.LBB6_13:
	@DEBUG_VALUE: HAL_USART_TransmitReceive:tickstart <- $r7
	@DEBUG_VALUE: HAL_USART_TransmitReceive:pTxData <- $r6
	@DEBUG_VALUE: HAL_USART_TransmitReceive:pRxData <- $r5
	@DEBUG_VALUE: HAL_USART_TransmitReceive:husart <- $r4
	@DEBUG_VALUE: HAL_USART_TransmitReceive:Timeout <- [DW_OP_plus_uconst 40] [$sp+0]
	.loc	7 993 5                         @ c:/Keil_v5\ARM\PACK\Keil\STM32L5xx_DFP\1.3.0\Drivers\STM32L5xx_HAL_Driver\Src\stm32l5xx_hal_usart.c:993:5
	ldr	r0, [r4, #16]
.Ltmp288:
	.loc	7 993 5                         @ c:/Keil_v5\ARM\PACK\Keil\STM32L5xx_DFP\1.3.0\Drivers\STM32L5xx_HAL_Driver\Src\stm32l5xx_hal_usart.c:993:5
	cbz	r0, .LBB6_16
.Ltmp289:
@ %bb.14:
	@DEBUG_VALUE: HAL_USART_TransmitReceive:tickstart <- $r7
	@DEBUG_VALUE: HAL_USART_TransmitReceive:pTxData <- $r6
	@DEBUG_VALUE: HAL_USART_TransmitReceive:pRxData <- $r5
	@DEBUG_VALUE: HAL_USART_TransmitReceive:husart <- $r4
	@DEBUG_VALUE: HAL_USART_TransmitReceive:Timeout <- [DW_OP_plus_uconst 40] [$sp+0]
	.loc	7 0 5                           @ c:/Keil_v5\ARM\PACK\Keil\STM32L5xx_DFP\1.3.0\Drivers\STM32L5xx_HAL_Driver\Src\stm32l5xx_hal_usart.c:0:5
	mov.w	r8, #63
	b	.LBB6_17
.Ltmp290:
	.p2align	2
.LBB6_15:
	@DEBUG_VALUE: HAL_USART_TransmitReceive:tickstart <- $r7
	@DEBUG_VALUE: HAL_USART_TransmitReceive:pTxData <- $r6
	@DEBUG_VALUE: HAL_USART_TransmitReceive:pRxData <- $r5
	@DEBUG_VALUE: HAL_USART_TransmitReceive:husart <- $r4
	@DEBUG_VALUE: HAL_USART_TransmitReceive:Timeout <- [DW_OP_plus_uconst 40] [$sp+0]
	mov.w	r8, #0
	b	.LBB6_17
.Ltmp291:
	.p2align	2
.LBB6_16:
	@DEBUG_VALUE: HAL_USART_TransmitReceive:tickstart <- $r7
	@DEBUG_VALUE: HAL_USART_TransmitReceive:pTxData <- $r6
	@DEBUG_VALUE: HAL_USART_TransmitReceive:pRxData <- $r5
	@DEBUG_VALUE: HAL_USART_TransmitReceive:husart <- $r4
	@DEBUG_VALUE: HAL_USART_TransmitReceive:Timeout <- [DW_OP_plus_uconst 40] [$sp+0]
	mov.w	r8, #127
.Ltmp292:
.LBB6_17:
	@DEBUG_VALUE: HAL_USART_TransmitReceive:tickstart <- $r7
	@DEBUG_VALUE: HAL_USART_TransmitReceive:pTxData <- $r6
	@DEBUG_VALUE: HAL_USART_TransmitReceive:pRxData <- $r5
	@DEBUG_VALUE: HAL_USART_TransmitReceive:husart <- $r4
	@DEBUG_VALUE: HAL_USART_TransmitReceive:Timeout <- [DW_OP_plus_uconst 40] [$sp+0]
	strh.w	r8, [r4, #56]
	mov.w	r9, #0
.Ltmp293:
	mov.w	r10, #0
.Ltmp294:
.LBB6_18:
	@DEBUG_VALUE: HAL_USART_TransmitReceive:tickstart <- $r7
	@DEBUG_VALUE: HAL_USART_TransmitReceive:husart <- $r4
	@DEBUG_VALUE: HAL_USART_TransmitReceive:Timeout <- [DW_OP_plus_uconst 40] [$sp+0]
	.loc	7 1012 18 is_stmt 1             @ c:/Keil_v5\ARM\PACK\Keil\STM32L5xx_DFP\1.3.0\Drivers\STM32L5xx_HAL_Driver\Src\stm32l5xx_hal_usart.c:1012:18
	ldrh	r0, [r4, #46]
	ldr.w	r11, [sp, #40]
.Ltmp295:
	@DEBUG_VALUE: HAL_USART_TransmitReceive:prxdata16bits <- $r9
	@DEBUG_VALUE: HAL_USART_TransmitReceive:ptxdata16bits <- $r10
	@DEBUG_VALUE: HAL_USART_TransmitReceive:ptxdata8bits <- $r6
	@DEBUG_VALUE: HAL_USART_TransmitReceive:prxdata8bits <- $r5
	.loc	7 1012 40 is_stmt 0             @ c:/Keil_v5\ARM\PACK\Keil\STM32L5xx_DFP\1.3.0\Drivers\STM32L5xx_HAL_Driver\Src\stm32l5xx_hal_usart.c:1012:40
	cmp	r0, #1
	beq	.LBB6_20
.Ltmp296:
@ %bb.19:
	@DEBUG_VALUE: HAL_USART_TransmitReceive:ptxdata16bits <- $r10
	@DEBUG_VALUE: HAL_USART_TransmitReceive:prxdata16bits <- $r9
	@DEBUG_VALUE: HAL_USART_TransmitReceive:tickstart <- $r7
	@DEBUG_VALUE: HAL_USART_TransmitReceive:ptxdata8bits <- $r6
	@DEBUG_VALUE: HAL_USART_TransmitReceive:prxdata8bits <- $r5
	@DEBUG_VALUE: HAL_USART_TransmitReceive:husart <- $r4
	@DEBUG_VALUE: HAL_USART_TransmitReceive:Timeout <- [DW_OP_plus_uconst 40] [$sp+0]
	.loc	7 1012 52                       @ c:/Keil_v5\ARM\PACK\Keil\STM32L5xx_DFP\1.3.0\Drivers\STM32L5xx_HAL_Driver\Src\stm32l5xx_hal_usart.c:1012:52
	ldr	r0, [r4, #64]
.Ltmp297:
	.loc	7 1012 9                        @ c:/Keil_v5\ARM\PACK\Keil\STM32L5xx_DFP\1.3.0\Drivers\STM32L5xx_HAL_Driver\Src\stm32l5xx_hal_usart.c:1012:9
	cmp	r0, #1
	bne	.LBB6_32
.Ltmp298:
.LBB6_20:
	@DEBUG_VALUE: HAL_USART_TransmitReceive:ptxdata16bits <- $r10
	@DEBUG_VALUE: HAL_USART_TransmitReceive:prxdata16bits <- $r9
	@DEBUG_VALUE: HAL_USART_TransmitReceive:tickstart <- $r7
	@DEBUG_VALUE: HAL_USART_TransmitReceive:ptxdata8bits <- $r6
	@DEBUG_VALUE: HAL_USART_TransmitReceive:prxdata8bits <- $r5
	@DEBUG_VALUE: HAL_USART_TransmitReceive:husart <- $r4
	@DEBUG_VALUE: HAL_USART_TransmitReceive:Timeout <- [DW_OP_plus_uconst 40] [$sp+0]
	@DEBUG_VALUE: USART_WaitOnFlagUntilTimeout:husart <- $r4
	@DEBUG_VALUE: USART_WaitOnFlagUntilTimeout:Flag <- 128
	@DEBUG_VALUE: USART_WaitOnFlagUntilTimeout:Status <- 0
	@DEBUG_VALUE: USART_WaitOnFlagUntilTimeout:Tickstart <- $r7
	@DEBUG_VALUE: USART_WaitOnFlagUntilTimeout:Timeout <- $r11
	.loc	7 2825 11 is_stmt 1             @ c:/Keil_v5\ARM\PACK\Keil\STM32L5xx_DFP\1.3.0\Drivers\STM32L5xx_HAL_Driver\Src\stm32l5xx_hal_usart.c:2825:11
	ldr	r0, [r4]
	ldr	r1, [r0, #28]
	.loc	7 2825 3 is_stmt 0              @ c:/Keil_v5\ARM\PACK\Keil\STM32L5xx_DFP\1.3.0\Drivers\STM32L5xx_HAL_Driver\Src\stm32l5xx_hal_usart.c:2825:3
	lsls	r1, r1, #24
	bmi	.LBB6_26
.Ltmp299:
@ %bb.21:
	@DEBUG_VALUE: USART_WaitOnFlagUntilTimeout:Timeout <- $r11
	@DEBUG_VALUE: HAL_USART_TransmitReceive:ptxdata16bits <- $r10
	@DEBUG_VALUE: HAL_USART_TransmitReceive:prxdata16bits <- $r9
	@DEBUG_VALUE: USART_WaitOnFlagUntilTimeout:Tickstart <- $r7
	@DEBUG_VALUE: HAL_USART_TransmitReceive:tickstart <- $r7
	@DEBUG_VALUE: HAL_USART_TransmitReceive:ptxdata8bits <- $r6
	@DEBUG_VALUE: HAL_USART_TransmitReceive:prxdata8bits <- $r5
	@DEBUG_VALUE: USART_WaitOnFlagUntilTimeout:husart <- $r4
	@DEBUG_VALUE: HAL_USART_TransmitReceive:husart <- $r4
	@DEBUG_VALUE: HAL_USART_TransmitReceive:Timeout <- [DW_OP_plus_uconst 40] [$sp+0]
	@DEBUG_VALUE: USART_WaitOnFlagUntilTimeout:Status <- 0
	@DEBUG_VALUE: USART_WaitOnFlagUntilTimeout:Flag <- 128
	cmp.w	r11, #0
	beq.w	.LBB6_71
.Ltmp300:
@ %bb.22:
	@DEBUG_VALUE: USART_WaitOnFlagUntilTimeout:Timeout <- $r11
	@DEBUG_VALUE: HAL_USART_TransmitReceive:ptxdata16bits <- $r10
	@DEBUG_VALUE: HAL_USART_TransmitReceive:prxdata16bits <- $r9
	@DEBUG_VALUE: USART_WaitOnFlagUntilTimeout:Tickstart <- $r7
	@DEBUG_VALUE: HAL_USART_TransmitReceive:tickstart <- $r7
	@DEBUG_VALUE: HAL_USART_TransmitReceive:ptxdata8bits <- $r6
	@DEBUG_VALUE: HAL_USART_TransmitReceive:prxdata8bits <- $r5
	@DEBUG_VALUE: USART_WaitOnFlagUntilTimeout:husart <- $r4
	@DEBUG_VALUE: HAL_USART_TransmitReceive:husart <- $r4
	@DEBUG_VALUE: HAL_USART_TransmitReceive:Timeout <- [DW_OP_plus_uconst 40] [$sp+0]
	@DEBUG_VALUE: USART_WaitOnFlagUntilTimeout:Status <- 0
	@DEBUG_VALUE: USART_WaitOnFlagUntilTimeout:Flag <- 128
	adds.w	r1, r11, #1
	bne	.LBB6_29
.Ltmp301:
.LBB6_23:                               @ =>This Inner Loop Header: Depth=1
	@DEBUG_VALUE: USART_WaitOnFlagUntilTimeout:Timeout <- $r11
	@DEBUG_VALUE: HAL_USART_TransmitReceive:ptxdata16bits <- $r10
	@DEBUG_VALUE: HAL_USART_TransmitReceive:prxdata16bits <- $r9
	@DEBUG_VALUE: USART_WaitOnFlagUntilTimeout:Tickstart <- $r7
	@DEBUG_VALUE: HAL_USART_TransmitReceive:tickstart <- $r7
	@DEBUG_VALUE: HAL_USART_TransmitReceive:ptxdata8bits <- $r6
	@DEBUG_VALUE: HAL_USART_TransmitReceive:prxdata8bits <- $r5
	@DEBUG_VALUE: USART_WaitOnFlagUntilTimeout:husart <- $r4
	@DEBUG_VALUE: HAL_USART_TransmitReceive:husart <- $r4
	@DEBUG_VALUE: HAL_USART_TransmitReceive:Timeout <- [DW_OP_plus_uconst 40] [$sp+0]
	@DEBUG_VALUE: USART_WaitOnFlagUntilTimeout:Status <- 0
	@DEBUG_VALUE: USART_WaitOnFlagUntilTimeout:Flag <- 128
	.loc	7 2825 11                       @ c:/Keil_v5\ARM\PACK\Keil\STM32L5xx_DFP\1.3.0\Drivers\STM32L5xx_HAL_Driver\Src\stm32l5xx_hal_usart.c:2825:11
	ldr	r1, [r0, #28]
	.loc	7 2825 3                        @ c:/Keil_v5\ARM\PACK\Keil\STM32L5xx_DFP\1.3.0\Drivers\STM32L5xx_HAL_Driver\Src\stm32l5xx_hal_usart.c:2825:3
	lsls	r1, r1, #24
	bmi	.LBB6_26
.Ltmp302:
@ %bb.24:                               @   in Loop: Header=BB6_23 Depth=1
	@DEBUG_VALUE: USART_WaitOnFlagUntilTimeout:Timeout <- $r11
	@DEBUG_VALUE: HAL_USART_TransmitReceive:ptxdata16bits <- $r10
	@DEBUG_VALUE: HAL_USART_TransmitReceive:prxdata16bits <- $r9
	@DEBUG_VALUE: USART_WaitOnFlagUntilTimeout:Tickstart <- $r7
	@DEBUG_VALUE: HAL_USART_TransmitReceive:tickstart <- $r7
	@DEBUG_VALUE: HAL_USART_TransmitReceive:ptxdata8bits <- $r6
	@DEBUG_VALUE: HAL_USART_TransmitReceive:prxdata8bits <- $r5
	@DEBUG_VALUE: USART_WaitOnFlagUntilTimeout:husart <- $r4
	@DEBUG_VALUE: HAL_USART_TransmitReceive:husart <- $r4
	@DEBUG_VALUE: HAL_USART_TransmitReceive:Timeout <- [DW_OP_plus_uconst 40] [$sp+0]
	@DEBUG_VALUE: USART_WaitOnFlagUntilTimeout:Status <- 0
	@DEBUG_VALUE: USART_WaitOnFlagUntilTimeout:Flag <- 128
	.loc	7 2825 11                       @ c:/Keil_v5\ARM\PACK\Keil\STM32L5xx_DFP\1.3.0\Drivers\STM32L5xx_HAL_Driver\Src\stm32l5xx_hal_usart.c:2825:11
	ldr	r1, [r0, #28]
	.loc	7 2825 3                        @ c:/Keil_v5\ARM\PACK\Keil\STM32L5xx_DFP\1.3.0\Drivers\STM32L5xx_HAL_Driver\Src\stm32l5xx_hal_usart.c:2825:3
	lsls	r1, r1, #24
	.loc	7 2825 11                       @ c:/Keil_v5\ARM\PACK\Keil\STM32L5xx_DFP\1.3.0\Drivers\STM32L5xx_HAL_Driver\Src\stm32l5xx_hal_usart.c:2825:11
	itt	pl
	ldrpl	r1, [r0, #28]
	.loc	7 2825 3                        @ c:/Keil_v5\ARM\PACK\Keil\STM32L5xx_DFP\1.3.0\Drivers\STM32L5xx_HAL_Driver\Src\stm32l5xx_hal_usart.c:2825:3
	lslspl.w	r1, r1, #24
	bmi	.LBB6_26
.Ltmp303:
@ %bb.25:                               @   in Loop: Header=BB6_23 Depth=1
	@DEBUG_VALUE: USART_WaitOnFlagUntilTimeout:Timeout <- $r11
	@DEBUG_VALUE: HAL_USART_TransmitReceive:ptxdata16bits <- $r10
	@DEBUG_VALUE: HAL_USART_TransmitReceive:prxdata16bits <- $r9
	@DEBUG_VALUE: USART_WaitOnFlagUntilTimeout:Tickstart <- $r7
	@DEBUG_VALUE: HAL_USART_TransmitReceive:tickstart <- $r7
	@DEBUG_VALUE: HAL_USART_TransmitReceive:ptxdata8bits <- $r6
	@DEBUG_VALUE: HAL_USART_TransmitReceive:prxdata8bits <- $r5
	@DEBUG_VALUE: USART_WaitOnFlagUntilTimeout:husart <- $r4
	@DEBUG_VALUE: HAL_USART_TransmitReceive:husart <- $r4
	@DEBUG_VALUE: HAL_USART_TransmitReceive:Timeout <- [DW_OP_plus_uconst 40] [$sp+0]
	@DEBUG_VALUE: USART_WaitOnFlagUntilTimeout:Status <- 0
	@DEBUG_VALUE: USART_WaitOnFlagUntilTimeout:Flag <- 128
	.loc	7 2825 11                       @ c:/Keil_v5\ARM\PACK\Keil\STM32L5xx_DFP\1.3.0\Drivers\STM32L5xx_HAL_Driver\Src\stm32l5xx_hal_usart.c:2825:11
	ldr	r1, [r0, #28]
	.loc	7 2825 3                        @ c:/Keil_v5\ARM\PACK\Keil\STM32L5xx_DFP\1.3.0\Drivers\STM32L5xx_HAL_Driver\Src\stm32l5xx_hal_usart.c:2825:3
	lsls	r1, r1, #24
	bpl	.LBB6_23
.Ltmp304:
.LBB6_26:
	@DEBUG_VALUE: HAL_USART_TransmitReceive:ptxdata16bits <- $r10
	@DEBUG_VALUE: HAL_USART_TransmitReceive:prxdata16bits <- $r9
	@DEBUG_VALUE: HAL_USART_TransmitReceive:tickstart <- $r7
	@DEBUG_VALUE: HAL_USART_TransmitReceive:ptxdata8bits <- $r6
	@DEBUG_VALUE: HAL_USART_TransmitReceive:prxdata8bits <- $r5
	@DEBUG_VALUE: HAL_USART_TransmitReceive:husart <- $r4
	@DEBUG_VALUE: HAL_USART_TransmitReceive:Timeout <- [DW_OP_plus_uconst 40] [$sp+0]
	.loc	7 0 3                           @ c:/Keil_v5\ARM\PACK\Keil\STM32L5xx_DFP\1.3.0\Drivers\STM32L5xx_HAL_Driver\Src\stm32l5xx_hal_usart.c:0:3
	cbz	r6, .LBB6_30
.Ltmp305:
@ %bb.27:
	@DEBUG_VALUE: HAL_USART_TransmitReceive:ptxdata16bits <- $r10
	@DEBUG_VALUE: HAL_USART_TransmitReceive:prxdata16bits <- $r9
	@DEBUG_VALUE: HAL_USART_TransmitReceive:tickstart <- $r7
	@DEBUG_VALUE: HAL_USART_TransmitReceive:ptxdata8bits <- $r6
	@DEBUG_VALUE: HAL_USART_TransmitReceive:prxdata8bits <- $r5
	@DEBUG_VALUE: HAL_USART_TransmitReceive:husart <- $r4
	@DEBUG_VALUE: HAL_USART_TransmitReceive:Timeout <- [DW_OP_plus_uconst 40] [$sp+0]
	.loc	7 1026 43 is_stmt 1             @ c:/Keil_v5\ARM\PACK\Keil\STM32L5xx_DFP\1.3.0\Drivers\STM32L5xx_HAL_Driver\Src\stm32l5xx_hal_usart.c:1026:43
	ldrb	r1, [r6], #1
.Ltmp306:
	.loc	7 1026 59 is_stmt 0             @ c:/Keil_v5\ARM\PACK\Keil\STM32L5xx_DFP\1.3.0\Drivers\STM32L5xx_HAL_Driver\Src\stm32l5xx_hal_usart.c:1026:59
	and.w	r1, r1, r8
	b	.LBB6_31
.Ltmp307:
	.p2align	2
.LBB6_28:                               @   in Loop: Header=BB6_29 Depth=1
	@DEBUG_VALUE: USART_WaitOnFlagUntilTimeout:Timeout <- $r11
	@DEBUG_VALUE: HAL_USART_TransmitReceive:ptxdata16bits <- $r10
	@DEBUG_VALUE: HAL_USART_TransmitReceive:prxdata16bits <- $r9
	@DEBUG_VALUE: USART_WaitOnFlagUntilTimeout:Tickstart <- $r7
	@DEBUG_VALUE: HAL_USART_TransmitReceive:tickstart <- $r7
	@DEBUG_VALUE: HAL_USART_TransmitReceive:ptxdata8bits <- $r6
	@DEBUG_VALUE: HAL_USART_TransmitReceive:prxdata8bits <- $r5
	@DEBUG_VALUE: USART_WaitOnFlagUntilTimeout:husart <- $r4
	@DEBUG_VALUE: HAL_USART_TransmitReceive:husart <- $r4
	@DEBUG_VALUE: HAL_USART_TransmitReceive:Timeout <- [DW_OP_plus_uconst 40] [$sp+0]
	@DEBUG_VALUE: USART_WaitOnFlagUntilTimeout:Status <- 0
	@DEBUG_VALUE: USART_WaitOnFlagUntilTimeout:Flag <- 128
	.loc	7 2825 11 is_stmt 1             @ c:/Keil_v5\ARM\PACK\Keil\STM32L5xx_DFP\1.3.0\Drivers\STM32L5xx_HAL_Driver\Src\stm32l5xx_hal_usart.c:2825:11
	ldr	r0, [r4]
	ldr	r1, [r0, #28]
	.loc	7 2825 3 is_stmt 0              @ c:/Keil_v5\ARM\PACK\Keil\STM32L5xx_DFP\1.3.0\Drivers\STM32L5xx_HAL_Driver\Src\stm32l5xx_hal_usart.c:2825:3
	lsls	r1, r1, #24
	bmi	.LBB6_26
.Ltmp308:
.LBB6_29:                               @ =>This Inner Loop Header: Depth=1
	@DEBUG_VALUE: USART_WaitOnFlagUntilTimeout:Timeout <- $r11
	@DEBUG_VALUE: HAL_USART_TransmitReceive:ptxdata16bits <- $r10
	@DEBUG_VALUE: HAL_USART_TransmitReceive:prxdata16bits <- $r9
	@DEBUG_VALUE: USART_WaitOnFlagUntilTimeout:Tickstart <- $r7
	@DEBUG_VALUE: HAL_USART_TransmitReceive:tickstart <- $r7
	@DEBUG_VALUE: HAL_USART_TransmitReceive:ptxdata8bits <- $r6
	@DEBUG_VALUE: HAL_USART_TransmitReceive:prxdata8bits <- $r5
	@DEBUG_VALUE: USART_WaitOnFlagUntilTimeout:husart <- $r4
	@DEBUG_VALUE: HAL_USART_TransmitReceive:husart <- $r4
	@DEBUG_VALUE: HAL_USART_TransmitReceive:Timeout <- [DW_OP_plus_uconst 40] [$sp+0]
	@DEBUG_VALUE: USART_WaitOnFlagUntilTimeout:Status <- 0
	@DEBUG_VALUE: USART_WaitOnFlagUntilTimeout:Flag <- 128
	.loc	7 2830 13 is_stmt 1             @ c:/Keil_v5\ARM\PACK\Keil\STM32L5xx_DFP\1.3.0\Drivers\STM32L5xx_HAL_Driver\Src\stm32l5xx_hal_usart.c:2830:13
	bl	HAL_GetTick
	.loc	7 2830 27 is_stmt 0             @ c:/Keil_v5\ARM\PACK\Keil\STM32L5xx_DFP\1.3.0\Drivers\STM32L5xx_HAL_Driver\Src\stm32l5xx_hal_usart.c:2830:27
	subs	r0, r0, r7
	.loc	7 2830 51                       @ c:/Keil_v5\ARM\PACK\Keil\STM32L5xx_DFP\1.3.0\Drivers\STM32L5xx_HAL_Driver\Src\stm32l5xx_hal_usart.c:2830:51
	cmp	r0, r11
	bls	.LBB6_28
	b	.LBB6_72
.Ltmp309:
	.p2align	2
.LBB6_30:
	@DEBUG_VALUE: HAL_USART_TransmitReceive:ptxdata16bits <- $r10
	@DEBUG_VALUE: HAL_USART_TransmitReceive:prxdata16bits <- $r9
	@DEBUG_VALUE: HAL_USART_TransmitReceive:tickstart <- $r7
	@DEBUG_VALUE: HAL_USART_TransmitReceive:ptxdata8bits <- $r6
	@DEBUG_VALUE: HAL_USART_TransmitReceive:prxdata8bits <- $r5
	@DEBUG_VALUE: HAL_USART_TransmitReceive:husart <- $r4
	@DEBUG_VALUE: HAL_USART_TransmitReceive:Timeout <- [DW_OP_plus_uconst 40] [$sp+0]
	.loc	7 1021 44 is_stmt 1             @ c:/Keil_v5\ARM\PACK\Keil\STM32L5xx_DFP\1.3.0\Drivers\STM32L5xx_HAL_Driver\Src\stm32l5xx_hal_usart.c:1021:44
	ldrh	r1, [r10], #2
.Ltmp310:
	.loc	7 0 44 is_stmt 0                @ c:/Keil_v5\ARM\PACK\Keil\STM32L5xx_DFP\1.3.0\Drivers\STM32L5xx_HAL_Driver\Src\stm32l5xx_hal_usart.c:0:44
	movs	r6, #0
.Ltmp311:
	@DEBUG_VALUE: HAL_USART_TransmitReceive:ptxdata16bits <- $r10
	.loc	7 1021 59                       @ c:/Keil_v5\ARM\PACK\Keil\STM32L5xx_DFP\1.3.0\Drivers\STM32L5xx_HAL_Driver\Src\stm32l5xx_hal_usart.c:1021:59
	and.w	r1, r1, r8
.Ltmp312:
.LBB6_31:
	@DEBUG_VALUE: HAL_USART_TransmitReceive:ptxdata16bits <- $r10
	@DEBUG_VALUE: HAL_USART_TransmitReceive:prxdata16bits <- $r9
	@DEBUG_VALUE: HAL_USART_TransmitReceive:tickstart <- $r7
	@DEBUG_VALUE: HAL_USART_TransmitReceive:prxdata8bits <- $r5
	@DEBUG_VALUE: HAL_USART_TransmitReceive:husart <- $r4
	@DEBUG_VALUE: HAL_USART_TransmitReceive:Timeout <- [DW_OP_plus_uconst 40] [$sp+0]
	.loc	7 0 0                           @ c:/Keil_v5\ARM\PACK\Keil\STM32L5xx_DFP\1.3.0\Drivers\STM32L5xx_HAL_Driver\Src\stm32l5xx_hal_usart.c:0:0
	str	r1, [r0, #40]
.Ltmp313:
	@DEBUG_VALUE: HAL_USART_TransmitReceive:ptxdata8bits <- $r6
	@DEBUG_VALUE: HAL_USART_TransmitReceive:ptxdata16bits <- $r10
	.loc	7 1030 26 is_stmt 1             @ c:/Keil_v5\ARM\PACK\Keil\STM32L5xx_DFP\1.3.0\Drivers\STM32L5xx_HAL_Driver\Src\stm32l5xx_hal_usart.c:1030:26
	ldrh	r0, [r4, #46]
	subs	r0, #1
	strh	r0, [r4, #46]
.Ltmp314:
.LBB6_32:
	@DEBUG_VALUE: HAL_USART_TransmitReceive:ptxdata16bits <- $r10
	@DEBUG_VALUE: HAL_USART_TransmitReceive:prxdata16bits <- $r9
	@DEBUG_VALUE: HAL_USART_TransmitReceive:tickstart <- $r7
	@DEBUG_VALUE: HAL_USART_TransmitReceive:ptxdata8bits <- $r6
	@DEBUG_VALUE: HAL_USART_TransmitReceive:prxdata8bits <- $r5
	@DEBUG_VALUE: HAL_USART_TransmitReceive:husart <- $r4
	@DEBUG_VALUE: HAL_USART_TransmitReceive:Timeout <- [DW_OP_plus_uconst 40] [$sp+0]
	@DEBUG_VALUE: HAL_USART_TransmitReceive:ptxdata8bits <- $r6
	@DEBUG_VALUE: HAL_USART_TransmitReceive:ptxdata16bits <- $r10
	@DEBUG_VALUE: HAL_USART_TransmitReceive:rxdatacount <- undef
	.loc	7 0 0 is_stmt 0                 @ c:/Keil_v5\ARM\PACK\Keil\STM32L5xx_DFP\1.3.0\Drivers\STM32L5xx_HAL_Driver\Src\stm32l5xx_hal_usart.c:0:0
	ldrh	r0, [r4, #54]
.Ltmp315:
	@DEBUG_VALUE: HAL_USART_TransmitReceive:rxdatacount <- $r0
	@DEBUG_VALUE: HAL_USART_TransmitReceive:prxdata16bits <- $r9
	@DEBUG_VALUE: HAL_USART_TransmitReceive:prxdata8bits <- $r5
	.loc	7 1036 21 is_stmt 1             @ c:/Keil_v5\ARM\PACK\Keil\STM32L5xx_DFP\1.3.0\Drivers\STM32L5xx_HAL_Driver\Src\stm32l5xx_hal_usart.c:1036:21
	ldrh	r1, [r4, #46]
	.loc	7 1036 39 is_stmt 0             @ c:/Keil_v5\ARM\PACK\Keil\STM32L5xx_DFP\1.3.0\Drivers\STM32L5xx_HAL_Driver\Src\stm32l5xx_hal_usart.c:1036:39
	orrs	r0, r1
.Ltmp316:
	.loc	7 1036 5                        @ c:/Keil_v5\ARM\PACK\Keil\STM32L5xx_DFP\1.3.0\Drivers\STM32L5xx_HAL_Driver\Src\stm32l5xx_hal_usart.c:1036:5
	lsls	r0, r0, #16
	beq	.LBB6_53
.Ltmp317:
@ %bb.33:
	@DEBUG_VALUE: HAL_USART_TransmitReceive:ptxdata16bits <- $r10
	@DEBUG_VALUE: HAL_USART_TransmitReceive:prxdata16bits <- $r9
	@DEBUG_VALUE: HAL_USART_TransmitReceive:tickstart <- $r7
	@DEBUG_VALUE: HAL_USART_TransmitReceive:ptxdata8bits <- $r6
	@DEBUG_VALUE: HAL_USART_TransmitReceive:prxdata8bits <- $r5
	@DEBUG_VALUE: HAL_USART_TransmitReceive:husart <- $r4
	@DEBUG_VALUE: HAL_USART_TransmitReceive:Timeout <- [DW_OP_plus_uconst 40] [$sp+0]
	adds.w	r0, r11, #1
	beq	.LBB6_57
.Ltmp318:
.LBB6_34:                               @ =>This Loop Header: Depth=1
                                        @     Child Loop BB6_37 Depth 2
                                        @     Child Loop BB6_46 Depth 2
	@DEBUG_VALUE: HAL_USART_TransmitReceive:ptxdata16bits <- $r10
	@DEBUG_VALUE: HAL_USART_TransmitReceive:prxdata16bits <- $r9
	@DEBUG_VALUE: HAL_USART_TransmitReceive:tickstart <- $r7
	@DEBUG_VALUE: HAL_USART_TransmitReceive:ptxdata8bits <- $r6
	@DEBUG_VALUE: HAL_USART_TransmitReceive:prxdata8bits <- $r5
	@DEBUG_VALUE: HAL_USART_TransmitReceive:husart <- $r4
	@DEBUG_VALUE: HAL_USART_TransmitReceive:Timeout <- [DW_OP_plus_uconst 40] [$sp+0]
	@DEBUG_VALUE: HAL_USART_TransmitReceive:prxdata8bits <- $r5
	@DEBUG_VALUE: HAL_USART_TransmitReceive:ptxdata8bits <- $r6
	@DEBUG_VALUE: HAL_USART_TransmitReceive:ptxdata16bits <- $r10
	@DEBUG_VALUE: HAL_USART_TransmitReceive:prxdata16bits <- $r9
	.loc	7 1038 19 is_stmt 1             @ c:/Keil_v5\ARM\PACK\Keil\STM32L5xx_DFP\1.3.0\Drivers\STM32L5xx_HAL_Driver\Src\stm32l5xx_hal_usart.c:1038:19
	ldrh	r0, [r4, #46]
.Ltmp319:
	.loc	7 1038 11 is_stmt 0             @ c:/Keil_v5\ARM\PACK\Keil\STM32L5xx_DFP\1.3.0\Drivers\STM32L5xx_HAL_Driver\Src\stm32l5xx_hal_usart.c:1038:11
	cbz	r0, .LBB6_43
.Ltmp320:
@ %bb.35:                               @   in Loop: Header=BB6_34 Depth=1
	@DEBUG_VALUE: HAL_USART_TransmitReceive:ptxdata16bits <- $r10
	@DEBUG_VALUE: HAL_USART_TransmitReceive:prxdata16bits <- $r9
	@DEBUG_VALUE: HAL_USART_TransmitReceive:tickstart <- $r7
	@DEBUG_VALUE: HAL_USART_TransmitReceive:ptxdata8bits <- $r6
	@DEBUG_VALUE: HAL_USART_TransmitReceive:prxdata8bits <- $r5
	@DEBUG_VALUE: HAL_USART_TransmitReceive:husart <- $r4
	@DEBUG_VALUE: HAL_USART_TransmitReceive:Timeout <- [DW_OP_plus_uconst 40] [$sp+0]
	@DEBUG_VALUE: USART_WaitOnFlagUntilTimeout:husart <- $r4
	@DEBUG_VALUE: USART_WaitOnFlagUntilTimeout:Flag <- 128
	@DEBUG_VALUE: USART_WaitOnFlagUntilTimeout:Status <- 0
	@DEBUG_VALUE: USART_WaitOnFlagUntilTimeout:Tickstart <- $r7
	@DEBUG_VALUE: USART_WaitOnFlagUntilTimeout:Timeout <- $r11
	.loc	7 2825 11 is_stmt 1             @ c:/Keil_v5\ARM\PACK\Keil\STM32L5xx_DFP\1.3.0\Drivers\STM32L5xx_HAL_Driver\Src\stm32l5xx_hal_usart.c:2825:11
	ldr	r0, [r4]
	ldr	r1, [r0, #28]
	.loc	7 2825 3 is_stmt 0              @ c:/Keil_v5\ARM\PACK\Keil\STM32L5xx_DFP\1.3.0\Drivers\STM32L5xx_HAL_Driver\Src\stm32l5xx_hal_usart.c:2825:3
	lsls	r1, r1, #24
	bmi	.LBB6_39
.Ltmp321:
@ %bb.36:                               @   in Loop: Header=BB6_34 Depth=1
	@DEBUG_VALUE: USART_WaitOnFlagUntilTimeout:Timeout <- $r11
	@DEBUG_VALUE: HAL_USART_TransmitReceive:ptxdata16bits <- $r10
	@DEBUG_VALUE: HAL_USART_TransmitReceive:prxdata16bits <- $r9
	@DEBUG_VALUE: USART_WaitOnFlagUntilTimeout:Tickstart <- $r7
	@DEBUG_VALUE: HAL_USART_TransmitReceive:tickstart <- $r7
	@DEBUG_VALUE: HAL_USART_TransmitReceive:ptxdata8bits <- $r6
	@DEBUG_VALUE: HAL_USART_TransmitReceive:prxdata8bits <- $r5
	@DEBUG_VALUE: USART_WaitOnFlagUntilTimeout:husart <- $r4
	@DEBUG_VALUE: HAL_USART_TransmitReceive:husart <- $r4
	@DEBUG_VALUE: HAL_USART_TransmitReceive:Timeout <- [DW_OP_plus_uconst 40] [$sp+0]
	@DEBUG_VALUE: USART_WaitOnFlagUntilTimeout:Status <- 0
	@DEBUG_VALUE: USART_WaitOnFlagUntilTimeout:Flag <- 128
	cmp.w	r11, #0
	beq.w	.LBB6_73
.Ltmp322:
	.p2align	2
.LBB6_37:                               @   Parent Loop BB6_34 Depth=1
                                        @ =>  This Inner Loop Header: Depth=2
	@DEBUG_VALUE: USART_WaitOnFlagUntilTimeout:Timeout <- $r11
	@DEBUG_VALUE: HAL_USART_TransmitReceive:ptxdata16bits <- $r10
	@DEBUG_VALUE: HAL_USART_TransmitReceive:prxdata16bits <- $r9
	@DEBUG_VALUE: USART_WaitOnFlagUntilTimeout:Tickstart <- $r7
	@DEBUG_VALUE: HAL_USART_TransmitReceive:tickstart <- $r7
	@DEBUG_VALUE: HAL_USART_TransmitReceive:ptxdata8bits <- $r6
	@DEBUG_VALUE: HAL_USART_TransmitReceive:prxdata8bits <- $r5
	@DEBUG_VALUE: USART_WaitOnFlagUntilTimeout:husart <- $r4
	@DEBUG_VALUE: HAL_USART_TransmitReceive:husart <- $r4
	@DEBUG_VALUE: HAL_USART_TransmitReceive:Timeout <- [DW_OP_plus_uconst 40] [$sp+0]
	@DEBUG_VALUE: USART_WaitOnFlagUntilTimeout:Status <- 0
	@DEBUG_VALUE: USART_WaitOnFlagUntilTimeout:Flag <- 128
	.loc	7 2830 13 is_stmt 1             @ c:/Keil_v5\ARM\PACK\Keil\STM32L5xx_DFP\1.3.0\Drivers\STM32L5xx_HAL_Driver\Src\stm32l5xx_hal_usart.c:2830:13
	bl	HAL_GetTick
	.loc	7 2830 27 is_stmt 0             @ c:/Keil_v5\ARM\PACK\Keil\STM32L5xx_DFP\1.3.0\Drivers\STM32L5xx_HAL_Driver\Src\stm32l5xx_hal_usart.c:2830:27
	subs	r0, r0, r7
	.loc	7 2830 51                       @ c:/Keil_v5\ARM\PACK\Keil\STM32L5xx_DFP\1.3.0\Drivers\STM32L5xx_HAL_Driver\Src\stm32l5xx_hal_usart.c:2830:51
	cmp	r0, r11
	bhi.w	.LBB6_72
.Ltmp323:
@ %bb.38:                               @   in Loop: Header=BB6_37 Depth=2
	@DEBUG_VALUE: USART_WaitOnFlagUntilTimeout:Timeout <- $r11
	@DEBUG_VALUE: HAL_USART_TransmitReceive:ptxdata16bits <- $r10
	@DEBUG_VALUE: HAL_USART_TransmitReceive:prxdata16bits <- $r9
	@DEBUG_VALUE: USART_WaitOnFlagUntilTimeout:Tickstart <- $r7
	@DEBUG_VALUE: HAL_USART_TransmitReceive:tickstart <- $r7
	@DEBUG_VALUE: HAL_USART_TransmitReceive:ptxdata8bits <- $r6
	@DEBUG_VALUE: HAL_USART_TransmitReceive:prxdata8bits <- $r5
	@DEBUG_VALUE: USART_WaitOnFlagUntilTimeout:husart <- $r4
	@DEBUG_VALUE: HAL_USART_TransmitReceive:husart <- $r4
	@DEBUG_VALUE: HAL_USART_TransmitReceive:Timeout <- [DW_OP_plus_uconst 40] [$sp+0]
	@DEBUG_VALUE: USART_WaitOnFlagUntilTimeout:Status <- 0
	@DEBUG_VALUE: USART_WaitOnFlagUntilTimeout:Flag <- 128
	.loc	7 2825 11 is_stmt 1             @ c:/Keil_v5\ARM\PACK\Keil\STM32L5xx_DFP\1.3.0\Drivers\STM32L5xx_HAL_Driver\Src\stm32l5xx_hal_usart.c:2825:11
	ldr	r0, [r4]
	ldr	r1, [r0, #28]
	.loc	7 2825 3 is_stmt 0              @ c:/Keil_v5\ARM\PACK\Keil\STM32L5xx_DFP\1.3.0\Drivers\STM32L5xx_HAL_Driver\Src\stm32l5xx_hal_usart.c:2825:3
	lsls	r1, r1, #24
	bpl	.LBB6_37
.Ltmp324:
.LBB6_39:                               @   in Loop: Header=BB6_34 Depth=1
	@DEBUG_VALUE: HAL_USART_TransmitReceive:ptxdata16bits <- $r10
	@DEBUG_VALUE: HAL_USART_TransmitReceive:prxdata16bits <- $r9
	@DEBUG_VALUE: HAL_USART_TransmitReceive:tickstart <- $r7
	@DEBUG_VALUE: HAL_USART_TransmitReceive:ptxdata8bits <- $r6
	@DEBUG_VALUE: HAL_USART_TransmitReceive:prxdata8bits <- $r5
	@DEBUG_VALUE: HAL_USART_TransmitReceive:husart <- $r4
	@DEBUG_VALUE: HAL_USART_TransmitReceive:Timeout <- [DW_OP_plus_uconst 40] [$sp+0]
	.loc	7 1045 13 is_stmt 1             @ c:/Keil_v5\ARM\PACK\Keil\STM32L5xx_DFP\1.3.0\Drivers\STM32L5xx_HAL_Driver\Src\stm32l5xx_hal_usart.c:1045:13
	cbz	r6, .LBB6_41
.Ltmp325:
@ %bb.40:                               @   in Loop: Header=BB6_34 Depth=1
	@DEBUG_VALUE: HAL_USART_TransmitReceive:ptxdata16bits <- $r10
	@DEBUG_VALUE: HAL_USART_TransmitReceive:prxdata16bits <- $r9
	@DEBUG_VALUE: HAL_USART_TransmitReceive:tickstart <- $r7
	@DEBUG_VALUE: HAL_USART_TransmitReceive:ptxdata8bits <- $r6
	@DEBUG_VALUE: HAL_USART_TransmitReceive:prxdata8bits <- $r5
	@DEBUG_VALUE: HAL_USART_TransmitReceive:husart <- $r4
	@DEBUG_VALUE: HAL_USART_TransmitReceive:Timeout <- [DW_OP_plus_uconst 40] [$sp+0]
	.loc	7 1052 45                       @ c:/Keil_v5\ARM\PACK\Keil\STM32L5xx_DFP\1.3.0\Drivers\STM32L5xx_HAL_Driver\Src\stm32l5xx_hal_usart.c:1052:45
	ldrb	r1, [r6], #1
.Ltmp326:
	.loc	7 0 45 is_stmt 0                @ c:/Keil_v5\ARM\PACK\Keil\STM32L5xx_DFP\1.3.0\Drivers\STM32L5xx_HAL_Driver\Src\stm32l5xx_hal_usart.c:0:45
	and.w	r1, r1, r8
	b	.LBB6_42
.Ltmp327:
	.p2align	2
.LBB6_41:                               @   in Loop: Header=BB6_34 Depth=1
	@DEBUG_VALUE: HAL_USART_TransmitReceive:ptxdata16bits <- $r10
	@DEBUG_VALUE: HAL_USART_TransmitReceive:prxdata16bits <- $r9
	@DEBUG_VALUE: HAL_USART_TransmitReceive:tickstart <- $r7
	@DEBUG_VALUE: HAL_USART_TransmitReceive:ptxdata8bits <- $r6
	@DEBUG_VALUE: HAL_USART_TransmitReceive:prxdata8bits <- $r5
	@DEBUG_VALUE: HAL_USART_TransmitReceive:husart <- $r4
	@DEBUG_VALUE: HAL_USART_TransmitReceive:Timeout <- [DW_OP_plus_uconst 40] [$sp+0]
	.loc	7 1047 46 is_stmt 1             @ c:/Keil_v5\ARM\PACK\Keil\STM32L5xx_DFP\1.3.0\Drivers\STM32L5xx_HAL_Driver\Src\stm32l5xx_hal_usart.c:1047:46
	ldrh	r1, [r10], #2
.Ltmp328:
	.loc	7 0 46 is_stmt 0                @ c:/Keil_v5\ARM\PACK\Keil\STM32L5xx_DFP\1.3.0\Drivers\STM32L5xx_HAL_Driver\Src\stm32l5xx_hal_usart.c:0:46
	movs	r6, #0
.Ltmp329:
	@DEBUG_VALUE: HAL_USART_TransmitReceive:ptxdata16bits <- $r10
	.loc	7 1047 61                       @ c:/Keil_v5\ARM\PACK\Keil\STM32L5xx_DFP\1.3.0\Drivers\STM32L5xx_HAL_Driver\Src\stm32l5xx_hal_usart.c:1047:61
	and.w	r1, r1, r8
.Ltmp330:
.LBB6_42:                               @   in Loop: Header=BB6_34 Depth=1
	@DEBUG_VALUE: HAL_USART_TransmitReceive:ptxdata16bits <- $r10
	@DEBUG_VALUE: HAL_USART_TransmitReceive:prxdata16bits <- $r9
	@DEBUG_VALUE: HAL_USART_TransmitReceive:tickstart <- $r7
	@DEBUG_VALUE: HAL_USART_TransmitReceive:prxdata8bits <- $r5
	@DEBUG_VALUE: HAL_USART_TransmitReceive:husart <- $r4
	@DEBUG_VALUE: HAL_USART_TransmitReceive:Timeout <- [DW_OP_plus_uconst 40] [$sp+0]
	.loc	7 0 0                           @ c:/Keil_v5\ARM\PACK\Keil\STM32L5xx_DFP\1.3.0\Drivers\STM32L5xx_HAL_Driver\Src\stm32l5xx_hal_usart.c:0:0
	str	r1, [r0, #40]
.Ltmp331:
	@DEBUG_VALUE: HAL_USART_TransmitReceive:ptxdata8bits <- $r6
	@DEBUG_VALUE: HAL_USART_TransmitReceive:ptxdata16bits <- $r10
	.loc	7 1056 28 is_stmt 1             @ c:/Keil_v5\ARM\PACK\Keil\STM32L5xx_DFP\1.3.0\Drivers\STM32L5xx_HAL_Driver\Src\stm32l5xx_hal_usart.c:1056:28
	ldrh	r0, [r4, #46]
	subs	r0, #1
	strh	r0, [r4, #46]
.Ltmp332:
.LBB6_43:                               @   in Loop: Header=BB6_34 Depth=1
	@DEBUG_VALUE: HAL_USART_TransmitReceive:ptxdata16bits <- $r10
	@DEBUG_VALUE: HAL_USART_TransmitReceive:prxdata16bits <- $r9
	@DEBUG_VALUE: HAL_USART_TransmitReceive:tickstart <- $r7
	@DEBUG_VALUE: HAL_USART_TransmitReceive:ptxdata8bits <- $r6
	@DEBUG_VALUE: HAL_USART_TransmitReceive:prxdata8bits <- $r5
	@DEBUG_VALUE: HAL_USART_TransmitReceive:husart <- $r4
	@DEBUG_VALUE: HAL_USART_TransmitReceive:Timeout <- [DW_OP_plus_uconst 40] [$sp+0]
	@DEBUG_VALUE: HAL_USART_TransmitReceive:ptxdata8bits <- $r6
	@DEBUG_VALUE: HAL_USART_TransmitReceive:ptxdata16bits <- $r10
	.loc	7 1059 19                       @ c:/Keil_v5\ARM\PACK\Keil\STM32L5xx_DFP\1.3.0\Drivers\STM32L5xx_HAL_Driver\Src\stm32l5xx_hal_usart.c:1059:19
	ldrh	r0, [r4, #54]
.Ltmp333:
	.loc	7 1059 11 is_stmt 0             @ c:/Keil_v5\ARM\PACK\Keil\STM32L5xx_DFP\1.3.0\Drivers\STM32L5xx_HAL_Driver\Src\stm32l5xx_hal_usart.c:1059:11
	cbz	r0, .LBB6_52
.Ltmp334:
@ %bb.44:                               @   in Loop: Header=BB6_34 Depth=1
	@DEBUG_VALUE: HAL_USART_TransmitReceive:ptxdata16bits <- $r10
	@DEBUG_VALUE: HAL_USART_TransmitReceive:prxdata16bits <- $r9
	@DEBUG_VALUE: HAL_USART_TransmitReceive:tickstart <- $r7
	@DEBUG_VALUE: HAL_USART_TransmitReceive:ptxdata8bits <- $r6
	@DEBUG_VALUE: HAL_USART_TransmitReceive:prxdata8bits <- $r5
	@DEBUG_VALUE: HAL_USART_TransmitReceive:husart <- $r4
	@DEBUG_VALUE: HAL_USART_TransmitReceive:Timeout <- [DW_OP_plus_uconst 40] [$sp+0]
	@DEBUG_VALUE: USART_WaitOnFlagUntilTimeout:husart <- $r4
	@DEBUG_VALUE: USART_WaitOnFlagUntilTimeout:Flag <- 32
	@DEBUG_VALUE: USART_WaitOnFlagUntilTimeout:Status <- 0
	@DEBUG_VALUE: USART_WaitOnFlagUntilTimeout:Tickstart <- $r7
	@DEBUG_VALUE: USART_WaitOnFlagUntilTimeout:Timeout <- $r11
	.loc	7 2825 11 is_stmt 1             @ c:/Keil_v5\ARM\PACK\Keil\STM32L5xx_DFP\1.3.0\Drivers\STM32L5xx_HAL_Driver\Src\stm32l5xx_hal_usart.c:2825:11
	ldr	r0, [r4]
	ldr	r1, [r0, #28]
	.loc	7 2825 3 is_stmt 0              @ c:/Keil_v5\ARM\PACK\Keil\STM32L5xx_DFP\1.3.0\Drivers\STM32L5xx_HAL_Driver\Src\stm32l5xx_hal_usart.c:2825:3
	lsls	r1, r1, #26
	bmi	.LBB6_48
.Ltmp335:
@ %bb.45:                               @   in Loop: Header=BB6_34 Depth=1
	@DEBUG_VALUE: USART_WaitOnFlagUntilTimeout:Timeout <- $r11
	@DEBUG_VALUE: HAL_USART_TransmitReceive:ptxdata16bits <- $r10
	@DEBUG_VALUE: HAL_USART_TransmitReceive:prxdata16bits <- $r9
	@DEBUG_VALUE: USART_WaitOnFlagUntilTimeout:Tickstart <- $r7
	@DEBUG_VALUE: HAL_USART_TransmitReceive:tickstart <- $r7
	@DEBUG_VALUE: HAL_USART_TransmitReceive:ptxdata8bits <- $r6
	@DEBUG_VALUE: HAL_USART_TransmitReceive:prxdata8bits <- $r5
	@DEBUG_VALUE: USART_WaitOnFlagUntilTimeout:husart <- $r4
	@DEBUG_VALUE: HAL_USART_TransmitReceive:husart <- $r4
	@DEBUG_VALUE: HAL_USART_TransmitReceive:Timeout <- [DW_OP_plus_uconst 40] [$sp+0]
	@DEBUG_VALUE: USART_WaitOnFlagUntilTimeout:Status <- 0
	@DEBUG_VALUE: USART_WaitOnFlagUntilTimeout:Flag <- 32
	cmp.w	r11, #0
	beq.w	.LBB6_74
.Ltmp336:
	.p2align	2
.LBB6_46:                               @   Parent Loop BB6_34 Depth=1
                                        @ =>  This Inner Loop Header: Depth=2
	@DEBUG_VALUE: USART_WaitOnFlagUntilTimeout:Timeout <- $r11
	@DEBUG_VALUE: HAL_USART_TransmitReceive:ptxdata16bits <- $r10
	@DEBUG_VALUE: HAL_USART_TransmitReceive:prxdata16bits <- $r9
	@DEBUG_VALUE: USART_WaitOnFlagUntilTimeout:Tickstart <- $r7
	@DEBUG_VALUE: HAL_USART_TransmitReceive:tickstart <- $r7
	@DEBUG_VALUE: HAL_USART_TransmitReceive:ptxdata8bits <- $r6
	@DEBUG_VALUE: HAL_USART_TransmitReceive:prxdata8bits <- $r5
	@DEBUG_VALUE: USART_WaitOnFlagUntilTimeout:husart <- $r4
	@DEBUG_VALUE: HAL_USART_TransmitReceive:husart <- $r4
	@DEBUG_VALUE: HAL_USART_TransmitReceive:Timeout <- [DW_OP_plus_uconst 40] [$sp+0]
	@DEBUG_VALUE: USART_WaitOnFlagUntilTimeout:Status <- 0
	@DEBUG_VALUE: USART_WaitOnFlagUntilTimeout:Flag <- 32
	.loc	7 2830 13 is_stmt 1             @ c:/Keil_v5\ARM\PACK\Keil\STM32L5xx_DFP\1.3.0\Drivers\STM32L5xx_HAL_Driver\Src\stm32l5xx_hal_usart.c:2830:13
	bl	HAL_GetTick
	.loc	7 2830 27 is_stmt 0             @ c:/Keil_v5\ARM\PACK\Keil\STM32L5xx_DFP\1.3.0\Drivers\STM32L5xx_HAL_Driver\Src\stm32l5xx_hal_usart.c:2830:27
	subs	r0, r0, r7
	.loc	7 2830 51                       @ c:/Keil_v5\ARM\PACK\Keil\STM32L5xx_DFP\1.3.0\Drivers\STM32L5xx_HAL_Driver\Src\stm32l5xx_hal_usart.c:2830:51
	cmp	r0, r11
	bhi	.LBB6_72
.Ltmp337:
@ %bb.47:                               @   in Loop: Header=BB6_46 Depth=2
	@DEBUG_VALUE: USART_WaitOnFlagUntilTimeout:Timeout <- $r11
	@DEBUG_VALUE: HAL_USART_TransmitReceive:ptxdata16bits <- $r10
	@DEBUG_VALUE: HAL_USART_TransmitReceive:prxdata16bits <- $r9
	@DEBUG_VALUE: USART_WaitOnFlagUntilTimeout:Tickstart <- $r7
	@DEBUG_VALUE: HAL_USART_TransmitReceive:tickstart <- $r7
	@DEBUG_VALUE: HAL_USART_TransmitReceive:ptxdata8bits <- $r6
	@DEBUG_VALUE: HAL_USART_TransmitReceive:prxdata8bits <- $r5
	@DEBUG_VALUE: USART_WaitOnFlagUntilTimeout:husart <- $r4
	@DEBUG_VALUE: HAL_USART_TransmitReceive:husart <- $r4
	@DEBUG_VALUE: HAL_USART_TransmitReceive:Timeout <- [DW_OP_plus_uconst 40] [$sp+0]
	@DEBUG_VALUE: USART_WaitOnFlagUntilTimeout:Status <- 0
	@DEBUG_VALUE: USART_WaitOnFlagUntilTimeout:Flag <- 32
	.loc	7 2825 11 is_stmt 1             @ c:/Keil_v5\ARM\PACK\Keil\STM32L5xx_DFP\1.3.0\Drivers\STM32L5xx_HAL_Driver\Src\stm32l5xx_hal_usart.c:2825:11
	ldr	r0, [r4]
	ldr	r1, [r0, #28]
	.loc	7 2825 3 is_stmt 0              @ c:/Keil_v5\ARM\PACK\Keil\STM32L5xx_DFP\1.3.0\Drivers\STM32L5xx_HAL_Driver\Src\stm32l5xx_hal_usart.c:2825:3
	lsls	r1, r1, #26
	bpl	.LBB6_46
.Ltmp338:
.LBB6_48:                               @   in Loop: Header=BB6_34 Depth=1
	@DEBUG_VALUE: HAL_USART_TransmitReceive:ptxdata16bits <- $r10
	@DEBUG_VALUE: HAL_USART_TransmitReceive:prxdata16bits <- $r9
	@DEBUG_VALUE: HAL_USART_TransmitReceive:tickstart <- $r7
	@DEBUG_VALUE: HAL_USART_TransmitReceive:ptxdata8bits <- $r6
	@DEBUG_VALUE: HAL_USART_TransmitReceive:prxdata8bits <- $r5
	@DEBUG_VALUE: HAL_USART_TransmitReceive:husart <- $r4
	@DEBUG_VALUE: HAL_USART_TransmitReceive:Timeout <- [DW_OP_plus_uconst 40] [$sp+0]
	.loc	7 0 0                           @ c:/Keil_v5\ARM\PACK\Keil\STM32L5xx_DFP\1.3.0\Drivers\STM32L5xx_HAL_Driver\Src\stm32l5xx_hal_usart.c:0:0
	ldr	r0, [r0, #36]
.Ltmp339:
	.loc	7 1067 13 is_stmt 1             @ c:/Keil_v5\ARM\PACK\Keil\STM32L5xx_DFP\1.3.0\Drivers\STM32L5xx_HAL_Driver\Src\stm32l5xx_hal_usart.c:1067:13
	cbz	r5, .LBB6_50
.Ltmp340:
@ %bb.49:                               @   in Loop: Header=BB6_34 Depth=1
	@DEBUG_VALUE: HAL_USART_TransmitReceive:ptxdata16bits <- $r10
	@DEBUG_VALUE: HAL_USART_TransmitReceive:prxdata16bits <- $r9
	@DEBUG_VALUE: HAL_USART_TransmitReceive:tickstart <- $r7
	@DEBUG_VALUE: HAL_USART_TransmitReceive:ptxdata8bits <- $r6
	@DEBUG_VALUE: HAL_USART_TransmitReceive:prxdata8bits <- $r5
	@DEBUG_VALUE: HAL_USART_TransmitReceive:husart <- $r4
	@DEBUG_VALUE: HAL_USART_TransmitReceive:Timeout <- [DW_OP_plus_uconst 40] [$sp+0]
	.loc	7 1074 59                       @ c:/Keil_v5\ARM\PACK\Keil\STM32L5xx_DFP\1.3.0\Drivers\STM32L5xx_HAL_Driver\Src\stm32l5xx_hal_usart.c:1074:59
	and.w	r0, r0, r8
	.loc	7 1074 25 is_stmt 0             @ c:/Keil_v5\ARM\PACK\Keil\STM32L5xx_DFP\1.3.0\Drivers\STM32L5xx_HAL_Driver\Src\stm32l5xx_hal_usart.c:1074:25
	strb	r0, [r5], #1
.Ltmp341:
	@DEBUG_VALUE: HAL_USART_TransmitReceive:prxdata8bits <- $r5
	.loc	7 0 25                          @ c:/Keil_v5\ARM\PACK\Keil\STM32L5xx_DFP\1.3.0\Drivers\STM32L5xx_HAL_Driver\Src\stm32l5xx_hal_usart.c:0:25
	b	.LBB6_51
.Ltmp342:
	.p2align	2
.LBB6_50:                               @   in Loop: Header=BB6_34 Depth=1
	@DEBUG_VALUE: HAL_USART_TransmitReceive:ptxdata16bits <- $r10
	@DEBUG_VALUE: HAL_USART_TransmitReceive:prxdata16bits <- $r9
	@DEBUG_VALUE: HAL_USART_TransmitReceive:tickstart <- $r7
	@DEBUG_VALUE: HAL_USART_TransmitReceive:ptxdata8bits <- $r6
	@DEBUG_VALUE: HAL_USART_TransmitReceive:prxdata8bits <- $r5
	@DEBUG_VALUE: HAL_USART_TransmitReceive:husart <- $r4
	@DEBUG_VALUE: HAL_USART_TransmitReceive:Timeout <- [DW_OP_plus_uconst 40] [$sp+0]
	.loc	7 1069 28 is_stmt 1             @ c:/Keil_v5\ARM\PACK\Keil\STM32L5xx_DFP\1.3.0\Drivers\STM32L5xx_HAL_Driver\Src\stm32l5xx_hal_usart.c:1069:28
	and.w	r0, r0, r8
	.loc	7 1069 26 is_stmt 0             @ c:/Keil_v5\ARM\PACK\Keil\STM32L5xx_DFP\1.3.0\Drivers\STM32L5xx_HAL_Driver\Src\stm32l5xx_hal_usart.c:1069:26
	strh	r0, [r9], #2
.Ltmp343:
	.loc	7 0 26                          @ c:/Keil_v5\ARM\PACK\Keil\STM32L5xx_DFP\1.3.0\Drivers\STM32L5xx_HAL_Driver\Src\stm32l5xx_hal_usart.c:0:26
	movs	r5, #0
.Ltmp344:
	@DEBUG_VALUE: HAL_USART_TransmitReceive:prxdata16bits <- $r9
.LBB6_51:                               @   in Loop: Header=BB6_34 Depth=1
	@DEBUG_VALUE: HAL_USART_TransmitReceive:ptxdata16bits <- $r10
	@DEBUG_VALUE: HAL_USART_TransmitReceive:prxdata16bits <- $r9
	@DEBUG_VALUE: HAL_USART_TransmitReceive:tickstart <- $r7
	@DEBUG_VALUE: HAL_USART_TransmitReceive:ptxdata8bits <- $r6
	@DEBUG_VALUE: HAL_USART_TransmitReceive:husart <- $r4
	@DEBUG_VALUE: HAL_USART_TransmitReceive:Timeout <- [DW_OP_plus_uconst 40] [$sp+0]
	@DEBUG_VALUE: HAL_USART_TransmitReceive:prxdata8bits <- $r5
	@DEBUG_VALUE: HAL_USART_TransmitReceive:prxdata16bits <- $r9
	.loc	7 1078 28 is_stmt 1             @ c:/Keil_v5\ARM\PACK\Keil\STM32L5xx_DFP\1.3.0\Drivers\STM32L5xx_HAL_Driver\Src\stm32l5xx_hal_usart.c:1078:28
	ldrh	r0, [r4, #54]
	subs	r0, #1
	strh	r0, [r4, #54]
.Ltmp345:
.LBB6_52:                               @   in Loop: Header=BB6_34 Depth=1
	@DEBUG_VALUE: HAL_USART_TransmitReceive:ptxdata16bits <- $r10
	@DEBUG_VALUE: HAL_USART_TransmitReceive:prxdata16bits <- $r9
	@DEBUG_VALUE: HAL_USART_TransmitReceive:tickstart <- $r7
	@DEBUG_VALUE: HAL_USART_TransmitReceive:ptxdata8bits <- $r6
	@DEBUG_VALUE: HAL_USART_TransmitReceive:prxdata8bits <- $r5
	@DEBUG_VALUE: HAL_USART_TransmitReceive:husart <- $r4
	@DEBUG_VALUE: HAL_USART_TransmitReceive:Timeout <- [DW_OP_plus_uconst 40] [$sp+0]
	@DEBUG_VALUE: HAL_USART_TransmitReceive:prxdata8bits <- $r5
	@DEBUG_VALUE: HAL_USART_TransmitReceive:prxdata16bits <- $r9
	@DEBUG_VALUE: HAL_USART_TransmitReceive:rxdatacount <- undef
	.loc	7 0 0 is_stmt 0                 @ c:/Keil_v5\ARM\PACK\Keil\STM32L5xx_DFP\1.3.0\Drivers\STM32L5xx_HAL_Driver\Src\stm32l5xx_hal_usart.c:0:0
	ldrh	r0, [r4, #54]
.Ltmp346:
	@DEBUG_VALUE: HAL_USART_TransmitReceive:rxdatacount <- $r0
	@DEBUG_VALUE: HAL_USART_TransmitReceive:ptxdata16bits <- $r10
	@DEBUG_VALUE: HAL_USART_TransmitReceive:ptxdata8bits <- $r6
	.loc	7 1036 21 is_stmt 1             @ c:/Keil_v5\ARM\PACK\Keil\STM32L5xx_DFP\1.3.0\Drivers\STM32L5xx_HAL_Driver\Src\stm32l5xx_hal_usart.c:1036:21
	ldrh	r1, [r4, #46]
	.loc	7 1036 39 is_stmt 0             @ c:/Keil_v5\ARM\PACK\Keil\STM32L5xx_DFP\1.3.0\Drivers\STM32L5xx_HAL_Driver\Src\stm32l5xx_hal_usart.c:1036:39
	orrs	r0, r1
.Ltmp347:
	.loc	7 1036 5                        @ c:/Keil_v5\ARM\PACK\Keil\STM32L5xx_DFP\1.3.0\Drivers\STM32L5xx_HAL_Driver\Src\stm32l5xx_hal_usart.c:1036:5
	lsls	r0, r0, #16
	bne	.LBB6_34
.Ltmp348:
.LBB6_53:
	@DEBUG_VALUE: HAL_USART_TransmitReceive:ptxdata16bits <- $r10
	@DEBUG_VALUE: HAL_USART_TransmitReceive:prxdata16bits <- $r9
	@DEBUG_VALUE: HAL_USART_TransmitReceive:tickstart <- $r7
	@DEBUG_VALUE: HAL_USART_TransmitReceive:ptxdata8bits <- $r6
	@DEBUG_VALUE: HAL_USART_TransmitReceive:prxdata8bits <- $r5
	@DEBUG_VALUE: HAL_USART_TransmitReceive:husart <- $r4
	@DEBUG_VALUE: HAL_USART_TransmitReceive:Timeout <- [DW_OP_plus_uconst 40] [$sp+0]
	.loc	7 0 5                           @ c:/Keil_v5\ARM\PACK\Keil\STM32L5xx_DFP\1.3.0\Drivers\STM32L5xx_HAL_Driver\Src\stm32l5xx_hal_usart.c:0:5
	movs	r0, #1
	.loc	7 1084 19 is_stmt 1             @ c:/Keil_v5\ARM\PACK\Keil\STM32L5xx_DFP\1.3.0\Drivers\STM32L5xx_HAL_Driver\Src\stm32l5xx_hal_usart.c:1084:19
	strb.w	r0, [r4, #89]
	movs	r0, #0
.Ltmp349:
	.loc	7 1087 5                        @ c:/Keil_v5\ARM\PACK\Keil\STM32L5xx_DFP\1.3.0\Drivers\STM32L5xx_HAL_Driver\Src\stm32l5xx_hal_usart.c:1087:5
	strb.w	r0, [r4, #88]
.Ltmp350:
	.loc	7 1095 1                        @ c:/Keil_v5\ARM\PACK\Keil\STM32L5xx_DFP\1.3.0\Drivers\STM32L5xx_HAL_Driver\Src\stm32l5xx_hal_usart.c:1095:1
	add	sp, #4
	pop.w	{r4, r5, r6, r7, r8, r9, r10, r11, pc}
.Ltmp351:
	.p2align	2
.LBB6_54:                               @   in Loop: Header=BB6_57 Depth=1
	@DEBUG_VALUE: HAL_USART_TransmitReceive:ptxdata16bits <- $r10
	@DEBUG_VALUE: HAL_USART_TransmitReceive:prxdata16bits <- $r9
	@DEBUG_VALUE: HAL_USART_TransmitReceive:tickstart <- $r7
	@DEBUG_VALUE: HAL_USART_TransmitReceive:ptxdata8bits <- $r6
	@DEBUG_VALUE: HAL_USART_TransmitReceive:prxdata8bits <- $r5
	@DEBUG_VALUE: HAL_USART_TransmitReceive:husart <- $r4
	@DEBUG_VALUE: HAL_USART_TransmitReceive:Timeout <- [DW_OP_plus_uconst 40] [$sp+0]
	.loc	7 1069 28                       @ c:/Keil_v5\ARM\PACK\Keil\STM32L5xx_DFP\1.3.0\Drivers\STM32L5xx_HAL_Driver\Src\stm32l5xx_hal_usart.c:1069:28
	and.w	r0, r0, r8
	.loc	7 1069 26 is_stmt 0             @ c:/Keil_v5\ARM\PACK\Keil\STM32L5xx_DFP\1.3.0\Drivers\STM32L5xx_HAL_Driver\Src\stm32l5xx_hal_usart.c:1069:26
	strh	r0, [r9], #2
.Ltmp352:
	.loc	7 0 26                          @ c:/Keil_v5\ARM\PACK\Keil\STM32L5xx_DFP\1.3.0\Drivers\STM32L5xx_HAL_Driver\Src\stm32l5xx_hal_usart.c:0:26
	movs	r5, #0
.Ltmp353:
	@DEBUG_VALUE: HAL_USART_TransmitReceive:prxdata16bits <- $r9
.LBB6_55:                               @   in Loop: Header=BB6_57 Depth=1
	@DEBUG_VALUE: HAL_USART_TransmitReceive:ptxdata16bits <- $r10
	@DEBUG_VALUE: HAL_USART_TransmitReceive:prxdata16bits <- $r9
	@DEBUG_VALUE: HAL_USART_TransmitReceive:tickstart <- $r7
	@DEBUG_VALUE: HAL_USART_TransmitReceive:ptxdata8bits <- $r6
	@DEBUG_VALUE: HAL_USART_TransmitReceive:husart <- $r4
	@DEBUG_VALUE: HAL_USART_TransmitReceive:Timeout <- [DW_OP_plus_uconst 40] [$sp+0]
	@DEBUG_VALUE: HAL_USART_TransmitReceive:prxdata8bits <- $r5
	@DEBUG_VALUE: HAL_USART_TransmitReceive:prxdata16bits <- $r9
	.loc	7 1078 28 is_stmt 1             @ c:/Keil_v5\ARM\PACK\Keil\STM32L5xx_DFP\1.3.0\Drivers\STM32L5xx_HAL_Driver\Src\stm32l5xx_hal_usart.c:1078:28
	ldrh	r0, [r4, #54]
	subs	r0, #1
	strh	r0, [r4, #54]
.Ltmp354:
.LBB6_56:                               @   in Loop: Header=BB6_57 Depth=1
	@DEBUG_VALUE: HAL_USART_TransmitReceive:ptxdata16bits <- $r10
	@DEBUG_VALUE: HAL_USART_TransmitReceive:prxdata16bits <- $r9
	@DEBUG_VALUE: HAL_USART_TransmitReceive:tickstart <- $r7
	@DEBUG_VALUE: HAL_USART_TransmitReceive:ptxdata8bits <- $r6
	@DEBUG_VALUE: HAL_USART_TransmitReceive:prxdata8bits <- $r5
	@DEBUG_VALUE: HAL_USART_TransmitReceive:husart <- $r4
	@DEBUG_VALUE: HAL_USART_TransmitReceive:Timeout <- [DW_OP_plus_uconst 40] [$sp+0]
	@DEBUG_VALUE: HAL_USART_TransmitReceive:prxdata8bits <- $r5
	@DEBUG_VALUE: HAL_USART_TransmitReceive:prxdata16bits <- $r9
	@DEBUG_VALUE: HAL_USART_TransmitReceive:rxdatacount <- undef
	.loc	7 0 0 is_stmt 0                 @ c:/Keil_v5\ARM\PACK\Keil\STM32L5xx_DFP\1.3.0\Drivers\STM32L5xx_HAL_Driver\Src\stm32l5xx_hal_usart.c:0:0
	ldrh	r0, [r4, #54]
.Ltmp355:
	@DEBUG_VALUE: HAL_USART_TransmitReceive:rxdatacount <- $r0
	@DEBUG_VALUE: HAL_USART_TransmitReceive:ptxdata16bits <- $r10
	@DEBUG_VALUE: HAL_USART_TransmitReceive:ptxdata8bits <- $r6
	.loc	7 1036 21 is_stmt 1             @ c:/Keil_v5\ARM\PACK\Keil\STM32L5xx_DFP\1.3.0\Drivers\STM32L5xx_HAL_Driver\Src\stm32l5xx_hal_usart.c:1036:21
	ldrh	r1, [r4, #46]
	.loc	7 1036 39 is_stmt 0             @ c:/Keil_v5\ARM\PACK\Keil\STM32L5xx_DFP\1.3.0\Drivers\STM32L5xx_HAL_Driver\Src\stm32l5xx_hal_usart.c:1036:39
	orrs	r0, r1
.Ltmp356:
	.loc	7 1036 5                        @ c:/Keil_v5\ARM\PACK\Keil\STM32L5xx_DFP\1.3.0\Drivers\STM32L5xx_HAL_Driver\Src\stm32l5xx_hal_usart.c:1036:5
	lsls	r0, r0, #16
	beq	.LBB6_53
.Ltmp357:
.LBB6_57:                               @ =>This Loop Header: Depth=1
                                        @     Child Loop BB6_59 Depth 2
                                        @     Child Loop BB6_67 Depth 2
	@DEBUG_VALUE: HAL_USART_TransmitReceive:ptxdata16bits <- $r10
	@DEBUG_VALUE: HAL_USART_TransmitReceive:prxdata16bits <- $r9
	@DEBUG_VALUE: HAL_USART_TransmitReceive:tickstart <- $r7
	@DEBUG_VALUE: HAL_USART_TransmitReceive:ptxdata8bits <- $r6
	@DEBUG_VALUE: HAL_USART_TransmitReceive:prxdata8bits <- $r5
	@DEBUG_VALUE: HAL_USART_TransmitReceive:husart <- $r4
	@DEBUG_VALUE: HAL_USART_TransmitReceive:Timeout <- [DW_OP_plus_uconst 40] [$sp+0]
	@DEBUG_VALUE: HAL_USART_TransmitReceive:prxdata8bits <- $r5
	@DEBUG_VALUE: HAL_USART_TransmitReceive:ptxdata8bits <- $r6
	@DEBUG_VALUE: HAL_USART_TransmitReceive:ptxdata16bits <- $r10
	@DEBUG_VALUE: HAL_USART_TransmitReceive:prxdata16bits <- $r9
	.loc	7 1038 19 is_stmt 1             @ c:/Keil_v5\ARM\PACK\Keil\STM32L5xx_DFP\1.3.0\Drivers\STM32L5xx_HAL_Driver\Src\stm32l5xx_hal_usart.c:1038:19
	ldrh	r0, [r4, #46]
.Ltmp358:
	.loc	7 1038 11 is_stmt 0             @ c:/Keil_v5\ARM\PACK\Keil\STM32L5xx_DFP\1.3.0\Drivers\STM32L5xx_HAL_Driver\Src\stm32l5xx_hal_usart.c:1038:11
	cbz	r0, .LBB6_65
.Ltmp359:
@ %bb.58:                               @   in Loop: Header=BB6_57 Depth=1
	@DEBUG_VALUE: HAL_USART_TransmitReceive:ptxdata16bits <- $r10
	@DEBUG_VALUE: HAL_USART_TransmitReceive:prxdata16bits <- $r9
	@DEBUG_VALUE: HAL_USART_TransmitReceive:tickstart <- $r7
	@DEBUG_VALUE: HAL_USART_TransmitReceive:ptxdata8bits <- $r6
	@DEBUG_VALUE: HAL_USART_TransmitReceive:prxdata8bits <- $r5
	@DEBUG_VALUE: HAL_USART_TransmitReceive:husart <- $r4
	@DEBUG_VALUE: HAL_USART_TransmitReceive:Timeout <- [DW_OP_plus_uconst 40] [$sp+0]
	@DEBUG_VALUE: USART_WaitOnFlagUntilTimeout:husart <- $r4
	@DEBUG_VALUE: USART_WaitOnFlagUntilTimeout:Flag <- 128
	@DEBUG_VALUE: USART_WaitOnFlagUntilTimeout:Status <- 0
	@DEBUG_VALUE: USART_WaitOnFlagUntilTimeout:Tickstart <- undef
	@DEBUG_VALUE: USART_WaitOnFlagUntilTimeout:Timeout <- undef
	.loc	7 2825 11 is_stmt 1             @ c:/Keil_v5\ARM\PACK\Keil\STM32L5xx_DFP\1.3.0\Drivers\STM32L5xx_HAL_Driver\Src\stm32l5xx_hal_usart.c:2825:11
	ldr	r0, [r4]
.Ltmp360:
.LBB6_59:                               @   Parent Loop BB6_57 Depth=1
                                        @ =>  This Inner Loop Header: Depth=2
	@DEBUG_VALUE: HAL_USART_TransmitReceive:ptxdata16bits <- $r10
	@DEBUG_VALUE: HAL_USART_TransmitReceive:prxdata16bits <- $r9
	@DEBUG_VALUE: HAL_USART_TransmitReceive:tickstart <- $r7
	@DEBUG_VALUE: HAL_USART_TransmitReceive:ptxdata8bits <- $r6
	@DEBUG_VALUE: HAL_USART_TransmitReceive:prxdata8bits <- $r5
	@DEBUG_VALUE: USART_WaitOnFlagUntilTimeout:husart <- $r4
	@DEBUG_VALUE: HAL_USART_TransmitReceive:husart <- $r4
	@DEBUG_VALUE: HAL_USART_TransmitReceive:Timeout <- [DW_OP_plus_uconst 40] [$sp+0]
	@DEBUG_VALUE: USART_WaitOnFlagUntilTimeout:Status <- 0
	@DEBUG_VALUE: USART_WaitOnFlagUntilTimeout:Flag <- 128
	ldr	r1, [r0, #28]
	.loc	7 2825 3 is_stmt 0              @ c:/Keil_v5\ARM\PACK\Keil\STM32L5xx_DFP\1.3.0\Drivers\STM32L5xx_HAL_Driver\Src\stm32l5xx_hal_usart.c:2825:3
	lsls	r1, r1, #24
	.loc	7 2825 11                       @ c:/Keil_v5\ARM\PACK\Keil\STM32L5xx_DFP\1.3.0\Drivers\STM32L5xx_HAL_Driver\Src\stm32l5xx_hal_usart.c:2825:11
	itttt	pl
	ldrpl	r1, [r0, #28]
	.loc	7 2825 3                        @ c:/Keil_v5\ARM\PACK\Keil\STM32L5xx_DFP\1.3.0\Drivers\STM32L5xx_HAL_Driver\Src\stm32l5xx_hal_usart.c:2825:3
	lslspl.w	r1, r1, #24
	.loc	7 2825 11                       @ c:/Keil_v5\ARM\PACK\Keil\STM32L5xx_DFP\1.3.0\Drivers\STM32L5xx_HAL_Driver\Src\stm32l5xx_hal_usart.c:2825:11
	ldrpl	r1, [r0, #28]
	.loc	7 2825 3                        @ c:/Keil_v5\ARM\PACK\Keil\STM32L5xx_DFP\1.3.0\Drivers\STM32L5xx_HAL_Driver\Src\stm32l5xx_hal_usart.c:2825:3
	lslspl.w	r1, r1, #24
	bmi	.LBB6_61
.Ltmp361:
@ %bb.60:                               @   in Loop: Header=BB6_59 Depth=2
	@DEBUG_VALUE: HAL_USART_TransmitReceive:ptxdata16bits <- $r10
	@DEBUG_VALUE: HAL_USART_TransmitReceive:prxdata16bits <- $r9
	@DEBUG_VALUE: HAL_USART_TransmitReceive:tickstart <- $r7
	@DEBUG_VALUE: HAL_USART_TransmitReceive:ptxdata8bits <- $r6
	@DEBUG_VALUE: HAL_USART_TransmitReceive:prxdata8bits <- $r5
	@DEBUG_VALUE: USART_WaitOnFlagUntilTimeout:husart <- $r4
	@DEBUG_VALUE: HAL_USART_TransmitReceive:husart <- $r4
	@DEBUG_VALUE: HAL_USART_TransmitReceive:Timeout <- [DW_OP_plus_uconst 40] [$sp+0]
	@DEBUG_VALUE: USART_WaitOnFlagUntilTimeout:Status <- 0
	@DEBUG_VALUE: USART_WaitOnFlagUntilTimeout:Flag <- 128
	.loc	7 2825 11                       @ c:/Keil_v5\ARM\PACK\Keil\STM32L5xx_DFP\1.3.0\Drivers\STM32L5xx_HAL_Driver\Src\stm32l5xx_hal_usart.c:2825:11
	ldr	r1, [r0, #28]
	.loc	7 2825 3                        @ c:/Keil_v5\ARM\PACK\Keil\STM32L5xx_DFP\1.3.0\Drivers\STM32L5xx_HAL_Driver\Src\stm32l5xx_hal_usart.c:2825:3
	lsls	r1, r1, #24
	bpl	.LBB6_59
.Ltmp362:
	.p2align	2
.LBB6_61:                               @   in Loop: Header=BB6_57 Depth=1
	@DEBUG_VALUE: HAL_USART_TransmitReceive:ptxdata16bits <- $r10
	@DEBUG_VALUE: HAL_USART_TransmitReceive:prxdata16bits <- $r9
	@DEBUG_VALUE: HAL_USART_TransmitReceive:tickstart <- $r7
	@DEBUG_VALUE: HAL_USART_TransmitReceive:ptxdata8bits <- $r6
	@DEBUG_VALUE: HAL_USART_TransmitReceive:prxdata8bits <- $r5
	@DEBUG_VALUE: HAL_USART_TransmitReceive:husart <- $r4
	@DEBUG_VALUE: HAL_USART_TransmitReceive:Timeout <- [DW_OP_plus_uconst 40] [$sp+0]
	.loc	7 1045 13 is_stmt 1             @ c:/Keil_v5\ARM\PACK\Keil\STM32L5xx_DFP\1.3.0\Drivers\STM32L5xx_HAL_Driver\Src\stm32l5xx_hal_usart.c:1045:13
	cbz	r6, .LBB6_63
.Ltmp363:
@ %bb.62:                               @   in Loop: Header=BB6_57 Depth=1
	@DEBUG_VALUE: HAL_USART_TransmitReceive:ptxdata16bits <- $r10
	@DEBUG_VALUE: HAL_USART_TransmitReceive:prxdata16bits <- $r9
	@DEBUG_VALUE: HAL_USART_TransmitReceive:tickstart <- $r7
	@DEBUG_VALUE: HAL_USART_TransmitReceive:ptxdata8bits <- $r6
	@DEBUG_VALUE: HAL_USART_TransmitReceive:prxdata8bits <- $r5
	@DEBUG_VALUE: HAL_USART_TransmitReceive:husart <- $r4
	@DEBUG_VALUE: HAL_USART_TransmitReceive:Timeout <- [DW_OP_plus_uconst 40] [$sp+0]
	.loc	7 1052 45                       @ c:/Keil_v5\ARM\PACK\Keil\STM32L5xx_DFP\1.3.0\Drivers\STM32L5xx_HAL_Driver\Src\stm32l5xx_hal_usart.c:1052:45
	ldrb	r1, [r6], #1
.Ltmp364:
	.loc	7 0 45 is_stmt 0                @ c:/Keil_v5\ARM\PACK\Keil\STM32L5xx_DFP\1.3.0\Drivers\STM32L5xx_HAL_Driver\Src\stm32l5xx_hal_usart.c:0:45
	and.w	r1, r1, r8
	b	.LBB6_64
.Ltmp365:
	.p2align	2
.LBB6_63:                               @   in Loop: Header=BB6_57 Depth=1
	@DEBUG_VALUE: HAL_USART_TransmitReceive:ptxdata16bits <- $r10
	@DEBUG_VALUE: HAL_USART_TransmitReceive:prxdata16bits <- $r9
	@DEBUG_VALUE: HAL_USART_TransmitReceive:tickstart <- $r7
	@DEBUG_VALUE: HAL_USART_TransmitReceive:ptxdata8bits <- $r6
	@DEBUG_VALUE: HAL_USART_TransmitReceive:prxdata8bits <- $r5
	@DEBUG_VALUE: HAL_USART_TransmitReceive:husart <- $r4
	@DEBUG_VALUE: HAL_USART_TransmitReceive:Timeout <- [DW_OP_plus_uconst 40] [$sp+0]
	.loc	7 1047 46 is_stmt 1             @ c:/Keil_v5\ARM\PACK\Keil\STM32L5xx_DFP\1.3.0\Drivers\STM32L5xx_HAL_Driver\Src\stm32l5xx_hal_usart.c:1047:46
	ldrh	r1, [r10], #2
.Ltmp366:
	.loc	7 0 46 is_stmt 0                @ c:/Keil_v5\ARM\PACK\Keil\STM32L5xx_DFP\1.3.0\Drivers\STM32L5xx_HAL_Driver\Src\stm32l5xx_hal_usart.c:0:46
	movs	r6, #0
.Ltmp367:
	@DEBUG_VALUE: HAL_USART_TransmitReceive:ptxdata16bits <- $r10
	.loc	7 1047 61                       @ c:/Keil_v5\ARM\PACK\Keil\STM32L5xx_DFP\1.3.0\Drivers\STM32L5xx_HAL_Driver\Src\stm32l5xx_hal_usart.c:1047:61
	and.w	r1, r1, r8
.Ltmp368:
.LBB6_64:                               @   in Loop: Header=BB6_57 Depth=1
	@DEBUG_VALUE: HAL_USART_TransmitReceive:ptxdata16bits <- $r10
	@DEBUG_VALUE: HAL_USART_TransmitReceive:prxdata16bits <- $r9
	@DEBUG_VALUE: HAL_USART_TransmitReceive:tickstart <- $r7
	@DEBUG_VALUE: HAL_USART_TransmitReceive:prxdata8bits <- $r5
	@DEBUG_VALUE: HAL_USART_TransmitReceive:husart <- $r4
	@DEBUG_VALUE: HAL_USART_TransmitReceive:Timeout <- [DW_OP_plus_uconst 40] [$sp+0]
	.loc	7 0 0                           @ c:/Keil_v5\ARM\PACK\Keil\STM32L5xx_DFP\1.3.0\Drivers\STM32L5xx_HAL_Driver\Src\stm32l5xx_hal_usart.c:0:0
	str	r1, [r0, #40]
.Ltmp369:
	@DEBUG_VALUE: HAL_USART_TransmitReceive:ptxdata8bits <- $r6
	@DEBUG_VALUE: HAL_USART_TransmitReceive:ptxdata16bits <- $r10
	.loc	7 1056 28 is_stmt 1             @ c:/Keil_v5\ARM\PACK\Keil\STM32L5xx_DFP\1.3.0\Drivers\STM32L5xx_HAL_Driver\Src\stm32l5xx_hal_usart.c:1056:28
	ldrh	r0, [r4, #46]
	subs	r0, #1
	strh	r0, [r4, #46]
.Ltmp370:
.LBB6_65:                               @   in Loop: Header=BB6_57 Depth=1
	@DEBUG_VALUE: HAL_USART_TransmitReceive:ptxdata16bits <- $r10
	@DEBUG_VALUE: HAL_USART_TransmitReceive:prxdata16bits <- $r9
	@DEBUG_VALUE: HAL_USART_TransmitReceive:tickstart <- $r7
	@DEBUG_VALUE: HAL_USART_TransmitReceive:ptxdata8bits <- $r6
	@DEBUG_VALUE: HAL_USART_TransmitReceive:prxdata8bits <- $r5
	@DEBUG_VALUE: HAL_USART_TransmitReceive:husart <- $r4
	@DEBUG_VALUE: HAL_USART_TransmitReceive:Timeout <- [DW_OP_plus_uconst 40] [$sp+0]
	@DEBUG_VALUE: HAL_USART_TransmitReceive:ptxdata8bits <- $r6
	@DEBUG_VALUE: HAL_USART_TransmitReceive:ptxdata16bits <- $r10
	.loc	7 1059 19                       @ c:/Keil_v5\ARM\PACK\Keil\STM32L5xx_DFP\1.3.0\Drivers\STM32L5xx_HAL_Driver\Src\stm32l5xx_hal_usart.c:1059:19
	ldrh	r0, [r4, #54]
.Ltmp371:
	.loc	7 1059 11 is_stmt 0             @ c:/Keil_v5\ARM\PACK\Keil\STM32L5xx_DFP\1.3.0\Drivers\STM32L5xx_HAL_Driver\Src\stm32l5xx_hal_usart.c:1059:11
	cmp	r0, #0
	beq	.LBB6_56
.Ltmp372:
@ %bb.66:                               @   in Loop: Header=BB6_57 Depth=1
	@DEBUG_VALUE: HAL_USART_TransmitReceive:ptxdata16bits <- $r10
	@DEBUG_VALUE: HAL_USART_TransmitReceive:prxdata16bits <- $r9
	@DEBUG_VALUE: HAL_USART_TransmitReceive:tickstart <- $r7
	@DEBUG_VALUE: HAL_USART_TransmitReceive:ptxdata8bits <- $r6
	@DEBUG_VALUE: HAL_USART_TransmitReceive:prxdata8bits <- $r5
	@DEBUG_VALUE: HAL_USART_TransmitReceive:husart <- $r4
	@DEBUG_VALUE: HAL_USART_TransmitReceive:Timeout <- [DW_OP_plus_uconst 40] [$sp+0]
	@DEBUG_VALUE: USART_WaitOnFlagUntilTimeout:husart <- $r4
	@DEBUG_VALUE: USART_WaitOnFlagUntilTimeout:Flag <- 32
	@DEBUG_VALUE: USART_WaitOnFlagUntilTimeout:Status <- 0
	@DEBUG_VALUE: USART_WaitOnFlagUntilTimeout:Tickstart <- undef
	@DEBUG_VALUE: USART_WaitOnFlagUntilTimeout:Timeout <- undef
	.loc	7 2825 11 is_stmt 1             @ c:/Keil_v5\ARM\PACK\Keil\STM32L5xx_DFP\1.3.0\Drivers\STM32L5xx_HAL_Driver\Src\stm32l5xx_hal_usart.c:2825:11
	ldr	r0, [r4]
.Ltmp373:
.LBB6_67:                               @   Parent Loop BB6_57 Depth=1
                                        @ =>  This Inner Loop Header: Depth=2
	@DEBUG_VALUE: HAL_USART_TransmitReceive:ptxdata16bits <- $r10
	@DEBUG_VALUE: HAL_USART_TransmitReceive:prxdata16bits <- $r9
	@DEBUG_VALUE: HAL_USART_TransmitReceive:tickstart <- $r7
	@DEBUG_VALUE: HAL_USART_TransmitReceive:ptxdata8bits <- $r6
	@DEBUG_VALUE: HAL_USART_TransmitReceive:prxdata8bits <- $r5
	@DEBUG_VALUE: USART_WaitOnFlagUntilTimeout:husart <- $r4
	@DEBUG_VALUE: HAL_USART_TransmitReceive:husart <- $r4
	@DEBUG_VALUE: HAL_USART_TransmitReceive:Timeout <- [DW_OP_plus_uconst 40] [$sp+0]
	@DEBUG_VALUE: USART_WaitOnFlagUntilTimeout:Status <- 0
	@DEBUG_VALUE: USART_WaitOnFlagUntilTimeout:Flag <- 32
	ldr	r1, [r0, #28]
	.loc	7 2825 3 is_stmt 0              @ c:/Keil_v5\ARM\PACK\Keil\STM32L5xx_DFP\1.3.0\Drivers\STM32L5xx_HAL_Driver\Src\stm32l5xx_hal_usart.c:2825:3
	lsls	r1, r1, #26
	.loc	7 2825 11                       @ c:/Keil_v5\ARM\PACK\Keil\STM32L5xx_DFP\1.3.0\Drivers\STM32L5xx_HAL_Driver\Src\stm32l5xx_hal_usart.c:2825:11
	itttt	pl
	ldrpl	r1, [r0, #28]
	.loc	7 2825 3                        @ c:/Keil_v5\ARM\PACK\Keil\STM32L5xx_DFP\1.3.0\Drivers\STM32L5xx_HAL_Driver\Src\stm32l5xx_hal_usart.c:2825:3
	lslspl.w	r1, r1, #26
	.loc	7 2825 11                       @ c:/Keil_v5\ARM\PACK\Keil\STM32L5xx_DFP\1.3.0\Drivers\STM32L5xx_HAL_Driver\Src\stm32l5xx_hal_usart.c:2825:11
	ldrpl	r1, [r0, #28]
	.loc	7 2825 3                        @ c:/Keil_v5\ARM\PACK\Keil\STM32L5xx_DFP\1.3.0\Drivers\STM32L5xx_HAL_Driver\Src\stm32l5xx_hal_usart.c:2825:3
	lslspl.w	r1, r1, #26
	bmi	.LBB6_69
.Ltmp374:
@ %bb.68:                               @   in Loop: Header=BB6_67 Depth=2
	@DEBUG_VALUE: HAL_USART_TransmitReceive:ptxdata16bits <- $r10
	@DEBUG_VALUE: HAL_USART_TransmitReceive:prxdata16bits <- $r9
	@DEBUG_VALUE: HAL_USART_TransmitReceive:tickstart <- $r7
	@DEBUG_VALUE: HAL_USART_TransmitReceive:ptxdata8bits <- $r6
	@DEBUG_VALUE: HAL_USART_TransmitReceive:prxdata8bits <- $r5
	@DEBUG_VALUE: USART_WaitOnFlagUntilTimeout:husart <- $r4
	@DEBUG_VALUE: HAL_USART_TransmitReceive:husart <- $r4
	@DEBUG_VALUE: HAL_USART_TransmitReceive:Timeout <- [DW_OP_plus_uconst 40] [$sp+0]
	@DEBUG_VALUE: USART_WaitOnFlagUntilTimeout:Status <- 0
	@DEBUG_VALUE: USART_WaitOnFlagUntilTimeout:Flag <- 32
	.loc	7 2825 11                       @ c:/Keil_v5\ARM\PACK\Keil\STM32L5xx_DFP\1.3.0\Drivers\STM32L5xx_HAL_Driver\Src\stm32l5xx_hal_usart.c:2825:11
	ldr	r1, [r0, #28]
	.loc	7 2825 3                        @ c:/Keil_v5\ARM\PACK\Keil\STM32L5xx_DFP\1.3.0\Drivers\STM32L5xx_HAL_Driver\Src\stm32l5xx_hal_usart.c:2825:3
	lsls	r1, r1, #26
	bpl	.LBB6_67
.Ltmp375:
	.p2align	2
.LBB6_69:                               @   in Loop: Header=BB6_57 Depth=1
	@DEBUG_VALUE: HAL_USART_TransmitReceive:ptxdata16bits <- $r10
	@DEBUG_VALUE: HAL_USART_TransmitReceive:prxdata16bits <- $r9
	@DEBUG_VALUE: HAL_USART_TransmitReceive:tickstart <- $r7
	@DEBUG_VALUE: HAL_USART_TransmitReceive:ptxdata8bits <- $r6
	@DEBUG_VALUE: HAL_USART_TransmitReceive:prxdata8bits <- $r5
	@DEBUG_VALUE: HAL_USART_TransmitReceive:husart <- $r4
	@DEBUG_VALUE: HAL_USART_TransmitReceive:Timeout <- [DW_OP_plus_uconst 40] [$sp+0]
	.loc	7 0 0                           @ c:/Keil_v5\ARM\PACK\Keil\STM32L5xx_DFP\1.3.0\Drivers\STM32L5xx_HAL_Driver\Src\stm32l5xx_hal_usart.c:0:0
	ldr	r0, [r0, #36]
.Ltmp376:
	.loc	7 1067 13 is_stmt 1             @ c:/Keil_v5\ARM\PACK\Keil\STM32L5xx_DFP\1.3.0\Drivers\STM32L5xx_HAL_Driver\Src\stm32l5xx_hal_usart.c:1067:13
	cmp	r5, #0
	beq	.LBB6_54
.Ltmp377:
@ %bb.70:                               @   in Loop: Header=BB6_57 Depth=1
	@DEBUG_VALUE: HAL_USART_TransmitReceive:ptxdata16bits <- $r10
	@DEBUG_VALUE: HAL_USART_TransmitReceive:prxdata16bits <- $r9
	@DEBUG_VALUE: HAL_USART_TransmitReceive:tickstart <- $r7
	@DEBUG_VALUE: HAL_USART_TransmitReceive:ptxdata8bits <- $r6
	@DEBUG_VALUE: HAL_USART_TransmitReceive:prxdata8bits <- $r5
	@DEBUG_VALUE: HAL_USART_TransmitReceive:husart <- $r4
	@DEBUG_VALUE: HAL_USART_TransmitReceive:Timeout <- [DW_OP_plus_uconst 40] [$sp+0]
	.loc	7 1074 59                       @ c:/Keil_v5\ARM\PACK\Keil\STM32L5xx_DFP\1.3.0\Drivers\STM32L5xx_HAL_Driver\Src\stm32l5xx_hal_usart.c:1074:59
	and.w	r0, r0, r8
	.loc	7 1074 25 is_stmt 0             @ c:/Keil_v5\ARM\PACK\Keil\STM32L5xx_DFP\1.3.0\Drivers\STM32L5xx_HAL_Driver\Src\stm32l5xx_hal_usart.c:1074:25
	strb	r0, [r5], #1
.Ltmp378:
	@DEBUG_VALUE: HAL_USART_TransmitReceive:prxdata8bits <- $r5
	.loc	7 0 25                          @ c:/Keil_v5\ARM\PACK\Keil\STM32L5xx_DFP\1.3.0\Drivers\STM32L5xx_HAL_Driver\Src\stm32l5xx_hal_usart.c:0:25
	b	.LBB6_55
.Ltmp379:
	.p2align	2
.LBB6_71:
	@DEBUG_VALUE: USART_WaitOnFlagUntilTimeout:Timeout <- $r11
	@DEBUG_VALUE: HAL_USART_TransmitReceive:ptxdata16bits <- $r10
	@DEBUG_VALUE: HAL_USART_TransmitReceive:prxdata16bits <- $r9
	@DEBUG_VALUE: USART_WaitOnFlagUntilTimeout:Tickstart <- $r7
	@DEBUG_VALUE: HAL_USART_TransmitReceive:tickstart <- $r7
	@DEBUG_VALUE: HAL_USART_TransmitReceive:ptxdata8bits <- $r6
	@DEBUG_VALUE: HAL_USART_TransmitReceive:prxdata8bits <- $r5
	@DEBUG_VALUE: USART_WaitOnFlagUntilTimeout:husart <- $r4
	@DEBUG_VALUE: HAL_USART_TransmitReceive:husart <- $r4
	@DEBUG_VALUE: HAL_USART_TransmitReceive:Timeout <- [DW_OP_plus_uconst 40] [$sp+0]
	@DEBUG_VALUE: USART_WaitOnFlagUntilTimeout:Status <- 0
	@DEBUG_VALUE: USART_WaitOnFlagUntilTimeout:Flag <- 128
	.loc	7 2830 13 is_stmt 1             @ c:/Keil_v5\ARM\PACK\Keil\STM32L5xx_DFP\1.3.0\Drivers\STM32L5xx_HAL_Driver\Src\stm32l5xx_hal_usart.c:2830:13
	bl	HAL_GetTick
.Ltmp380:
.LBB6_72:
	@DEBUG_VALUE: HAL_USART_TransmitReceive:ptxdata16bits <- $r10
	@DEBUG_VALUE: HAL_USART_TransmitReceive:prxdata16bits <- $r9
	@DEBUG_VALUE: HAL_USART_TransmitReceive:tickstart <- $r7
	@DEBUG_VALUE: HAL_USART_TransmitReceive:ptxdata8bits <- $r6
	@DEBUG_VALUE: HAL_USART_TransmitReceive:prxdata8bits <- $r5
	@DEBUG_VALUE: HAL_USART_TransmitReceive:husart <- $r4
	@DEBUG_VALUE: HAL_USART_TransmitReceive:Timeout <- [DW_OP_plus_uconst 40] [$sp+0]
	.loc	7 0 13 is_stmt 0                @ c:/Keil_v5\ARM\PACK\Keil\STM32L5xx_DFP\1.3.0\Drivers\STM32L5xx_HAL_Driver\Src\stm32l5xx_hal_usart.c:0:13
	movs	r0, #1
	strb.w	r0, [r4, #89]
	movs	r0, #0
	strb.w	r0, [r4, #88]
	movs	r0, #3
.Ltmp381:
	.loc	7 1095 1 is_stmt 1              @ c:/Keil_v5\ARM\PACK\Keil\STM32L5xx_DFP\1.3.0\Drivers\STM32L5xx_HAL_Driver\Src\stm32l5xx_hal_usart.c:1095:1
	add	sp, #4
	pop.w	{r4, r5, r6, r7, r8, r9, r10, r11, pc}
.Ltmp382:
	.p2align	2
.LBB6_73:
	@DEBUG_VALUE: USART_WaitOnFlagUntilTimeout:Timeout <- $r11
	@DEBUG_VALUE: HAL_USART_TransmitReceive:ptxdata16bits <- $r10
	@DEBUG_VALUE: HAL_USART_TransmitReceive:prxdata16bits <- $r9
	@DEBUG_VALUE: USART_WaitOnFlagUntilTimeout:Tickstart <- $r7
	@DEBUG_VALUE: HAL_USART_TransmitReceive:tickstart <- $r7
	@DEBUG_VALUE: HAL_USART_TransmitReceive:ptxdata8bits <- $r6
	@DEBUG_VALUE: HAL_USART_TransmitReceive:prxdata8bits <- $r5
	@DEBUG_VALUE: USART_WaitOnFlagUntilTimeout:husart <- $r4
	@DEBUG_VALUE: HAL_USART_TransmitReceive:husart <- $r4
	@DEBUG_VALUE: HAL_USART_TransmitReceive:Timeout <- [DW_OP_plus_uconst 40] [$sp+0]
	@DEBUG_VALUE: USART_WaitOnFlagUntilTimeout:Status <- 0
	@DEBUG_VALUE: USART_WaitOnFlagUntilTimeout:Flag <- 128
	.loc	7 2830 13                       @ c:/Keil_v5\ARM\PACK\Keil\STM32L5xx_DFP\1.3.0\Drivers\STM32L5xx_HAL_Driver\Src\stm32l5xx_hal_usart.c:2830:13
	bl	HAL_GetTick
	b	.LBB6_72
.Ltmp383:
	.p2align	2
.LBB6_74:
	@DEBUG_VALUE: USART_WaitOnFlagUntilTimeout:Timeout <- $r11
	@DEBUG_VALUE: HAL_USART_TransmitReceive:ptxdata16bits <- $r10
	@DEBUG_VALUE: HAL_USART_TransmitReceive:prxdata16bits <- $r9
	@DEBUG_VALUE: USART_WaitOnFlagUntilTimeout:Tickstart <- $r7
	@DEBUG_VALUE: HAL_USART_TransmitReceive:tickstart <- $r7
	@DEBUG_VALUE: HAL_USART_TransmitReceive:ptxdata8bits <- $r6
	@DEBUG_VALUE: HAL_USART_TransmitReceive:prxdata8bits <- $r5
	@DEBUG_VALUE: USART_WaitOnFlagUntilTimeout:husart <- $r4
	@DEBUG_VALUE: HAL_USART_TransmitReceive:husart <- $r4
	@DEBUG_VALUE: HAL_USART_TransmitReceive:Timeout <- [DW_OP_plus_uconst 40] [$sp+0]
	@DEBUG_VALUE: USART_WaitOnFlagUntilTimeout:Status <- 0
	@DEBUG_VALUE: USART_WaitOnFlagUntilTimeout:Flag <- 32
	.loc	7 2830 13 is_stmt 0             @ c:/Keil_v5\ARM\PACK\Keil\STM32L5xx_DFP\1.3.0\Drivers\STM32L5xx_HAL_Driver\Src\stm32l5xx_hal_usart.c:2830:13
	bl	HAL_GetTick
	b	.LBB6_72
.Ltmp384:
.Lfunc_end6:
	.size	HAL_USART_TransmitReceive, .Lfunc_end6-HAL_USART_TransmitReceive
	.cfi_endproc
	.cantunwind
	.fnend
                                        @ -- End function
	.section	.text.HAL_USART_Transmit_IT,"ax",%progbits
	.hidden	HAL_USART_Transmit_IT           @ -- Begin function HAL_USART_Transmit_IT
	.globl	HAL_USART_Transmit_IT
	.p2align	2
	.type	HAL_USART_Transmit_IT,%function
	.code	16                              @ @HAL_USART_Transmit_IT
	.thumb_func
HAL_USART_Transmit_IT:
.Lfunc_begin7:
	.loc	7 1108 0 is_stmt 1              @ c:/Keil_v5\ARM\PACK\Keil\STM32L5xx_DFP\1.3.0\Drivers\STM32L5xx_HAL_Driver\Src\stm32l5xx_hal_usart.c:1108:0
	.fnstart
	.cfi_startproc
@ %bb.0:
	@DEBUG_VALUE: HAL_USART_Transmit_IT:husart <- $r0
	@DEBUG_VALUE: HAL_USART_Transmit_IT:husart <- $r0
	@DEBUG_VALUE: HAL_USART_Transmit_IT:pTxData <- $r1
	@DEBUG_VALUE: HAL_USART_Transmit_IT:Size <- $r2
	@DEBUG_VALUE: HAL_USART_Transmit_IT:Size <- undef
	.loc	7 1109 15 prologue_end          @ c:/Keil_v5\ARM\PACK\Keil\STM32L5xx_DFP\1.3.0\Drivers\STM32L5xx_HAL_Driver\Src\stm32l5xx_hal_usart.c:1109:15
	ldrb.w	r3, [r0, #89]
.Ltmp385:
	@DEBUG_VALUE: HAL_USART_Transmit_IT:Size <- $r2
	.loc	7 1109 7 is_stmt 0              @ c:/Keil_v5\ARM\PACK\Keil\STM32L5xx_DFP\1.3.0\Drivers\STM32L5xx_HAL_Driver\Src\stm32l5xx_hal_usart.c:1109:7
	cmp	r3, #1
	@DEBUG_VALUE: HAL_USART_Transmit_IT:pTxData <- $r1
	bne	.LBB7_4
.Ltmp386:
@ %bb.1:
	@DEBUG_VALUE: HAL_USART_Transmit_IT:Size <- $r2
	@DEBUG_VALUE: HAL_USART_Transmit_IT:pTxData <- $r1
	@DEBUG_VALUE: HAL_USART_Transmit_IT:husart <- $r0
	@DEBUG_VALUE: HAL_USART_Transmit_IT:Size <- $r2
	.loc	7 1111 27 is_stmt 1             @ c:/Keil_v5\ARM\PACK\Keil\STM32L5xx_DFP\1.3.0\Drivers\STM32L5xx_HAL_Driver\Src\stm32l5xx_hal_usart.c:1111:27
	cmp	r1, #0
	mov.w	r3, #1
	@DEBUG_VALUE: HAL_USART_Transmit_IT:Size <- $r2
	it	ne
	cmpne	r2, #0
	bne	.LBB7_3
.Ltmp387:
@ %bb.2:
	@DEBUG_VALUE: HAL_USART_Transmit_IT:Size <- $r2
	@DEBUG_VALUE: HAL_USART_Transmit_IT:pTxData <- $r1
	@DEBUG_VALUE: HAL_USART_Transmit_IT:husart <- $r0
	.loc	7 1177 1                        @ c:/Keil_v5\ARM\PACK\Keil\STM32L5xx_DFP\1.3.0\Drivers\STM32L5xx_HAL_Driver\Src\stm32l5xx_hal_usart.c:1177:1
	mov	r0, r3
.Ltmp388:
	@DEBUG_VALUE: HAL_USART_Transmit_IT:husart <- [DW_OP_LLVM_entry_value 1] $r0
	bx	lr
.Ltmp389:
	.p2align	2
.LBB7_3:
	@DEBUG_VALUE: HAL_USART_Transmit_IT:Size <- $r2
	@DEBUG_VALUE: HAL_USART_Transmit_IT:pTxData <- $r1
	@DEBUG_VALUE: HAL_USART_Transmit_IT:husart <- $r0
	@DEBUG_VALUE: HAL_USART_Transmit_IT:Size <- $r2
	.loc	7 1117 5                        @ c:/Keil_v5\ARM\PACK\Keil\STM32L5xx_DFP\1.3.0\Drivers\STM32L5xx_HAL_Driver\Src\stm32l5xx_hal_usart.c:1117:5
	ldrb.w	r3, [r0, #88]
.Ltmp390:
	.loc	7 1117 5 is_stmt 0              @ c:/Keil_v5\ARM\PACK\Keil\STM32L5xx_DFP\1.3.0\Drivers\STM32L5xx_HAL_Driver\Src\stm32l5xx_hal_usart.c:1117:5
	cmp	r3, #1
	bne	.LBB7_5
.Ltmp391:
.LBB7_4:
	@DEBUG_VALUE: HAL_USART_Transmit_IT:Size <- $r2
	@DEBUG_VALUE: HAL_USART_Transmit_IT:pTxData <- $r1
	@DEBUG_VALUE: HAL_USART_Transmit_IT:husart <- $r0
	.loc	7 0 5                           @ c:/Keil_v5\ARM\PACK\Keil\STM32L5xx_DFP\1.3.0\Drivers\STM32L5xx_HAL_Driver\Src\stm32l5xx_hal_usart.c:0:5
	movs	r0, #2
.Ltmp392:
	@DEBUG_VALUE: HAL_USART_Transmit_IT:husart <- [DW_OP_LLVM_entry_value 1] $r0
	.loc	7 1177 1 is_stmt 1              @ c:/Keil_v5\ARM\PACK\Keil\STM32L5xx_DFP\1.3.0\Drivers\STM32L5xx_HAL_Driver\Src\stm32l5xx_hal_usart.c:1177:1
	bx	lr
.Ltmp393:
	.p2align	2
.LBB7_5:
	@DEBUG_VALUE: HAL_USART_Transmit_IT:Size <- $r2
	@DEBUG_VALUE: HAL_USART_Transmit_IT:pTxData <- $r1
	@DEBUG_VALUE: HAL_USART_Transmit_IT:husart <- $r0
	@DEBUG_VALUE: HAL_USART_Transmit_IT:Size <- $r2
	.loc	7 1119 25                       @ c:/Keil_v5\ARM\PACK\Keil\STM32L5xx_DFP\1.3.0\Drivers\STM32L5xx_HAL_Driver\Src\stm32l5xx_hal_usart.c:1119:25
	str	r1, [r0, #40]
	movs	r1, #0
.Ltmp394:
	@DEBUG_VALUE: HAL_USART_Transmit_IT:pTxData <- [DW_OP_LLVM_entry_value 1] $r1
	.loc	7 1120 25                       @ c:/Keil_v5\ARM\PACK\Keil\STM32L5xx_DFP\1.3.0\Drivers\STM32L5xx_HAL_Driver\Src\stm32l5xx_hal_usart.c:1120:25
	strh	r2, [r0, #44]
	.loc	7 1121 25                       @ c:/Keil_v5\ARM\PACK\Keil\STM32L5xx_DFP\1.3.0\Drivers\STM32L5xx_HAL_Driver\Src\stm32l5xx_hal_usart.c:1121:25
	strh	r2, [r0, #46]
	.loc	7 1124 23                       @ c:/Keil_v5\ARM\PACK\Keil\STM32L5xx_DFP\1.3.0\Drivers\STM32L5xx_HAL_Driver\Src\stm32l5xx_hal_usart.c:1124:23
	str	r1, [r0, #92]
	movs	r1, #18
	.loc	7 1125 23                       @ c:/Keil_v5\ARM\PACK\Keil\STM32L5xx_DFP\1.3.0\Drivers\STM32L5xx_HAL_Driver\Src\stm32l5xx_hal_usart.c:1125:23
	strb.w	r1, [r0, #89]
.Ltmp395:
	.loc	7 1134 17                       @ c:/Keil_v5\ARM\PACK\Keil\STM32L5xx_DFP\1.3.0\Drivers\STM32L5xx_HAL_Driver\Src\stm32l5xx_hal_usart.c:1134:17
	ldr	r2, [r0, #68]
.Ltmp396:
	.loc	7 0 0 is_stmt 0                 @ c:/Keil_v5\ARM\PACK\Keil\STM32L5xx_DFP\1.3.0\Drivers\STM32L5xx_HAL_Driver\Src\stm32l5xx_hal_usart.c:0:0
	ldr	r1, [r0, #8]
.Ltmp397:
	.loc	7 1134 9                        @ c:/Keil_v5\ARM\PACK\Keil\STM32L5xx_DFP\1.3.0\Drivers\STM32L5xx_HAL_Driver\Src\stm32l5xx_hal_usart.c:1134:9
	cmp.w	r2, #536870912
	bne	.LBB7_9
.Ltmp398:
@ %bb.6:
	@DEBUG_VALUE: HAL_USART_Transmit_IT:husart <- $r0
	@DEBUG_VALUE: HAL_USART_Transmit_IT:pTxData <- [DW_OP_LLVM_entry_value 1] $r1
	.loc	7 1137 60 is_stmt 1             @ c:/Keil_v5\ARM\PACK\Keil\STM32L5xx_DFP\1.3.0\Drivers\STM32L5xx_HAL_Driver\Src\stm32l5xx_hal_usart.c:1137:60
	cmp.w	r1, #4096
	bne	.LBB7_8
.Ltmp399:
@ %bb.7:
	@DEBUG_VALUE: HAL_USART_Transmit_IT:husart <- $r0
	@DEBUG_VALUE: HAL_USART_Transmit_IT:pTxData <- [DW_OP_LLVM_entry_value 1] $r1
	.loc	7 1137 77 is_stmt 0             @ c:/Keil_v5\ARM\PACK\Keil\STM32L5xx_DFP\1.3.0\Drivers\STM32L5xx_HAL_Driver\Src\stm32l5xx_hal_usart.c:1137:77
	ldr	r1, [r0, #16]
.Ltmp400:
	.loc	7 1137 11                       @ c:/Keil_v5\ARM\PACK\Keil\STM32L5xx_DFP\1.3.0\Drivers\STM32L5xx_HAL_Driver\Src\stm32l5xx_hal_usart.c:1137:11
	cbz	r1, .LBB7_12
.Ltmp401:
.LBB7_8:
	@DEBUG_VALUE: HAL_USART_Transmit_IT:husart <- $r0
	@DEBUG_VALUE: HAL_USART_Transmit_IT:pTxData <- [DW_OP_LLVM_entry_value 1] $r1
	.loc	7 0 11                          @ c:/Keil_v5\ARM\PACK\Keil\STM32L5xx_DFP\1.3.0\Drivers\STM32L5xx_HAL_Driver\Src\stm32l5xx_hal_usart.c:0:11
	movw	r1, :lower16:USART_TxISR_8BIT_FIFOEN
	movt	r1, :upper16:USART_TxISR_8BIT_FIFOEN
	b	.LBB7_13
.Ltmp402:
	.p2align	2
.LBB7_9:
	@DEBUG_VALUE: HAL_USART_Transmit_IT:husart <- $r0
	@DEBUG_VALUE: HAL_USART_Transmit_IT:pTxData <- [DW_OP_LLVM_entry_value 1] $r1
	.loc	7 1155 60 is_stmt 1             @ c:/Keil_v5\ARM\PACK\Keil\STM32L5xx_DFP\1.3.0\Drivers\STM32L5xx_HAL_Driver\Src\stm32l5xx_hal_usart.c:1155:60
	cmp.w	r1, #4096
	bne	.LBB7_11
.Ltmp403:
@ %bb.10:
	@DEBUG_VALUE: HAL_USART_Transmit_IT:husart <- $r0
	@DEBUG_VALUE: HAL_USART_Transmit_IT:pTxData <- [DW_OP_LLVM_entry_value 1] $r1
	.loc	7 1155 77 is_stmt 0             @ c:/Keil_v5\ARM\PACK\Keil\STM32L5xx_DFP\1.3.0\Drivers\STM32L5xx_HAL_Driver\Src\stm32l5xx_hal_usart.c:1155:77
	ldr	r1, [r0, #16]
.Ltmp404:
	.loc	7 1155 11                       @ c:/Keil_v5\ARM\PACK\Keil\STM32L5xx_DFP\1.3.0\Drivers\STM32L5xx_HAL_Driver\Src\stm32l5xx_hal_usart.c:1155:11
	cbz	r1, .LBB7_14
.Ltmp405:
.LBB7_11:
	@DEBUG_VALUE: HAL_USART_Transmit_IT:husart <- $r0
	@DEBUG_VALUE: HAL_USART_Transmit_IT:pTxData <- [DW_OP_LLVM_entry_value 1] $r1
	.loc	7 0 11                          @ c:/Keil_v5\ARM\PACK\Keil\STM32L5xx_DFP\1.3.0\Drivers\STM32L5xx_HAL_Driver\Src\stm32l5xx_hal_usart.c:0:11
	movw	r1, :lower16:USART_TxISR_8BIT
	movt	r1, :upper16:USART_TxISR_8BIT
	b	.LBB7_15
.Ltmp406:
	.p2align	2
.LBB7_12:
	@DEBUG_VALUE: HAL_USART_Transmit_IT:husart <- $r0
	@DEBUG_VALUE: HAL_USART_Transmit_IT:pTxData <- [DW_OP_LLVM_entry_value 1] $r1
	movw	r1, :lower16:USART_TxISR_16BIT_FIFOEN
	movt	r1, :upper16:USART_TxISR_16BIT_FIFOEN
.Ltmp407:
.LBB7_13:
	@DEBUG_VALUE: HAL_USART_Transmit_IT:husart <- $r0
	@DEBUG_VALUE: HAL_USART_Transmit_IT:pTxData <- [DW_OP_LLVM_entry_value 1] $r1
	str	r1, [r0, #76]
	movs	r3, #0
.Ltmp408:
	.loc	7 1150 7 is_stmt 1              @ c:/Keil_v5\ARM\PACK\Keil\STM32L5xx_DFP\1.3.0\Drivers\STM32L5xx_HAL_Driver\Src\stm32l5xx_hal_usart.c:1150:7
	ldr	r1, [r0]
.Ltmp409:
	.loc	7 1147 7                        @ c:/Keil_v5\ARM\PACK\Keil\STM32L5xx_DFP\1.3.0\Drivers\STM32L5xx_HAL_Driver\Src\stm32l5xx_hal_usart.c:1147:7
	strb.w	r3, [r0, #88]
.Ltmp410:
	.loc	7 1150 7                        @ c:/Keil_v5\ARM\PACK\Keil\STM32L5xx_DFP\1.3.0\Drivers\STM32L5xx_HAL_Driver\Src\stm32l5xx_hal_usart.c:1150:7
	ldr	r0, [r1, #8]
.Ltmp411:
	@DEBUG_VALUE: HAL_USART_Transmit_IT:husart <- [DW_OP_LLVM_entry_value 1] $r0
	orr	r0, r0, #8388608
	str	r0, [r1, #8]
.Ltmp412:
	.loc	7 1177 1                        @ c:/Keil_v5\ARM\PACK\Keil\STM32L5xx_DFP\1.3.0\Drivers\STM32L5xx_HAL_Driver\Src\stm32l5xx_hal_usart.c:1177:1
	mov	r0, r3
	bx	lr
.Ltmp413:
	.p2align	2
.LBB7_14:
	@DEBUG_VALUE: HAL_USART_Transmit_IT:husart <- $r0
	@DEBUG_VALUE: HAL_USART_Transmit_IT:pTxData <- [DW_OP_LLVM_entry_value 1] $r1
	.loc	7 0 1 is_stmt 0                 @ c:/Keil_v5\ARM\PACK\Keil\STM32L5xx_DFP\1.3.0\Drivers\STM32L5xx_HAL_Driver\Src\stm32l5xx_hal_usart.c:0:1
	movw	r1, :lower16:USART_TxISR_16BIT
	movt	r1, :upper16:USART_TxISR_16BIT
.Ltmp414:
.LBB7_15:
	@DEBUG_VALUE: HAL_USART_Transmit_IT:husart <- $r0
	@DEBUG_VALUE: HAL_USART_Transmit_IT:pTxData <- [DW_OP_LLVM_entry_value 1] $r1
	str	r1, [r0, #76]
	movs	r3, #0
.Ltmp415:
	.loc	7 1168 7 is_stmt 1              @ c:/Keil_v5\ARM\PACK\Keil\STM32L5xx_DFP\1.3.0\Drivers\STM32L5xx_HAL_Driver\Src\stm32l5xx_hal_usart.c:1168:7
	ldr	r1, [r0]
.Ltmp416:
	.loc	7 1165 7                        @ c:/Keil_v5\ARM\PACK\Keil\STM32L5xx_DFP\1.3.0\Drivers\STM32L5xx_HAL_Driver\Src\stm32l5xx_hal_usart.c:1165:7
	strb.w	r3, [r0, #88]
.Ltmp417:
	.loc	7 1168 7                        @ c:/Keil_v5\ARM\PACK\Keil\STM32L5xx_DFP\1.3.0\Drivers\STM32L5xx_HAL_Driver\Src\stm32l5xx_hal_usart.c:1168:7
	ldr	r0, [r1]
.Ltmp418:
	@DEBUG_VALUE: HAL_USART_Transmit_IT:husart <- [DW_OP_LLVM_entry_value 1] $r0
	orr	r0, r0, #128
	str	r0, [r1]
.Ltmp419:
	.loc	7 1177 1                        @ c:/Keil_v5\ARM\PACK\Keil\STM32L5xx_DFP\1.3.0\Drivers\STM32L5xx_HAL_Driver\Src\stm32l5xx_hal_usart.c:1177:1
	mov	r0, r3
	bx	lr
.Ltmp420:
.Lfunc_end7:
	.size	HAL_USART_Transmit_IT, .Lfunc_end7-HAL_USART_Transmit_IT
	.cfi_endproc
	.cantunwind
	.fnend
                                        @ -- End function
	.section	.text.USART_TxISR_16BIT_FIFOEN,"ax",%progbits
	.p2align	2                               @ -- Begin function USART_TxISR_16BIT_FIFOEN
	.type	USART_TxISR_16BIT_FIFOEN,%function
	.code	16                              @ @USART_TxISR_16BIT_FIFOEN
	.thumb_func
USART_TxISR_16BIT_FIFOEN:
.Lfunc_begin8:
	.loc	7 3120 0                        @ c:/Keil_v5\ARM\PACK\Keil\STM32L5xx_DFP\1.3.0\Drivers\STM32L5xx_HAL_Driver\Src\stm32l5xx_hal_usart.c:3120:0
	.fnstart
	.cfi_startproc
@ %bb.0:
	@DEBUG_VALUE: USART_TxISR_16BIT_FIFOEN:husart <- $r0
	@DEBUG_VALUE: USART_TxISR_16BIT_FIFOEN:husart <- $r0
	.loc	7 3121 48 prologue_end          @ c:/Keil_v5\ARM\PACK\Keil\STM32L5xx_DFP\1.3.0\Drivers\STM32L5xx_HAL_Driver\Src\stm32l5xx_hal_usart.c:3121:48
	ldrb.w	r1, [r0, #89]
.Ltmp421:
	@DEBUG_VALUE: USART_TxISR_16BIT_FIFOEN:state <- undef
	.loc	7 3126 42                       @ c:/Keil_v5\ARM\PACK\Keil\STM32L5xx_DFP\1.3.0\Drivers\STM32L5xx_HAL_Driver\Src\stm32l5xx_hal_usart.c:3126:42
	orr	r1, r1, #32
	cmp	r1, #50
	bne	.LBB8_7
.Ltmp422:
@ %bb.1:
	@DEBUG_VALUE: USART_TxISR_16BIT_FIFOEN:husart <- $r0
	.loc	7 3129 31                       @ c:/Keil_v5\ARM\PACK\Keil\STM32L5xx_DFP\1.3.0\Drivers\STM32L5xx_HAL_Driver\Src\stm32l5xx_hal_usart.c:3129:31
	ldrh	r2, [r0, #60]
.Ltmp423:
	@DEBUG_VALUE: USART_TxISR_16BIT_FIFOEN:nb_tx_data <- undef
	.loc	7 3129 5 is_stmt 0              @ c:/Keil_v5\ARM\PACK\Keil\STM32L5xx_DFP\1.3.0\Drivers\STM32L5xx_HAL_Driver\Src\stm32l5xx_hal_usart.c:3129:5
	cmp	r2, #0
.Ltmp424:
	.loc	7 3154 1 is_stmt 1              @ c:/Keil_v5\ARM\PACK\Keil\STM32L5xx_DFP\1.3.0\Drivers\STM32L5xx_HAL_Driver\Src\stm32l5xx_hal_usart.c:3154:1
	it	eq
	bxeq	lr
.Ltmp425:
.LBB8_2:
	@DEBUG_VALUE: USART_TxISR_16BIT_FIFOEN:husart <- $r0
	.loc	7 0 1 is_stmt 0                 @ c:/Keil_v5\ARM\PACK\Keil\STM32L5xx_DFP\1.3.0\Drivers\STM32L5xx_HAL_Driver\Src\stm32l5xx_hal_usart.c:0:1
	ldr.w	r12, [r0]
	b	.LBB8_4
.Ltmp426:
	.p2align	2
.LBB8_3:                                @   in Loop: Header=BB8_4 Depth=1
	@DEBUG_VALUE: USART_TxISR_16BIT_FIFOEN:nb_tx_data <- $r2
	@DEBUG_VALUE: USART_TxISR_16BIT_FIFOEN:husart <- $r0
	.loc	7 3129 79 is_stmt 1             @ c:/Keil_v5\ARM\PACK\Keil\STM32L5xx_DFP\1.3.0\Drivers\STM32L5xx_HAL_Driver\Src\stm32l5xx_hal_usart.c:3129:79
	subs	r2, #1
.Ltmp427:
	@DEBUG_VALUE: USART_TxISR_16BIT_FIFOEN:nb_tx_data <- $r2
	.loc	7 3129 5 is_stmt 0              @ c:/Keil_v5\ARM\PACK\Keil\STM32L5xx_DFP\1.3.0\Drivers\STM32L5xx_HAL_Driver\Src\stm32l5xx_hal_usart.c:3129:5
	lsls	r1, r2, #16
	beq	.LBB8_7
.Ltmp428:
.LBB8_4:                                @ =>This Inner Loop Header: Depth=1
	@DEBUG_VALUE: USART_TxISR_16BIT_FIFOEN:husart <- $r0
	@DEBUG_VALUE: USART_TxISR_16BIT_FIFOEN:nb_tx_data <- $r2
	.loc	7 3131 19 is_stmt 1             @ c:/Keil_v5\ARM\PACK\Keil\STM32L5xx_DFP\1.3.0\Drivers\STM32L5xx_HAL_Driver\Src\stm32l5xx_hal_usart.c:3131:19
	ldrh	r3, [r0, #46]
.Ltmp429:
	.loc	7 3131 11 is_stmt 0             @ c:/Keil_v5\ARM\PACK\Keil\STM32L5xx_DFP\1.3.0\Drivers\STM32L5xx_HAL_Driver\Src\stm32l5xx_hal_usart.c:3131:11
	cbz	r3, .LBB8_8
.Ltmp430:
@ %bb.5:                                @   in Loop: Header=BB8_4 Depth=1
	@DEBUG_VALUE: USART_TxISR_16BIT_FIFOEN:nb_tx_data <- $r2
	@DEBUG_VALUE: USART_TxISR_16BIT_FIFOEN:husart <- $r0
	.loc	7 3141 16 is_stmt 1             @ c:/Keil_v5\ARM\PACK\Keil\STM32L5xx_DFP\1.3.0\Drivers\STM32L5xx_HAL_Driver\Src\stm32l5xx_hal_usart.c:3141:16
	ldr.w	r3, [r12, #28]
.Ltmp431:
	.loc	7 3141 16 is_stmt 0             @ c:/Keil_v5\ARM\PACK\Keil\STM32L5xx_DFP\1.3.0\Drivers\STM32L5xx_HAL_Driver\Src\stm32l5xx_hal_usart.c:3141:16
	lsls	r3, r3, #24
	bpl	.LBB8_3
.Ltmp432:
@ %bb.6:                                @   in Loop: Header=BB8_4 Depth=1
	@DEBUG_VALUE: USART_TxISR_16BIT_FIFOEN:nb_tx_data <- $r2
	@DEBUG_VALUE: USART_TxISR_16BIT_FIFOEN:husart <- $r0
	.loc	7 3143 36 is_stmt 1             @ c:/Keil_v5\ARM\PACK\Keil\STM32L5xx_DFP\1.3.0\Drivers\STM32L5xx_HAL_Driver\Src\stm32l5xx_hal_usart.c:3143:36
	ldr	r3, [r0, #40]
.Ltmp433:
	@DEBUG_VALUE: USART_TxISR_16BIT_FIFOEN:tmp <- $r3
	.loc	7 3144 44                       @ c:/Keil_v5\ARM\PACK\Keil\STM32L5xx_DFP\1.3.0\Drivers\STM32L5xx_HAL_Driver\Src\stm32l5xx_hal_usart.c:3144:44
	ldrh	r1, [r3], #2
.Ltmp434:
	.loc	7 3144 33 is_stmt 0             @ c:/Keil_v5\ARM\PACK\Keil\STM32L5xx_DFP\1.3.0\Drivers\STM32L5xx_HAL_Driver\Src\stm32l5xx_hal_usart.c:3144:33
	bfc	r1, #9, #23
	.loc	7 3144 31                       @ c:/Keil_v5\ARM\PACK\Keil\STM32L5xx_DFP\1.3.0\Drivers\STM32L5xx_HAL_Driver\Src\stm32l5xx_hal_usart.c:3144:31
	str.w	r1, [r12, #40]
	.loc	7 3145 28 is_stmt 1             @ c:/Keil_v5\ARM\PACK\Keil\STM32L5xx_DFP\1.3.0\Drivers\STM32L5xx_HAL_Driver\Src\stm32l5xx_hal_usart.c:3145:28
	str	r3, [r0, #40]
	.loc	7 3146 28                       @ c:/Keil_v5\ARM\PACK\Keil\STM32L5xx_DFP\1.3.0\Drivers\STM32L5xx_HAL_Driver\Src\stm32l5xx_hal_usart.c:3146:28
	ldrh	r1, [r0, #46]
	subs	r1, #1
	strh	r1, [r0, #46]
	b	.LBB8_3
.Ltmp435:
	.p2align	2
.LBB8_7:
	@DEBUG_VALUE: USART_TxISR_16BIT_FIFOEN:husart <- $r0
	.loc	7 3154 1                        @ c:/Keil_v5\ARM\PACK\Keil\STM32L5xx_DFP\1.3.0\Drivers\STM32L5xx_HAL_Driver\Src\stm32l5xx_hal_usart.c:3154:1
	bx	lr
.Ltmp436:
	.p2align	2
.LBB8_8:
	@DEBUG_VALUE: USART_TxISR_16BIT_FIFOEN:nb_tx_data <- $r2
	@DEBUG_VALUE: USART_TxISR_16BIT_FIFOEN:husart <- $r0
	.loc	7 3134 9                        @ c:/Keil_v5\ARM\PACK\Keil\STM32L5xx_DFP\1.3.0\Drivers\STM32L5xx_HAL_Driver\Src\stm32l5xx_hal_usart.c:3134:9
	ldr.w	r0, [r12, #8]
.Ltmp437:
	@DEBUG_VALUE: USART_TxISR_16BIT_FIFOEN:husart <- [DW_OP_LLVM_entry_value 1] $r0
	bic	r0, r0, #8388608
	str.w	r0, [r12, #8]
	.loc	7 3137 9                        @ c:/Keil_v5\ARM\PACK\Keil\STM32L5xx_DFP\1.3.0\Drivers\STM32L5xx_HAL_Driver\Src\stm32l5xx_hal_usart.c:3137:9
	ldr.w	r0, [r12]
	orr	r0, r0, #64
	str.w	r0, [r12]
.Ltmp438:
	.loc	7 3154 1                        @ c:/Keil_v5\ARM\PACK\Keil\STM32L5xx_DFP\1.3.0\Drivers\STM32L5xx_HAL_Driver\Src\stm32l5xx_hal_usart.c:3154:1
	bx	lr
.Ltmp439:
.Lfunc_end8:
	.size	USART_TxISR_16BIT_FIFOEN, .Lfunc_end8-USART_TxISR_16BIT_FIFOEN
	.cfi_endproc
	.cantunwind
	.fnend
                                        @ -- End function
	.section	.text.USART_TxISR_8BIT_FIFOEN,"ax",%progbits
	.p2align	2                               @ -- Begin function USART_TxISR_8BIT_FIFOEN
	.type	USART_TxISR_8BIT_FIFOEN,%function
	.code	16                              @ @USART_TxISR_8BIT_FIFOEN
	.thumb_func
USART_TxISR_8BIT_FIFOEN:
.Lfunc_begin9:
	.loc	7 3075 0                        @ c:/Keil_v5\ARM\PACK\Keil\STM32L5xx_DFP\1.3.0\Drivers\STM32L5xx_HAL_Driver\Src\stm32l5xx_hal_usart.c:3075:0
	.fnstart
	.cfi_startproc
@ %bb.0:
	@DEBUG_VALUE: USART_TxISR_8BIT_FIFOEN:husart <- $r0
	@DEBUG_VALUE: USART_TxISR_8BIT_FIFOEN:husart <- $r0
	.loc	7 3076 48 prologue_end          @ c:/Keil_v5\ARM\PACK\Keil\STM32L5xx_DFP\1.3.0\Drivers\STM32L5xx_HAL_Driver\Src\stm32l5xx_hal_usart.c:3076:48
	ldrb.w	r1, [r0, #89]
.Ltmp440:
	@DEBUG_VALUE: USART_TxISR_8BIT_FIFOEN:state <- undef
	.loc	7 3080 42                       @ c:/Keil_v5\ARM\PACK\Keil\STM32L5xx_DFP\1.3.0\Drivers\STM32L5xx_HAL_Driver\Src\stm32l5xx_hal_usart.c:3080:42
	orr	r1, r1, #32
	cmp	r1, #50
	bne	.LBB9_7
.Ltmp441:
@ %bb.1:
	@DEBUG_VALUE: USART_TxISR_8BIT_FIFOEN:husart <- $r0
	.loc	7 3083 31                       @ c:/Keil_v5\ARM\PACK\Keil\STM32L5xx_DFP\1.3.0\Drivers\STM32L5xx_HAL_Driver\Src\stm32l5xx_hal_usart.c:3083:31
	ldrh	r2, [r0, #60]
.Ltmp442:
	@DEBUG_VALUE: USART_TxISR_8BIT_FIFOEN:nb_tx_data <- undef
	.loc	7 3083 5 is_stmt 0              @ c:/Keil_v5\ARM\PACK\Keil\STM32L5xx_DFP\1.3.0\Drivers\STM32L5xx_HAL_Driver\Src\stm32l5xx_hal_usart.c:3083:5
	cmp	r2, #0
.Ltmp443:
	.loc	7 3107 1 is_stmt 1              @ c:/Keil_v5\ARM\PACK\Keil\STM32L5xx_DFP\1.3.0\Drivers\STM32L5xx_HAL_Driver\Src\stm32l5xx_hal_usart.c:3107:1
	it	eq
	bxeq	lr
.Ltmp444:
.LBB9_2:
	@DEBUG_VALUE: USART_TxISR_8BIT_FIFOEN:husart <- $r0
	.loc	7 0 1 is_stmt 0                 @ c:/Keil_v5\ARM\PACK\Keil\STM32L5xx_DFP\1.3.0\Drivers\STM32L5xx_HAL_Driver\Src\stm32l5xx_hal_usart.c:0:1
	ldr.w	r12, [r0]
	b	.LBB9_4
.Ltmp445:
	.p2align	2
.LBB9_3:                                @   in Loop: Header=BB9_4 Depth=1
	@DEBUG_VALUE: USART_TxISR_8BIT_FIFOEN:nb_tx_data <- $r2
	@DEBUG_VALUE: USART_TxISR_8BIT_FIFOEN:husart <- $r0
	.loc	7 3083 79 is_stmt 1             @ c:/Keil_v5\ARM\PACK\Keil\STM32L5xx_DFP\1.3.0\Drivers\STM32L5xx_HAL_Driver\Src\stm32l5xx_hal_usart.c:3083:79
	subs	r2, #1
.Ltmp446:
	@DEBUG_VALUE: USART_TxISR_8BIT_FIFOEN:nb_tx_data <- $r2
	.loc	7 3083 5 is_stmt 0              @ c:/Keil_v5\ARM\PACK\Keil\STM32L5xx_DFP\1.3.0\Drivers\STM32L5xx_HAL_Driver\Src\stm32l5xx_hal_usart.c:3083:5
	lsls	r1, r2, #16
	beq	.LBB9_7
.Ltmp447:
.LBB9_4:                                @ =>This Inner Loop Header: Depth=1
	@DEBUG_VALUE: USART_TxISR_8BIT_FIFOEN:husart <- $r0
	@DEBUG_VALUE: USART_TxISR_8BIT_FIFOEN:nb_tx_data <- $r2
	.loc	7 3085 19 is_stmt 1             @ c:/Keil_v5\ARM\PACK\Keil\STM32L5xx_DFP\1.3.0\Drivers\STM32L5xx_HAL_Driver\Src\stm32l5xx_hal_usart.c:3085:19
	ldrh	r3, [r0, #46]
.Ltmp448:
	.loc	7 3085 11 is_stmt 0             @ c:/Keil_v5\ARM\PACK\Keil\STM32L5xx_DFP\1.3.0\Drivers\STM32L5xx_HAL_Driver\Src\stm32l5xx_hal_usart.c:3085:11
	cbz	r3, .LBB9_8
.Ltmp449:
@ %bb.5:                                @   in Loop: Header=BB9_4 Depth=1
	@DEBUG_VALUE: USART_TxISR_8BIT_FIFOEN:nb_tx_data <- $r2
	@DEBUG_VALUE: USART_TxISR_8BIT_FIFOEN:husart <- $r0
	.loc	7 3095 16 is_stmt 1             @ c:/Keil_v5\ARM\PACK\Keil\STM32L5xx_DFP\1.3.0\Drivers\STM32L5xx_HAL_Driver\Src\stm32l5xx_hal_usart.c:3095:16
	ldr.w	r3, [r12, #28]
.Ltmp450:
	.loc	7 3095 16 is_stmt 0             @ c:/Keil_v5\ARM\PACK\Keil\STM32L5xx_DFP\1.3.0\Drivers\STM32L5xx_HAL_Driver\Src\stm32l5xx_hal_usart.c:3095:16
	lsls	r3, r3, #24
	bpl	.LBB9_3
.Ltmp451:
@ %bb.6:                                @   in Loop: Header=BB9_4 Depth=1
	@DEBUG_VALUE: USART_TxISR_8BIT_FIFOEN:nb_tx_data <- $r2
	@DEBUG_VALUE: USART_TxISR_8BIT_FIFOEN:husart <- $r0
	.loc	7 3097 52 is_stmt 1             @ c:/Keil_v5\ARM\PACK\Keil\STM32L5xx_DFP\1.3.0\Drivers\STM32L5xx_HAL_Driver\Src\stm32l5xx_hal_usart.c:3097:52
	ldr	r3, [r0, #40]
	.loc	7 3097 43 is_stmt 0             @ c:/Keil_v5\ARM\PACK\Keil\STM32L5xx_DFP\1.3.0\Drivers\STM32L5xx_HAL_Driver\Src\stm32l5xx_hal_usart.c:3097:43
	ldrb	r1, [r3], #1
	.loc	7 3097 31                       @ c:/Keil_v5\ARM\PACK\Keil\STM32L5xx_DFP\1.3.0\Drivers\STM32L5xx_HAL_Driver\Src\stm32l5xx_hal_usart.c:3097:31
	str.w	r1, [r12, #40]
	.loc	7 3098 27 is_stmt 1             @ c:/Keil_v5\ARM\PACK\Keil\STM32L5xx_DFP\1.3.0\Drivers\STM32L5xx_HAL_Driver\Src\stm32l5xx_hal_usart.c:3098:27
	str	r3, [r0, #40]
	.loc	7 3099 28                       @ c:/Keil_v5\ARM\PACK\Keil\STM32L5xx_DFP\1.3.0\Drivers\STM32L5xx_HAL_Driver\Src\stm32l5xx_hal_usart.c:3099:28
	ldrh	r1, [r0, #46]
	subs	r1, #1
	strh	r1, [r0, #46]
	b	.LBB9_3
.Ltmp452:
	.p2align	2
.LBB9_7:
	@DEBUG_VALUE: USART_TxISR_8BIT_FIFOEN:husart <- $r0
	.loc	7 3107 1                        @ c:/Keil_v5\ARM\PACK\Keil\STM32L5xx_DFP\1.3.0\Drivers\STM32L5xx_HAL_Driver\Src\stm32l5xx_hal_usart.c:3107:1
	bx	lr
.Ltmp453:
	.p2align	2
.LBB9_8:
	@DEBUG_VALUE: USART_TxISR_8BIT_FIFOEN:nb_tx_data <- $r2
	@DEBUG_VALUE: USART_TxISR_8BIT_FIFOEN:husart <- $r0
	.loc	7 3088 9                        @ c:/Keil_v5\ARM\PACK\Keil\STM32L5xx_DFP\1.3.0\Drivers\STM32L5xx_HAL_Driver\Src\stm32l5xx_hal_usart.c:3088:9
	ldr.w	r0, [r12, #8]
.Ltmp454:
	@DEBUG_VALUE: USART_TxISR_8BIT_FIFOEN:husart <- [DW_OP_LLVM_entry_value 1] $r0
	bic	r0, r0, #8388608
	str.w	r0, [r12, #8]
	.loc	7 3091 9                        @ c:/Keil_v5\ARM\PACK\Keil\STM32L5xx_DFP\1.3.0\Drivers\STM32L5xx_HAL_Driver\Src\stm32l5xx_hal_usart.c:3091:9
	ldr.w	r0, [r12]
	orr	r0, r0, #64
	str.w	r0, [r12]
.Ltmp455:
	.loc	7 3107 1                        @ c:/Keil_v5\ARM\PACK\Keil\STM32L5xx_DFP\1.3.0\Drivers\STM32L5xx_HAL_Driver\Src\stm32l5xx_hal_usart.c:3107:1
	bx	lr
.Ltmp456:
.Lfunc_end9:
	.size	USART_TxISR_8BIT_FIFOEN, .Lfunc_end9-USART_TxISR_8BIT_FIFOEN
	.cfi_endproc
	.cantunwind
	.fnend
                                        @ -- End function
	.section	.text.USART_TxISR_16BIT,"ax",%progbits
	.p2align	2                               @ -- Begin function USART_TxISR_16BIT
	.type	USART_TxISR_16BIT,%function
	.code	16                              @ @USART_TxISR_16BIT
	.thumb_func
USART_TxISR_16BIT:
.Lfunc_begin10:
	.loc	7 3039 0                        @ c:/Keil_v5\ARM\PACK\Keil\STM32L5xx_DFP\1.3.0\Drivers\STM32L5xx_HAL_Driver\Src\stm32l5xx_hal_usart.c:3039:0
	.fnstart
	.cfi_startproc
@ %bb.0:
	@DEBUG_VALUE: USART_TxISR_16BIT:husart <- $r0
	@DEBUG_VALUE: USART_TxISR_16BIT:husart <- $r0
	.loc	7 3040 48 prologue_end          @ c:/Keil_v5\ARM\PACK\Keil\STM32L5xx_DFP\1.3.0\Drivers\STM32L5xx_HAL_Driver\Src\stm32l5xx_hal_usart.c:3040:48
	ldrb.w	r1, [r0, #89]
.Ltmp457:
	@DEBUG_VALUE: USART_TxISR_16BIT:state <- undef
	.loc	7 3043 42                       @ c:/Keil_v5\ARM\PACK\Keil\STM32L5xx_DFP\1.3.0\Drivers\STM32L5xx_HAL_Driver\Src\stm32l5xx_hal_usart.c:3043:42
	orr	r1, r1, #32
	cmp	r1, #50
.Ltmp458:
	.loc	7 3062 1                        @ c:/Keil_v5\ARM\PACK\Keil\STM32L5xx_DFP\1.3.0\Drivers\STM32L5xx_HAL_Driver\Src\stm32l5xx_hal_usart.c:3062:1
	it	ne
	bxne	lr
.Ltmp459:
.LBB10_1:
	@DEBUG_VALUE: USART_TxISR_16BIT:husart <- $r0
	.loc	7 3046 17                       @ c:/Keil_v5\ARM\PACK\Keil\STM32L5xx_DFP\1.3.0\Drivers\STM32L5xx_HAL_Driver\Src\stm32l5xx_hal_usart.c:3046:17
	ldrh	r1, [r0, #46]
.Ltmp460:
	.loc	7 3046 9 is_stmt 0              @ c:/Keil_v5\ARM\PACK\Keil\STM32L5xx_DFP\1.3.0\Drivers\STM32L5xx_HAL_Driver\Src\stm32l5xx_hal_usart.c:3046:9
	cbz	r1, .LBB10_3
.Ltmp461:
@ %bb.2:
	@DEBUG_VALUE: USART_TxISR_16BIT:husart <- $r0
	.loc	7 3056 34 is_stmt 1             @ c:/Keil_v5\ARM\PACK\Keil\STM32L5xx_DFP\1.3.0\Drivers\STM32L5xx_HAL_Driver\Src\stm32l5xx_hal_usart.c:3056:34
	ldr	r1, [r0, #40]
.Ltmp462:
	@DEBUG_VALUE: USART_TxISR_16BIT:tmp <- $r1
	.loc	7 3057 15                       @ c:/Keil_v5\ARM\PACK\Keil\STM32L5xx_DFP\1.3.0\Drivers\STM32L5xx_HAL_Driver\Src\stm32l5xx_hal_usart.c:3057:15
	ldr	r3, [r0]
	.loc	7 3057 42 is_stmt 0             @ c:/Keil_v5\ARM\PACK\Keil\STM32L5xx_DFP\1.3.0\Drivers\STM32L5xx_HAL_Driver\Src\stm32l5xx_hal_usart.c:3057:42
	ldrh	r2, [r1], #2
.Ltmp463:
	.loc	7 3057 31                       @ c:/Keil_v5\ARM\PACK\Keil\STM32L5xx_DFP\1.3.0\Drivers\STM32L5xx_HAL_Driver\Src\stm32l5xx_hal_usart.c:3057:31
	bfc	r2, #9, #23
	.loc	7 3057 29                       @ c:/Keil_v5\ARM\PACK\Keil\STM32L5xx_DFP\1.3.0\Drivers\STM32L5xx_HAL_Driver\Src\stm32l5xx_hal_usart.c:3057:29
	str	r2, [r3, #40]
	.loc	7 3058 26 is_stmt 1             @ c:/Keil_v5\ARM\PACK\Keil\STM32L5xx_DFP\1.3.0\Drivers\STM32L5xx_HAL_Driver\Src\stm32l5xx_hal_usart.c:3058:26
	str	r1, [r0, #40]
	.loc	7 3059 26                       @ c:/Keil_v5\ARM\PACK\Keil\STM32L5xx_DFP\1.3.0\Drivers\STM32L5xx_HAL_Driver\Src\stm32l5xx_hal_usart.c:3059:26
	ldrh	r1, [r0, #46]
	subs	r1, #1
	strh	r1, [r0, #46]
.Ltmp464:
	.loc	7 3062 1                        @ c:/Keil_v5\ARM\PACK\Keil\STM32L5xx_DFP\1.3.0\Drivers\STM32L5xx_HAL_Driver\Src\stm32l5xx_hal_usart.c:3062:1
	bx	lr
.Ltmp465:
	.p2align	2
.LBB10_3:
	@DEBUG_VALUE: USART_TxISR_16BIT:husart <- $r0
	.loc	7 3049 7                        @ c:/Keil_v5\ARM\PACK\Keil\STM32L5xx_DFP\1.3.0\Drivers\STM32L5xx_HAL_Driver\Src\stm32l5xx_hal_usart.c:3049:7
	ldr	r0, [r0]
.Ltmp466:
	@DEBUG_VALUE: USART_TxISR_16BIT:husart <- [DW_OP_LLVM_entry_value 1] $r0
	ldr	r1, [r0]
	bic	r1, r1, #128
	str	r1, [r0]
	.loc	7 3052 7                        @ c:/Keil_v5\ARM\PACK\Keil\STM32L5xx_DFP\1.3.0\Drivers\STM32L5xx_HAL_Driver\Src\stm32l5xx_hal_usart.c:3052:7
	ldr	r1, [r0]
	orr	r1, r1, #64
	str	r1, [r0]
.Ltmp467:
	.loc	7 3062 1                        @ c:/Keil_v5\ARM\PACK\Keil\STM32L5xx_DFP\1.3.0\Drivers\STM32L5xx_HAL_Driver\Src\stm32l5xx_hal_usart.c:3062:1
	bx	lr
.Ltmp468:
.Lfunc_end10:
	.size	USART_TxISR_16BIT, .Lfunc_end10-USART_TxISR_16BIT
	.cfi_endproc
	.cantunwind
	.fnend
                                        @ -- End function
	.section	.text.USART_TxISR_8BIT,"ax",%progbits
	.p2align	2                               @ -- Begin function USART_TxISR_8BIT
	.type	USART_TxISR_8BIT,%function
	.code	16                              @ @USART_TxISR_8BIT
	.thumb_func
USART_TxISR_8BIT:
.Lfunc_begin11:
	.loc	7 3004 0                        @ c:/Keil_v5\ARM\PACK\Keil\STM32L5xx_DFP\1.3.0\Drivers\STM32L5xx_HAL_Driver\Src\stm32l5xx_hal_usart.c:3004:0
	.fnstart
	.cfi_startproc
@ %bb.0:
	@DEBUG_VALUE: USART_TxISR_8BIT:husart <- $r0
	@DEBUG_VALUE: USART_TxISR_8BIT:husart <- $r0
	.loc	7 3005 48 prologue_end          @ c:/Keil_v5\ARM\PACK\Keil\STM32L5xx_DFP\1.3.0\Drivers\STM32L5xx_HAL_Driver\Src\stm32l5xx_hal_usart.c:3005:48
	ldrb.w	r1, [r0, #89]
.Ltmp469:
	@DEBUG_VALUE: USART_TxISR_8BIT:state <- undef
	.loc	7 3008 42                       @ c:/Keil_v5\ARM\PACK\Keil\STM32L5xx_DFP\1.3.0\Drivers\STM32L5xx_HAL_Driver\Src\stm32l5xx_hal_usart.c:3008:42
	orr	r1, r1, #32
	cmp	r1, #50
.Ltmp470:
	.loc	7 3026 1                        @ c:/Keil_v5\ARM\PACK\Keil\STM32L5xx_DFP\1.3.0\Drivers\STM32L5xx_HAL_Driver\Src\stm32l5xx_hal_usart.c:3026:1
	it	ne
	bxne	lr
.Ltmp471:
.LBB11_1:
	@DEBUG_VALUE: USART_TxISR_8BIT:husart <- $r0
	.loc	7 3011 17                       @ c:/Keil_v5\ARM\PACK\Keil\STM32L5xx_DFP\1.3.0\Drivers\STM32L5xx_HAL_Driver\Src\stm32l5xx_hal_usart.c:3011:17
	ldrh	r1, [r0, #46]
.Ltmp472:
	.loc	7 3011 9 is_stmt 0              @ c:/Keil_v5\ARM\PACK\Keil\STM32L5xx_DFP\1.3.0\Drivers\STM32L5xx_HAL_Driver\Src\stm32l5xx_hal_usart.c:3011:9
	cbz	r1, .LBB11_3
.Ltmp473:
@ %bb.2:
	@DEBUG_VALUE: USART_TxISR_8BIT:husart <- $r0
	.loc	7 3021 50 is_stmt 1             @ c:/Keil_v5\ARM\PACK\Keil\STM32L5xx_DFP\1.3.0\Drivers\STM32L5xx_HAL_Driver\Src\stm32l5xx_hal_usart.c:3021:50
	ldr	r1, [r0, #40]
	.loc	7 3021 15 is_stmt 0             @ c:/Keil_v5\ARM\PACK\Keil\STM32L5xx_DFP\1.3.0\Drivers\STM32L5xx_HAL_Driver\Src\stm32l5xx_hal_usart.c:3021:15
	ldr	r3, [r0]
	.loc	7 3021 41                       @ c:/Keil_v5\ARM\PACK\Keil\STM32L5xx_DFP\1.3.0\Drivers\STM32L5xx_HAL_Driver\Src\stm32l5xx_hal_usart.c:3021:41
	ldrb	r2, [r1], #1
	.loc	7 3021 29                       @ c:/Keil_v5\ARM\PACK\Keil\STM32L5xx_DFP\1.3.0\Drivers\STM32L5xx_HAL_Driver\Src\stm32l5xx_hal_usart.c:3021:29
	str	r2, [r3, #40]
	.loc	7 3022 25 is_stmt 1             @ c:/Keil_v5\ARM\PACK\Keil\STM32L5xx_DFP\1.3.0\Drivers\STM32L5xx_HAL_Driver\Src\stm32l5xx_hal_usart.c:3022:25
	str	r1, [r0, #40]
	.loc	7 3023 26                       @ c:/Keil_v5\ARM\PACK\Keil\STM32L5xx_DFP\1.3.0\Drivers\STM32L5xx_HAL_Driver\Src\stm32l5xx_hal_usart.c:3023:26
	ldrh	r1, [r0, #46]
	subs	r1, #1
	strh	r1, [r0, #46]
.Ltmp474:
	.loc	7 3026 1                        @ c:/Keil_v5\ARM\PACK\Keil\STM32L5xx_DFP\1.3.0\Drivers\STM32L5xx_HAL_Driver\Src\stm32l5xx_hal_usart.c:3026:1
	bx	lr
.Ltmp475:
	.p2align	2
.LBB11_3:
	@DEBUG_VALUE: USART_TxISR_8BIT:husart <- $r0
	.loc	7 3014 7                        @ c:/Keil_v5\ARM\PACK\Keil\STM32L5xx_DFP\1.3.0\Drivers\STM32L5xx_HAL_Driver\Src\stm32l5xx_hal_usart.c:3014:7
	ldr	r0, [r0]
.Ltmp476:
	@DEBUG_VALUE: USART_TxISR_8BIT:husart <- [DW_OP_LLVM_entry_value 1] $r0
	ldr	r1, [r0]
	bic	r1, r1, #128
	str	r1, [r0]
	.loc	7 3017 7                        @ c:/Keil_v5\ARM\PACK\Keil\STM32L5xx_DFP\1.3.0\Drivers\STM32L5xx_HAL_Driver\Src\stm32l5xx_hal_usart.c:3017:7
	ldr	r1, [r0]
	orr	r1, r1, #64
	str	r1, [r0]
.Ltmp477:
	.loc	7 3026 1                        @ c:/Keil_v5\ARM\PACK\Keil\STM32L5xx_DFP\1.3.0\Drivers\STM32L5xx_HAL_Driver\Src\stm32l5xx_hal_usart.c:3026:1
	bx	lr
.Ltmp478:
.Lfunc_end11:
	.size	USART_TxISR_8BIT, .Lfunc_end11-USART_TxISR_8BIT
	.cfi_endproc
	.cantunwind
	.fnend
                                        @ -- End function
	.section	.text.HAL_USART_Receive_IT,"ax",%progbits
	.hidden	HAL_USART_Receive_IT            @ -- Begin function HAL_USART_Receive_IT
	.globl	HAL_USART_Receive_IT
	.p2align	2
	.type	HAL_USART_Receive_IT,%function
	.code	16                              @ @HAL_USART_Receive_IT
	.thumb_func
HAL_USART_Receive_IT:
.Lfunc_begin12:
	.loc	7 1191 0                        @ c:/Keil_v5\ARM\PACK\Keil\STM32L5xx_DFP\1.3.0\Drivers\STM32L5xx_HAL_Driver\Src\stm32l5xx_hal_usart.c:1191:0
	.fnstart
	.cfi_startproc
@ %bb.0:
	@DEBUG_VALUE: HAL_USART_Receive_IT:husart <- $r0
	@DEBUG_VALUE: HAL_USART_Receive_IT:husart <- $r0
	@DEBUG_VALUE: HAL_USART_Receive_IT:pRxData <- $r1
	@DEBUG_VALUE: HAL_USART_Receive_IT:Size <- $r2
	@DEBUG_VALUE: HAL_USART_Receive_IT:Size <- undef
	.save	{r4, lr}
	push	{r4, lr}
	.cfi_def_cfa_offset 8
	.cfi_offset lr, -4
	.cfi_offset r4, -8
.Ltmp479:
	.loc	7 1194 15 prologue_end          @ c:/Keil_v5\ARM\PACK\Keil\STM32L5xx_DFP\1.3.0\Drivers\STM32L5xx_HAL_Driver\Src\stm32l5xx_hal_usart.c:1194:15
	ldrb.w	r3, [r0, #89]
.Ltmp480:
	@DEBUG_VALUE: HAL_USART_Receive_IT:Size <- $r2
	.loc	7 1194 7 is_stmt 0              @ c:/Keil_v5\ARM\PACK\Keil\STM32L5xx_DFP\1.3.0\Drivers\STM32L5xx_HAL_Driver\Src\stm32l5xx_hal_usart.c:1194:7
	cmp	r3, #1
	@DEBUG_VALUE: HAL_USART_Receive_IT:pRxData <- $r1
	bne	.LBB12_4
.Ltmp481:
@ %bb.1:
	@DEBUG_VALUE: HAL_USART_Receive_IT:Size <- $r2
	@DEBUG_VALUE: HAL_USART_Receive_IT:pRxData <- $r1
	@DEBUG_VALUE: HAL_USART_Receive_IT:husart <- $r0
	@DEBUG_VALUE: HAL_USART_Receive_IT:Size <- $r2
	.loc	7 1196 27 is_stmt 1             @ c:/Keil_v5\ARM\PACK\Keil\STM32L5xx_DFP\1.3.0\Drivers\STM32L5xx_HAL_Driver\Src\stm32l5xx_hal_usart.c:1196:27
	cmp	r1, #0
	mov.w	r3, #1
	@DEBUG_VALUE: HAL_USART_Receive_IT:Size <- $r2
	it	ne
	cmpne	r2, #0
	bne	.LBB12_3
.Ltmp482:
.LBB12_2:
	.loc	7 1281 1                        @ c:/Keil_v5\ARM\PACK\Keil\STM32L5xx_DFP\1.3.0\Drivers\STM32L5xx_HAL_Driver\Src\stm32l5xx_hal_usart.c:1281:1
	mov	r0, r3
	pop	{r4, pc}
	.p2align	2
.LBB12_3:
.Ltmp483:
	@DEBUG_VALUE: HAL_USART_Receive_IT:Size <- $r2
	@DEBUG_VALUE: HAL_USART_Receive_IT:pRxData <- $r1
	@DEBUG_VALUE: HAL_USART_Receive_IT:husart <- $r0
	@DEBUG_VALUE: HAL_USART_Receive_IT:Size <- $r2
	.loc	7 1202 5                        @ c:/Keil_v5\ARM\PACK\Keil\STM32L5xx_DFP\1.3.0\Drivers\STM32L5xx_HAL_Driver\Src\stm32l5xx_hal_usart.c:1202:5
	ldrb.w	r3, [r0, #88]
.Ltmp484:
	.loc	7 1202 5 is_stmt 0              @ c:/Keil_v5\ARM\PACK\Keil\STM32L5xx_DFP\1.3.0\Drivers\STM32L5xx_HAL_Driver\Src\stm32l5xx_hal_usart.c:1202:5
	cmp	r3, #1
	bne	.LBB12_5
.Ltmp485:
.LBB12_4:
	@DEBUG_VALUE: HAL_USART_Receive_IT:Size <- $r2
	@DEBUG_VALUE: HAL_USART_Receive_IT:pRxData <- $r1
	@DEBUG_VALUE: HAL_USART_Receive_IT:husart <- $r0
	.loc	7 0 5                           @ c:/Keil_v5\ARM\PACK\Keil\STM32L5xx_DFP\1.3.0\Drivers\STM32L5xx_HAL_Driver\Src\stm32l5xx_hal_usart.c:0:5
	movs	r0, #2
.Ltmp486:
	@DEBUG_VALUE: HAL_USART_Receive_IT:husart <- [DW_OP_LLVM_entry_value 1] $r0
	.loc	7 1281 1 is_stmt 1              @ c:/Keil_v5\ARM\PACK\Keil\STM32L5xx_DFP\1.3.0\Drivers\STM32L5xx_HAL_Driver\Src\stm32l5xx_hal_usart.c:1281:1
	pop	{r4, pc}
.Ltmp487:
	.p2align	2
.LBB12_5:
	@DEBUG_VALUE: HAL_USART_Receive_IT:Size <- $r2
	@DEBUG_VALUE: HAL_USART_Receive_IT:pRxData <- $r1
	@DEBUG_VALUE: HAL_USART_Receive_IT:husart <- $r0
	@DEBUG_VALUE: HAL_USART_Receive_IT:Size <- $r2
	.loc	7 1204 25                       @ c:/Keil_v5\ARM\PACK\Keil\STM32L5xx_DFP\1.3.0\Drivers\STM32L5xx_HAL_Driver\Src\stm32l5xx_hal_usart.c:1204:25
	str	r1, [r0, #48]
	.loc	7 1205 25                       @ c:/Keil_v5\ARM\PACK\Keil\STM32L5xx_DFP\1.3.0\Drivers\STM32L5xx_HAL_Driver\Src\stm32l5xx_hal_usart.c:1205:25
	strh	r2, [r0, #52]
	.loc	7 1206 25                       @ c:/Keil_v5\ARM\PACK\Keil\STM32L5xx_DFP\1.3.0\Drivers\STM32L5xx_HAL_Driver\Src\stm32l5xx_hal_usart.c:1206:25
	strh	r2, [r0, #54]
.Ltmp488:
	.loc	7 1209 5                        @ c:/Keil_v5\ARM\PACK\Keil\STM32L5xx_DFP\1.3.0\Drivers\STM32L5xx_HAL_Driver\Src\stm32l5xx_hal_usart.c:1209:5
	ldr	r4, [r0, #8]
.Ltmp489:
	.loc	7 1209 5 is_stmt 0              @ c:/Keil_v5\ARM\PACK\Keil\STM32L5xx_DFP\1.3.0\Drivers\STM32L5xx_HAL_Driver\Src\stm32l5xx_hal_usart.c:1209:5
	cbz	r4, .LBB12_10
.Ltmp490:
@ %bb.6:
	@DEBUG_VALUE: HAL_USART_Receive_IT:Size <- $r2
	@DEBUG_VALUE: HAL_USART_Receive_IT:pRxData <- $r1
	@DEBUG_VALUE: HAL_USART_Receive_IT:husart <- $r0
	cmp.w	r4, #268435456
	beq	.LBB12_12
.Ltmp491:
@ %bb.7:
	@DEBUG_VALUE: HAL_USART_Receive_IT:Size <- $r2
	@DEBUG_VALUE: HAL_USART_Receive_IT:pRxData <- $r1
	@DEBUG_VALUE: HAL_USART_Receive_IT:husart <- $r0
	cmp.w	r4, #4096
	bne	.LBB12_14
.Ltmp492:
@ %bb.8:
	@DEBUG_VALUE: HAL_USART_Receive_IT:Size <- $r2
	@DEBUG_VALUE: HAL_USART_Receive_IT:pRxData <- $r1
	@DEBUG_VALUE: HAL_USART_Receive_IT:husart <- $r0
	.loc	7 1209 5                        @ c:/Keil_v5\ARM\PACK\Keil\STM32L5xx_DFP\1.3.0\Drivers\STM32L5xx_HAL_Driver\Src\stm32l5xx_hal_usart.c:1209:5
	ldr	r1, [r0, #16]
.Ltmp493:
	@DEBUG_VALUE: HAL_USART_Receive_IT:pRxData <- [DW_OP_LLVM_entry_value 1] $r1
	.loc	7 1209 5                        @ c:/Keil_v5\ARM\PACK\Keil\STM32L5xx_DFP\1.3.0\Drivers\STM32L5xx_HAL_Driver\Src\stm32l5xx_hal_usart.c:1209:5
	cbnz	r1, .LBB12_11
.Ltmp494:
@ %bb.9:
	@DEBUG_VALUE: HAL_USART_Receive_IT:Size <- $r2
	@DEBUG_VALUE: HAL_USART_Receive_IT:husart <- $r0
	@DEBUG_VALUE: HAL_USART_Receive_IT:pRxData <- [DW_OP_LLVM_entry_value 1] $r1
	.loc	7 0 5                           @ c:/Keil_v5\ARM\PACK\Keil\STM32L5xx_DFP\1.3.0\Drivers\STM32L5xx_HAL_Driver\Src\stm32l5xx_hal_usart.c:0:5
	movw	r1, #511
	b	.LBB12_16
.Ltmp495:
	.p2align	2
.LBB12_10:
	@DEBUG_VALUE: HAL_USART_Receive_IT:Size <- $r2
	@DEBUG_VALUE: HAL_USART_Receive_IT:pRxData <- $r1
	@DEBUG_VALUE: HAL_USART_Receive_IT:husart <- $r0
	.loc	7 1209 5                        @ c:/Keil_v5\ARM\PACK\Keil\STM32L5xx_DFP\1.3.0\Drivers\STM32L5xx_HAL_Driver\Src\stm32l5xx_hal_usart.c:1209:5
	ldr	r1, [r0, #16]
.Ltmp496:
	@DEBUG_VALUE: HAL_USART_Receive_IT:pRxData <- [DW_OP_LLVM_entry_value 1] $r1
	.loc	7 1209 5                        @ c:/Keil_v5\ARM\PACK\Keil\STM32L5xx_DFP\1.3.0\Drivers\STM32L5xx_HAL_Driver\Src\stm32l5xx_hal_usart.c:1209:5
	cbnz	r1, .LBB12_15
.Ltmp497:
.LBB12_11:
	@DEBUG_VALUE: HAL_USART_Receive_IT:Size <- $r2
	@DEBUG_VALUE: HAL_USART_Receive_IT:husart <- $r0
	@DEBUG_VALUE: HAL_USART_Receive_IT:pRxData <- [DW_OP_LLVM_entry_value 1] $r1
	.loc	7 0 5                           @ c:/Keil_v5\ARM\PACK\Keil\STM32L5xx_DFP\1.3.0\Drivers\STM32L5xx_HAL_Driver\Src\stm32l5xx_hal_usart.c:0:5
	movs	r1, #255
	b	.LBB12_16
.Ltmp498:
	.p2align	2
.LBB12_12:
	@DEBUG_VALUE: HAL_USART_Receive_IT:Size <- $r2
	@DEBUG_VALUE: HAL_USART_Receive_IT:pRxData <- $r1
	@DEBUG_VALUE: HAL_USART_Receive_IT:husart <- $r0
	.loc	7 1209 5                        @ c:/Keil_v5\ARM\PACK\Keil\STM32L5xx_DFP\1.3.0\Drivers\STM32L5xx_HAL_Driver\Src\stm32l5xx_hal_usart.c:1209:5
	ldr	r1, [r0, #16]
.Ltmp499:
	@DEBUG_VALUE: HAL_USART_Receive_IT:pRxData <- [DW_OP_LLVM_entry_value 1] $r1
	.loc	7 1209 5                        @ c:/Keil_v5\ARM\PACK\Keil\STM32L5xx_DFP\1.3.0\Drivers\STM32L5xx_HAL_Driver\Src\stm32l5xx_hal_usart.c:1209:5
	cbz	r1, .LBB12_15
.Ltmp500:
@ %bb.13:
	@DEBUG_VALUE: HAL_USART_Receive_IT:Size <- $r2
	@DEBUG_VALUE: HAL_USART_Receive_IT:husart <- $r0
	@DEBUG_VALUE: HAL_USART_Receive_IT:pRxData <- [DW_OP_LLVM_entry_value 1] $r1
	.loc	7 0 5                           @ c:/Keil_v5\ARM\PACK\Keil\STM32L5xx_DFP\1.3.0\Drivers\STM32L5xx_HAL_Driver\Src\stm32l5xx_hal_usart.c:0:5
	movs	r1, #63
	b	.LBB12_16
.Ltmp501:
	.p2align	2
.LBB12_14:
	@DEBUG_VALUE: HAL_USART_Receive_IT:Size <- $r2
	@DEBUG_VALUE: HAL_USART_Receive_IT:pRxData <- $r1
	@DEBUG_VALUE: HAL_USART_Receive_IT:husart <- $r0
	movs	r1, #0
.Ltmp502:
	@DEBUG_VALUE: HAL_USART_Receive_IT:pRxData <- [DW_OP_LLVM_entry_value 1] $r1
	b	.LBB12_16
.Ltmp503:
	.p2align	2
.LBB12_15:
	@DEBUG_VALUE: HAL_USART_Receive_IT:Size <- $r2
	@DEBUG_VALUE: HAL_USART_Receive_IT:husart <- $r0
	@DEBUG_VALUE: HAL_USART_Receive_IT:pRxData <- [DW_OP_LLVM_entry_value 1] $r1
	movs	r1, #127
.Ltmp504:
.LBB12_16:
	@DEBUG_VALUE: HAL_USART_Receive_IT:Size <- $r2
	@DEBUG_VALUE: HAL_USART_Receive_IT:husart <- $r0
	@DEBUG_VALUE: HAL_USART_Receive_IT:pRxData <- [DW_OP_LLVM_entry_value 1] $r1
	strh	r1, [r0, #56]
	movs	r1, #0
.Ltmp505:
	.loc	7 1211 23 is_stmt 1             @ c:/Keil_v5\ARM\PACK\Keil\STM32L5xx_DFP\1.3.0\Drivers\STM32L5xx_HAL_Driver\Src\stm32l5xx_hal_usart.c:1211:23
	str	r1, [r0, #92]
	movs	r1, #34
	.loc	7 1212 19                       @ c:/Keil_v5\ARM\PACK\Keil\STM32L5xx_DFP\1.3.0\Drivers\STM32L5xx_HAL_Driver\Src\stm32l5xx_hal_usart.c:1212:19
	strb.w	r1, [r0, #89]
	.loc	7 1215 5                        @ c:/Keil_v5\ARM\PACK\Keil\STM32L5xx_DFP\1.3.0\Drivers\STM32L5xx_HAL_Driver\Src\stm32l5xx_hal_usart.c:1215:5
	ldr	r1, [r0]
.Ltmp506:
	.loc	7 1218 18                       @ c:/Keil_v5\ARM\PACK\Keil\STM32L5xx_DFP\1.3.0\Drivers\STM32L5xx_HAL_Driver\Src\stm32l5xx_hal_usart.c:1218:18
	ldr.w	lr, [r0, #68]
.Ltmp507:
	.loc	7 1215 5                        @ c:/Keil_v5\ARM\PACK\Keil\STM32L5xx_DFP\1.3.0\Drivers\STM32L5xx_HAL_Driver\Src\stm32l5xx_hal_usart.c:1215:5
	ldr	r3, [r1, #8]
.Ltmp508:
	.loc	7 1218 53                       @ c:/Keil_v5\ARM\PACK\Keil\STM32L5xx_DFP\1.3.0\Drivers\STM32L5xx_HAL_Driver\Src\stm32l5xx_hal_usart.c:1218:53
	cmp.w	lr, #536870912
.Ltmp509:
	.loc	7 1215 5                        @ c:/Keil_v5\ARM\PACK\Keil\STM32L5xx_DFP\1.3.0\Drivers\STM32L5xx_HAL_Driver\Src\stm32l5xx_hal_usart.c:1215:5
	orr	r3, r3, #1
	str	r3, [r1, #8]
.Ltmp510:
	.loc	7 1218 53                       @ c:/Keil_v5\ARM\PACK\Keil\STM32L5xx_DFP\1.3.0\Drivers\STM32L5xx_HAL_Driver\Src\stm32l5xx_hal_usart.c:1218:53
	bne	.LBB12_18
.Ltmp511:
@ %bb.17:
	@DEBUG_VALUE: HAL_USART_Receive_IT:Size <- $r2
	@DEBUG_VALUE: HAL_USART_Receive_IT:husart <- $r0
	@DEBUG_VALUE: HAL_USART_Receive_IT:pRxData <- [DW_OP_LLVM_entry_value 1] $r1
	.loc	7 1218 73 is_stmt 0             @ c:/Keil_v5\ARM\PACK\Keil\STM32L5xx_DFP\1.3.0\Drivers\STM32L5xx_HAL_Driver\Src\stm32l5xx_hal_usart.c:1218:73
	ldrh.w	r12, [r0, #58]
.Ltmp512:
	.loc	7 1218 9                        @ c:/Keil_v5\ARM\PACK\Keil\STM32L5xx_DFP\1.3.0\Drivers\STM32L5xx_HAL_Driver\Src\stm32l5xx_hal_usart.c:1218:9
	cmp	r12, r2
	bls	.LBB12_24
.Ltmp513:
.LBB12_18:
	@DEBUG_VALUE: HAL_USART_Receive_IT:Size <- $r2
	@DEBUG_VALUE: HAL_USART_Receive_IT:husart <- $r0
	@DEBUG_VALUE: HAL_USART_Receive_IT:pRxData <- [DW_OP_LLVM_entry_value 1] $r1
	.loc	7 1240 60 is_stmt 1             @ c:/Keil_v5\ARM\PACK\Keil\STM32L5xx_DFP\1.3.0\Drivers\STM32L5xx_HAL_Driver\Src\stm32l5xx_hal_usart.c:1240:60
	cmp.w	r4, #4096
	bne	.LBB12_20
.Ltmp514:
@ %bb.19:
	@DEBUG_VALUE: HAL_USART_Receive_IT:Size <- $r2
	@DEBUG_VALUE: HAL_USART_Receive_IT:husart <- $r0
	@DEBUG_VALUE: HAL_USART_Receive_IT:pRxData <- [DW_OP_LLVM_entry_value 1] $r1
	.loc	7 1240 77 is_stmt 0             @ c:/Keil_v5\ARM\PACK\Keil\STM32L5xx_DFP\1.3.0\Drivers\STM32L5xx_HAL_Driver\Src\stm32l5xx_hal_usart.c:1240:77
	ldr	r3, [r0, #16]
.Ltmp515:
	.loc	7 1240 11                       @ c:/Keil_v5\ARM\PACK\Keil\STM32L5xx_DFP\1.3.0\Drivers\STM32L5xx_HAL_Driver\Src\stm32l5xx_hal_usart.c:1240:11
	cbz	r3, .LBB12_30
.Ltmp516:
.LBB12_20:
	@DEBUG_VALUE: HAL_USART_Receive_IT:Size <- $r2
	@DEBUG_VALUE: HAL_USART_Receive_IT:husart <- $r0
	@DEBUG_VALUE: HAL_USART_Receive_IT:pRxData <- [DW_OP_LLVM_entry_value 1] $r1
	.loc	7 0 11                          @ c:/Keil_v5\ARM\PACK\Keil\STM32L5xx_DFP\1.3.0\Drivers\STM32L5xx_HAL_Driver\Src\stm32l5xx_hal_usart.c:0:11
	movw	r3, :lower16:USART_RxISR_8BIT
	movt	r3, :upper16:USART_RxISR_8BIT
.Ltmp517:
.LBB12_21:
	@DEBUG_VALUE: HAL_USART_Receive_IT:Size <- $r2
	@DEBUG_VALUE: HAL_USART_Receive_IT:husart <- $r0
	@DEBUG_VALUE: HAL_USART_Receive_IT:pRxData <- [DW_OP_LLVM_entry_value 1] $r1
	str	r3, [r0, #72]
	movs	r3, #0
.Ltmp518:
	.loc	7 1250 7 is_stmt 1              @ c:/Keil_v5\ARM\PACK\Keil\STM32L5xx_DFP\1.3.0\Drivers\STM32L5xx_HAL_Driver\Src\stm32l5xx_hal_usart.c:1250:7
	strb.w	r3, [r0, #88]
.Ltmp519:
	.loc	7 1253 7                        @ c:/Keil_v5\ARM\PACK\Keil\STM32L5xx_DFP\1.3.0\Drivers\STM32L5xx_HAL_Driver\Src\stm32l5xx_hal_usart.c:1253:7
	ldr	r4, [r1]
	orr	r4, r4, #288
	str	r4, [r1]
.Ltmp520:
	.loc	7 1256 17                       @ c:/Keil_v5\ARM\PACK\Keil\STM32L5xx_DFP\1.3.0\Drivers\STM32L5xx_HAL_Driver\Src\stm32l5xx_hal_usart.c:1256:17
	ldr	r4, [r0, #64]
.Ltmp521:
	.loc	7 1256 9 is_stmt 0              @ c:/Keil_v5\ARM\PACK\Keil\STM32L5xx_DFP\1.3.0\Drivers\STM32L5xx_HAL_Driver\Src\stm32l5xx_hal_usart.c:1256:9
	cmp	r4, #0
	bne	.LBB12_2
.Ltmp522:
@ %bb.22:
	@DEBUG_VALUE: HAL_USART_Receive_IT:Size <- $r2
	@DEBUG_VALUE: HAL_USART_Receive_IT:husart <- $r0
	@DEBUG_VALUE: HAL_USART_Receive_IT:pRxData <- [DW_OP_LLVM_entry_value 1] $r1
	.loc	7 1262 55 is_stmt 1             @ c:/Keil_v5\ARM\PACK\Keil\STM32L5xx_DFP\1.3.0\Drivers\STM32L5xx_HAL_Driver\Src\stm32l5xx_hal_usart.c:1262:55
	cmp.w	lr, #536870912
	bne	.LBB12_29
.Ltmp523:
@ %bb.23:
	@DEBUG_VALUE: HAL_USART_Receive_IT:Size <- $r2
	@DEBUG_VALUE: HAL_USART_Receive_IT:husart <- $r0
	@DEBUG_VALUE: HAL_USART_Receive_IT:pRxData <- [DW_OP_LLVM_entry_value 1] $r1
	.loc	7 1262 75 is_stmt 0             @ c:/Keil_v5\ARM\PACK\Keil\STM32L5xx_DFP\1.3.0\Drivers\STM32L5xx_HAL_Driver\Src\stm32l5xx_hal_usart.c:1262:75
	ldrh.w	r12, [r0, #58]
	b	.LBB12_28
.Ltmp524:
	.p2align	2
.LBB12_24:
	@DEBUG_VALUE: HAL_USART_Receive_IT:Size <- $r2
	@DEBUG_VALUE: HAL_USART_Receive_IT:husart <- $r0
	@DEBUG_VALUE: HAL_USART_Receive_IT:pRxData <- [DW_OP_LLVM_entry_value 1] $r1
	.loc	7 1221 60 is_stmt 1             @ c:/Keil_v5\ARM\PACK\Keil\STM32L5xx_DFP\1.3.0\Drivers\STM32L5xx_HAL_Driver\Src\stm32l5xx_hal_usart.c:1221:60
	cmp.w	r4, #4096
	bne	.LBB12_26
.Ltmp525:
@ %bb.25:
	@DEBUG_VALUE: HAL_USART_Receive_IT:Size <- $r2
	@DEBUG_VALUE: HAL_USART_Receive_IT:husart <- $r0
	@DEBUG_VALUE: HAL_USART_Receive_IT:pRxData <- [DW_OP_LLVM_entry_value 1] $r1
	.loc	7 1221 77 is_stmt 0             @ c:/Keil_v5\ARM\PACK\Keil\STM32L5xx_DFP\1.3.0\Drivers\STM32L5xx_HAL_Driver\Src\stm32l5xx_hal_usart.c:1221:77
	ldr	r3, [r0, #16]
.Ltmp526:
	.loc	7 1221 11                       @ c:/Keil_v5\ARM\PACK\Keil\STM32L5xx_DFP\1.3.0\Drivers\STM32L5xx_HAL_Driver\Src\stm32l5xx_hal_usart.c:1221:11
	cbz	r3, .LBB12_36
.Ltmp527:
.LBB12_26:
	@DEBUG_VALUE: HAL_USART_Receive_IT:Size <- $r2
	@DEBUG_VALUE: HAL_USART_Receive_IT:husart <- $r0
	@DEBUG_VALUE: HAL_USART_Receive_IT:pRxData <- [DW_OP_LLVM_entry_value 1] $r1
	.loc	7 0 11                          @ c:/Keil_v5\ARM\PACK\Keil\STM32L5xx_DFP\1.3.0\Drivers\STM32L5xx_HAL_Driver\Src\stm32l5xx_hal_usart.c:0:11
	movw	r3, :lower16:USART_RxISR_8BIT_FIFOEN
	movt	r3, :upper16:USART_RxISR_8BIT_FIFOEN
.Ltmp528:
.LBB12_27:
	@DEBUG_VALUE: HAL_USART_Receive_IT:Size <- $r2
	@DEBUG_VALUE: HAL_USART_Receive_IT:husart <- $r0
	@DEBUG_VALUE: HAL_USART_Receive_IT:pRxData <- [DW_OP_LLVM_entry_value 1] $r1
	str	r3, [r0, #72]
	movs	r3, #0
.Ltmp529:
	.loc	7 1231 7 is_stmt 1              @ c:/Keil_v5\ARM\PACK\Keil\STM32L5xx_DFP\1.3.0\Drivers\STM32L5xx_HAL_Driver\Src\stm32l5xx_hal_usart.c:1231:7
	strb.w	r3, [r0, #88]
.Ltmp530:
	.loc	7 1234 7                        @ c:/Keil_v5\ARM\PACK\Keil\STM32L5xx_DFP\1.3.0\Drivers\STM32L5xx_HAL_Driver\Src\stm32l5xx_hal_usart.c:1234:7
	ldr	r4, [r1]
	orr	r4, r4, #256
	str	r4, [r1]
	.loc	7 1235 7                        @ c:/Keil_v5\ARM\PACK\Keil\STM32L5xx_DFP\1.3.0\Drivers\STM32L5xx_HAL_Driver\Src\stm32l5xx_hal_usart.c:1235:7
	ldr	r4, [r1, #8]
	orr	r4, r4, #268435456
	str	r4, [r1, #8]
.Ltmp531:
	.loc	7 1256 17                       @ c:/Keil_v5\ARM\PACK\Keil\STM32L5xx_DFP\1.3.0\Drivers\STM32L5xx_HAL_Driver\Src\stm32l5xx_hal_usart.c:1256:17
	ldr	r0, [r0, #64]
.Ltmp532:
	@DEBUG_VALUE: HAL_USART_Receive_IT:husart <- [DW_OP_LLVM_entry_value 1] $r0
	.loc	7 1256 9 is_stmt 0              @ c:/Keil_v5\ARM\PACK\Keil\STM32L5xx_DFP\1.3.0\Drivers\STM32L5xx_HAL_Driver\Src\stm32l5xx_hal_usart.c:1256:9
	cmp	r0, #0
	bne.w	.LBB12_2
.Ltmp533:
.LBB12_28:
	@DEBUG_VALUE: HAL_USART_Receive_IT:Size <- $r2
	@DEBUG_VALUE: HAL_USART_Receive_IT:pRxData <- [DW_OP_LLVM_entry_value 1] $r1
	.loc	7 1262 11 is_stmt 1             @ c:/Keil_v5\ARM\PACK\Keil\STM32L5xx_DFP\1.3.0\Drivers\STM32L5xx_HAL_Driver\Src\stm32l5xx_hal_usart.c:1262:11
	cmp	r12, r2
	bls	.LBB12_31
.Ltmp534:
.LBB12_29:
	@DEBUG_VALUE: HAL_USART_Receive_IT:Size <- $r2
	@DEBUG_VALUE: HAL_USART_Receive_IT:pRxData <- [DW_OP_LLVM_entry_value 1] $r1
	.loc	7 0 11 is_stmt 0                @ c:/Keil_v5\ARM\PACK\Keil\STM32L5xx_DFP\1.3.0\Drivers\STM32L5xx_HAL_Driver\Src\stm32l5xx_hal_usart.c:0:11
	movs	r0, #255
	movs	r3, #0
.Ltmp535:
	.loc	7 1271 31 is_stmt 1             @ c:/Keil_v5\ARM\PACK\Keil\STM32L5xx_DFP\1.3.0\Drivers\STM32L5xx_HAL_Driver\Src\stm32l5xx_hal_usart.c:1271:31
	str	r0, [r1, #40]
.Ltmp536:
	.loc	7 1281 1                        @ c:/Keil_v5\ARM\PACK\Keil\STM32L5xx_DFP\1.3.0\Drivers\STM32L5xx_HAL_Driver\Src\stm32l5xx_hal_usart.c:1281:1
	mov	r0, r3
	pop	{r4, pc}
.Ltmp537:
	.p2align	2
.LBB12_30:
	@DEBUG_VALUE: HAL_USART_Receive_IT:Size <- $r2
	@DEBUG_VALUE: HAL_USART_Receive_IT:husart <- $r0
	@DEBUG_VALUE: HAL_USART_Receive_IT:pRxData <- [DW_OP_LLVM_entry_value 1] $r1
	.loc	7 0 1 is_stmt 0                 @ c:/Keil_v5\ARM\PACK\Keil\STM32L5xx_DFP\1.3.0\Drivers\STM32L5xx_HAL_Driver\Src\stm32l5xx_hal_usart.c:0:1
	movw	r3, :lower16:USART_RxISR_16BIT
	movt	r3, :upper16:USART_RxISR_16BIT
	b	.LBB12_21
.Ltmp538:
	.p2align	2
.LBB12_31:
	@DEBUG_VALUE: HAL_USART_Receive_IT:Size <- $r2
	@DEBUG_VALUE: HAL_USART_Receive_IT:pRxData <- [DW_OP_LLVM_entry_value 1] $r1
	@DEBUG_VALUE: HAL_USART_Receive_IT:nb_dummy_data <- $r12
	.loc	7 1264 9 is_stmt 1              @ c:/Keil_v5\ARM\PACK\Keil\STM32L5xx_DFP\1.3.0\Drivers\STM32L5xx_HAL_Driver\Src\stm32l5xx_hal_usart.c:1264:9
	cmp.w	r12, #0
	beq	.LBB12_40
.Ltmp539:
@ %bb.32:
	@DEBUG_VALUE: HAL_USART_Receive_IT:nb_dummy_data <- $r12
	@DEBUG_VALUE: HAL_USART_Receive_IT:Size <- $r2
	@DEBUG_VALUE: HAL_USART_Receive_IT:pRxData <- [DW_OP_LLVM_entry_value 1] $r1
	ands	r3, r12, #3
	sub.w	r2, r12, #1
.Ltmp540:
	beq	.LBB12_37
.Ltmp541:
@ %bb.33:
	@DEBUG_VALUE: HAL_USART_Receive_IT:nb_dummy_data <- $r12
	@DEBUG_VALUE: HAL_USART_Receive_IT:pRxData <- [DW_OP_LLVM_entry_value 1] $r1
	@DEBUG_VALUE: HAL_USART_Receive_IT:nb_dummy_data <- $r12
	.loc	7 0 9 is_stmt 0                 @ c:/Keil_v5\ARM\PACK\Keil\STM32L5xx_DFP\1.3.0\Drivers\STM32L5xx_HAL_Driver\Src\stm32l5xx_hal_usart.c:0:9
	mov.w	lr, #255
	.loc	7 1264 9                        @ c:/Keil_v5\ARM\PACK\Keil\STM32L5xx_DFP\1.3.0\Drivers\STM32L5xx_HAL_Driver\Src\stm32l5xx_hal_usart.c:1264:9
	cmp	r3, #1
	mov	r0, r2
.Ltmp542:
	.loc	7 1266 33 is_stmt 1             @ c:/Keil_v5\ARM\PACK\Keil\STM32L5xx_DFP\1.3.0\Drivers\STM32L5xx_HAL_Driver\Src\stm32l5xx_hal_usart.c:1266:33
	str.w	lr, [r1, #40]
.Ltmp543:
	@DEBUG_VALUE: HAL_USART_Receive_IT:nb_dummy_data <- $r2
	.loc	7 1264 9                        @ c:/Keil_v5\ARM\PACK\Keil\STM32L5xx_DFP\1.3.0\Drivers\STM32L5xx_HAL_Driver\Src\stm32l5xx_hal_usart.c:1264:9
	beq	.LBB12_39
.Ltmp544:
@ %bb.34:
	@DEBUG_VALUE: HAL_USART_Receive_IT:nb_dummy_data <- $r2
	@DEBUG_VALUE: HAL_USART_Receive_IT:pRxData <- [DW_OP_LLVM_entry_value 1] $r1
	@DEBUG_VALUE: HAL_USART_Receive_IT:nb_dummy_data <- undef
	cmp	r3, #2
.Ltmp545:
	.loc	7 1266 33                       @ c:/Keil_v5\ARM\PACK\Keil\STM32L5xx_DFP\1.3.0\Drivers\STM32L5xx_HAL_Driver\Src\stm32l5xx_hal_usart.c:1266:33
	str.w	lr, [r1, #40]
.Ltmp546:
	@DEBUG_VALUE: HAL_USART_Receive_IT:nb_dummy_data <- undef
	.loc	7 1264 9                        @ c:/Keil_v5\ARM\PACK\Keil\STM32L5xx_DFP\1.3.0\Drivers\STM32L5xx_HAL_Driver\Src\stm32l5xx_hal_usart.c:1264:9
	bne	.LBB12_38
.Ltmp547:
@ %bb.35:
	@DEBUG_VALUE: HAL_USART_Receive_IT:pRxData <- [DW_OP_LLVM_entry_value 1] $r1
	.loc	7 0 9 is_stmt 0                 @ c:/Keil_v5\ARM\PACK\Keil\STM32L5xx_DFP\1.3.0\Drivers\STM32L5xx_HAL_Driver\Src\stm32l5xx_hal_usart.c:0:9
	sub.w	r0, r12, #2
.Ltmp548:
	@DEBUG_VALUE: HAL_USART_Receive_IT:nb_dummy_data <- $r0
	b	.LBB12_39
.Ltmp549:
	.p2align	2
.LBB12_36:
	@DEBUG_VALUE: HAL_USART_Receive_IT:Size <- $r2
	@DEBUG_VALUE: HAL_USART_Receive_IT:husart <- $r0
	@DEBUG_VALUE: HAL_USART_Receive_IT:pRxData <- [DW_OP_LLVM_entry_value 1] $r1
	movw	r3, :lower16:USART_RxISR_16BIT_FIFOEN
	movt	r3, :upper16:USART_RxISR_16BIT_FIFOEN
	b	.LBB12_27
.Ltmp550:
	.p2align	2
.LBB12_37:
	@DEBUG_VALUE: HAL_USART_Receive_IT:nb_dummy_data <- $r12
	@DEBUG_VALUE: HAL_USART_Receive_IT:pRxData <- [DW_OP_LLVM_entry_value 1] $r1
	mov	r0, r12
	b	.LBB12_39
.Ltmp551:
	.p2align	2
.LBB12_38:
	@DEBUG_VALUE: HAL_USART_Receive_IT:pRxData <- [DW_OP_LLVM_entry_value 1] $r1
	@DEBUG_VALUE: HAL_USART_Receive_IT:nb_dummy_data <- undef
	movs	r0, #255
.Ltmp552:
	.loc	7 1266 33 is_stmt 1             @ c:/Keil_v5\ARM\PACK\Keil\STM32L5xx_DFP\1.3.0\Drivers\STM32L5xx_HAL_Driver\Src\stm32l5xx_hal_usart.c:1266:33
	str	r0, [r1, #40]
.Ltmp553:
	.loc	7 1264 92                       @ c:/Keil_v5\ARM\PACK\Keil\STM32L5xx_DFP\1.3.0\Drivers\STM32L5xx_HAL_Driver\Src\stm32l5xx_hal_usart.c:1264:92
	sub.w	r0, r12, #3
.Ltmp554:
	@DEBUG_VALUE: HAL_USART_Receive_IT:nb_dummy_data <- $r0
.LBB12_39:
	@DEBUG_VALUE: HAL_USART_Receive_IT:pRxData <- [DW_OP_LLVM_entry_value 1] $r1
	.loc	7 1264 9 is_stmt 0              @ c:/Keil_v5\ARM\PACK\Keil\STM32L5xx_DFP\1.3.0\Drivers\STM32L5xx_HAL_Driver\Src\stm32l5xx_hal_usart.c:1264:9
	uxth	r2, r2
	cmp	r2, #3
	bhs	.LBB12_41
.Ltmp555:
.LBB12_40:
	@DEBUG_VALUE: HAL_USART_Receive_IT:pRxData <- [DW_OP_LLVM_entry_value 1] $r1
	.loc	7 0 9                           @ c:/Keil_v5\ARM\PACK\Keil\STM32L5xx_DFP\1.3.0\Drivers\STM32L5xx_HAL_Driver\Src\stm32l5xx_hal_usart.c:0:9
	movs	r0, #0
	.loc	7 1281 1 is_stmt 1              @ c:/Keil_v5\ARM\PACK\Keil\STM32L5xx_DFP\1.3.0\Drivers\STM32L5xx_HAL_Driver\Src\stm32l5xx_hal_usart.c:1281:1
	pop	{r4, pc}
.Ltmp556:
	.p2align	2
.LBB12_41:
	@DEBUG_VALUE: HAL_USART_Receive_IT:pRxData <- [DW_OP_LLVM_entry_value 1] $r1
	.loc	7 0 1 is_stmt 0                 @ c:/Keil_v5\ARM\PACK\Keil\STM32L5xx_DFP\1.3.0\Drivers\STM32L5xx_HAL_Driver\Src\stm32l5xx_hal_usart.c:0:1
	movs	r2, #255
.Ltmp557:
.LBB12_42:                              @ =>This Inner Loop Header: Depth=1
	@DEBUG_VALUE: HAL_USART_Receive_IT:pRxData <- [DW_OP_LLVM_entry_value 1] $r1
	@DEBUG_VALUE: HAL_USART_Receive_IT:nb_dummy_data <- $r0
	.loc	7 1264 92 is_stmt 1             @ c:/Keil_v5\ARM\PACK\Keil\STM32L5xx_DFP\1.3.0\Drivers\STM32L5xx_HAL_Driver\Src\stm32l5xx_hal_usart.c:1264:92
	subs	r0, #4
.Ltmp558:
	@DEBUG_VALUE: HAL_USART_Receive_IT:nb_dummy_data <- $r0
	.loc	7 1264 9 is_stmt 0              @ c:/Keil_v5\ARM\PACK\Keil\STM32L5xx_DFP\1.3.0\Drivers\STM32L5xx_HAL_Driver\Src\stm32l5xx_hal_usart.c:1264:9
	lsls	r3, r0, #16
	mov.w	r3, #0
.Ltmp559:
	.loc	7 1266 33 is_stmt 1             @ c:/Keil_v5\ARM\PACK\Keil\STM32L5xx_DFP\1.3.0\Drivers\STM32L5xx_HAL_Driver\Src\stm32l5xx_hal_usart.c:1266:33
	str	r2, [r1, #40]
.Ltmp560:
	@DEBUG_VALUE: HAL_USART_Receive_IT:nb_dummy_data <- [DW_OP_constu 1, DW_OP_minus, DW_OP_stack_value] $r0
	str	r2, [r1, #40]
.Ltmp561:
	@DEBUG_VALUE: HAL_USART_Receive_IT:nb_dummy_data <- [DW_OP_constu 2, DW_OP_minus, DW_OP_stack_value] $r0
	str	r2, [r1, #40]
.Ltmp562:
	@DEBUG_VALUE: HAL_USART_Receive_IT:nb_dummy_data <- [DW_OP_constu 3, DW_OP_minus, DW_OP_stack_value] $r0
	str	r2, [r1, #40]
.Ltmp563:
	.loc	7 1264 9                        @ c:/Keil_v5\ARM\PACK\Keil\STM32L5xx_DFP\1.3.0\Drivers\STM32L5xx_HAL_Driver\Src\stm32l5xx_hal_usart.c:1264:9
	bne	.LBB12_42
	b	.LBB12_2
.Ltmp564:
.Lfunc_end12:
	.size	HAL_USART_Receive_IT, .Lfunc_end12-HAL_USART_Receive_IT
	.cfi_endproc
	.cantunwind
	.fnend
                                        @ -- End function
	.section	.text.USART_RxISR_16BIT_FIFOEN,"ax",%progbits
	.p2align	2                               @ -- Begin function USART_RxISR_16BIT_FIFOEN
	.type	USART_RxISR_16BIT_FIFOEN,%function
	.code	16                              @ @USART_RxISR_16BIT_FIFOEN
	.thumb_func
USART_RxISR_16BIT_FIFOEN:
.Lfunc_begin13:
	.loc	7 3537 0                        @ c:/Keil_v5\ARM\PACK\Keil\STM32L5xx_DFP\1.3.0\Drivers\STM32L5xx_HAL_Driver\Src\stm32l5xx_hal_usart.c:3537:0
	.fnstart
	.cfi_startproc
@ %bb.0:
	@DEBUG_VALUE: USART_RxISR_16BIT_FIFOEN:husart <- $r0
	.save	{r4, r5, r6, r7, r8, r9, r10, r11, lr}
	push.w	{r4, r5, r6, r7, r8, r9, r10, r11, lr}
	.cfi_def_cfa_offset 36
	.cfi_offset lr, -4
	.cfi_offset r11, -8
	.cfi_offset r10, -12
	.cfi_offset r9, -16
	.cfi_offset r8, -20
	.cfi_offset r7, -24
	.cfi_offset r6, -28
	.cfi_offset r5, -32
	.cfi_offset r4, -36
	.pad	#4
	sub	sp, #4
	.cfi_def_cfa_offset 40
.Ltmp565:
	.loc	7 3538 42 prologue_end          @ c:/Keil_v5\ARM\PACK\Keil\STM32L5xx_DFP\1.3.0\Drivers\STM32L5xx_HAL_Driver\Src\stm32l5xx_hal_usart.c:3538:42
	ldrb.w	r5, [r0, #89]
.Ltmp566:
	@DEBUG_VALUE: USART_RxISR_16BIT_FIFOEN:uhMask <- undef
	@DEBUG_VALUE: USART_RxISR_16BIT_FIFOEN:state <- undef
	.loc	7 0 42 is_stmt 0                @ c:/Keil_v5\ARM\PACK\Keil\STM32L5xx_DFP\1.3.0\Drivers\STM32L5xx_HAL_Driver\Src\stm32l5xx_hal_usart.c:0:42
	mov	r4, r0
.Ltmp567:
	@DEBUG_VALUE: USART_RxISR_16BIT_FIFOEN:husart <- $r4
	@DEBUG_VALUE: USART_RxISR_16BIT_FIFOEN:husart <- $r4
	.loc	7 3547 42 is_stmt 1             @ c:/Keil_v5\ARM\PACK\Keil\STM32L5xx_DFP\1.3.0\Drivers\STM32L5xx_HAL_Driver\Src\stm32l5xx_hal_usart.c:3547:42
	orr	r0, r5, #16
	cmp	r0, #50
	bne	.LBB13_18
.Ltmp568:
@ %bb.1:
	@DEBUG_VALUE: USART_RxISR_16BIT_FIFOEN:husart <- $r4
	.loc	7 3550 31                       @ c:/Keil_v5\ARM\PACK\Keil\STM32L5xx_DFP\1.3.0\Drivers\STM32L5xx_HAL_Driver\Src\stm32l5xx_hal_usart.c:3550:31
	ldrh	r6, [r4, #58]
.Ltmp569:
	@DEBUG_VALUE: USART_RxISR_16BIT_FIFOEN:nb_rx_data <- undef
	.loc	7 3550 5 is_stmt 0              @ c:/Keil_v5\ARM\PACK\Keil\STM32L5xx_DFP\1.3.0\Drivers\STM32L5xx_HAL_Driver\Src\stm32l5xx_hal_usart.c:3550:5
	cmp	r6, #0
.Ltmp570:
	@DEBUG_VALUE: USART_RxISR_16BIT_FIFOEN:state <- undef
	beq	.LBB13_14
.Ltmp571:
@ %bb.2:
	@DEBUG_VALUE: USART_RxISR_16BIT_FIFOEN:husart <- $r4
	.loc	7 0 5                           @ c:/Keil_v5\ARM\PACK\Keil\STM32L5xx_DFP\1.3.0\Drivers\STM32L5xx_HAL_Driver\Src\stm32l5xx_hal_usart.c:0:5
	ldrh	r7, [r4, #56]
	movw	r10, #65534
	mov.w	r8, #0
	mov.w	r9, #8192
	movt	r10, #61439
	mov.w	r11, #255
	b	.LBB13_5
.Ltmp572:
	.p2align	2
.LBB13_3:                               @   in Loop: Header=BB13_5 Depth=1
	@DEBUG_VALUE: USART_RxISR_16BIT_FIFOEN:nb_rx_data <- $r6
	@DEBUG_VALUE: USART_RxISR_16BIT_FIFOEN:state <- $r5
	@DEBUG_VALUE: USART_RxISR_16BIT_FIFOEN:husart <- $r4
	movs	r5, #1
.Ltmp573:
	.loc	7 3593 13 is_stmt 1             @ c:/Keil_v5\ARM\PACK\Keil\STM32L5xx_DFP\1.3.0\Drivers\STM32L5xx_HAL_Driver\Src\stm32l5xx_hal_usart.c:3593:13
	mov	r0, r4
	.loc	7 3585 27                       @ c:/Keil_v5\ARM\PACK\Keil\STM32L5xx_DFP\1.3.0\Drivers\STM32L5xx_HAL_Driver\Src\stm32l5xx_hal_usart.c:3585:27
	strb.w	r5, [r4, #89]
.Ltmp574:
	@DEBUG_VALUE: USART_RxISR_16BIT_FIFOEN:state <- 1
	.loc	7 3593 13                       @ c:/Keil_v5\ARM\PACK\Keil\STM32L5xx_DFP\1.3.0\Drivers\STM32L5xx_HAL_Driver\Src\stm32l5xx_hal_usart.c:3593:13
	bl	HAL_USART_RxCpltCallback
.Ltmp575:
	.p2align	2
.LBB13_4:                               @   in Loop: Header=BB13_5 Depth=1
	@DEBUG_VALUE: USART_RxISR_16BIT_FIFOEN:nb_rx_data <- $r6
	@DEBUG_VALUE: USART_RxISR_16BIT_FIFOEN:husart <- $r4
	@DEBUG_VALUE: USART_RxISR_16BIT_FIFOEN:state <- $r5
	.loc	7 3550 79                       @ c:/Keil_v5\ARM\PACK\Keil\STM32L5xx_DFP\1.3.0\Drivers\STM32L5xx_HAL_Driver\Src\stm32l5xx_hal_usart.c:3550:79
	subs	r6, #1
.Ltmp576:
	@DEBUG_VALUE: USART_RxISR_16BIT_FIFOEN:nb_rx_data <- $r6
	.loc	7 3550 5 is_stmt 0              @ c:/Keil_v5\ARM\PACK\Keil\STM32L5xx_DFP\1.3.0\Drivers\STM32L5xx_HAL_Driver\Src\stm32l5xx_hal_usart.c:3550:5
	lsls	r0, r6, #16
	beq	.LBB13_14
.Ltmp577:
.LBB13_5:                               @ =>This Inner Loop Header: Depth=1
	@DEBUG_VALUE: USART_RxISR_16BIT_FIFOEN:husart <- $r4
	@DEBUG_VALUE: USART_RxISR_16BIT_FIFOEN:state <- $r5
	@DEBUG_VALUE: USART_RxISR_16BIT_FIFOEN:nb_rx_data <- $r6
	.loc	7 3552 11 is_stmt 1             @ c:/Keil_v5\ARM\PACK\Keil\STM32L5xx_DFP\1.3.0\Drivers\STM32L5xx_HAL_Driver\Src\stm32l5xx_hal_usart.c:3552:11
	ldr	r0, [r4]
	ldr	r1, [r0, #28]
.Ltmp578:
	.loc	7 3552 11 is_stmt 0             @ c:/Keil_v5\ARM\PACK\Keil\STM32L5xx_DFP\1.3.0\Drivers\STM32L5xx_HAL_Driver\Src\stm32l5xx_hal_usart.c:3552:11
	lsls	r1, r1, #26
	bpl	.LBB13_4
.Ltmp579:
@ %bb.6:                                @   in Loop: Header=BB13_5 Depth=1
	@DEBUG_VALUE: USART_RxISR_16BIT_FIFOEN:nb_rx_data <- $r6
	@DEBUG_VALUE: USART_RxISR_16BIT_FIFOEN:state <- $r5
