	.text
	.syntax unified
	.eabi_attribute	67, "2.09"	@ Tag_conformance
	.cpu	cortex-m33
	.eabi_attribute	6, 17	@ Tag_CPU_arch
	.eabi_attribute	7, 77	@ Tag_CPU_arch_profile
	.eabi_attribute	8, 0	@ Tag_ARM_ISA_use
	.eabi_attribute	9, 3	@ Tag_THUMB_ISA_use
	.fpu	fpv5-sp-d16
	.eabi_attribute	27, 1	@ Tag_ABI_HardFP_use
	.eabi_attribute	36, 1	@ Tag_FP_HP_extension
	.eabi_attribute	46, 1	@ Tag_DSP_extension
	.eabi_attribute	34, 1	@ Tag_CPU_unaligned_access
	.eabi_attribute	17, 1	@ Tag_ABI_PCS_GOT_use
	.eabi_attribute	20, 2	@ Tag_ABI_FP_denormal
	.eabi_attribute	21, 0	@ Tag_ABI_FP_exceptions
	.eabi_attribute	23, 1	@ Tag_ABI_FP_number_model
	.eabi_attribute	24, 1	@ Tag_ABI_align_needed
	.eabi_attribute	25, 1	@ Tag_ABI_align_preserved
	.eabi_attribute	28, 1	@ Tag_ABI_VFP_args
	.eabi_attribute	38, 1	@ Tag_ABI_FP_16bit_format
	.eabi_attribute	18, 2	@ Tag_ABI_PCS_wchar_t
	.eabi_attribute	26, 1	@ Tag_ABI_enum_size
	.eabi_attribute	14, 0	@ Tag_ABI_PCS_R9_use
	.file	"stm32l5xx_hal_tim_ex.c"
	.file	1 "c:/Keil_v5\\ARM\\PACK\\Keil\\STM32L5xx_DFP\\1.3.0\\Drivers\\STM32L5xx_HAL_Driver\\Inc" "stm32l5xx_hal_def.h"
	.file	2 "c:/Keil_v5\\ARM\\PACK\\Keil\\STM32L5xx_DFP\\1.3.0\\Drivers\\STM32L5xx_HAL_Driver\\Inc" "stm32l5xx_hal_tim.h"
	.file	3 "c:/Keil_v5\\ARM\\PACK\\Keil\\STM32L5xx_DFP\\1.3.0\\Drivers\\STM32L5xx_HAL_Driver\\Inc" "stm32l5xx_hal_dma.h"
	.file	4 "c:/Keil_v5\\ARM\\PACK\\Keil\\STM32L5xx_DFP\\1.3.0\\Drivers\\CMSIS\\Device\\ST\\STM32L5xx\\Include" "stm32l5xx.h"
	.file	5 "c:\\Keil_v5\\ARM\\ARMCLANG\\Bin\\..\\include" "stdint.h"
	.file	6 "c:/Keil_v5\\ARM\\PACK\\Keil\\STM32L5xx_DFP\\1.3.0\\Drivers\\CMSIS\\Device\\ST\\STM32L5xx\\Include" "stm32l552xx.h"
	.section	.text.HAL_TIMEx_HallSensor_Init,"ax",%progbits
	.hidden	HAL_TIMEx_HallSensor_Init       @ -- Begin function HAL_TIMEx_HallSensor_Init
	.globl	HAL_TIMEx_HallSensor_Init
	.p2align	2
	.type	HAL_TIMEx_HallSensor_Init,%function
	.code	16                              @ @HAL_TIMEx_HallSensor_Init
	.thumb_func
HAL_TIMEx_HallSensor_Init:
.Lfunc_begin0:
	.file	7 "c:/Keil_v5\\ARM\\PACK\\Keil\\STM32L5xx_DFP\\1.3.0\\Drivers\\STM32L5xx_HAL_Driver\\Src" "stm32l5xx_hal_tim_ex.c"
	.loc	7 148 0                         @ c:/Keil_v5\ARM\PACK\Keil\STM32L5xx_DFP\1.3.0\Drivers\STM32L5xx_HAL_Driver\Src\stm32l5xx_hal_tim_ex.c:148:0
	.fnstart
	.cfi_sections .debug_frame
	.cfi_startproc
@ %bb.0:
	@DEBUG_VALUE: HAL_TIMEx_HallSensor_Init:htim <- $r0
	@DEBUG_VALUE: HAL_TIMEx_HallSensor_Init:sConfig <- $r1
	@DEBUG_VALUE: HAL_TIMEx_HallSensor_Init:htim <- $r0
	.save	{r4, r5, r6, lr}
	push	{r4, r5, r6, lr}
	.cfi_def_cfa_offset 16
	.cfi_offset lr, -4
	.cfi_offset r6, -8
	.cfi_offset r5, -12
	.cfi_offset r4, -16
	.pad	#32
	sub	sp, #32
	.cfi_def_cfa_offset 48
.Ltmp0:
	.loc	7 152 7 prologue_end            @ c:/Keil_v5\ARM\PACK\Keil\STM32L5xx_DFP\1.3.0\Drivers\STM32L5xx_HAL_Driver\Src\stm32l5xx_hal_tim_ex.c:152:7
	cmp	r0, #0
	@DEBUG_VALUE: HAL_TIMEx_HallSensor_Init:sConfig <- $r1
	beq	.LBB0_4
.Ltmp1:
@ %bb.1:
	@DEBUG_VALUE: HAL_TIMEx_HallSensor_Init:sConfig <- $r1
	@DEBUG_VALUE: HAL_TIMEx_HallSensor_Init:htim <- $r0
	.loc	7 0 7 is_stmt 0                 @ c:/Keil_v5\ARM\PACK\Keil\STM32L5xx_DFP\1.3.0\Drivers\STM32L5xx_HAL_Driver\Src\stm32l5xx_hal_tim_ex.c:0:7
	mov	r4, r0
.Ltmp2:
	@DEBUG_VALUE: HAL_TIMEx_HallSensor_Init:htim <- $r4
	.loc	7 166 13 is_stmt 1              @ c:/Keil_v5\ARM\PACK\Keil\STM32L5xx_DFP\1.3.0\Drivers\STM32L5xx_HAL_Driver\Src\stm32l5xx_hal_tim_ex.c:166:13
	ldrb.w	r0, [r0, #61]
	mov	r5, r1
.Ltmp3:
	@DEBUG_VALUE: HAL_TIMEx_HallSensor_Init:sConfig <- $r5
	@DEBUG_VALUE: HAL_TIMEx_HallSensor_Init:sConfig <- $r5
	.loc	7 166 7 is_stmt 0               @ c:/Keil_v5\ARM\PACK\Keil\STM32L5xx_DFP\1.3.0\Drivers\STM32L5xx_HAL_Driver\Src\stm32l5xx_hal_tim_ex.c:166:7
	cbnz	r0, .LBB0_3
.Ltmp4:
@ %bb.2:
	@DEBUG_VALUE: HAL_TIMEx_HallSensor_Init:sConfig <- $r5
	@DEBUG_VALUE: HAL_TIMEx_HallSensor_Init:htim <- $r4
	.loc	7 0 7                           @ c:/Keil_v5\ARM\PACK\Keil\STM32L5xx_DFP\1.3.0\Drivers\STM32L5xx_HAL_Driver\Src\stm32l5xx_hal_tim_ex.c:0:7
	movs	r0, #0
.Ltmp5:
	.loc	7 169 16 is_stmt 1              @ c:/Keil_v5\ARM\PACK\Keil\STM32L5xx_DFP\1.3.0\Drivers\STM32L5xx_HAL_Driver\Src\stm32l5xx_hal_tim_ex.c:169:16
	strb.w	r0, [r4, #60]
	.loc	7 183 5                         @ c:/Keil_v5\ARM\PACK\Keil\STM32L5xx_DFP\1.3.0\Drivers\STM32L5xx_HAL_Driver\Src\stm32l5xx_hal_tim_ex.c:183:5
	mov	r0, r4
	bl	HAL_TIMEx_HallSensor_MspInit
.Ltmp6:
.LBB0_3:
	@DEBUG_VALUE: HAL_TIMEx_HallSensor_Init:sConfig <- $r5
	@DEBUG_VALUE: HAL_TIMEx_HallSensor_Init:htim <- $r4
	.loc	7 0 5 is_stmt 0                 @ c:/Keil_v5\ARM\PACK\Keil\STM32L5xx_DFP\1.3.0\Drivers\STM32L5xx_HAL_Driver\Src\stm32l5xx_hal_tim_ex.c:0:5
	movs	r0, #2
	.loc	7 188 15 is_stmt 1              @ c:/Keil_v5\ARM\PACK\Keil\STM32L5xx_DFP\1.3.0\Drivers\STM32L5xx_HAL_Driver\Src\stm32l5xx_hal_tim_ex.c:188:15
	strb.w	r0, [r4, #61]
	.loc	7 191 28                        @ c:/Keil_v5\ARM\PACK\Keil\STM32L5xx_DFP\1.3.0\Drivers\STM32L5xx_HAL_Driver\Src\stm32l5xx_hal_tim_ex.c:191:28
	ldr	r0, [r4]
	.loc	7 191 45 is_stmt 0              @ c:/Keil_v5\ARM\PACK\Keil\STM32L5xx_DFP\1.3.0\Drivers\STM32L5xx_HAL_Driver\Src\stm32l5xx_hal_tim_ex.c:191:45
	adds	r1, r4, #4
	.loc	7 191 3                         @ c:/Keil_v5\ARM\PACK\Keil\STM32L5xx_DFP\1.3.0\Drivers\STM32L5xx_HAL_Driver\Src\stm32l5xx_hal_tim_ex.c:191:3
	bl	TIM_Base_SetConfig
	.loc	7 194 27 is_stmt 1              @ c:/Keil_v5\ARM\PACK\Keil\STM32L5xx_DFP\1.3.0\Drivers\STM32L5xx_HAL_Driver\Src\stm32l5xx_hal_tim_ex.c:194:27
	ldr	r0, [r4]
	.loc	7 194 46 is_stmt 0              @ c:/Keil_v5\ARM\PACK\Keil\STM32L5xx_DFP\1.3.0\Drivers\STM32L5xx_HAL_Driver\Src\stm32l5xx_hal_tim_ex.c:194:46
	ldr	r1, [r5]
	.loc	7 194 89                        @ c:/Keil_v5\ARM\PACK\Keil\STM32L5xx_DFP\1.3.0\Drivers\STM32L5xx_HAL_Driver\Src\stm32l5xx_hal_tim_ex.c:194:89
	ldr	r3, [r5, #8]
	.loc	7 194 3                         @ c:/Keil_v5\ARM\PACK\Keil\STM32L5xx_DFP\1.3.0\Drivers\STM32L5xx_HAL_Driver\Src\stm32l5xx_hal_tim_ex.c:194:3
	movs	r2, #3
	bl	TIM_TI1_SetConfig
	.loc	7 197 9 is_stmt 1               @ c:/Keil_v5\ARM\PACK\Keil\STM32L5xx_DFP\1.3.0\Drivers\STM32L5xx_HAL_Driver\Src\stm32l5xx_hal_tim_ex.c:197:9
	ldr	r0, [r4]
	movs	r6, #0
	.loc	7 197 25 is_stmt 0              @ c:/Keil_v5\ARM\PACK\Keil\STM32L5xx_DFP\1.3.0\Drivers\STM32L5xx_HAL_Driver\Src\stm32l5xx_hal_tim_ex.c:197:25
	ldr	r1, [r0, #24]
	bic	r1, r1, #12
	str	r1, [r0, #24]
	.loc	7 199 37 is_stmt 1              @ c:/Keil_v5\ARM\PACK\Keil\STM32L5xx_DFP\1.3.0\Drivers\STM32L5xx_HAL_Driver\Src\stm32l5xx_hal_tim_ex.c:199:37
	ldr	r1, [r5, #4]
	.loc	7 199 25 is_stmt 0              @ c:/Keil_v5\ARM\PACK\Keil\STM32L5xx_DFP\1.3.0\Drivers\STM32L5xx_HAL_Driver\Src\stm32l5xx_hal_tim_ex.c:199:25
	ldr	r2, [r0, #24]
	orrs	r1, r2
	str	r1, [r0, #24]
	.loc	7 202 23 is_stmt 1              @ c:/Keil_v5\ARM\PACK\Keil\STM32L5xx_DFP\1.3.0\Drivers\STM32L5xx_HAL_Driver\Src\stm32l5xx_hal_tim_ex.c:202:23
	ldr	r1, [r0, #4]
	movw	r2, #65423
	orr	r1, r1, #128
	str	r1, [r0, #4]
	.loc	7 205 24                        @ c:/Keil_v5\ARM\PACK\Keil\STM32L5xx_DFP\1.3.0\Drivers\STM32L5xx_HAL_Driver\Src\stm32l5xx_hal_tim_ex.c:205:24
	ldr	r1, [r0, #8]
	movt	r2, #65487
	ands	r1, r2
	str	r1, [r0, #8]
	.loc	7 206 24                        @ c:/Keil_v5\ARM\PACK\Keil\STM32L5xx_DFP\1.3.0\Drivers\STM32L5xx_HAL_Driver\Src\stm32l5xx_hal_tim_ex.c:206:24
	ldr	r1, [r0, #8]
	movw	r2, #65528
	orr	r1, r1, #64
	str	r1, [r0, #8]
	.loc	7 209 24                        @ c:/Keil_v5\ARM\PACK\Keil\STM32L5xx_DFP\1.3.0\Drivers\STM32L5xx_HAL_Driver\Src\stm32l5xx_hal_tim_ex.c:209:24
	ldr	r1, [r0, #8]
	movt	r2, #65534
	ands	r1, r2
	str	r1, [r0, #8]
	.loc	7 210 24                        @ c:/Keil_v5\ARM\PACK\Keil\STM32L5xx_DFP\1.3.0\Drivers\STM32L5xx_HAL_Driver\Src\stm32l5xx_hal_tim_ex.c:210:24
	ldr	r1, [r0, #8]
	orr	r1, r1, #4
	str	r1, [r0, #8]
	movs	r1, #112
	.loc	7 215 20                        @ c:/Keil_v5\ARM\PACK\Keil\STM32L5xx_DFP\1.3.0\Drivers\STM32L5xx_HAL_Driver\Src\stm32l5xx_hal_tim_ex.c:215:20
	str	r1, [sp, #4]
	.loc	7 219 30                        @ c:/Keil_v5\ARM\PACK\Keil\STM32L5xx_DFP\1.3.0\Drivers\STM32L5xx_HAL_Driver\Src\stm32l5xx_hal_tim_ex.c:219:30
	ldr	r1, [r5, #12]
	.loc	7 213 24                        @ c:/Keil_v5\ARM\PACK\Keil\STM32L5xx_DFP\1.3.0\Drivers\STM32L5xx_HAL_Driver\Src\stm32l5xx_hal_tim_ex.c:213:24
	strd	r6, r6, [sp, #20]
	.loc	7 219 19                        @ c:/Keil_v5\ARM\PACK\Keil\STM32L5xx_DFP\1.3.0\Drivers\STM32L5xx_HAL_Driver\Src\stm32l5xx_hal_tim_ex.c:219:19
	strd	r1, r6, [sp, #8]
	add	r1, sp, #4
	.loc	7 216 26                        @ c:/Keil_v5\ARM\PACK\Keil\STM32L5xx_DFP\1.3.0\Drivers\STM32L5xx_HAL_Driver\Src\stm32l5xx_hal_tim_ex.c:216:26
	str	r6, [sp, #28]
	.loc	7 217 25                        @ c:/Keil_v5\ARM\PACK\Keil\STM32L5xx_DFP\1.3.0\Drivers\STM32L5xx_HAL_Driver\Src\stm32l5xx_hal_tim_ex.c:217:25
	str	r6, [sp, #16]
	.loc	7 221 3                         @ c:/Keil_v5\ARM\PACK\Keil\STM32L5xx_DFP\1.3.0\Drivers\STM32L5xx_HAL_Driver\Src\stm32l5xx_hal_tim_ex.c:221:3
	bl	TIM_OC2_SetConfig
	.loc	7 225 9                         @ c:/Keil_v5\ARM\PACK\Keil\STM32L5xx_DFP\1.3.0\Drivers\STM32L5xx_HAL_Driver\Src\stm32l5xx_hal_tim_ex.c:225:9
	ldr	r0, [r4]
	.loc	7 225 23 is_stmt 0              @ c:/Keil_v5\ARM\PACK\Keil\STM32L5xx_DFP\1.3.0\Drivers\STM32L5xx_HAL_Driver\Src\stm32l5xx_hal_tim_ex.c:225:23
	ldr	r1, [r0, #4]
	bic	r1, r1, #112
	str	r1, [r0, #4]
	.loc	7 226 23 is_stmt 1              @ c:/Keil_v5\ARM\PACK\Keil\STM32L5xx_DFP\1.3.0\Drivers\STM32L5xx_HAL_Driver\Src\stm32l5xx_hal_tim_ex.c:226:23
	ldr	r1, [r0, #4]
	orr	r1, r1, #80
	str	r1, [r0, #4]
	movs	r0, #1
	.loc	7 229 23                        @ c:/Keil_v5\ARM\PACK\Keil\STM32L5xx_DFP\1.3.0\Drivers\STM32L5xx_HAL_Driver\Src\stm32l5xx_hal_tim_ex.c:229:23
	strb.w	r0, [r4, #72]
	.loc	7 232 3                         @ c:/Keil_v5\ARM\PACK\Keil\STM32L5xx_DFP\1.3.0\Drivers\STM32L5xx_HAL_Driver\Src\stm32l5xx_hal_tim_ex.c:232:3
	strb.w	r0, [r4, #62]
	.loc	7 233 3                         @ c:/Keil_v5\ARM\PACK\Keil\STM32L5xx_DFP\1.3.0\Drivers\STM32L5xx_HAL_Driver\Src\stm32l5xx_hal_tim_ex.c:233:3
	strb.w	r0, [r4, #63]
	.loc	7 234 3                         @ c:/Keil_v5\ARM\PACK\Keil\STM32L5xx_DFP\1.3.0\Drivers\STM32L5xx_HAL_Driver\Src\stm32l5xx_hal_tim_ex.c:234:3
	strb.w	r0, [r4, #68]
	.loc	7 235 3                         @ c:/Keil_v5\ARM\PACK\Keil\STM32L5xx_DFP\1.3.0\Drivers\STM32L5xx_HAL_Driver\Src\stm32l5xx_hal_tim_ex.c:235:3
	strb.w	r0, [r4, #69]
	.loc	7 238 15                        @ c:/Keil_v5\ARM\PACK\Keil\STM32L5xx_DFP\1.3.0\Drivers\STM32L5xx_HAL_Driver\Src\stm32l5xx_hal_tim_ex.c:238:15
	strb.w	r0, [r4, #61]
	.loc	7 241 1                         @ c:/Keil_v5\ARM\PACK\Keil\STM32L5xx_DFP\1.3.0\Drivers\STM32L5xx_HAL_Driver\Src\stm32l5xx_hal_tim_ex.c:241:1
	mov	r0, r6
	add	sp, #32
	pop	{r4, r5, r6, pc}
.Ltmp7:
	.p2align	2
.LBB0_4:
	@DEBUG_VALUE: HAL_TIMEx_HallSensor_Init:sConfig <- $r1
	@DEBUG_VALUE: HAL_TIMEx_HallSensor_Init:htim <- $r0
	.loc	7 0 1 is_stmt 0                 @ c:/Keil_v5\ARM\PACK\Keil\STM32L5xx_DFP\1.3.0\Drivers\STM32L5xx_HAL_Driver\Src\stm32l5xx_hal_tim_ex.c:0:1
	movs	r6, #1
	.loc	7 241 1                         @ c:/Keil_v5\ARM\PACK\Keil\STM32L5xx_DFP\1.3.0\Drivers\STM32L5xx_HAL_Driver\Src\stm32l5xx_hal_tim_ex.c:241:1
	mov	r0, r6
.Ltmp8:
	@DEBUG_VALUE: HAL_TIMEx_HallSensor_Init:htim <- [DW_OP_LLVM_entry_value 1] $r0
	add	sp, #32
	pop	{r4, r5, r6, pc}
.Ltmp9:
.Lfunc_end0:
	.size	HAL_TIMEx_HallSensor_Init, .Lfunc_end0-HAL_TIMEx_HallSensor_Init
	.cfi_endproc
	.cantunwind
	.fnend
                                        @ -- End function
	.section	.text.HAL_TIMEx_HallSensor_MspInit,"ax",%progbits
	.hidden	HAL_TIMEx_HallSensor_MspInit    @ -- Begin function HAL_TIMEx_HallSensor_MspInit
	.weak	HAL_TIMEx_HallSensor_MspInit
	.p2align	2
	.type	HAL_TIMEx_HallSensor_MspInit,%function
	.code	16                              @ @HAL_TIMEx_HallSensor_MspInit
	.thumb_func
HAL_TIMEx_HallSensor_MspInit:
.Lfunc_begin1:
	.loc	7 294 0 is_stmt 1               @ c:/Keil_v5\ARM\PACK\Keil\STM32L5xx_DFP\1.3.0\Drivers\STM32L5xx_HAL_Driver\Src\stm32l5xx_hal_tim_ex.c:294:0
	.fnstart
	.cfi_startproc
@ %bb.0:
	@DEBUG_VALUE: HAL_TIMEx_HallSensor_MspInit:htim <- $r0
	.loc	7 301 1 prologue_end            @ c:/Keil_v5\ARM\PACK\Keil\STM32L5xx_DFP\1.3.0\Drivers\STM32L5xx_HAL_Driver\Src\stm32l5xx_hal_tim_ex.c:301:1
	bx	lr
.Ltmp10:
.Lfunc_end1:
	.size	HAL_TIMEx_HallSensor_MspInit, .Lfunc_end1-HAL_TIMEx_HallSensor_MspInit
	.cfi_endproc
	.cantunwind
	.fnend
                                        @ -- End function
	.section	.text.HAL_TIMEx_HallSensor_DeInit,"ax",%progbits
	.hidden	HAL_TIMEx_HallSensor_DeInit     @ -- Begin function HAL_TIMEx_HallSensor_DeInit
	.globl	HAL_TIMEx_HallSensor_DeInit
	.p2align	2
	.type	HAL_TIMEx_HallSensor_DeInit,%function
	.code	16                              @ @HAL_TIMEx_HallSensor_DeInit
	.thumb_func
HAL_TIMEx_HallSensor_DeInit:
.Lfunc_begin2:
	.loc	7 249 0                         @ c:/Keil_v5\ARM\PACK\Keil\STM32L5xx_DFP\1.3.0\Drivers\STM32L5xx_HAL_Driver\Src\stm32l5xx_hal_tim_ex.c:249:0
	.fnstart
	.cfi_startproc
@ %bb.0:
	@DEBUG_VALUE: HAL_TIMEx_HallSensor_DeInit:htim <- $r0
	.save	{r4, lr}
	push	{r4, lr}
	.cfi_def_cfa_offset 8
	.cfi_offset lr, -4
	.cfi_offset r4, -8
	mov	r4, r0
.Ltmp11:
	@DEBUG_VALUE: HAL_TIMEx_HallSensor_DeInit:htim <- $r4
	movs	r0, #2
	@DEBUG_VALUE: HAL_TIMEx_HallSensor_DeInit:htim <- $r4
.Ltmp12:
	.loc	7 253 15 prologue_end           @ c:/Keil_v5\ARM\PACK\Keil\STM32L5xx_DFP\1.3.0\Drivers\STM32L5xx_HAL_Driver\Src\stm32l5xx_hal_tim_ex.c:253:15
	strb.w	r0, [r4, #61]
.Ltmp13:
	.loc	7 256 3                         @ c:/Keil_v5\ARM\PACK\Keil\STM32L5xx_DFP\1.3.0\Drivers\STM32L5xx_HAL_Driver\Src\stm32l5xx_hal_tim_ex.c:256:3
	ldr	r0, [r4]
	movw	r2, #4369
	ldr	r1, [r0, #32]
.Ltmp14:
	.loc	7 256 3 is_stmt 0               @ c:/Keil_v5\ARM\PACK\Keil\STM32L5xx_DFP\1.3.0\Drivers\STM32L5xx_HAL_Driver\Src\stm32l5xx_hal_tim_ex.c:256:3
	tst	r1, r2
	bne	.LBB2_3
.Ltmp15:
@ %bb.1:
	@DEBUG_VALUE: HAL_TIMEx_HallSensor_DeInit:htim <- $r4
	.loc	7 256 3                         @ c:/Keil_v5\ARM\PACK\Keil\STM32L5xx_DFP\1.3.0\Drivers\STM32L5xx_HAL_Driver\Src\stm32l5xx_hal_tim_ex.c:256:3
	ldr	r1, [r0, #32]
	movw	r2, #1092
.Ltmp16:
	.loc	7 256 3                         @ c:/Keil_v5\ARM\PACK\Keil\STM32L5xx_DFP\1.3.0\Drivers\STM32L5xx_HAL_Driver\Src\stm32l5xx_hal_tim_ex.c:256:3
	tst	r1, r2
	bne	.LBB2_3
.Ltmp17:
@ %bb.2:
	@DEBUG_VALUE: HAL_TIMEx_HallSensor_DeInit:htim <- $r4
	.loc	7 256 3                         @ c:/Keil_v5\ARM\PACK\Keil\STM32L5xx_DFP\1.3.0\Drivers\STM32L5xx_HAL_Driver\Src\stm32l5xx_hal_tim_ex.c:256:3
	ldr	r1, [r0]
	bic	r1, r1, #1
	str	r1, [r0]
.Ltmp18:
.LBB2_3:
	@DEBUG_VALUE: HAL_TIMEx_HallSensor_DeInit:htim <- $r4
	.loc	7 267 3 is_stmt 1               @ c:/Keil_v5\ARM\PACK\Keil\STM32L5xx_DFP\1.3.0\Drivers\STM32L5xx_HAL_Driver\Src\stm32l5xx_hal_tim_ex.c:267:3
	mov	r0, r4
	bl	HAL_TIMEx_HallSensor_MspDeInit
	movs	r1, #0
	.loc	7 285 3                         @ c:/Keil_v5\ARM\PACK\Keil\STM32L5xx_DFP\1.3.0\Drivers\STM32L5xx_HAL_Driver\Src\stm32l5xx_hal_tim_ex.c:285:3
	movs	r0, #0
	.loc	7 271 23                        @ c:/Keil_v5\ARM\PACK\Keil\STM32L5xx_DFP\1.3.0\Drivers\STM32L5xx_HAL_Driver\Src\stm32l5xx_hal_tim_ex.c:271:23
	strb.w	r1, [r4, #72]
	.loc	7 274 3                         @ c:/Keil_v5\ARM\PACK\Keil\STM32L5xx_DFP\1.3.0\Drivers\STM32L5xx_HAL_Driver\Src\stm32l5xx_hal_tim_ex.c:274:3
	strb.w	r1, [r4, #62]
	.loc	7 275 3                         @ c:/Keil_v5\ARM\PACK\Keil\STM32L5xx_DFP\1.3.0\Drivers\STM32L5xx_HAL_Driver\Src\stm32l5xx_hal_tim_ex.c:275:3
	strb.w	r1, [r4, #63]
	.loc	7 276 3                         @ c:/Keil_v5\ARM\PACK\Keil\STM32L5xx_DFP\1.3.0\Drivers\STM32L5xx_HAL_Driver\Src\stm32l5xx_hal_tim_ex.c:276:3
	strb.w	r1, [r4, #68]
	.loc	7 277 3                         @ c:/Keil_v5\ARM\PACK\Keil\STM32L5xx_DFP\1.3.0\Drivers\STM32L5xx_HAL_Driver\Src\stm32l5xx_hal_tim_ex.c:277:3
	strb.w	r1, [r4, #69]
	.loc	7 280 15                        @ c:/Keil_v5\ARM\PACK\Keil\STM32L5xx_DFP\1.3.0\Drivers\STM32L5xx_HAL_Driver\Src\stm32l5xx_hal_tim_ex.c:280:15
	strb.w	r1, [r4, #61]
.Ltmp19:
	.loc	7 283 3                         @ c:/Keil_v5\ARM\PACK\Keil\STM32L5xx_DFP\1.3.0\Drivers\STM32L5xx_HAL_Driver\Src\stm32l5xx_hal_tim_ex.c:283:3
	strb.w	r1, [r4, #60]
.Ltmp20:
	.loc	7 285 3                         @ c:/Keil_v5\ARM\PACK\Keil\STM32L5xx_DFP\1.3.0\Drivers\STM32L5xx_HAL_Driver\Src\stm32l5xx_hal_tim_ex.c:285:3
	pop	{r4, pc}
.Ltmp21:
.Lfunc_end2:
	.size	HAL_TIMEx_HallSensor_DeInit, .Lfunc_end2-HAL_TIMEx_HallSensor_DeInit
	.cfi_endproc
	.cantunwind
	.fnend
                                        @ -- End function
	.section	.text.HAL_TIMEx_HallSensor_MspDeInit,"ax",%progbits
	.hidden	HAL_TIMEx_HallSensor_MspDeInit  @ -- Begin function HAL_TIMEx_HallSensor_MspDeInit
	.weak	HAL_TIMEx_HallSensor_MspDeInit
	.p2align	2
	.type	HAL_TIMEx_HallSensor_MspDeInit,%function
	.code	16                              @ @HAL_TIMEx_HallSensor_MspDeInit
	.thumb_func
HAL_TIMEx_HallSensor_MspDeInit:
.Lfunc_begin3:
	.loc	7 309 0                         @ c:/Keil_v5\ARM\PACK\Keil\STM32L5xx_DFP\1.3.0\Drivers\STM32L5xx_HAL_Driver\Src\stm32l5xx_hal_tim_ex.c:309:0
	.fnstart
	.cfi_startproc
@ %bb.0:
	@DEBUG_VALUE: HAL_TIMEx_HallSensor_MspDeInit:htim <- $r0
	.loc	7 316 1 prologue_end            @ c:/Keil_v5\ARM\PACK\Keil\STM32L5xx_DFP\1.3.0\Drivers\STM32L5xx_HAL_Driver\Src\stm32l5xx_hal_tim_ex.c:316:1
	bx	lr
.Ltmp22:
.Lfunc_end3:
	.size	HAL_TIMEx_HallSensor_MspDeInit, .Lfunc_end3-HAL_TIMEx_HallSensor_MspDeInit
	.cfi_endproc
	.cantunwind
	.fnend
                                        @ -- End function
	.section	.text.HAL_TIMEx_HallSensor_Start,"ax",%progbits
	.hidden	HAL_TIMEx_HallSensor_Start      @ -- Begin function HAL_TIMEx_HallSensor_Start
	.globl	HAL_TIMEx_HallSensor_Start
	.p2align	2
	.type	HAL_TIMEx_HallSensor_Start,%function
	.code	16                              @ @HAL_TIMEx_HallSensor_Start
	.thumb_func
HAL_TIMEx_HallSensor_Start:
.Lfunc_begin4:
	.loc	7 324 0                         @ c:/Keil_v5\ARM\PACK\Keil\STM32L5xx_DFP\1.3.0\Drivers\STM32L5xx_HAL_Driver\Src\stm32l5xx_hal_tim_ex.c:324:0
	.fnstart
	.cfi_startproc
@ %bb.0:
	@DEBUG_VALUE: HAL_TIMEx_HallSensor_Start:htim <- $r0
	.save	{r4, lr}
	push	{r4, lr}
	.cfi_def_cfa_offset 8
	.cfi_offset lr, -4
	.cfi_offset r4, -8
	mov	r4, r0
.Ltmp23:
	@DEBUG_VALUE: HAL_TIMEx_HallSensor_Start:htim <- $r4
	.loc	7 326 49 prologue_end           @ c:/Keil_v5\ARM\PACK\Keil\STM32L5xx_DFP\1.3.0\Drivers\STM32L5xx_HAL_Driver\Src\stm32l5xx_hal_tim_ex.c:326:49
	ldrb.w	r0, [r0, #62]
.Ltmp24:
	@DEBUG_VALUE: HAL_TIMEx_HallSensor_Start:channel_1_state <- $r0
	.loc	7 327 49                        @ c:/Keil_v5\ARM\PACK\Keil\STM32L5xx_DFP\1.3.0\Drivers\STM32L5xx_HAL_Driver\Src\stm32l5xx_hal_tim_ex.c:327:49
	ldrb.w	r3, [r4, #63]
.Ltmp25:
	@DEBUG_VALUE: HAL_TIMEx_HallSensor_Start:channel_2_state <- undef
	.loc	7 328 63                        @ c:/Keil_v5\ARM\PACK\Keil\STM32L5xx_DFP\1.3.0\Drivers\STM32L5xx_HAL_Driver\Src\stm32l5xx_hal_tim_ex.c:328:63
	ldrb.w	r2, [r4, #68]
.Ltmp26:
	@DEBUG_VALUE: HAL_TIMEx_HallSensor_Start:complementary_channel_1_state <- undef
	.loc	7 329 63                        @ c:/Keil_v5\ARM\PACK\Keil\STM32L5xx_DFP\1.3.0\Drivers\STM32L5xx_HAL_Driver\Src\stm32l5xx_hal_tim_ex.c:329:63
	ldrb.w	r1, [r4, #69]
.Ltmp27:
	.loc	7 336 4                         @ c:/Keil_v5\ARM\PACK\Keil\STM32L5xx_DFP\1.3.0\Drivers\STM32L5xx_HAL_Driver\Src\stm32l5xx_hal_tim_ex.c:336:4
	cmp	r0, #1
	mov.w	r0, #1
.Ltmp28:
	@DEBUG_VALUE: HAL_TIMEx_HallSensor_Start:complementary_channel_2_state <- undef
	it	eq
	cmpeq	r3, #1
	beq	.LBB4_2
.Ltmp29:
.LBB4_1:
	@DEBUG_VALUE: HAL_TIMEx_HallSensor_Start:htim <- $r4
	.loc	7 369 1                         @ c:/Keil_v5\ARM\PACK\Keil\STM32L5xx_DFP\1.3.0\Drivers\STM32L5xx_HAL_Driver\Src\stm32l5xx_hal_tim_ex.c:369:1
	pop	{r4, pc}
.Ltmp30:
	.p2align	2
.LBB4_2:
	@DEBUG_VALUE: HAL_TIMEx_HallSensor_Start:htim <- $r4
	.loc	7 336 4                         @ c:/Keil_v5\ARM\PACK\Keil\STM32L5xx_DFP\1.3.0\Drivers\STM32L5xx_HAL_Driver\Src\stm32l5xx_hal_tim_ex.c:336:4
	cmp	r2, #1
	it	eq
	cmpeq	r1, #1
	bne	.LBB4_1
.Ltmp31:
@ %bb.3:
	@DEBUG_VALUE: HAL_TIMEx_HallSensor_Start:htim <- $r4
	.loc	7 0 4 is_stmt 0                 @ c:/Keil_v5\ARM\PACK\Keil\STM32L5xx_DFP\1.3.0\Drivers\STM32L5xx_HAL_Driver\Src\stm32l5xx_hal_tim_ex.c:0:4
	movs	r0, #2
	.loc	7 344 3 is_stmt 1               @ c:/Keil_v5\ARM\PACK\Keil\STM32L5xx_DFP\1.3.0\Drivers\STM32L5xx_HAL_Driver\Src\stm32l5xx_hal_tim_ex.c:344:3
	strb.w	r0, [r4, #62]
	.loc	7 345 3                         @ c:/Keil_v5\ARM\PACK\Keil\STM32L5xx_DFP\1.3.0\Drivers\STM32L5xx_HAL_Driver\Src\stm32l5xx_hal_tim_ex.c:345:3
	strb.w	r0, [r4, #63]
	.loc	7 346 3                         @ c:/Keil_v5\ARM\PACK\Keil\STM32L5xx_DFP\1.3.0\Drivers\STM32L5xx_HAL_Driver\Src\stm32l5xx_hal_tim_ex.c:346:3
	strb.w	r0, [r4, #68]
	.loc	7 347 3                         @ c:/Keil_v5\ARM\PACK\Keil\STM32L5xx_DFP\1.3.0\Drivers\STM32L5xx_HAL_Driver\Src\stm32l5xx_hal_tim_ex.c:347:3
	strb.w	r0, [r4, #69]
	.loc	7 351 27                        @ c:/Keil_v5\ARM\PACK\Keil\STM32L5xx_DFP\1.3.0\Drivers\STM32L5xx_HAL_Driver\Src\stm32l5xx_hal_tim_ex.c:351:27
	ldr	r0, [r4]
	.loc	7 351 3 is_stmt 0               @ c:/Keil_v5\ARM\PACK\Keil\STM32L5xx_DFP\1.3.0\Drivers\STM32L5xx_HAL_Driver\Src\stm32l5xx_hal_tim_ex.c:351:3
	movs	r1, #0
	movs	r2, #1
	bl	TIM_CCxChannelCmd
.Ltmp32:
	.loc	7 354 7 is_stmt 1               @ c:/Keil_v5\ARM\PACK\Keil\STM32L5xx_DFP\1.3.0\Drivers\STM32L5xx_HAL_Driver\Src\stm32l5xx_hal_tim_ex.c:354:7
	ldr	r1, [r4]
	movw	r0, #3071
	movt	r0, #16384
	cmp	r1, r0
	ble	.LBB4_7
.Ltmp33:
@ %bb.4:
	@DEBUG_VALUE: HAL_TIMEx_HallSensor_Start:htim <- $r4
	.loc	7 0 7 is_stmt 0                 @ c:/Keil_v5\ARM\PACK\Keil\STM32L5xx_DFP\1.3.0\Drivers\STM32L5xx_HAL_Driver\Src\stm32l5xx_hal_tim_ex.c:0:7
	movw	r0, #13311
	movt	r0, #16385
	.loc	7 354 7                         @ c:/Keil_v5\ARM\PACK\Keil\STM32L5xx_DFP\1.3.0\Drivers\STM32L5xx_HAL_Driver\Src\stm32l5xx_hal_tim_ex.c:354:7
	cmp	r1, r0
	bgt	.LBB4_10
.Ltmp34:
@ %bb.5:
	@DEBUG_VALUE: HAL_TIMEx_HallSensor_Start:htim <- $r4
	.loc	7 0 7                           @ c:/Keil_v5\ARM\PACK\Keil\STM32L5xx_DFP\1.3.0\Drivers\STM32L5xx_HAL_Driver\Src\stm32l5xx_hal_tim_ex.c:0:7
	movw	r0, #3072
	movt	r0, #16384
	.loc	7 354 7                         @ c:/Keil_v5\ARM\PACK\Keil\STM32L5xx_DFP\1.3.0\Drivers\STM32L5xx_HAL_Driver\Src\stm32l5xx_hal_tim_ex.c:354:7
	cmp	r1, r0
	beq	.LBB4_14
.Ltmp35:
@ %bb.6:
	@DEBUG_VALUE: HAL_TIMEx_HallSensor_Start:htim <- $r4
	.loc	7 0 7                           @ c:/Keil_v5\ARM\PACK\Keil\STM32L5xx_DFP\1.3.0\Drivers\STM32L5xx_HAL_Driver\Src\stm32l5xx_hal_tim_ex.c:0:7
	movw	r0, #11264
	b	.LBB4_12
.Ltmp36:
	.p2align	2
.LBB4_7:
	@DEBUG_VALUE: HAL_TIMEx_HallSensor_Start:htim <- $r4
	.loc	7 354 7                         @ c:/Keil_v5\ARM\PACK\Keil\STM32L5xx_DFP\1.3.0\Drivers\STM32L5xx_HAL_Driver\Src\stm32l5xx_hal_tim_ex.c:354:7
	cmp.w	r1, #1073741824
	beq	.LBB4_14
.Ltmp37:
@ %bb.8:
	@DEBUG_VALUE: HAL_TIMEx_HallSensor_Start:htim <- $r4
	.loc	7 0 7                           @ c:/Keil_v5\ARM\PACK\Keil\STM32L5xx_DFP\1.3.0\Drivers\STM32L5xx_HAL_Driver\Src\stm32l5xx_hal_tim_ex.c:0:7
	movw	r0, #1024
	movt	r0, #16384
	.loc	7 354 7                         @ c:/Keil_v5\ARM\PACK\Keil\STM32L5xx_DFP\1.3.0\Drivers\STM32L5xx_HAL_Driver\Src\stm32l5xx_hal_tim_ex.c:354:7
	cmp	r1, r0
	beq	.LBB4_14
.Ltmp38:
@ %bb.9:
	@DEBUG_VALUE: HAL_TIMEx_HallSensor_Start:htim <- $r4
	.loc	7 0 7                           @ c:/Keil_v5\ARM\PACK\Keil\STM32L5xx_DFP\1.3.0\Drivers\STM32L5xx_HAL_Driver\Src\stm32l5xx_hal_tim_ex.c:0:7
	movw	r0, #2048
	movt	r0, #16384
	b	.LBB4_13
.Ltmp39:
	.p2align	2
.LBB4_10:
	@DEBUG_VALUE: HAL_TIMEx_HallSensor_Start:htim <- $r4
	movw	r0, #16384
	movt	r0, #16385
	.loc	7 354 7                         @ c:/Keil_v5\ARM\PACK\Keil\STM32L5xx_DFP\1.3.0\Drivers\STM32L5xx_HAL_Driver\Src\stm32l5xx_hal_tim_ex.c:354:7
	cmp	r1, r0
	beq	.LBB4_14
.Ltmp40:
@ %bb.11:
	@DEBUG_VALUE: HAL_TIMEx_HallSensor_Start:htim <- $r4
	.loc	7 0 7                           @ c:/Keil_v5\ARM\PACK\Keil\STM32L5xx_DFP\1.3.0\Drivers\STM32L5xx_HAL_Driver\Src\stm32l5xx_hal_tim_ex.c:0:7
	movw	r0, #13312
.Ltmp41:
.LBB4_12:
	@DEBUG_VALUE: HAL_TIMEx_HallSensor_Start:htim <- $r4
	movt	r0, #16385
.Ltmp42:
.LBB4_13:
	@DEBUG_VALUE: HAL_TIMEx_HallSensor_Start:htim <- $r4
	.loc	7 354 7                         @ c:/Keil_v5\ARM\PACK\Keil\STM32L5xx_DFP\1.3.0\Drivers\STM32L5xx_HAL_Driver\Src\stm32l5xx_hal_tim_ex.c:354:7
	cmp	r1, r0
	bne	.LBB4_15
.Ltmp43:
.LBB4_14:
	@DEBUG_VALUE: HAL_TIMEx_HallSensor_Start:htim <- $r4
	.loc	7 356 31 is_stmt 1              @ c:/Keil_v5\ARM\PACK\Keil\STM32L5xx_DFP\1.3.0\Drivers\STM32L5xx_HAL_Driver\Src\stm32l5xx_hal_tim_ex.c:356:31
	ldr	r0, [r1, #8]
	movs	r2, #7
	movt	r2, #1
	.loc	7 356 36 is_stmt 0              @ c:/Keil_v5\ARM\PACK\Keil\STM32L5xx_DFP\1.3.0\Drivers\STM32L5xx_HAL_Driver\Src\stm32l5xx_hal_tim_ex.c:356:36
	ands	r2, r0
.Ltmp44:
	@DEBUG_VALUE: HAL_TIMEx_HallSensor_Start:tmpsmcr <- $r2
	.loc	7 357 10 is_stmt 1              @ c:/Keil_v5\ARM\PACK\Keil\STM32L5xx_DFP\1.3.0\Drivers\STM32L5xx_HAL_Driver\Src\stm32l5xx_hal_tim_ex.c:357:10
	cmp	r2, #6
	mov.w	r0, #0
	it	ne
	cmpne.w	r2, #65536
	beq	.LBB4_1
.Ltmp45:
.LBB4_15:
	@DEBUG_VALUE: HAL_TIMEx_HallSensor_Start:htim <- $r4
	.loc	7 0 0 is_stmt 0                 @ c:/Keil_v5\ARM\PACK\Keil\STM32L5xx_DFP\1.3.0\Drivers\STM32L5xx_HAL_Driver\Src\stm32l5xx_hal_tim_ex.c:0:0
	ldr	r0, [r1]
	orr	r0, r0, #1
	str	r0, [r1]
	movs	r0, #0
.Ltmp46:
	.loc	7 369 1 is_stmt 1               @ c:/Keil_v5\ARM\PACK\Keil\STM32L5xx_DFP\1.3.0\Drivers\STM32L5xx_HAL_Driver\Src\stm32l5xx_hal_tim_ex.c:369:1
	pop	{r4, pc}
.Ltmp47:
.Lfunc_end4:
	.size	HAL_TIMEx_HallSensor_Start, .Lfunc_end4-HAL_TIMEx_HallSensor_Start
	.cfi_endproc
	.cantunwind
	.fnend
                                        @ -- End function
	.section	.text.HAL_TIMEx_HallSensor_Stop,"ax",%progbits
	.hidden	HAL_TIMEx_HallSensor_Stop       @ -- Begin function HAL_TIMEx_HallSensor_Stop
	.globl	HAL_TIMEx_HallSensor_Stop
	.p2align	2
	.type	HAL_TIMEx_HallSensor_Stop,%function
	.code	16                              @ @HAL_TIMEx_HallSensor_Stop
	.thumb_func
HAL_TIMEx_HallSensor_Stop:
.Lfunc_begin5:
	.loc	7 377 0                         @ c:/Keil_v5\ARM\PACK\Keil\STM32L5xx_DFP\1.3.0\Drivers\STM32L5xx_HAL_Driver\Src\stm32l5xx_hal_tim_ex.c:377:0
	.fnstart
	.cfi_startproc
@ %bb.0:
	@DEBUG_VALUE: HAL_TIMEx_HallSensor_Stop:htim <- $r0
	.save	{r4, lr}
	push	{r4, lr}
	.cfi_def_cfa_offset 8
	.cfi_offset lr, -4
	.cfi_offset r4, -8
	mov	r4, r0
.Ltmp48:
	@DEBUG_VALUE: HAL_TIMEx_HallSensor_Stop:htim <- $r4
	.loc	7 383 27 prologue_end           @ c:/Keil_v5\ARM\PACK\Keil\STM32L5xx_DFP\1.3.0\Drivers\STM32L5xx_HAL_Driver\Src\stm32l5xx_hal_tim_ex.c:383:27
	ldr	r0, [r0]
	.loc	7 383 3 is_stmt 0               @ c:/Keil_v5\ARM\PACK\Keil\STM32L5xx_DFP\1.3.0\Drivers\STM32L5xx_HAL_Driver\Src\stm32l5xx_hal_tim_ex.c:383:3
	movs	r1, #0
	movs	r2, #0
	bl	TIM_CCxChannelCmd
.Ltmp49:
	.loc	7 386 3 is_stmt 1               @ c:/Keil_v5\ARM\PACK\Keil\STM32L5xx_DFP\1.3.0\Drivers\STM32L5xx_HAL_Driver\Src\stm32l5xx_hal_tim_ex.c:386:3
	ldr	r0, [r4]
	movw	r2, #4369
	ldr	r1, [r0, #32]
.Ltmp50:
	.loc	7 386 3 is_stmt 0               @ c:/Keil_v5\ARM\PACK\Keil\STM32L5xx_DFP\1.3.0\Drivers\STM32L5xx_HAL_Driver\Src\stm32l5xx_hal_tim_ex.c:386:3
	tst	r1, r2
	bne	.LBB5_3
.Ltmp51:
@ %bb.1:
	@DEBUG_VALUE: HAL_TIMEx_HallSensor_Stop:htim <- $r4
	.loc	7 386 3                         @ c:/Keil_v5\ARM\PACK\Keil\STM32L5xx_DFP\1.3.0\Drivers\STM32L5xx_HAL_Driver\Src\stm32l5xx_hal_tim_ex.c:386:3
	ldr	r1, [r0, #32]
	movw	r2, #1092
.Ltmp52:
	.loc	7 386 3                         @ c:/Keil_v5\ARM\PACK\Keil\STM32L5xx_DFP\1.3.0\Drivers\STM32L5xx_HAL_Driver\Src\stm32l5xx_hal_tim_ex.c:386:3
	tst	r1, r2
	bne	.LBB5_3
.Ltmp53:
@ %bb.2:
	@DEBUG_VALUE: HAL_TIMEx_HallSensor_Stop:htim <- $r4
	.loc	7 386 3                         @ c:/Keil_v5\ARM\PACK\Keil\STM32L5xx_DFP\1.3.0\Drivers\STM32L5xx_HAL_Driver\Src\stm32l5xx_hal_tim_ex.c:386:3
	ldr	r1, [r0]
	bic	r1, r1, #1
	str	r1, [r0]
.Ltmp54:
.LBB5_3:
	@DEBUG_VALUE: HAL_TIMEx_HallSensor_Stop:htim <- $r4
	.loc	7 0 3                           @ c:/Keil_v5\ARM\PACK\Keil\STM32L5xx_DFP\1.3.0\Drivers\STM32L5xx_HAL_Driver\Src\stm32l5xx_hal_tim_ex.c:0:3
	movs	r1, #1
	.loc	7 395 3 is_stmt 1               @ c:/Keil_v5\ARM\PACK\Keil\STM32L5xx_DFP\1.3.0\Drivers\STM32L5xx_HAL_Driver\Src\stm32l5xx_hal_tim_ex.c:395:3
	movs	r0, #0
	.loc	7 389 3                         @ c:/Keil_v5\ARM\PACK\Keil\STM32L5xx_DFP\1.3.0\Drivers\STM32L5xx_HAL_Driver\Src\stm32l5xx_hal_tim_ex.c:389:3
	strb.w	r1, [r4, #62]
	.loc	7 390 3                         @ c:/Keil_v5\ARM\PACK\Keil\STM32L5xx_DFP\1.3.0\Drivers\STM32L5xx_HAL_Driver\Src\stm32l5xx_hal_tim_ex.c:390:3
	strb.w	r1, [r4, #63]
	.loc	7 391 3                         @ c:/Keil_v5\ARM\PACK\Keil\STM32L5xx_DFP\1.3.0\Drivers\STM32L5xx_HAL_Driver\Src\stm32l5xx_hal_tim_ex.c:391:3
	strb.w	r1, [r4, #68]
	.loc	7 392 3                         @ c:/Keil_v5\ARM\PACK\Keil\STM32L5xx_DFP\1.3.0\Drivers\STM32L5xx_HAL_Driver\Src\stm32l5xx_hal_tim_ex.c:392:3
	strb.w	r1, [r4, #69]
	.loc	7 395 3                         @ c:/Keil_v5\ARM\PACK\Keil\STM32L5xx_DFP\1.3.0\Drivers\STM32L5xx_HAL_Driver\Src\stm32l5xx_hal_tim_ex.c:395:3
	pop	{r4, pc}
.Ltmp55:
.Lfunc_end5:
	.size	HAL_TIMEx_HallSensor_Stop, .Lfunc_end5-HAL_TIMEx_HallSensor_Stop
	.cfi_endproc
	.cantunwind
	.fnend
                                        @ -- End function
	.section	.text.HAL_TIMEx_HallSensor_Start_IT,"ax",%progbits
	.hidden	HAL_TIMEx_HallSensor_Start_IT   @ -- Begin function HAL_TIMEx_HallSensor_Start_IT
	.globl	HAL_TIMEx_HallSensor_Start_IT
	.p2align	2
	.type	HAL_TIMEx_HallSensor_Start_IT,%function
	.code	16                              @ @HAL_TIMEx_HallSensor_Start_IT
	.thumb_func
HAL_TIMEx_HallSensor_Start_IT:
.Lfunc_begin6:
	.loc	7 404 0                         @ c:/Keil_v5\ARM\PACK\Keil\STM32L5xx_DFP\1.3.0\Drivers\STM32L5xx_HAL_Driver\Src\stm32l5xx_hal_tim_ex.c:404:0
	.fnstart
	.cfi_startproc
@ %bb.0:
	@DEBUG_VALUE: HAL_TIMEx_HallSensor_Start_IT:htim <- $r0
	.save	{r4, lr}
	push	{r4, lr}
	.cfi_def_cfa_offset 8
	.cfi_offset lr, -4
	.cfi_offset r4, -8
	mov	r4, r0
.Ltmp56:
	@DEBUG_VALUE: HAL_TIMEx_HallSensor_Start_IT:htim <- $r4
	.loc	7 406 49 prologue_end           @ c:/Keil_v5\ARM\PACK\Keil\STM32L5xx_DFP\1.3.0\Drivers\STM32L5xx_HAL_Driver\Src\stm32l5xx_hal_tim_ex.c:406:49
	ldrb.w	r0, [r0, #62]
.Ltmp57:
	@DEBUG_VALUE: HAL_TIMEx_HallSensor_Start_IT:channel_1_state <- $r0
	.loc	7 407 49                        @ c:/Keil_v5\ARM\PACK\Keil\STM32L5xx_DFP\1.3.0\Drivers\STM32L5xx_HAL_Driver\Src\stm32l5xx_hal_tim_ex.c:407:49
	ldrb.w	r3, [r4, #63]
.Ltmp58:
	@DEBUG_VALUE: HAL_TIMEx_HallSensor_Start_IT:channel_2_state <- undef
	.loc	7 408 63                        @ c:/Keil_v5\ARM\PACK\Keil\STM32L5xx_DFP\1.3.0\Drivers\STM32L5xx_HAL_Driver\Src\stm32l5xx_hal_tim_ex.c:408:63
	ldrb.w	r2, [r4, #68]
.Ltmp59:
	@DEBUG_VALUE: HAL_TIMEx_HallSensor_Start_IT:complementary_channel_1_state <- undef
	.loc	7 409 63                        @ c:/Keil_v5\ARM\PACK\Keil\STM32L5xx_DFP\1.3.0\Drivers\STM32L5xx_HAL_Driver\Src\stm32l5xx_hal_tim_ex.c:409:63
	ldrb.w	r1, [r4, #69]
.Ltmp60:
	.loc	7 416 4                         @ c:/Keil_v5\ARM\PACK\Keil\STM32L5xx_DFP\1.3.0\Drivers\STM32L5xx_HAL_Driver\Src\stm32l5xx_hal_tim_ex.c:416:4
	cmp	r0, #1
	mov.w	r0, #1
.Ltmp61:
	@DEBUG_VALUE: HAL_TIMEx_HallSensor_Start_IT:complementary_channel_2_state <- undef
	it	eq
	cmpeq	r3, #1
	beq	.LBB6_2
.Ltmp62:
.LBB6_1:
	@DEBUG_VALUE: HAL_TIMEx_HallSensor_Start_IT:htim <- $r4
	.loc	7 452 1                         @ c:/Keil_v5\ARM\PACK\Keil\STM32L5xx_DFP\1.3.0\Drivers\STM32L5xx_HAL_Driver\Src\stm32l5xx_hal_tim_ex.c:452:1
	pop	{r4, pc}
.Ltmp63:
	.p2align	2
.LBB6_2:
	@DEBUG_VALUE: HAL_TIMEx_HallSensor_Start_IT:htim <- $r4
	.loc	7 416 4                         @ c:/Keil_v5\ARM\PACK\Keil\STM32L5xx_DFP\1.3.0\Drivers\STM32L5xx_HAL_Driver\Src\stm32l5xx_hal_tim_ex.c:416:4
	cmp	r2, #1
	it	eq
	cmpeq	r1, #1
	bne	.LBB6_1
.Ltmp64:
@ %bb.3:
	@DEBUG_VALUE: HAL_TIMEx_HallSensor_Start_IT:htim <- $r4
	.loc	7 0 4 is_stmt 0                 @ c:/Keil_v5\ARM\PACK\Keil\STM32L5xx_DFP\1.3.0\Drivers\STM32L5xx_HAL_Driver\Src\stm32l5xx_hal_tim_ex.c:0:4
	movs	r0, #2
	.loc	7 424 3 is_stmt 1               @ c:/Keil_v5\ARM\PACK\Keil\STM32L5xx_DFP\1.3.0\Drivers\STM32L5xx_HAL_Driver\Src\stm32l5xx_hal_tim_ex.c:424:3
	strb.w	r0, [r4, #62]
	.loc	7 425 3                         @ c:/Keil_v5\ARM\PACK\Keil\STM32L5xx_DFP\1.3.0\Drivers\STM32L5xx_HAL_Driver\Src\stm32l5xx_hal_tim_ex.c:425:3
	strb.w	r0, [r4, #63]
	.loc	7 426 3                         @ c:/Keil_v5\ARM\PACK\Keil\STM32L5xx_DFP\1.3.0\Drivers\STM32L5xx_HAL_Driver\Src\stm32l5xx_hal_tim_ex.c:426:3
	strb.w	r0, [r4, #68]
	.loc	7 427 3                         @ c:/Keil_v5\ARM\PACK\Keil\STM32L5xx_DFP\1.3.0\Drivers\STM32L5xx_HAL_Driver\Src\stm32l5xx_hal_tim_ex.c:427:3
	strb.w	r0, [r4, #69]
	.loc	7 430 3                         @ c:/Keil_v5\ARM\PACK\Keil\STM32L5xx_DFP\1.3.0\Drivers\STM32L5xx_HAL_Driver\Src\stm32l5xx_hal_tim_ex.c:430:3
	ldr	r0, [r4]
	.loc	7 434 3                         @ c:/Keil_v5\ARM\PACK\Keil\STM32L5xx_DFP\1.3.0\Drivers\STM32L5xx_HAL_Driver\Src\stm32l5xx_hal_tim_ex.c:434:3
	movs	r2, #1
	.loc	7 430 3                         @ c:/Keil_v5\ARM\PACK\Keil\STM32L5xx_DFP\1.3.0\Drivers\STM32L5xx_HAL_Driver\Src\stm32l5xx_hal_tim_ex.c:430:3
	ldr	r1, [r0, #12]
	orr	r1, r1, #2
	str	r1, [r0, #12]
	.loc	7 434 3                         @ c:/Keil_v5\ARM\PACK\Keil\STM32L5xx_DFP\1.3.0\Drivers\STM32L5xx_HAL_Driver\Src\stm32l5xx_hal_tim_ex.c:434:3
	movs	r1, #0
	bl	TIM_CCxChannelCmd
.Ltmp65:
	.loc	7 437 7                         @ c:/Keil_v5\ARM\PACK\Keil\STM32L5xx_DFP\1.3.0\Drivers\STM32L5xx_HAL_Driver\Src\stm32l5xx_hal_tim_ex.c:437:7
	ldr	r1, [r4]
	movw	r0, #3071
	movt	r0, #16384
	cmp	r1, r0
	ble	.LBB6_7
.Ltmp66:
@ %bb.4:
	@DEBUG_VALUE: HAL_TIMEx_HallSensor_Start_IT:htim <- $r4
	.loc	7 0 7 is_stmt 0                 @ c:/Keil_v5\ARM\PACK\Keil\STM32L5xx_DFP\1.3.0\Drivers\STM32L5xx_HAL_Driver\Src\stm32l5xx_hal_tim_ex.c:0:7
	movw	r0, #13311
	movt	r0, #16385
	.loc	7 437 7                         @ c:/Keil_v5\ARM\PACK\Keil\STM32L5xx_DFP\1.3.0\Drivers\STM32L5xx_HAL_Driver\Src\stm32l5xx_hal_tim_ex.c:437:7
	cmp	r1, r0
	bgt	.LBB6_10
.Ltmp67:
@ %bb.5:
	@DEBUG_VALUE: HAL_TIMEx_HallSensor_Start_IT:htim <- $r4
	.loc	7 0 7                           @ c:/Keil_v5\ARM\PACK\Keil\STM32L5xx_DFP\1.3.0\Drivers\STM32L5xx_HAL_Driver\Src\stm32l5xx_hal_tim_ex.c:0:7
	movw	r0, #3072
	movt	r0, #16384
	.loc	7 437 7                         @ c:/Keil_v5\ARM\PACK\Keil\STM32L5xx_DFP\1.3.0\Drivers\STM32L5xx_HAL_Driver\Src\stm32l5xx_hal_tim_ex.c:437:7
	cmp	r1, r0
	beq	.LBB6_14
.Ltmp68:
@ %bb.6:
	@DEBUG_VALUE: HAL_TIMEx_HallSensor_Start_IT:htim <- $r4
	.loc	7 0 7                           @ c:/Keil_v5\ARM\PACK\Keil\STM32L5xx_DFP\1.3.0\Drivers\STM32L5xx_HAL_Driver\Src\stm32l5xx_hal_tim_ex.c:0:7
	movw	r0, #11264
	b	.LBB6_12
.Ltmp69:
	.p2align	2
.LBB6_7:
	@DEBUG_VALUE: HAL_TIMEx_HallSensor_Start_IT:htim <- $r4
	.loc	7 437 7                         @ c:/Keil_v5\ARM\PACK\Keil\STM32L5xx_DFP\1.3.0\Drivers\STM32L5xx_HAL_Driver\Src\stm32l5xx_hal_tim_ex.c:437:7
	cmp.w	r1, #1073741824
	beq	.LBB6_14
.Ltmp70:
@ %bb.8:
	@DEBUG_VALUE: HAL_TIMEx_HallSensor_Start_IT:htim <- $r4
	.loc	7 0 7                           @ c:/Keil_v5\ARM\PACK\Keil\STM32L5xx_DFP\1.3.0\Drivers\STM32L5xx_HAL_Driver\Src\stm32l5xx_hal_tim_ex.c:0:7
	movw	r0, #1024
	movt	r0, #16384
	.loc	7 437 7                         @ c:/Keil_v5\ARM\PACK\Keil\STM32L5xx_DFP\1.3.0\Drivers\STM32L5xx_HAL_Driver\Src\stm32l5xx_hal_tim_ex.c:437:7
	cmp	r1, r0
	beq	.LBB6_14
.Ltmp71:
@ %bb.9:
	@DEBUG_VALUE: HAL_TIMEx_HallSensor_Start_IT:htim <- $r4
	.loc	7 0 7                           @ c:/Keil_v5\ARM\PACK\Keil\STM32L5xx_DFP\1.3.0\Drivers\STM32L5xx_HAL_Driver\Src\stm32l5xx_hal_tim_ex.c:0:7
	movw	r0, #2048
	movt	r0, #16384
	b	.LBB6_13
.Ltmp72:
	.p2align	2
.LBB6_10:
	@DEBUG_VALUE: HAL_TIMEx_HallSensor_Start_IT:htim <- $r4
	movw	r0, #16384
	movt	r0, #16385
	.loc	7 437 7                         @ c:/Keil_v5\ARM\PACK\Keil\STM32L5xx_DFP\1.3.0\Drivers\STM32L5xx_HAL_Driver\Src\stm32l5xx_hal_tim_ex.c:437:7
	cmp	r1, r0
	beq	.LBB6_14
.Ltmp73:
@ %bb.11:
	@DEBUG_VALUE: HAL_TIMEx_HallSensor_Start_IT:htim <- $r4
	.loc	7 0 7                           @ c:/Keil_v5\ARM\PACK\Keil\STM32L5xx_DFP\1.3.0\Drivers\STM32L5xx_HAL_Driver\Src\stm32l5xx_hal_tim_ex.c:0:7
	movw	r0, #13312
.Ltmp74:
.LBB6_12:
	@DEBUG_VALUE: HAL_TIMEx_HallSensor_Start_IT:htim <- $r4
	movt	r0, #16385
.Ltmp75:
.LBB6_13:
	@DEBUG_VALUE: HAL_TIMEx_HallSensor_Start_IT:htim <- $r4
	.loc	7 437 7                         @ c:/Keil_v5\ARM\PACK\Keil\STM32L5xx_DFP\1.3.0\Drivers\STM32L5xx_HAL_Driver\Src\stm32l5xx_hal_tim_ex.c:437:7
	cmp	r1, r0
	bne	.LBB6_15
.Ltmp76:
.LBB6_14:
	@DEBUG_VALUE: HAL_TIMEx_HallSensor_Start_IT:htim <- $r4
	.loc	7 439 31 is_stmt 1              @ c:/Keil_v5\ARM\PACK\Keil\STM32L5xx_DFP\1.3.0\Drivers\STM32L5xx_HAL_Driver\Src\stm32l5xx_hal_tim_ex.c:439:31
	ldr	r0, [r1, #8]
	movs	r2, #7
	movt	r2, #1
	.loc	7 439 36 is_stmt 0              @ c:/Keil_v5\ARM\PACK\Keil\STM32L5xx_DFP\1.3.0\Drivers\STM32L5xx_HAL_Driver\Src\stm32l5xx_hal_tim_ex.c:439:36
	ands	r2, r0
.Ltmp77:
	@DEBUG_VALUE: HAL_TIMEx_HallSensor_Start_IT:tmpsmcr <- $r2
	.loc	7 440 10 is_stmt 1              @ c:/Keil_v5\ARM\PACK\Keil\STM32L5xx_DFP\1.3.0\Drivers\STM32L5xx_HAL_Driver\Src\stm32l5xx_hal_tim_ex.c:440:10
	cmp	r2, #6
	mov.w	r0, #0
	it	ne
	cmpne.w	r2, #65536
	beq	.LBB6_1
.Ltmp78:
.LBB6_15:
	@DEBUG_VALUE: HAL_TIMEx_HallSensor_Start_IT:htim <- $r4
	.loc	7 0 0 is_stmt 0                 @ c:/Keil_v5\ARM\PACK\Keil\STM32L5xx_DFP\1.3.0\Drivers\STM32L5xx_HAL_Driver\Src\stm32l5xx_hal_tim_ex.c:0:0
	ldr	r0, [r1]
	orr	r0, r0, #1
	str	r0, [r1]
	movs	r0, #0
.Ltmp79:
	.loc	7 452 1 is_stmt 1               @ c:/Keil_v5\ARM\PACK\Keil\STM32L5xx_DFP\1.3.0\Drivers\STM32L5xx_HAL_Driver\Src\stm32l5xx_hal_tim_ex.c:452:1
	pop	{r4, pc}
.Ltmp80:
.Lfunc_end6:
	.size	HAL_TIMEx_HallSensor_Start_IT, .Lfunc_end6-HAL_TIMEx_HallSensor_Start_IT
	.cfi_endproc
	.cantunwind
	.fnend
                                        @ -- End function
	.section	.text.HAL_TIMEx_HallSensor_Stop_IT,"ax",%progbits
	.hidden	HAL_TIMEx_HallSensor_Stop_IT    @ -- Begin function HAL_TIMEx_HallSensor_Stop_IT
	.globl	HAL_TIMEx_HallSensor_Stop_IT
	.p2align	2
	.type	HAL_TIMEx_HallSensor_Stop_IT,%function
	.code	16                              @ @HAL_TIMEx_HallSensor_Stop_IT
	.thumb_func
HAL_TIMEx_HallSensor_Stop_IT:
.Lfunc_begin7:
	.loc	7 460 0                         @ c:/Keil_v5\ARM\PACK\Keil\STM32L5xx_DFP\1.3.0\Drivers\STM32L5xx_HAL_Driver\Src\stm32l5xx_hal_tim_ex.c:460:0
	.fnstart
	.cfi_startproc
@ %bb.0:
	@DEBUG_VALUE: HAL_TIMEx_HallSensor_Stop_IT:htim <- $r0
	.save	{r4, lr}
	push	{r4, lr}
	.cfi_def_cfa_offset 8
	.cfi_offset lr, -4
	.cfi_offset r4, -8
	mov	r4, r0
.Ltmp81:
	@DEBUG_VALUE: HAL_TIMEx_HallSensor_Stop_IT:htim <- $r4
	.loc	7 466 27 prologue_end           @ c:/Keil_v5\ARM\PACK\Keil\STM32L5xx_DFP\1.3.0\Drivers\STM32L5xx_HAL_Driver\Src\stm32l5xx_hal_tim_ex.c:466:27
	ldr	r0, [r0]
	.loc	7 466 3 is_stmt 0               @ c:/Keil_v5\ARM\PACK\Keil\STM32L5xx_DFP\1.3.0\Drivers\STM32L5xx_HAL_Driver\Src\stm32l5xx_hal_tim_ex.c:466:3
	movs	r1, #0
	movs	r2, #0
	bl	TIM_CCxChannelCmd
	.loc	7 469 3 is_stmt 1               @ c:/Keil_v5\ARM\PACK\Keil\STM32L5xx_DFP\1.3.0\Drivers\STM32L5xx_HAL_Driver\Src\stm32l5xx_hal_tim_ex.c:469:3
	ldr	r0, [r4]
	movw	r2, #4369
	ldr	r1, [r0, #12]
	bic	r1, r1, #2
	str	r1, [r0, #12]
.Ltmp82:
	.loc	7 472 3                         @ c:/Keil_v5\ARM\PACK\Keil\STM32L5xx_DFP\1.3.0\Drivers\STM32L5xx_HAL_Driver\Src\stm32l5xx_hal_tim_ex.c:472:3
	ldr	r1, [r0, #32]
.Ltmp83:
	.loc	7 472 3 is_stmt 0               @ c:/Keil_v5\ARM\PACK\Keil\STM32L5xx_DFP\1.3.0\Drivers\STM32L5xx_HAL_Driver\Src\stm32l5xx_hal_tim_ex.c:472:3
	tst	r1, r2
	bne	.LBB7_3
.Ltmp84:
@ %bb.1:
	@DEBUG_VALUE: HAL_TIMEx_HallSensor_Stop_IT:htim <- $r4
	.loc	7 472 3                         @ c:/Keil_v5\ARM\PACK\Keil\STM32L5xx_DFP\1.3.0\Drivers\STM32L5xx_HAL_Driver\Src\stm32l5xx_hal_tim_ex.c:472:3
	ldr	r1, [r0, #32]
	movw	r2, #1092
.Ltmp85:
	.loc	7 472 3                         @ c:/Keil_v5\ARM\PACK\Keil\STM32L5xx_DFP\1.3.0\Drivers\STM32L5xx_HAL_Driver\Src\stm32l5xx_hal_tim_ex.c:472:3
	tst	r1, r2
	bne	.LBB7_3
.Ltmp86:
@ %bb.2:
	@DEBUG_VALUE: HAL_TIMEx_HallSensor_Stop_IT:htim <- $r4
	.loc	7 472 3                         @ c:/Keil_v5\ARM\PACK\Keil\STM32L5xx_DFP\1.3.0\Drivers\STM32L5xx_HAL_Driver\Src\stm32l5xx_hal_tim_ex.c:472:3
	ldr	r1, [r0]
	bic	r1, r1, #1
	str	r1, [r0]
.Ltmp87:
.LBB7_3:
	@DEBUG_VALUE: HAL_TIMEx_HallSensor_Stop_IT:htim <- $r4
	.loc	7 0 3                           @ c:/Keil_v5\ARM\PACK\Keil\STM32L5xx_DFP\1.3.0\Drivers\STM32L5xx_HAL_Driver\Src\stm32l5xx_hal_tim_ex.c:0:3
	movs	r1, #1
	.loc	7 481 3 is_stmt 1               @ c:/Keil_v5\ARM\PACK\Keil\STM32L5xx_DFP\1.3.0\Drivers\STM32L5xx_HAL_Driver\Src\stm32l5xx_hal_tim_ex.c:481:3
	movs	r0, #0
	.loc	7 475 3                         @ c:/Keil_v5\ARM\PACK\Keil\STM32L5xx_DFP\1.3.0\Drivers\STM32L5xx_HAL_Driver\Src\stm32l5xx_hal_tim_ex.c:475:3
	strb.w	r1, [r4, #62]
	.loc	7 476 3                         @ c:/Keil_v5\ARM\PACK\Keil\STM32L5xx_DFP\1.3.0\Drivers\STM32L5xx_HAL_Driver\Src\stm32l5xx_hal_tim_ex.c:476:3
	strb.w	r1, [r4, #63]
	.loc	7 477 3                         @ c:/Keil_v5\ARM\PACK\Keil\STM32L5xx_DFP\1.3.0\Drivers\STM32L5xx_HAL_Driver\Src\stm32l5xx_hal_tim_ex.c:477:3
	strb.w	r1, [r4, #68]
	.loc	7 478 3                         @ c:/Keil_v5\ARM\PACK\Keil\STM32L5xx_DFP\1.3.0\Drivers\STM32L5xx_HAL_Driver\Src\stm32l5xx_hal_tim_ex.c:478:3
	strb.w	r1, [r4, #69]
	.loc	7 481 3                         @ c:/Keil_v5\ARM\PACK\Keil\STM32L5xx_DFP\1.3.0\Drivers\STM32L5xx_HAL_Driver\Src\stm32l5xx_hal_tim_ex.c:481:3
	pop	{r4, pc}
.Ltmp88:
.Lfunc_end7:
	.size	HAL_TIMEx_HallSensor_Stop_IT, .Lfunc_end7-HAL_TIMEx_HallSensor_Stop_IT
	.cfi_endproc
	.cantunwind
	.fnend
                                        @ -- End function
	.section	.text.HAL_TIMEx_HallSensor_Start_DMA,"ax",%progbits
	.hidden	HAL_TIMEx_HallSensor_Start_DMA  @ -- Begin function HAL_TIMEx_HallSensor_Start_DMA
	.globl	HAL_TIMEx_HallSensor_Start_DMA
	.p2align	2
	.type	HAL_TIMEx_HallSensor_Start_DMA,%function
	.code	16                              @ @HAL_TIMEx_HallSensor_Start_DMA
	.thumb_func
HAL_TIMEx_HallSensor_Start_DMA:
.Lfunc_begin8:
	.loc	7 492 0                         @ c:/Keil_v5\ARM\PACK\Keil\STM32L5xx_DFP\1.3.0\Drivers\STM32L5xx_HAL_Driver\Src\stm32l5xx_hal_tim_ex.c:492:0
	.fnstart
	.cfi_startproc
@ %bb.0:
	@DEBUG_VALUE: HAL_TIMEx_HallSensor_Start_DMA:htim <- $r0
	@DEBUG_VALUE: HAL_TIMEx_HallSensor_Start_DMA:pData <- $r1
	@DEBUG_VALUE: HAL_TIMEx_HallSensor_Start_DMA:Length <- $r2
	.save	{r4, r5, r6, r7, lr}
	push	{r4, r5, r6, r7, lr}
	.cfi_def_cfa_offset 20
	.cfi_offset lr, -4
	.cfi_offset r7, -8
	.cfi_offset r6, -12
	.cfi_offset r5, -16
	.cfi_offset r4, -20
	.pad	#4
	sub	sp, #4
	.cfi_def_cfa_offset 24
	mov	r7, r1
.Ltmp89:
	@DEBUG_VALUE: HAL_TIMEx_HallSensor_Start_DMA:pData <- $r7
	.loc	7 494 49 prologue_end           @ c:/Keil_v5\ARM\PACK\Keil\STM32L5xx_DFP\1.3.0\Drivers\STM32L5xx_HAL_Driver\Src\stm32l5xx_hal_tim_ex.c:494:49
	ldrb.w	r1, [r0, #62]
.Ltmp90:
	@DEBUG_VALUE: HAL_TIMEx_HallSensor_Start_DMA:channel_1_state <- $r1
	.loc	7 0 49 is_stmt 0                @ c:/Keil_v5\ARM\PACK\Keil\STM32L5xx_DFP\1.3.0\Drivers\STM32L5xx_HAL_Driver\Src\stm32l5xx_hal_tim_ex.c:0:49
	mov	r4, r0
	@DEBUG_VALUE: HAL_TIMEx_HallSensor_Start_DMA:Length <- $r2
	@DEBUG_VALUE: HAL_TIMEx_HallSensor_Start_DMA:pData <- $r7
.Ltmp91:
	@DEBUG_VALUE: HAL_TIMEx_HallSensor_Start_DMA:htim <- $r4
	.loc	7 495 63 is_stmt 1              @ c:/Keil_v5\ARM\PACK\Keil\STM32L5xx_DFP\1.3.0\Drivers\STM32L5xx_HAL_Driver\Src\stm32l5xx_hal_tim_ex.c:495:63
	ldrb.w	r0, [r0, #68]
.Ltmp92:
	.loc	7 502 5                         @ c:/Keil_v5\ARM\PACK\Keil\STM32L5xx_DFP\1.3.0\Drivers\STM32L5xx_HAL_Driver\Src\stm32l5xx_hal_tim_ex.c:502:5
	cmp	r1, #2
	mov.w	r5, #2
.Ltmp93:
	@DEBUG_VALUE: HAL_TIMEx_HallSensor_Start_DMA:complementary_channel_1_state <- undef
	@DEBUG_VALUE: HAL_TIMEx_HallSensor_Start_DMA:Length <- $r2
	@DEBUG_VALUE: HAL_TIMEx_HallSensor_Start_DMA:Length <- $r2
	it	ne
	cmpne	r0, #2
	beq	.LBB8_2
.Ltmp94:
@ %bb.1:
	@DEBUG_VALUE: HAL_TIMEx_HallSensor_Start_DMA:pData <- $r7
	@DEBUG_VALUE: HAL_TIMEx_HallSensor_Start_DMA:htim <- $r4
	@DEBUG_VALUE: HAL_TIMEx_HallSensor_Start_DMA:Length <- $r2
	@DEBUG_VALUE: HAL_TIMEx_HallSensor_Start_DMA:channel_1_state <- $r1
	@DEBUG_VALUE: HAL_TIMEx_HallSensor_Start_DMA:Length <- $r2
	@DEBUG_VALUE: HAL_TIMEx_HallSensor_Start_DMA:Length <- $r2
	@DEBUG_VALUE: HAL_TIMEx_HallSensor_Start_DMA:Length <- $r2
	.loc	7 507 9                         @ c:/Keil_v5\ARM\PACK\Keil\STM32L5xx_DFP\1.3.0\Drivers\STM32L5xx_HAL_Driver\Src\stm32l5xx_hal_tim_ex.c:507:9
	cmp	r1, #1
	mov.w	r5, #1
	@DEBUG_VALUE: HAL_TIMEx_HallSensor_Start_DMA:Length <- $r2
	@DEBUG_VALUE: HAL_TIMEx_HallSensor_Start_DMA:Length <- $r2
	@DEBUG_VALUE: HAL_TIMEx_HallSensor_Start_DMA:Length <- $r2
	@DEBUG_VALUE: HAL_TIMEx_HallSensor_Start_DMA:Length <- $r2
	it	eq
	cmpeq	r0, #1
	beq	.LBB8_3
.Ltmp95:
.LBB8_2:
	@DEBUG_VALUE: HAL_TIMEx_HallSensor_Start_DMA:pData <- $r7
	@DEBUG_VALUE: HAL_TIMEx_HallSensor_Start_DMA:htim <- $r4
	.loc	7 558 1                         @ c:/Keil_v5\ARM\PACK\Keil\STM32L5xx_DFP\1.3.0\Drivers\STM32L5xx_HAL_Driver\Src\stm32l5xx_hal_tim_ex.c:558:1
	mov	r0, r5
	add	sp, #4
	pop	{r4, r5, r6, r7, pc}
.Ltmp96:
	.p2align	2
.LBB8_3:
	@DEBUG_VALUE: HAL_TIMEx_HallSensor_Start_DMA:pData <- $r7
	@DEBUG_VALUE: HAL_TIMEx_HallSensor_Start_DMA:htim <- $r4
	@DEBUG_VALUE: HAL_TIMEx_HallSensor_Start_DMA:Length <- $r2
	@DEBUG_VALUE: HAL_TIMEx_HallSensor_Start_DMA:channel_1_state <- $r1
	.loc	7 0 1 is_stmt 0                 @ c:/Keil_v5\ARM\PACK\Keil\STM32L5xx_DFP\1.3.0\Drivers\STM32L5xx_HAL_Driver\Src\stm32l5xx_hal_tim_ex.c:0:1
	mov	r6, r2
.Ltmp97:
	@DEBUG_VALUE: HAL_TIMEx_HallSensor_Start_DMA:Length <- $r6
	@DEBUG_VALUE: HAL_TIMEx_HallSensor_Start_DMA:Length <- $r6
	@DEBUG_VALUE: HAL_TIMEx_HallSensor_Start_DMA:Length <- $r6
	@DEBUG_VALUE: HAL_TIMEx_HallSensor_Start_DMA:Length <- $r6
	@DEBUG_VALUE: HAL_TIMEx_HallSensor_Start_DMA:Length <- $r6
	@DEBUG_VALUE: HAL_TIMEx_HallSensor_Start_DMA:Length <- $r6
	.loc	7 509 25 is_stmt 1              @ c:/Keil_v5\ARM\PACK\Keil\STM32L5xx_DFP\1.3.0\Drivers\STM32L5xx_HAL_Driver\Src\stm32l5xx_hal_tim_ex.c:509:25
	cbnz	r7, .LBB8_6
.Ltmp98:
@ %bb.4:
	@DEBUG_VALUE: HAL_TIMEx_HallSensor_Start_DMA:pData <- $r7
	@DEBUG_VALUE: HAL_TIMEx_HallSensor_Start_DMA:Length <- $r6
	@DEBUG_VALUE: HAL_TIMEx_HallSensor_Start_DMA:htim <- $r4
	@DEBUG_VALUE: HAL_TIMEx_HallSensor_Start_DMA:channel_1_state <- $r1
	cbz	r6, .LBB8_6
.Ltmp99:
@ %bb.5:
	@DEBUG_VALUE: HAL_TIMEx_HallSensor_Start_DMA:pData <- $r7
	@DEBUG_VALUE: HAL_TIMEx_HallSensor_Start_DMA:Length <- $r6
	@DEBUG_VALUE: HAL_TIMEx_HallSensor_Start_DMA:htim <- $r4
	@DEBUG_VALUE: HAL_TIMEx_HallSensor_Start_DMA:channel_1_state <- $r1
	.loc	7 0 25 is_stmt 0                @ c:/Keil_v5\ARM\PACK\Keil\STM32L5xx_DFP\1.3.0\Drivers\STM32L5xx_HAL_Driver\Src\stm32l5xx_hal_tim_ex.c:0:25
	movs	r5, #1
	.loc	7 558 1 is_stmt 1               @ c:/Keil_v5\ARM\PACK\Keil\STM32L5xx_DFP\1.3.0\Drivers\STM32L5xx_HAL_Driver\Src\stm32l5xx_hal_tim_ex.c:558:1
	mov	r0, r5
	add	sp, #4
	pop	{r4, r5, r6, r7, pc}
.Ltmp100:
	.p2align	2
.LBB8_6:
	@DEBUG_VALUE: HAL_TIMEx_HallSensor_Start_DMA:pData <- $r7
	@DEBUG_VALUE: HAL_TIMEx_HallSensor_Start_DMA:Length <- $r6
	@DEBUG_VALUE: HAL_TIMEx_HallSensor_Start_DMA:htim <- $r4
	@DEBUG_VALUE: HAL_TIMEx_HallSensor_Start_DMA:channel_1_state <- $r1
	@DEBUG_VALUE: HAL_TIMEx_HallSensor_Start_DMA:Length <- $r6
	.loc	7 0 1 is_stmt 0                 @ c:/Keil_v5\ARM\PACK\Keil\STM32L5xx_DFP\1.3.0\Drivers\STM32L5xx_HAL_Driver\Src\stm32l5xx_hal_tim_ex.c:0:1
	movs	r0, #2
.Ltmp101:
	.loc	7 515 7 is_stmt 1               @ c:/Keil_v5\ARM\PACK\Keil\STM32L5xx_DFP\1.3.0\Drivers\STM32L5xx_HAL_Driver\Src\stm32l5xx_hal_tim_ex.c:515:7
	strb.w	r0, [r4, #62]
	.loc	7 516 7                         @ c:/Keil_v5\ARM\PACK\Keil\STM32L5xx_DFP\1.3.0\Drivers\STM32L5xx_HAL_Driver\Src\stm32l5xx_hal_tim_ex.c:516:7
	strb.w	r0, [r4, #68]
.Ltmp102:
	.loc	7 526 27                        @ c:/Keil_v5\ARM\PACK\Keil\STM32L5xx_DFP\1.3.0\Drivers\STM32L5xx_HAL_Driver\Src\stm32l5xx_hal_tim_ex.c:526:27
	ldr	r0, [r4]
	.loc	7 526 3 is_stmt 0               @ c:/Keil_v5\ARM\PACK\Keil\STM32L5xx_DFP\1.3.0\Drivers\STM32L5xx_HAL_Driver\Src\stm32l5xx_hal_tim_ex.c:526:3
	movs	r1, #0
.Ltmp103:
	movs	r2, #1
	movs	r5, #1
	bl	TIM_CCxChannelCmd
	.loc	7 529 3 is_stmt 1               @ c:/Keil_v5\ARM\PACK\Keil\STM32L5xx_DFP\1.3.0\Drivers\STM32L5xx_HAL_Driver\Src\stm32l5xx_hal_tim_ex.c:529:3
	ldr	r0, [r4, #36]
	.loc	7 529 48 is_stmt 0              @ c:/Keil_v5\ARM\PACK\Keil\STM32L5xx_DFP\1.3.0\Drivers\STM32L5xx_HAL_Driver\Src\stm32l5xx_hal_tim_ex.c:529:48
	movw	r1, :lower16:TIM_DMACaptureCplt
	movt	r1, :upper16:TIM_DMACaptureCplt
	str	r1, [r0, #44]
	.loc	7 530 3 is_stmt 1               @ c:/Keil_v5\ARM\PACK\Keil\STM32L5xx_DFP\1.3.0\Drivers\STM32L5xx_HAL_Driver\Src\stm32l5xx_hal_tim_ex.c:530:3
	ldr	r0, [r4, #36]
	.loc	7 530 52 is_stmt 0              @ c:/Keil_v5\ARM\PACK\Keil\STM32L5xx_DFP\1.3.0\Drivers\STM32L5xx_HAL_Driver\Src\stm32l5xx_hal_tim_ex.c:530:52
	movw	r1, :lower16:TIM_DMACaptureHalfCplt
	movt	r1, :upper16:TIM_DMACaptureHalfCplt
	str	r1, [r0, #48]
	.loc	7 532 3 is_stmt 1               @ c:/Keil_v5\ARM\PACK\Keil\STM32L5xx_DFP\1.3.0\Drivers\STM32L5xx_HAL_Driver\Src\stm32l5xx_hal_tim_ex.c:532:3
	ldr	r0, [r4, #36]
	.loc	7 532 49 is_stmt 0              @ c:/Keil_v5\ARM\PACK\Keil\STM32L5xx_DFP\1.3.0\Drivers\STM32L5xx_HAL_Driver\Src\stm32l5xx_hal_tim_ex.c:532:49
	movw	r2, :lower16:TIM_DMAError
	movt	r2, :upper16:TIM_DMAError
.Ltmp104:
	.loc	7 535 69 is_stmt 1              @ c:/Keil_v5\ARM\PACK\Keil\STM32L5xx_DFP\1.3.0\Drivers\STM32L5xx_HAL_Driver\Src\stm32l5xx_hal_tim_ex.c:535:69
	ldr	r1, [r4]
.Ltmp105:
	.loc	7 532 49                        @ c:/Keil_v5\ARM\PACK\Keil\STM32L5xx_DFP\1.3.0\Drivers\STM32L5xx_HAL_Driver\Src\stm32l5xx_hal_tim_ex.c:532:49
	str	r2, [r0, #60]
.Ltmp106:
	.loc	7 535 24                        @ c:/Keil_v5\ARM\PACK\Keil\STM32L5xx_DFP\1.3.0\Drivers\STM32L5xx_HAL_Driver\Src\stm32l5xx_hal_tim_ex.c:535:24
	ldr	r0, [r4, #36]
	.loc	7 535 79 is_stmt 0              @ c:/Keil_v5\ARM\PACK\Keil\STM32L5xx_DFP\1.3.0\Drivers\STM32L5xx_HAL_Driver\Src\stm32l5xx_hal_tim_ex.c:535:79
	adds	r1, #52
	.loc	7 535 7                         @ c:/Keil_v5\ARM\PACK\Keil\STM32L5xx_DFP\1.3.0\Drivers\STM32L5xx_HAL_Driver\Src\stm32l5xx_hal_tim_ex.c:535:7
	mov	r2, r7
	mov	r3, r6
	bl	HAL_DMA_Start_IT
.Ltmp107:
	.loc	7 535 7                         @ c:/Keil_v5\ARM\PACK\Keil\STM32L5xx_DFP\1.3.0\Drivers\STM32L5xx_HAL_Driver\Src\stm32l5xx_hal_tim_ex.c:535:7
	cmp	r0, #0
	bne	.LBB8_2
.Ltmp108:
@ %bb.7:
	@DEBUG_VALUE: HAL_TIMEx_HallSensor_Start_DMA:pData <- $r7
	@DEBUG_VALUE: HAL_TIMEx_HallSensor_Start_DMA:Length <- $r6
	@DEBUG_VALUE: HAL_TIMEx_HallSensor_Start_DMA:htim <- $r4
	.loc	7 540 3 is_stmt 1               @ c:/Keil_v5\ARM\PACK\Keil\STM32L5xx_DFP\1.3.0\Drivers\STM32L5xx_HAL_Driver\Src\stm32l5xx_hal_tim_ex.c:540:3
	ldr	r0, [r4]
	movw	r2, #3071
	ldr	r1, [r0, #12]
	movt	r2, #16384
	orr	r1, r1, #512
.Ltmp109:
	.loc	7 543 7                         @ c:/Keil_v5\ARM\PACK\Keil\STM32L5xx_DFP\1.3.0\Drivers\STM32L5xx_HAL_Driver\Src\stm32l5xx_hal_tim_ex.c:543:7
	cmp	r0, r2
.Ltmp110:
	.loc	7 540 3                         @ c:/Keil_v5\ARM\PACK\Keil\STM32L5xx_DFP\1.3.0\Drivers\STM32L5xx_HAL_Driver\Src\stm32l5xx_hal_tim_ex.c:540:3
	str	r1, [r0, #12]
.Ltmp111:
	.loc	7 543 7                         @ c:/Keil_v5\ARM\PACK\Keil\STM32L5xx_DFP\1.3.0\Drivers\STM32L5xx_HAL_Driver\Src\stm32l5xx_hal_tim_ex.c:543:7
	ble	.LBB8_11
.Ltmp112:
@ %bb.8:
	@DEBUG_VALUE: HAL_TIMEx_HallSensor_Start_DMA:pData <- $r7
	@DEBUG_VALUE: HAL_TIMEx_HallSensor_Start_DMA:Length <- $r6
	@DEBUG_VALUE: HAL_TIMEx_HallSensor_Start_DMA:htim <- $r4
	.loc	7 0 7 is_stmt 0                 @ c:/Keil_v5\ARM\PACK\Keil\STM32L5xx_DFP\1.3.0\Drivers\STM32L5xx_HAL_Driver\Src\stm32l5xx_hal_tim_ex.c:0:7
	movw	r1, #13311
	movt	r1, #16385
	.loc	7 543 7                         @ c:/Keil_v5\ARM\PACK\Keil\STM32L5xx_DFP\1.3.0\Drivers\STM32L5xx_HAL_Driver\Src\stm32l5xx_hal_tim_ex.c:543:7
	cmp	r0, r1
	bgt	.LBB8_14
.Ltmp113:
@ %bb.9:
	@DEBUG_VALUE: HAL_TIMEx_HallSensor_Start_DMA:pData <- $r7
	@DEBUG_VALUE: HAL_TIMEx_HallSensor_Start_DMA:Length <- $r6
	@DEBUG_VALUE: HAL_TIMEx_HallSensor_Start_DMA:htim <- $r4
	.loc	7 0 7                           @ c:/Keil_v5\ARM\PACK\Keil\STM32L5xx_DFP\1.3.0\Drivers\STM32L5xx_HAL_Driver\Src\stm32l5xx_hal_tim_ex.c:0:7
	movw	r1, #3072
	movt	r1, #16384
	.loc	7 543 7                         @ c:/Keil_v5\ARM\PACK\Keil\STM32L5xx_DFP\1.3.0\Drivers\STM32L5xx_HAL_Driver\Src\stm32l5xx_hal_tim_ex.c:543:7
	cmp	r0, r1
	beq	.LBB8_18
.Ltmp114:
@ %bb.10:
	@DEBUG_VALUE: HAL_TIMEx_HallSensor_Start_DMA:pData <- $r7
	@DEBUG_VALUE: HAL_TIMEx_HallSensor_Start_DMA:Length <- $r6
	@DEBUG_VALUE: HAL_TIMEx_HallSensor_Start_DMA:htim <- $r4
	.loc	7 0 7                           @ c:/Keil_v5\ARM\PACK\Keil\STM32L5xx_DFP\1.3.0\Drivers\STM32L5xx_HAL_Driver\Src\stm32l5xx_hal_tim_ex.c:0:7
	movw	r1, #11264
	b	.LBB8_16
.Ltmp115:
	.p2align	2
.LBB8_11:
	@DEBUG_VALUE: HAL_TIMEx_HallSensor_Start_DMA:pData <- $r7
	@DEBUG_VALUE: HAL_TIMEx_HallSensor_Start_DMA:Length <- $r6
	@DEBUG_VALUE: HAL_TIMEx_HallSensor_Start_DMA:htim <- $r4
	.loc	7 543 7                         @ c:/Keil_v5\ARM\PACK\Keil\STM32L5xx_DFP\1.3.0\Drivers\STM32L5xx_HAL_Driver\Src\stm32l5xx_hal_tim_ex.c:543:7
	cmp.w	r0, #1073741824
	beq	.LBB8_18
.Ltmp116:
@ %bb.12:
	@DEBUG_VALUE: HAL_TIMEx_HallSensor_Start_DMA:pData <- $r7
	@DEBUG_VALUE: HAL_TIMEx_HallSensor_Start_DMA:Length <- $r6
	@DEBUG_VALUE: HAL_TIMEx_HallSensor_Start_DMA:htim <- $r4
	.loc	7 0 7                           @ c:/Keil_v5\ARM\PACK\Keil\STM32L5xx_DFP\1.3.0\Drivers\STM32L5xx_HAL_Driver\Src\stm32l5xx_hal_tim_ex.c:0:7
	movw	r1, #1024
	movt	r1, #16384
	.loc	7 543 7                         @ c:/Keil_v5\ARM\PACK\Keil\STM32L5xx_DFP\1.3.0\Drivers\STM32L5xx_HAL_Driver\Src\stm32l5xx_hal_tim_ex.c:543:7
	cmp	r0, r1
	beq	.LBB8_18
.Ltmp117:
@ %bb.13:
	@DEBUG_VALUE: HAL_TIMEx_HallSensor_Start_DMA:pData <- $r7
	@DEBUG_VALUE: HAL_TIMEx_HallSensor_Start_DMA:Length <- $r6
	@DEBUG_VALUE: HAL_TIMEx_HallSensor_Start_DMA:htim <- $r4
	.loc	7 0 7                           @ c:/Keil_v5\ARM\PACK\Keil\STM32L5xx_DFP\1.3.0\Drivers\STM32L5xx_HAL_Driver\Src\stm32l5xx_hal_tim_ex.c:0:7
	movw	r1, #2048
	movt	r1, #16384
	b	.LBB8_17
.Ltmp118:
	.p2align	2
.LBB8_14:
	@DEBUG_VALUE: HAL_TIMEx_HallSensor_Start_DMA:pData <- $r7
	@DEBUG_VALUE: HAL_TIMEx_HallSensor_Start_DMA:Length <- $r6
	@DEBUG_VALUE: HAL_TIMEx_HallSensor_Start_DMA:htim <- $r4
	movw	r1, #16384
	movt	r1, #16385
	.loc	7 543 7                         @ c:/Keil_v5\ARM\PACK\Keil\STM32L5xx_DFP\1.3.0\Drivers\STM32L5xx_HAL_Driver\Src\stm32l5xx_hal_tim_ex.c:543:7
	cmp	r0, r1
	beq	.LBB8_18
.Ltmp119:
@ %bb.15:
	@DEBUG_VALUE: HAL_TIMEx_HallSensor_Start_DMA:pData <- $r7
	@DEBUG_VALUE: HAL_TIMEx_HallSensor_Start_DMA:Length <- $r6
	@DEBUG_VALUE: HAL_TIMEx_HallSensor_Start_DMA:htim <- $r4
	.loc	7 0 7                           @ c:/Keil_v5\ARM\PACK\Keil\STM32L5xx_DFP\1.3.0\Drivers\STM32L5xx_HAL_Driver\Src\stm32l5xx_hal_tim_ex.c:0:7
	movw	r1, #13312
.Ltmp120:
.LBB8_16:
	@DEBUG_VALUE: HAL_TIMEx_HallSensor_Start_DMA:pData <- $r7
	@DEBUG_VALUE: HAL_TIMEx_HallSensor_Start_DMA:Length <- $r6
	@DEBUG_VALUE: HAL_TIMEx_HallSensor_Start_DMA:htim <- $r4
	movt	r1, #16385
.Ltmp121:
.LBB8_17:
	@DEBUG_VALUE: HAL_TIMEx_HallSensor_Start_DMA:pData <- $r7
	@DEBUG_VALUE: HAL_TIMEx_HallSensor_Start_DMA:Length <- $r6
	@DEBUG_VALUE: HAL_TIMEx_HallSensor_Start_DMA:htim <- $r4
	.loc	7 543 7                         @ c:/Keil_v5\ARM\PACK\Keil\STM32L5xx_DFP\1.3.0\Drivers\STM32L5xx_HAL_Driver\Src\stm32l5xx_hal_tim_ex.c:543:7
	cmp	r0, r1
	bne	.LBB8_19
.Ltmp122:
.LBB8_18:
	@DEBUG_VALUE: HAL_TIMEx_HallSensor_Start_DMA:pData <- $r7
	@DEBUG_VALUE: HAL_TIMEx_HallSensor_Start_DMA:Length <- $r6
	@DEBUG_VALUE: HAL_TIMEx_HallSensor_Start_DMA:htim <- $r4
	.loc	7 545 31 is_stmt 1              @ c:/Keil_v5\ARM\PACK\Keil\STM32L5xx_DFP\1.3.0\Drivers\STM32L5xx_HAL_Driver\Src\stm32l5xx_hal_tim_ex.c:545:31
	ldr	r1, [r0, #8]
	movs	r2, #7
	movt	r2, #1
	.loc	7 545 36 is_stmt 0              @ c:/Keil_v5\ARM\PACK\Keil\STM32L5xx_DFP\1.3.0\Drivers\STM32L5xx_HAL_Driver\Src\stm32l5xx_hal_tim_ex.c:545:36
	ands	r1, r2
.Ltmp123:
	@DEBUG_VALUE: HAL_TIMEx_HallSensor_Start_DMA:tmpsmcr <- $r1
	.loc	7 546 10 is_stmt 1              @ c:/Keil_v5\ARM\PACK\Keil\STM32L5xx_DFP\1.3.0\Drivers\STM32L5xx_HAL_Driver\Src\stm32l5xx_hal_tim_ex.c:546:10
	cmp	r1, #6
	mov.w	r5, #0
	it	ne
	cmpne.w	r1, #65536
	beq.w	.LBB8_2
.Ltmp124:
.LBB8_19:
	@DEBUG_VALUE: HAL_TIMEx_HallSensor_Start_DMA:pData <- $r7
	@DEBUG_VALUE: HAL_TIMEx_HallSensor_Start_DMA:Length <- $r6
	@DEBUG_VALUE: HAL_TIMEx_HallSensor_Start_DMA:htim <- $r4
	.loc	7 0 0 is_stmt 0                 @ c:/Keil_v5\ARM\PACK\Keil\STM32L5xx_DFP\1.3.0\Drivers\STM32L5xx_HAL_Driver\Src\stm32l5xx_hal_tim_ex.c:0:0
	ldr	r1, [r0]
	movs	r5, #0
	orr	r1, r1, #1
	str	r1, [r0]
.Ltmp125:
	.loc	7 558 1 is_stmt 1               @ c:/Keil_v5\ARM\PACK\Keil\STM32L5xx_DFP\1.3.0\Drivers\STM32L5xx_HAL_Driver\Src\stm32l5xx_hal_tim_ex.c:558:1
	mov	r0, r5
	add	sp, #4
	pop	{r4, r5, r6, r7, pc}
.Ltmp126:
.Lfunc_end8:
	.size	HAL_TIMEx_HallSensor_Start_DMA, .Lfunc_end8-HAL_TIMEx_HallSensor_Start_DMA
	.cfi_endproc
	.cantunwind
	.fnend
                                        @ -- End function
	.section	.text.HAL_TIMEx_HallSensor_Stop_DMA,"ax",%progbits
	.hidden	HAL_TIMEx_HallSensor_Stop_DMA   @ -- Begin function HAL_TIMEx_HallSensor_Stop_DMA
	.globl	HAL_TIMEx_HallSensor_Stop_DMA
	.p2align	2
	.type	HAL_TIMEx_HallSensor_Stop_DMA,%function
	.code	16                              @ @HAL_TIMEx_HallSensor_Stop_DMA
	.thumb_func
HAL_TIMEx_HallSensor_Stop_DMA:
.Lfunc_begin9:
	.loc	7 566 0                         @ c:/Keil_v5\ARM\PACK\Keil\STM32L5xx_DFP\1.3.0\Drivers\STM32L5xx_HAL_Driver\Src\stm32l5xx_hal_tim_ex.c:566:0
	.fnstart
	.cfi_startproc
@ %bb.0:
	@DEBUG_VALUE: HAL_TIMEx_HallSensor_Stop_DMA:htim <- $r0
	.save	{r4, lr}
	push	{r4, lr}
	.cfi_def_cfa_offset 8
	.cfi_offset lr, -4
	.cfi_offset r4, -8
	mov	r4, r0
.Ltmp127:
	@DEBUG_VALUE: HAL_TIMEx_HallSensor_Stop_DMA:htim <- $r4
	.loc	7 572 27 prologue_end           @ c:/Keil_v5\ARM\PACK\Keil\STM32L5xx_DFP\1.3.0\Drivers\STM32L5xx_HAL_Driver\Src\stm32l5xx_hal_tim_ex.c:572:27
	ldr	r0, [r0]
	.loc	7 572 3 is_stmt 0               @ c:/Keil_v5\ARM\PACK\Keil\STM32L5xx_DFP\1.3.0\Drivers\STM32L5xx_HAL_Driver\Src\stm32l5xx_hal_tim_ex.c:572:3
	movs	r1, #0
	movs	r2, #0
	bl	TIM_CCxChannelCmd
	.loc	7 576 3 is_stmt 1               @ c:/Keil_v5\ARM\PACK\Keil\STM32L5xx_DFP\1.3.0\Drivers\STM32L5xx_HAL_Driver\Src\stm32l5xx_hal_tim_ex.c:576:3
	ldr	r1, [r4]
	.loc	7 578 26                        @ c:/Keil_v5\ARM\PACK\Keil\STM32L5xx_DFP\1.3.0\Drivers\STM32L5xx_HAL_Driver\Src\stm32l5xx_hal_tim_ex.c:578:26
	ldr	r0, [r4, #36]
	.loc	7 576 3                         @ c:/Keil_v5\ARM\PACK\Keil\STM32L5xx_DFP\1.3.0\Drivers\STM32L5xx_HAL_Driver\Src\stm32l5xx_hal_tim_ex.c:576:3
	ldr	r2, [r1, #12]
	bic	r2, r2, #512
	str	r2, [r1, #12]
	.loc	7 578 9                         @ c:/Keil_v5\ARM\PACK\Keil\STM32L5xx_DFP\1.3.0\Drivers\STM32L5xx_HAL_Driver\Src\stm32l5xx_hal_tim_ex.c:578:9
	bl	HAL_DMA_Abort_IT
.Ltmp128:
	.loc	7 581 3                         @ c:/Keil_v5\ARM\PACK\Keil\STM32L5xx_DFP\1.3.0\Drivers\STM32L5xx_HAL_Driver\Src\stm32l5xx_hal_tim_ex.c:581:3
	ldr	r0, [r4]
	movw	r2, #4369
	ldr	r1, [r0, #32]
.Ltmp129:
	.loc	7 581 3 is_stmt 0               @ c:/Keil_v5\ARM\PACK\Keil\STM32L5xx_DFP\1.3.0\Drivers\STM32L5xx_HAL_Driver\Src\stm32l5xx_hal_tim_ex.c:581:3
	tst	r1, r2
	bne	.LBB9_3
.Ltmp130:
@ %bb.1:
	@DEBUG_VALUE: HAL_TIMEx_HallSensor_Stop_DMA:htim <- $r4
	.loc	7 581 3                         @ c:/Keil_v5\ARM\PACK\Keil\STM32L5xx_DFP\1.3.0\Drivers\STM32L5xx_HAL_Driver\Src\stm32l5xx_hal_tim_ex.c:581:3
	ldr	r1, [r0, #32]
	movw	r2, #1092
.Ltmp131:
	.loc	7 581 3                         @ c:/Keil_v5\ARM\PACK\Keil\STM32L5xx_DFP\1.3.0\Drivers\STM32L5xx_HAL_Driver\Src\stm32l5xx_hal_tim_ex.c:581:3
	tst	r1, r2
	bne	.LBB9_3
.Ltmp132:
@ %bb.2:
	@DEBUG_VALUE: HAL_TIMEx_HallSensor_Stop_DMA:htim <- $r4
	.loc	7 581 3                         @ c:/Keil_v5\ARM\PACK\Keil\STM32L5xx_DFP\1.3.0\Drivers\STM32L5xx_HAL_Driver\Src\stm32l5xx_hal_tim_ex.c:581:3
	ldr	r1, [r0]
	bic	r1, r1, #1
	str	r1, [r0]
.Ltmp133:
.LBB9_3:
	@DEBUG_VALUE: HAL_TIMEx_HallSensor_Stop_DMA:htim <- $r4
	.loc	7 0 3                           @ c:/Keil_v5\ARM\PACK\Keil\STM32L5xx_DFP\1.3.0\Drivers\STM32L5xx_HAL_Driver\Src\stm32l5xx_hal_tim_ex.c:0:3
	movs	r1, #1
	.loc	7 588 3 is_stmt 1               @ c:/Keil_v5\ARM\PACK\Keil\STM32L5xx_DFP\1.3.0\Drivers\STM32L5xx_HAL_Driver\Src\stm32l5xx_hal_tim_ex.c:588:3
	movs	r0, #0
	.loc	7 584 3                         @ c:/Keil_v5\ARM\PACK\Keil\STM32L5xx_DFP\1.3.0\Drivers\STM32L5xx_HAL_Driver\Src\stm32l5xx_hal_tim_ex.c:584:3
	strb.w	r1, [r4, #62]
	.loc	7 585 3                         @ c:/Keil_v5\ARM\PACK\Keil\STM32L5xx_DFP\1.3.0\Drivers\STM32L5xx_HAL_Driver\Src\stm32l5xx_hal_tim_ex.c:585:3
	strb.w	r1, [r4, #68]
	.loc	7 588 3                         @ c:/Keil_v5\ARM\PACK\Keil\STM32L5xx_DFP\1.3.0\Drivers\STM32L5xx_HAL_Driver\Src\stm32l5xx_hal_tim_ex.c:588:3
	pop	{r4, pc}
.Ltmp134:
.Lfunc_end9:
	.size	HAL_TIMEx_HallSensor_Stop_DMA, .Lfunc_end9-HAL_TIMEx_HallSensor_Stop_DMA
	.cfi_endproc
	.cantunwind
	.fnend
                                        @ -- End function
	.section	.text.HAL_TIMEx_OCN_Start,"ax",%progbits
	.hidden	HAL_TIMEx_OCN_Start             @ -- Begin function HAL_TIMEx_OCN_Start
	.globl	HAL_TIMEx_OCN_Start
	.p2align	2
	.type	HAL_TIMEx_OCN_Start,%function
	.code	16                              @ @HAL_TIMEx_OCN_Start
	.thumb_func
HAL_TIMEx_OCN_Start:
.Lfunc_begin10:
	.loc	7 627 0                         @ c:/Keil_v5\ARM\PACK\Keil\STM32L5xx_DFP\1.3.0\Drivers\STM32L5xx_HAL_Driver\Src\stm32l5xx_hal_tim_ex.c:627:0
	.fnstart
	.cfi_startproc
@ %bb.0:
	@DEBUG_VALUE: HAL_TIMEx_OCN_Start:htim <- $r0
	@DEBUG_VALUE: HAL_TIMEx_OCN_Start:Channel <- $r1
	@DEBUG_VALUE: HAL_TIMEx_OCN_Start:Channel <- $r1
	@DEBUG_VALUE: HAL_TIMEx_OCN_Start:htim <- $r0
	.loc	7 634 7 prologue_end            @ c:/Keil_v5\ARM\PACK\Keil\STM32L5xx_DFP\1.3.0\Drivers\STM32L5xx_HAL_Driver\Src\stm32l5xx_hal_tim_ex.c:634:7
	cbz	r1, .LBB10_3
.Ltmp135:
@ %bb.1:
	@DEBUG_VALUE: HAL_TIMEx_OCN_Start:Channel <- $r1
	@DEBUG_VALUE: HAL_TIMEx_OCN_Start:htim <- $r0
	cmp	r1, #8
	beq	.LBB10_5
.Ltmp136:
@ %bb.2:
	@DEBUG_VALUE: HAL_TIMEx_OCN_Start:Channel <- $r1
	@DEBUG_VALUE: HAL_TIMEx_OCN_Start:htim <- $r0
	cmp	r1, #4
	ite	ne
	addne.w	r2, r0, #71
	addeq.w	r2, r0, #69
	b	.LBB10_6
.Ltmp137:
	.p2align	2
.LBB10_3:
	@DEBUG_VALUE: HAL_TIMEx_OCN_Start:Channel <- $r1
	@DEBUG_VALUE: HAL_TIMEx_OCN_Start:htim <- $r0
	ldrb.w	r2, [r0, #68]
.Ltmp138:
	.loc	7 634 7 is_stmt 0               @ c:/Keil_v5\ARM\PACK\Keil\STM32L5xx_DFP\1.3.0\Drivers\STM32L5xx_HAL_Driver\Src\stm32l5xx_hal_tim_ex.c:634:7
	cmp	r2, #1
	itt	ne
	movne	r0, #1
.Ltmp139:
	@DEBUG_VALUE: HAL_TIMEx_OCN_Start:htim <- [DW_OP_LLVM_entry_value 1] $r0
	.loc	7 664 1 is_stmt 1               @ c:/Keil_v5\ARM\PACK\Keil\STM32L5xx_DFP\1.3.0\Drivers\STM32L5xx_HAL_Driver\Src\stm32l5xx_hal_tim_ex.c:664:1
	bxne	lr
.Ltmp140:
.LBB10_4:
	@DEBUG_VALUE: HAL_TIMEx_OCN_Start:Channel <- $r1
	@DEBUG_VALUE: HAL_TIMEx_OCN_Start:htim <- [DW_OP_LLVM_entry_value 1] $r0
	.loc	7 0 1 is_stmt 0                 @ c:/Keil_v5\ARM\PACK\Keil\STM32L5xx_DFP\1.3.0\Drivers\STM32L5xx_HAL_Driver\Src\stm32l5xx_hal_tim_ex.c:0:1
	movs	r2, #2
	.loc	7 640 3 is_stmt 1               @ c:/Keil_v5\ARM\PACK\Keil\STM32L5xx_DFP\1.3.0\Drivers\STM32L5xx_HAL_Driver\Src\stm32l5xx_hal_tim_ex.c:640:3
	strb.w	r2, [r0, #68]
	b	.LBB10_10
.Ltmp141:
	.p2align	2
.LBB10_5:
	@DEBUG_VALUE: HAL_TIMEx_OCN_Start:Channel <- $r1
	@DEBUG_VALUE: HAL_TIMEx_OCN_Start:htim <- $r0
	.loc	7 634 7                         @ c:/Keil_v5\ARM\PACK\Keil\STM32L5xx_DFP\1.3.0\Drivers\STM32L5xx_HAL_Driver\Src\stm32l5xx_hal_tim_ex.c:634:7
	add.w	r2, r0, #70
.Ltmp142:
.LBB10_6:
	@DEBUG_VALUE: HAL_TIMEx_OCN_Start:Channel <- $r1
	@DEBUG_VALUE: HAL_TIMEx_OCN_Start:htim <- $r0
	ldrb	r2, [r2]
.Ltmp143:
	.loc	7 634 7 is_stmt 0               @ c:/Keil_v5\ARM\PACK\Keil\STM32L5xx_DFP\1.3.0\Drivers\STM32L5xx_HAL_Driver\Src\stm32l5xx_hal_tim_ex.c:634:7
	cmp	r2, #1
	itt	ne
	movne	r0, #1
.Ltmp144:
	@DEBUG_VALUE: HAL_TIMEx_OCN_Start:htim <- [DW_OP_LLVM_entry_value 1] $r0
	.loc	7 664 1 is_stmt 1               @ c:/Keil_v5\ARM\PACK\Keil\STM32L5xx_DFP\1.3.0\Drivers\STM32L5xx_HAL_Driver\Src\stm32l5xx_hal_tim_ex.c:664:1
	bxne	lr
.Ltmp145:
.LBB10_7:
	@DEBUG_VALUE: HAL_TIMEx_OCN_Start:Channel <- $r1
	@DEBUG_VALUE: HAL_TIMEx_OCN_Start:htim <- [DW_OP_LLVM_entry_value 1] $r0
	.loc	7 0 1 is_stmt 0                 @ c:/Keil_v5\ARM\PACK\Keil\STM32L5xx_DFP\1.3.0\Drivers\STM32L5xx_HAL_Driver\Src\stm32l5xx_hal_tim_ex.c:0:1
	movs	r2, #2
	.loc	7 640 3 is_stmt 1               @ c:/Keil_v5\ARM\PACK\Keil\STM32L5xx_DFP\1.3.0\Drivers\STM32L5xx_HAL_Driver\Src\stm32l5xx_hal_tim_ex.c:640:3
	cmp	r1, #8
	beq	.LBB10_9
.Ltmp146:
@ %bb.8:
	@DEBUG_VALUE: HAL_TIMEx_OCN_Start:Channel <- $r1
	@DEBUG_VALUE: HAL_TIMEx_OCN_Start:htim <- [DW_OP_LLVM_entry_value 1] $r0
	cmp	r1, #4
	ite	ne
	strbne.w	r2, [r0, #71]
	strbeq.w	r2, [r0, #69]
	b	.LBB10_10
.Ltmp147:
	.p2align	2
.LBB10_9:
	@DEBUG_VALUE: HAL_TIMEx_OCN_Start:Channel <- $r1
	@DEBUG_VALUE: HAL_TIMEx_OCN_Start:htim <- [DW_OP_LLVM_entry_value 1] $r0
	strb.w	r2, [r0, #70]
.Ltmp148:
.LBB10_10:
	@DEBUG_VALUE: HAL_TIMEx_OCN_Start:Channel <- $r1
	@DEBUG_VALUE: HAL_TIMEx_OCN_Start:htim <- [DW_OP_LLVM_entry_value 1] $r0
	.loc	7 643 28                        @ c:/Keil_v5\ARM\PACK\Keil\STM32L5xx_DFP\1.3.0\Drivers\STM32L5xx_HAL_Driver\Src\stm32l5xx_hal_tim_ex.c:643:28
	ldr	r2, [r0]
.Ltmp149:
	@DEBUG_VALUE: TIM_CCxNChannelCmd:ChannelNState <- 4
	@DEBUG_VALUE: TIM_CCxNChannelCmd:Channel <- $r1
	@DEBUG_VALUE: TIM_CCxNChannelCmd:TIMx <- $r2
	.loc	7 2735 36                       @ c:/Keil_v5\ARM\PACK\Keil\STM32L5xx_DFP\1.3.0\Drivers\STM32L5xx_HAL_Driver\Src\stm32l5xx_hal_tim_ex.c:2735:36
	and	r0, r1, #31
	movs	r1, #4
.Ltmp150:
	@DEBUG_VALUE: HAL_TIMEx_OCN_Start:Channel <- [DW_OP_LLVM_entry_value 1] $r1
	.loc	7 2738 14                       @ c:/Keil_v5\ARM\PACK\Keil\STM32L5xx_DFP\1.3.0\Drivers\STM32L5xx_HAL_Driver\Src\stm32l5xx_hal_tim_ex.c:2738:14
	ldr	r3, [r2, #32]
	.loc	7 2735 24                       @ c:/Keil_v5\ARM\PACK\Keil\STM32L5xx_DFP\1.3.0\Drivers\STM32L5xx_HAL_Driver\Src\stm32l5xx_hal_tim_ex.c:2735:24
	lsl.w	r0, r1, r0
.Ltmp151:
	@DEBUG_VALUE: TIM_CCxNChannelCmd:tmp <- $r0
	.loc	7 2738 14                       @ c:/Keil_v5\ARM\PACK\Keil\STM32L5xx_DFP\1.3.0\Drivers\STM32L5xx_HAL_Driver\Src\stm32l5xx_hal_tim_ex.c:2738:14
	bic.w	r1, r3, r0
	str	r1, [r2, #32]
	.loc	7 2741 14                       @ c:/Keil_v5\ARM\PACK\Keil\STM32L5xx_DFP\1.3.0\Drivers\STM32L5xx_HAL_Driver\Src\stm32l5xx_hal_tim_ex.c:2741:14
	ldr	r1, [r2, #32]
	orrs	r0, r1
.Ltmp152:
	str	r0, [r2, #32]
.Ltmp153:
	.loc	7 646 3                         @ c:/Keil_v5\ARM\PACK\Keil\STM32L5xx_DFP\1.3.0\Drivers\STM32L5xx_HAL_Driver\Src\stm32l5xx_hal_tim_ex.c:646:3
	ldr	r0, [r2, #68]
	movw	r1, #3071
	movt	r1, #16384
	orr	r0, r0, #32768
.Ltmp154:
	.loc	7 649 7                         @ c:/Keil_v5\ARM\PACK\Keil\STM32L5xx_DFP\1.3.0\Drivers\STM32L5xx_HAL_Driver\Src\stm32l5xx_hal_tim_ex.c:649:7
	cmp	r2, r1
.Ltmp155:
	.loc	7 646 3                         @ c:/Keil_v5\ARM\PACK\Keil\STM32L5xx_DFP\1.3.0\Drivers\STM32L5xx_HAL_Driver\Src\stm32l5xx_hal_tim_ex.c:646:3
	str	r0, [r2, #68]
.Ltmp156:
	.loc	7 649 7                         @ c:/Keil_v5\ARM\PACK\Keil\STM32L5xx_DFP\1.3.0\Drivers\STM32L5xx_HAL_Driver\Src\stm32l5xx_hal_tim_ex.c:649:7
	ble	.LBB10_14
.Ltmp157:
@ %bb.11:
	@DEBUG_VALUE: HAL_TIMEx_OCN_Start:Channel <- [DW_OP_LLVM_entry_value 1] $r1
	@DEBUG_VALUE: HAL_TIMEx_OCN_Start:htim <- [DW_OP_LLVM_entry_value 1] $r0
	.loc	7 0 7 is_stmt 0                 @ c:/Keil_v5\ARM\PACK\Keil\STM32L5xx_DFP\1.3.0\Drivers\STM32L5xx_HAL_Driver\Src\stm32l5xx_hal_tim_ex.c:0:7
	movw	r0, #13311
	movt	r0, #16385
	.loc	7 649 7                         @ c:/Keil_v5\ARM\PACK\Keil\STM32L5xx_DFP\1.3.0\Drivers\STM32L5xx_HAL_Driver\Src\stm32l5xx_hal_tim_ex.c:649:7
	cmp	r2, r0
	bgt	.LBB10_17
.Ltmp158:
@ %bb.12:
	@DEBUG_VALUE: HAL_TIMEx_OCN_Start:Channel <- [DW_OP_LLVM_entry_value 1] $r1
	@DEBUG_VALUE: HAL_TIMEx_OCN_Start:htim <- [DW_OP_LLVM_entry_value 1] $r0
	.loc	7 0 7                           @ c:/Keil_v5\ARM\PACK\Keil\STM32L5xx_DFP\1.3.0\Drivers\STM32L5xx_HAL_Driver\Src\stm32l5xx_hal_tim_ex.c:0:7
	movw	r0, #3072
	movt	r0, #16384
	.loc	7 649 7                         @ c:/Keil_v5\ARM\PACK\Keil\STM32L5xx_DFP\1.3.0\Drivers\STM32L5xx_HAL_Driver\Src\stm32l5xx_hal_tim_ex.c:649:7
	cmp	r2, r0
	beq	.LBB10_19
.Ltmp159:
@ %bb.13:
	@DEBUG_VALUE: HAL_TIMEx_OCN_Start:Channel <- [DW_OP_LLVM_entry_value 1] $r1
	@DEBUG_VALUE: HAL_TIMEx_OCN_Start:htim <- [DW_OP_LLVM_entry_value 1] $r0
	.loc	7 0 7                           @ c:/Keil_v5\ARM\PACK\Keil\STM32L5xx_DFP\1.3.0\Drivers\STM32L5xx_HAL_Driver\Src\stm32l5xx_hal_tim_ex.c:0:7
	movw	r0, #11264
	movt	r0, #16385
	.loc	7 649 7                         @ c:/Keil_v5\ARM\PACK\Keil\STM32L5xx_DFP\1.3.0\Drivers\STM32L5xx_HAL_Driver\Src\stm32l5xx_hal_tim_ex.c:649:7
	cmp	r2, r0
	beq	.LBB10_19
	b	.LBB10_21
.Ltmp160:
	.p2align	2
.LBB10_14:
	@DEBUG_VALUE: HAL_TIMEx_OCN_Start:Channel <- [DW_OP_LLVM_entry_value 1] $r1
	@DEBUG_VALUE: HAL_TIMEx_OCN_Start:htim <- [DW_OP_LLVM_entry_value 1] $r0
	cmp.w	r2, #1073741824
	beq	.LBB10_19
.Ltmp161:
@ %bb.15:
	@DEBUG_VALUE: HAL_TIMEx_OCN_Start:Channel <- [DW_OP_LLVM_entry_value 1] $r1
	@DEBUG_VALUE: HAL_TIMEx_OCN_Start:htim <- [DW_OP_LLVM_entry_value 1] $r0
	.loc	7 0 7                           @ c:/Keil_v5\ARM\PACK\Keil\STM32L5xx_DFP\1.3.0\Drivers\STM32L5xx_HAL_Driver\Src\stm32l5xx_hal_tim_ex.c:0:7
	movw	r0, #1024
	movt	r0, #16384
	.loc	7 649 7                         @ c:/Keil_v5\ARM\PACK\Keil\STM32L5xx_DFP\1.3.0\Drivers\STM32L5xx_HAL_Driver\Src\stm32l5xx_hal_tim_ex.c:649:7
	cmp	r2, r0
	beq	.LBB10_19
.Ltmp162:
@ %bb.16:
	@DEBUG_VALUE: HAL_TIMEx_OCN_Start:Channel <- [DW_OP_LLVM_entry_value 1] $r1
	@DEBUG_VALUE: HAL_TIMEx_OCN_Start:htim <- [DW_OP_LLVM_entry_value 1] $r0
	.loc	7 0 7                           @ c:/Keil_v5\ARM\PACK\Keil\STM32L5xx_DFP\1.3.0\Drivers\STM32L5xx_HAL_Driver\Src\stm32l5xx_hal_tim_ex.c:0:7
	movw	r0, #2048
	movt	r0, #16384
	.loc	7 649 7                         @ c:/Keil_v5\ARM\PACK\Keil\STM32L5xx_DFP\1.3.0\Drivers\STM32L5xx_HAL_Driver\Src\stm32l5xx_hal_tim_ex.c:649:7
	cmp	r2, r0
	beq	.LBB10_19
	b	.LBB10_21
.Ltmp163:
	.p2align	2
.LBB10_17:
	@DEBUG_VALUE: HAL_TIMEx_OCN_Start:Channel <- [DW_OP_LLVM_entry_value 1] $r1
	@DEBUG_VALUE: HAL_TIMEx_OCN_Start:htim <- [DW_OP_LLVM_entry_value 1] $r0
	.loc	7 0 7                           @ c:/Keil_v5\ARM\PACK\Keil\STM32L5xx_DFP\1.3.0\Drivers\STM32L5xx_HAL_Driver\Src\stm32l5xx_hal_tim_ex.c:0:7
	movw	r0, #16384
	movt	r0, #16385
	.loc	7 649 7                         @ c:/Keil_v5\ARM\PACK\Keil\STM32L5xx_DFP\1.3.0\Drivers\STM32L5xx_HAL_Driver\Src\stm32l5xx_hal_tim_ex.c:649:7
	cmp	r2, r0
	beq	.LBB10_19
.Ltmp164:
@ %bb.18:
	@DEBUG_VALUE: HAL_TIMEx_OCN_Start:Channel <- [DW_OP_LLVM_entry_value 1] $r1
	@DEBUG_VALUE: HAL_TIMEx_OCN_Start:htim <- [DW_OP_LLVM_entry_value 1] $r0
	.loc	7 0 7                           @ c:/Keil_v5\ARM\PACK\Keil\STM32L5xx_DFP\1.3.0\Drivers\STM32L5xx_HAL_Driver\Src\stm32l5xx_hal_tim_ex.c:0:7
	movw	r0, #13312
	movt	r0, #16385
	.loc	7 649 7                         @ c:/Keil_v5\ARM\PACK\Keil\STM32L5xx_DFP\1.3.0\Drivers\STM32L5xx_HAL_Driver\Src\stm32l5xx_hal_tim_ex.c:649:7
	cmp	r2, r0
	bne	.LBB10_21
.Ltmp165:
.LBB10_19:
	@DEBUG_VALUE: HAL_TIMEx_OCN_Start:Channel <- [DW_OP_LLVM_entry_value 1] $r1
	@DEBUG_VALUE: HAL_TIMEx_OCN_Start:htim <- [DW_OP_LLVM_entry_value 1] $r0
	.loc	7 651 31 is_stmt 1              @ c:/Keil_v5\ARM\PACK\Keil\STM32L5xx_DFP\1.3.0\Drivers\STM32L5xx_HAL_Driver\Src\stm32l5xx_hal_tim_ex.c:651:31
	ldr	r0, [r2, #8]
	movs	r1, #7
	movt	r1, #1
	.loc	7 651 36 is_stmt 0              @ c:/Keil_v5\ARM\PACK\Keil\STM32L5xx_DFP\1.3.0\Drivers\STM32L5xx_HAL_Driver\Src\stm32l5xx_hal_tim_ex.c:651:36
	ands	r1, r0
.Ltmp166:
	@DEBUG_VALUE: HAL_TIMEx_OCN_Start:tmpsmcr <- $r1
	.loc	7 652 10 is_stmt 1              @ c:/Keil_v5\ARM\PACK\Keil\STM32L5xx_DFP\1.3.0\Drivers\STM32L5xx_HAL_Driver\Src\stm32l5xx_hal_tim_ex.c:652:10
	cmp	r1, #6
	mov.w	r0, #0
	it	ne
	cmpne.w	r1, #65536
	bne	.LBB10_21
.Ltmp167:
@ %bb.20:
	@DEBUG_VALUE: HAL_TIMEx_OCN_Start:tmpsmcr <- $r1
	@DEBUG_VALUE: HAL_TIMEx_OCN_Start:Channel <- [DW_OP_LLVM_entry_value 1] $r1
	@DEBUG_VALUE: HAL_TIMEx_OCN_Start:htim <- [DW_OP_LLVM_entry_value 1] $r0
	.loc	7 664 1                         @ c:/Keil_v5\ARM\PACK\Keil\STM32L5xx_DFP\1.3.0\Drivers\STM32L5xx_HAL_Driver\Src\stm32l5xx_hal_tim_ex.c:664:1
	bx	lr
.Ltmp168:
	.p2align	2
.LBB10_21:
	@DEBUG_VALUE: HAL_TIMEx_OCN_Start:Channel <- [DW_OP_LLVM_entry_value 1] $r1
	@DEBUG_VALUE: HAL_TIMEx_OCN_Start:htim <- [DW_OP_LLVM_entry_value 1] $r0
	.loc	7 0 0 is_stmt 0                 @ c:/Keil_v5\ARM\PACK\Keil\STM32L5xx_DFP\1.3.0\Drivers\STM32L5xx_HAL_Driver\Src\stm32l5xx_hal_tim_ex.c:0:0
	ldr	r0, [r2]
	orr	r0, r0, #1
	str	r0, [r2]
	movs	r0, #0
.Ltmp169:
	.loc	7 664 1                         @ c:/Keil_v5\ARM\PACK\Keil\STM32L5xx_DFP\1.3.0\Drivers\STM32L5xx_HAL_Driver\Src\stm32l5xx_hal_tim_ex.c:664:1
	bx	lr
.Ltmp170:
.Lfunc_end10:
	.size	HAL_TIMEx_OCN_Start, .Lfunc_end10-HAL_TIMEx_OCN_Start
	.cfi_endproc
	.cantunwind
	.fnend
                                        @ -- End function
	.section	.text.HAL_TIMEx_OCN_Stop,"ax",%progbits
	.hidden	HAL_TIMEx_OCN_Stop              @ -- Begin function HAL_TIMEx_OCN_Stop
	.globl	HAL_TIMEx_OCN_Stop
	.p2align	2
	.type	HAL_TIMEx_OCN_Stop,%function
	.code	16                              @ @HAL_TIMEx_OCN_Stop
	.thumb_func
HAL_TIMEx_OCN_Stop:
.Lfunc_begin11:
	.loc	7 678 0 is_stmt 1               @ c:/Keil_v5\ARM\PACK\Keil\STM32L5xx_DFP\1.3.0\Drivers\STM32L5xx_HAL_Driver\Src\stm32l5xx_hal_tim_ex.c:678:0
	.fnstart
	.cfi_startproc
@ %bb.0:
	@DEBUG_VALUE: HAL_TIMEx_OCN_Stop:htim <- $r0
	@DEBUG_VALUE: HAL_TIMEx_OCN_Stop:htim <- $r0
	@DEBUG_VALUE: HAL_TIMEx_OCN_Stop:Channel <- $r1
	@DEBUG_VALUE: HAL_TIMEx_OCN_Stop:Channel <- $r1
	.save	{r4, lr}
	push	{r4, lr}
	.cfi_def_cfa_offset 8
	.cfi_offset lr, -4
	.cfi_offset r4, -8
.Ltmp171:
	.loc	7 683 28 prologue_end           @ c:/Keil_v5\ARM\PACK\Keil\STM32L5xx_DFP\1.3.0\Drivers\STM32L5xx_HAL_Driver\Src\stm32l5xx_hal_tim_ex.c:683:28
	ldr	r2, [r0]
.Ltmp172:
	@DEBUG_VALUE: TIM_CCxNChannelCmd:ChannelNState <- 0
	@DEBUG_VALUE: TIM_CCxNChannelCmd:Channel <- $r1
	@DEBUG_VALUE: TIM_CCxNChannelCmd:TIMx <- $r2
	.loc	7 2735 36                       @ c:/Keil_v5\ARM\PACK\Keil\STM32L5xx_DFP\1.3.0\Drivers\STM32L5xx_HAL_Driver\Src\stm32l5xx_hal_tim_ex.c:2735:36
	and	lr, r1, #31
	mov.w	r12, #4
	.loc	7 2738 14                       @ c:/Keil_v5\ARM\PACK\Keil\STM32L5xx_DFP\1.3.0\Drivers\STM32L5xx_HAL_Driver\Src\stm32l5xx_hal_tim_ex.c:2738:14
	ldr	r4, [r2, #32]
	.loc	7 2735 24                       @ c:/Keil_v5\ARM\PACK\Keil\STM32L5xx_DFP\1.3.0\Drivers\STM32L5xx_HAL_Driver\Src\stm32l5xx_hal_tim_ex.c:2735:24
	lsl.w	r3, r12, lr
.Ltmp173:
	@DEBUG_VALUE: TIM_CCxNChannelCmd:tmp <- $r3
	.loc	7 2738 14                       @ c:/Keil_v5\ARM\PACK\Keil\STM32L5xx_DFP\1.3.0\Drivers\STM32L5xx_HAL_Driver\Src\stm32l5xx_hal_tim_ex.c:2738:14
	bic.w	r3, r4, r3
.Ltmp174:
	str	r3, [r2, #32]
	.loc	7 2741 14                       @ c:/Keil_v5\ARM\PACK\Keil\STM32L5xx_DFP\1.3.0\Drivers\STM32L5xx_HAL_Driver\Src\stm32l5xx_hal_tim_ex.c:2741:14
	ldr	r3, [r2, #32]
	str	r3, [r2, #32]
.Ltmp175:
	.loc	7 686 3                         @ c:/Keil_v5\ARM\PACK\Keil\STM32L5xx_DFP\1.3.0\Drivers\STM32L5xx_HAL_Driver\Src\stm32l5xx_hal_tim_ex.c:686:3
	ldr	r4, [r2, #32]
	movw	r3, #4369
.Ltmp176:
	.loc	7 686 3 is_stmt 0               @ c:/Keil_v5\ARM\PACK\Keil\STM32L5xx_DFP\1.3.0\Drivers\STM32L5xx_HAL_Driver\Src\stm32l5xx_hal_tim_ex.c:686:3
	tst	r4, r3
	bne	.LBB11_2
.Ltmp177:
@ %bb.1:
	@DEBUG_VALUE: HAL_TIMEx_OCN_Stop:Channel <- $r1
	@DEBUG_VALUE: HAL_TIMEx_OCN_Stop:htim <- $r0
	.loc	7 686 3                         @ c:/Keil_v5\ARM\PACK\Keil\STM32L5xx_DFP\1.3.0\Drivers\STM32L5xx_HAL_Driver\Src\stm32l5xx_hal_tim_ex.c:686:3
	ldr.w	r12, [r2, #32]
	movw	r4, #1092
.Ltmp178:
	.loc	7 686 3                         @ c:/Keil_v5\ARM\PACK\Keil\STM32L5xx_DFP\1.3.0\Drivers\STM32L5xx_HAL_Driver\Src\stm32l5xx_hal_tim_ex.c:686:3
	tst.w	r12, r4
	beq	.LBB11_5
.Ltmp179:
.LBB11_2:
	@DEBUG_VALUE: HAL_TIMEx_OCN_Stop:Channel <- $r1
	@DEBUG_VALUE: HAL_TIMEx_OCN_Stop:htim <- $r0
	.loc	7 689 3 is_stmt 1               @ c:/Keil_v5\ARM\PACK\Keil\STM32L5xx_DFP\1.3.0\Drivers\STM32L5xx_HAL_Driver\Src\stm32l5xx_hal_tim_ex.c:689:3
	ldr	r4, [r2, #32]
.Ltmp180:
	.loc	7 689 3 is_stmt 0               @ c:/Keil_v5\ARM\PACK\Keil\STM32L5xx_DFP\1.3.0\Drivers\STM32L5xx_HAL_Driver\Src\stm32l5xx_hal_tim_ex.c:689:3
	tst	r4, r3
	bne	.LBB11_6
.Ltmp181:
.LBB11_3:
	@DEBUG_VALUE: HAL_TIMEx_OCN_Stop:Channel <- $r1
	@DEBUG_VALUE: HAL_TIMEx_OCN_Stop:htim <- $r0
	.loc	7 689 3                         @ c:/Keil_v5\ARM\PACK\Keil\STM32L5xx_DFP\1.3.0\Drivers\STM32L5xx_HAL_Driver\Src\stm32l5xx_hal_tim_ex.c:689:3
	ldr	r3, [r2, #32]
	movw	r4, #1092
.Ltmp182:
	.loc	7 689 3                         @ c:/Keil_v5\ARM\PACK\Keil\STM32L5xx_DFP\1.3.0\Drivers\STM32L5xx_HAL_Driver\Src\stm32l5xx_hal_tim_ex.c:689:3
	tst	r3, r4
	bne	.LBB11_6
.Ltmp183:
@ %bb.4:
	@DEBUG_VALUE: HAL_TIMEx_OCN_Stop:Channel <- $r1
	@DEBUG_VALUE: HAL_TIMEx_OCN_Stop:htim <- $r0
	.loc	7 689 3                         @ c:/Keil_v5\ARM\PACK\Keil\STM32L5xx_DFP\1.3.0\Drivers\STM32L5xx_HAL_Driver\Src\stm32l5xx_hal_tim_ex.c:689:3
	ldr	r3, [r2]
	bic	r3, r3, #1
	str	r3, [r2]
	b	.LBB11_6
.Ltmp184:
	.p2align	2
.LBB11_5:
	@DEBUG_VALUE: HAL_TIMEx_OCN_Stop:Channel <- $r1
	@DEBUG_VALUE: HAL_TIMEx_OCN_Stop:htim <- $r0
	.loc	7 686 3 is_stmt 1               @ c:/Keil_v5\ARM\PACK\Keil\STM32L5xx_DFP\1.3.0\Drivers\STM32L5xx_HAL_Driver\Src\stm32l5xx_hal_tim_ex.c:686:3
	ldr	r4, [r2, #68]
	bic	r4, r4, #32768
	str	r4, [r2, #68]
.Ltmp185:
	.loc	7 689 3                         @ c:/Keil_v5\ARM\PACK\Keil\STM32L5xx_DFP\1.3.0\Drivers\STM32L5xx_HAL_Driver\Src\stm32l5xx_hal_tim_ex.c:689:3
	ldr	r4, [r2, #32]
.Ltmp186:
	.loc	7 689 3 is_stmt 0               @ c:/Keil_v5\ARM\PACK\Keil\STM32L5xx_DFP\1.3.0\Drivers\STM32L5xx_HAL_Driver\Src\stm32l5xx_hal_tim_ex.c:689:3
	tst	r4, r3
	beq	.LBB11_3
.Ltmp187:
.LBB11_6:
	@DEBUG_VALUE: HAL_TIMEx_OCN_Stop:Channel <- $r1
	@DEBUG_VALUE: HAL_TIMEx_OCN_Stop:htim <- $r0
	.loc	7 692 3 is_stmt 1               @ c:/Keil_v5\ARM\PACK\Keil\STM32L5xx_DFP\1.3.0\Drivers\STM32L5xx_HAL_Driver\Src\stm32l5xx_hal_tim_ex.c:692:3
	cmp	r1, #8
	beq	.LBB11_9
.Ltmp188:
@ %bb.7:
	@DEBUG_VALUE: HAL_TIMEx_OCN_Stop:Channel <- $r1
	@DEBUG_VALUE: HAL_TIMEx_OCN_Stop:htim <- $r0
	cmp	r1, #4
	beq	.LBB11_10
.Ltmp189:
@ %bb.8:
	@DEBUG_VALUE: HAL_TIMEx_OCN_Stop:Channel <- $r1
	@DEBUG_VALUE: HAL_TIMEx_OCN_Stop:htim <- $r0
	cmp	r1, #0
	mov.w	r1, #1
.Ltmp190:
	@DEBUG_VALUE: HAL_TIMEx_OCN_Stop:Channel <- [DW_OP_LLVM_entry_value 1] $r1
	ite	ne
	strbne.w	r1, [r0, #71]
	strbeq.w	r1, [r0, #68]
	.loc	7 695 3                         @ c:/Keil_v5\ARM\PACK\Keil\STM32L5xx_DFP\1.3.0\Drivers\STM32L5xx_HAL_Driver\Src\stm32l5xx_hal_tim_ex.c:695:3
	movs	r0, #0
.Ltmp191:
	@DEBUG_VALUE: HAL_TIMEx_OCN_Stop:htim <- [DW_OP_LLVM_entry_value 1] $r0
	pop	{r4, pc}
.Ltmp192:
	.p2align	2
.LBB11_9:
	@DEBUG_VALUE: HAL_TIMEx_OCN_Stop:Channel <- $r1
	@DEBUG_VALUE: HAL_TIMEx_OCN_Stop:htim <- $r0
	.loc	7 0 3 is_stmt 0                 @ c:/Keil_v5\ARM\PACK\Keil\STM32L5xx_DFP\1.3.0\Drivers\STM32L5xx_HAL_Driver\Src\stm32l5xx_hal_tim_ex.c:0:3
	movs	r1, #1
.Ltmp193:
	@DEBUG_VALUE: HAL_TIMEx_OCN_Stop:Channel <- [DW_OP_LLVM_entry_value 1] $r1
	.loc	7 692 3 is_stmt 1               @ c:/Keil_v5\ARM\PACK\Keil\STM32L5xx_DFP\1.3.0\Drivers\STM32L5xx_HAL_Driver\Src\stm32l5xx_hal_tim_ex.c:692:3
	strb.w	r1, [r0, #70]
	.loc	7 695 3                         @ c:/Keil_v5\ARM\PACK\Keil\STM32L5xx_DFP\1.3.0\Drivers\STM32L5xx_HAL_Driver\Src\stm32l5xx_hal_tim_ex.c:695:3
	movs	r0, #0
.Ltmp194:
	@DEBUG_VALUE: HAL_TIMEx_OCN_Stop:htim <- [DW_OP_LLVM_entry_value 1] $r0
	pop	{r4, pc}
.Ltmp195:
	.p2align	2
.LBB11_10:
	@DEBUG_VALUE: HAL_TIMEx_OCN_Stop:Channel <- $r1
	@DEBUG_VALUE: HAL_TIMEx_OCN_Stop:htim <- $r0
	.loc	7 0 3 is_stmt 0                 @ c:/Keil_v5\ARM\PACK\Keil\STM32L5xx_DFP\1.3.0\Drivers\STM32L5xx_HAL_Driver\Src\stm32l5xx_hal_tim_ex.c:0:3
	movs	r1, #1
.Ltmp196:
	@DEBUG_VALUE: HAL_TIMEx_OCN_Stop:Channel <- [DW_OP_LLVM_entry_value 1] $r1
	.loc	7 692 3 is_stmt 1               @ c:/Keil_v5\ARM\PACK\Keil\STM32L5xx_DFP\1.3.0\Drivers\STM32L5xx_HAL_Driver\Src\stm32l5xx_hal_tim_ex.c:692:3
	strb.w	r1, [r0, #69]
	.loc	7 695 3                         @ c:/Keil_v5\ARM\PACK\Keil\STM32L5xx_DFP\1.3.0\Drivers\STM32L5xx_HAL_Driver\Src\stm32l5xx_hal_tim_ex.c:695:3
	movs	r0, #0
.Ltmp197:
	@DEBUG_VALUE: HAL_TIMEx_OCN_Stop:htim <- [DW_OP_LLVM_entry_value 1] $r0
	pop	{r4, pc}
.Ltmp198:
.Lfunc_end11:
	.size	HAL_TIMEx_OCN_Stop, .Lfunc_end11-HAL_TIMEx_OCN_Stop
	.cfi_endproc
	.cantunwind
	.fnend
                                        @ -- End function
	.section	.text.HAL_TIMEx_OCN_Start_IT,"ax",%progbits
	.hidden	HAL_TIMEx_OCN_Start_IT          @ -- Begin function HAL_TIMEx_OCN_Start_IT
	.globl	HAL_TIMEx_OCN_Start_IT
	.p2align	2
	.type	HAL_TIMEx_OCN_Start_IT,%function
	.code	16                              @ @HAL_TIMEx_OCN_Start_IT
	.thumb_func
HAL_TIMEx_OCN_Start_IT:
.Lfunc_begin12:
	.loc	7 710 0                         @ c:/Keil_v5\ARM\PACK\Keil\STM32L5xx_DFP\1.3.0\Drivers\STM32L5xx_HAL_Driver\Src\stm32l5xx_hal_tim_ex.c:710:0
	.fnstart
	.cfi_startproc
@ %bb.0:
	@DEBUG_VALUE: HAL_TIMEx_OCN_Start_IT:htim <- $r0
	@DEBUG_VALUE: HAL_TIMEx_OCN_Start_IT:Channel <- $r1
	@DEBUG_VALUE: HAL_TIMEx_OCN_Start_IT:Channel <- $r1
	@DEBUG_VALUE: HAL_TIMEx_OCN_Start_IT:htim <- $r0
	.loc	7 717 7 prologue_end            @ c:/Keil_v5\ARM\PACK\Keil\STM32L5xx_DFP\1.3.0\Drivers\STM32L5xx_HAL_Driver\Src\stm32l5xx_hal_tim_ex.c:717:7
	cbz	r1, .LBB12_3
.Ltmp199:
@ %bb.1:
	@DEBUG_VALUE: HAL_TIMEx_OCN_Start_IT:Channel <- $r1
	@DEBUG_VALUE: HAL_TIMEx_OCN_Start_IT:htim <- $r0
	cmp	r1, #8
	beq	.LBB12_5
.Ltmp200:
@ %bb.2:
	@DEBUG_VALUE: HAL_TIMEx_OCN_Start_IT:Channel <- $r1
	@DEBUG_VALUE: HAL_TIMEx_OCN_Start_IT:htim <- $r0
	cmp	r1, #4
	ite	ne
	addne.w	r2, r0, #71
	addeq.w	r2, r0, #69
	b	.LBB12_6
.Ltmp201:
	.p2align	2
.LBB12_3:
	@DEBUG_VALUE: HAL_TIMEx_OCN_Start_IT:Channel <- $r1
	@DEBUG_VALUE: HAL_TIMEx_OCN_Start_IT:htim <- $r0
	ldrb.w	r2, [r0, #68]
.Ltmp202:
	.loc	7 717 7 is_stmt 0               @ c:/Keil_v5\ARM\PACK\Keil\STM32L5xx_DFP\1.3.0\Drivers\STM32L5xx_HAL_Driver\Src\stm32l5xx_hal_tim_ex.c:717:7
	cmp	r2, #1
	itt	ne
	movne	r0, #1
.Ltmp203:
	@DEBUG_VALUE: HAL_TIMEx_OCN_Start_IT:htim <- [DW_OP_LLVM_entry_value 1] $r0
	.loc	7 778 1 is_stmt 1               @ c:/Keil_v5\ARM\PACK\Keil\STM32L5xx_DFP\1.3.0\Drivers\STM32L5xx_HAL_Driver\Src\stm32l5xx_hal_tim_ex.c:778:1
	bxne	lr
.Ltmp204:
.LBB12_4:
	@DEBUG_VALUE: HAL_TIMEx_OCN_Start_IT:Channel <- $r1
	@DEBUG_VALUE: HAL_TIMEx_OCN_Start_IT:htim <- [DW_OP_LLVM_entry_value 1] $r0
	.loc	7 0 1 is_stmt 0                 @ c:/Keil_v5\ARM\PACK\Keil\STM32L5xx_DFP\1.3.0\Drivers\STM32L5xx_HAL_Driver\Src\stm32l5xx_hal_tim_ex.c:0:1
	movs	r2, #2
	.loc	7 723 3 is_stmt 1               @ c:/Keil_v5\ARM\PACK\Keil\STM32L5xx_DFP\1.3.0\Drivers\STM32L5xx_HAL_Driver\Src\stm32l5xx_hal_tim_ex.c:723:3
	strb.w	r2, [r0, #68]
.Ltmp205:
	.loc	7 730 7                         @ c:/Keil_v5\ARM\PACK\Keil\STM32L5xx_DFP\1.3.0\Drivers\STM32L5xx_HAL_Driver\Src\stm32l5xx_hal_tim_ex.c:730:7
	ldr	r2, [r0]
	ldr	r0, [r2, #12]
	orr	r0, r0, #2
	str	r0, [r2, #12]
	b	.LBB12_12
.Ltmp206:
	.p2align	2
.LBB12_5:
	@DEBUG_VALUE: HAL_TIMEx_OCN_Start_IT:Channel <- $r1
	@DEBUG_VALUE: HAL_TIMEx_OCN_Start_IT:htim <- $r0
	.loc	7 717 7                         @ c:/Keil_v5\ARM\PACK\Keil\STM32L5xx_DFP\1.3.0\Drivers\STM32L5xx_HAL_Driver\Src\stm32l5xx_hal_tim_ex.c:717:7
	add.w	r2, r0, #70
.Ltmp207:
.LBB12_6:
	@DEBUG_VALUE: HAL_TIMEx_OCN_Start_IT:Channel <- $r1
	@DEBUG_VALUE: HAL_TIMEx_OCN_Start_IT:htim <- $r0
	ldrb	r2, [r2]
.Ltmp208:
	.loc	7 717 7 is_stmt 0               @ c:/Keil_v5\ARM\PACK\Keil\STM32L5xx_DFP\1.3.0\Drivers\STM32L5xx_HAL_Driver\Src\stm32l5xx_hal_tim_ex.c:717:7
	cmp	r2, #1
	itt	ne
	movne	r0, #1
.Ltmp209:
	@DEBUG_VALUE: HAL_TIMEx_OCN_Start_IT:htim <- [DW_OP_LLVM_entry_value 1] $r0
	.loc	7 778 1 is_stmt 1               @ c:/Keil_v5\ARM\PACK\Keil\STM32L5xx_DFP\1.3.0\Drivers\STM32L5xx_HAL_Driver\Src\stm32l5xx_hal_tim_ex.c:778:1
	bxne	lr
.Ltmp210:
.LBB12_7:
	@DEBUG_VALUE: HAL_TIMEx_OCN_Start_IT:Channel <- $r1
	@DEBUG_VALUE: HAL_TIMEx_OCN_Start_IT:htim <- [DW_OP_LLVM_entry_value 1] $r0
	.loc	7 0 1 is_stmt 0                 @ c:/Keil_v5\ARM\PACK\Keil\STM32L5xx_DFP\1.3.0\Drivers\STM32L5xx_HAL_Driver\Src\stm32l5xx_hal_tim_ex.c:0:1
	movs	r2, #2
	.loc	7 723 3 is_stmt 1               @ c:/Keil_v5\ARM\PACK\Keil\STM32L5xx_DFP\1.3.0\Drivers\STM32L5xx_HAL_Driver\Src\stm32l5xx_hal_tim_ex.c:723:3
	cmp	r1, #8
	beq	.LBB12_10
.Ltmp211:
@ %bb.8:
	@DEBUG_VALUE: HAL_TIMEx_OCN_Start_IT:Channel <- $r1
	@DEBUG_VALUE: HAL_TIMEx_OCN_Start_IT:htim <- [DW_OP_LLVM_entry_value 1] $r0
	cmp	r1, #4
	bne	.LBB12_11
.Ltmp212:
@ %bb.9:
	@DEBUG_VALUE: HAL_TIMEx_OCN_Start_IT:Channel <- $r1
	@DEBUG_VALUE: HAL_TIMEx_OCN_Start_IT:htim <- [DW_OP_LLVM_entry_value 1] $r0
	strb.w	r2, [r0, #69]
.Ltmp213:
	.loc	7 737 7                         @ c:/Keil_v5\ARM\PACK\Keil\STM32L5xx_DFP\1.3.0\Drivers\STM32L5xx_HAL_Driver\Src\stm32l5xx_hal_tim_ex.c:737:7
	ldr	r2, [r0]
	ldr	r0, [r2, #12]
	orr	r0, r0, #4
	str	r0, [r2, #12]
	b	.LBB12_12
.Ltmp214:
	.p2align	2
.LBB12_10:
	@DEBUG_VALUE: HAL_TIMEx_OCN_Start_IT:Channel <- $r1
	@DEBUG_VALUE: HAL_TIMEx_OCN_Start_IT:htim <- [DW_OP_LLVM_entry_value 1] $r0
	.loc	7 723 3                         @ c:/Keil_v5\ARM\PACK\Keil\STM32L5xx_DFP\1.3.0\Drivers\STM32L5xx_HAL_Driver\Src\stm32l5xx_hal_tim_ex.c:723:3
	strb.w	r2, [r0, #70]
.Ltmp215:
	.loc	7 744 7                         @ c:/Keil_v5\ARM\PACK\Keil\STM32L5xx_DFP\1.3.0\Drivers\STM32L5xx_HAL_Driver\Src\stm32l5xx_hal_tim_ex.c:744:7
	ldr	r2, [r0]
	ldr	r0, [r2, #12]
	orr	r0, r0, #8
	str	r0, [r2, #12]
	b	.LBB12_12
.Ltmp216:
	.p2align	2
.LBB12_11:
	@DEBUG_VALUE: HAL_TIMEx_OCN_Start_IT:Channel <- $r1
	@DEBUG_VALUE: HAL_TIMEx_OCN_Start_IT:htim <- [DW_OP_LLVM_entry_value 1] $r0
	.loc	7 723 3                         @ c:/Keil_v5\ARM\PACK\Keil\STM32L5xx_DFP\1.3.0\Drivers\STM32L5xx_HAL_Driver\Src\stm32l5xx_hal_tim_ex.c:723:3
	strb.w	r2, [r0, #71]
	.loc	7 754 3                         @ c:/Keil_v5\ARM\PACK\Keil\STM32L5xx_DFP\1.3.0\Drivers\STM32L5xx_HAL_Driver\Src\stm32l5xx_hal_tim_ex.c:754:3
	ldr	r2, [r0]
.Ltmp217:
.LBB12_12:
	@DEBUG_VALUE: HAL_TIMEx_OCN_Start_IT:Channel <- $r1
	@DEBUG_VALUE: HAL_TIMEx_OCN_Start_IT:htim <- [DW_OP_LLVM_entry_value 1] $r0
	ldr	r0, [r2, #12]
	orr	r0, r0, #128
	str	r0, [r2, #12]
.Ltmp218:
	@DEBUG_VALUE: TIM_CCxNChannelCmd:ChannelNState <- 4
	@DEBUG_VALUE: TIM_CCxNChannelCmd:Channel <- $r1
	@DEBUG_VALUE: TIM_CCxNChannelCmd:TIMx <- $r2
	.loc	7 2735 36                       @ c:/Keil_v5\ARM\PACK\Keil\STM32L5xx_DFP\1.3.0\Drivers\STM32L5xx_HAL_Driver\Src\stm32l5xx_hal_tim_ex.c:2735:36
	and	r0, r1, #31
	movs	r1, #4
.Ltmp219:
	@DEBUG_VALUE: HAL_TIMEx_OCN_Start_IT:Channel <- [DW_OP_LLVM_entry_value 1] $r1
	.loc	7 2738 14                       @ c:/Keil_v5\ARM\PACK\Keil\STM32L5xx_DFP\1.3.0\Drivers\STM32L5xx_HAL_Driver\Src\stm32l5xx_hal_tim_ex.c:2738:14
	ldr	r3, [r2, #32]
	.loc	7 2735 24                       @ c:/Keil_v5\ARM\PACK\Keil\STM32L5xx_DFP\1.3.0\Drivers\STM32L5xx_HAL_Driver\Src\stm32l5xx_hal_tim_ex.c:2735:24
	lsl.w	r0, r1, r0
.Ltmp220:
	@DEBUG_VALUE: TIM_CCxNChannelCmd:tmp <- $r0
	.loc	7 2738 14                       @ c:/Keil_v5\ARM\PACK\Keil\STM32L5xx_DFP\1.3.0\Drivers\STM32L5xx_HAL_Driver\Src\stm32l5xx_hal_tim_ex.c:2738:14
	bic.w	r1, r3, r0
	str	r1, [r2, #32]
	.loc	7 2741 14                       @ c:/Keil_v5\ARM\PACK\Keil\STM32L5xx_DFP\1.3.0\Drivers\STM32L5xx_HAL_Driver\Src\stm32l5xx_hal_tim_ex.c:2741:14
	ldr	r1, [r2, #32]
	orrs	r0, r1
.Ltmp221:
	str	r0, [r2, #32]
.Ltmp222:
	.loc	7 760 3                         @ c:/Keil_v5\ARM\PACK\Keil\STM32L5xx_DFP\1.3.0\Drivers\STM32L5xx_HAL_Driver\Src\stm32l5xx_hal_tim_ex.c:760:3
	ldr	r0, [r2, #68]
	movw	r1, #3071
	movt	r1, #16384
	orr	r0, r0, #32768
.Ltmp223:
	.loc	7 763 7                         @ c:/Keil_v5\ARM\PACK\Keil\STM32L5xx_DFP\1.3.0\Drivers\STM32L5xx_HAL_Driver\Src\stm32l5xx_hal_tim_ex.c:763:7
	cmp	r2, r1
.Ltmp224:
	.loc	7 760 3                         @ c:/Keil_v5\ARM\PACK\Keil\STM32L5xx_DFP\1.3.0\Drivers\STM32L5xx_HAL_Driver\Src\stm32l5xx_hal_tim_ex.c:760:3
	str	r0, [r2, #68]
.Ltmp225:
	.loc	7 763 7                         @ c:/Keil_v5\ARM\PACK\Keil\STM32L5xx_DFP\1.3.0\Drivers\STM32L5xx_HAL_Driver\Src\stm32l5xx_hal_tim_ex.c:763:7
	ble	.LBB12_16
.Ltmp226:
@ %bb.13:
	@DEBUG_VALUE: HAL_TIMEx_OCN_Start_IT:Channel <- [DW_OP_LLVM_entry_value 1] $r1
	@DEBUG_VALUE: HAL_TIMEx_OCN_Start_IT:htim <- [DW_OP_LLVM_entry_value 1] $r0
	.loc	7 0 7 is_stmt 0                 @ c:/Keil_v5\ARM\PACK\Keil\STM32L5xx_DFP\1.3.0\Drivers\STM32L5xx_HAL_Driver\Src\stm32l5xx_hal_tim_ex.c:0:7
	movw	r0, #13311
	movt	r0, #16385
	.loc	7 763 7                         @ c:/Keil_v5\ARM\PACK\Keil\STM32L5xx_DFP\1.3.0\Drivers\STM32L5xx_HAL_Driver\Src\stm32l5xx_hal_tim_ex.c:763:7
	cmp	r2, r0
	bgt	.LBB12_19
.Ltmp227:
@ %bb.14:
	@DEBUG_VALUE: HAL_TIMEx_OCN_Start_IT:Channel <- [DW_OP_LLVM_entry_value 1] $r1
	@DEBUG_VALUE: HAL_TIMEx_OCN_Start_IT:htim <- [DW_OP_LLVM_entry_value 1] $r0
	.loc	7 0 7                           @ c:/Keil_v5\ARM\PACK\Keil\STM32L5xx_DFP\1.3.0\Drivers\STM32L5xx_HAL_Driver\Src\stm32l5xx_hal_tim_ex.c:0:7
	movw	r0, #3072
	movt	r0, #16384
	.loc	7 763 7                         @ c:/Keil_v5\ARM\PACK\Keil\STM32L5xx_DFP\1.3.0\Drivers\STM32L5xx_HAL_Driver\Src\stm32l5xx_hal_tim_ex.c:763:7
	cmp	r2, r0
	beq	.LBB12_21
.Ltmp228:
@ %bb.15:
	@DEBUG_VALUE: HAL_TIMEx_OCN_Start_IT:Channel <- [DW_OP_LLVM_entry_value 1] $r1
	@DEBUG_VALUE: HAL_TIMEx_OCN_Start_IT:htim <- [DW_OP_LLVM_entry_value 1] $r0
	.loc	7 0 7                           @ c:/Keil_v5\ARM\PACK\Keil\STM32L5xx_DFP\1.3.0\Drivers\STM32L5xx_HAL_Driver\Src\stm32l5xx_hal_tim_ex.c:0:7
	movw	r0, #11264
	movt	r0, #16385
	.loc	7 763 7                         @ c:/Keil_v5\ARM\PACK\Keil\STM32L5xx_DFP\1.3.0\Drivers\STM32L5xx_HAL_Driver\Src\stm32l5xx_hal_tim_ex.c:763:7
	cmp	r2, r0
	beq	.LBB12_21
	b	.LBB12_23
.Ltmp229:
	.p2align	2
.LBB12_16:
	@DEBUG_VALUE: HAL_TIMEx_OCN_Start_IT:Channel <- [DW_OP_LLVM_entry_value 1] $r1
	@DEBUG_VALUE: HAL_TIMEx_OCN_Start_IT:htim <- [DW_OP_LLVM_entry_value 1] $r0
	cmp.w	r2, #1073741824
	beq	.LBB12_21
.Ltmp230:
@ %bb.17:
	@DEBUG_VALUE: HAL_TIMEx_OCN_Start_IT:Channel <- [DW_OP_LLVM_entry_value 1] $r1
	@DEBUG_VALUE: HAL_TIMEx_OCN_Start_IT:htim <- [DW_OP_LLVM_entry_value 1] $r0
	.loc	7 0 7                           @ c:/Keil_v5\ARM\PACK\Keil\STM32L5xx_DFP\1.3.0\Drivers\STM32L5xx_HAL_Driver\Src\stm32l5xx_hal_tim_ex.c:0:7
	movw	r0, #1024
	movt	r0, #16384
	.loc	7 763 7                         @ c:/Keil_v5\ARM\PACK\Keil\STM32L5xx_DFP\1.3.0\Drivers\STM32L5xx_HAL_Driver\Src\stm32l5xx_hal_tim_ex.c:763:7
	cmp	r2, r0
	beq	.LBB12_21
.Ltmp231:
@ %bb.18:
	@DEBUG_VALUE: HAL_TIMEx_OCN_Start_IT:Channel <- [DW_OP_LLVM_entry_value 1] $r1
	@DEBUG_VALUE: HAL_TIMEx_OCN_Start_IT:htim <- [DW_OP_LLVM_entry_value 1] $r0
	.loc	7 0 7                           @ c:/Keil_v5\ARM\PACK\Keil\STM32L5xx_DFP\1.3.0\Drivers\STM32L5xx_HAL_Driver\Src\stm32l5xx_hal_tim_ex.c:0:7
	movw	r0, #2048
	movt	r0, #16384
	.loc	7 763 7                         @ c:/Keil_v5\ARM\PACK\Keil\STM32L5xx_DFP\1.3.0\Drivers\STM32L5xx_HAL_Driver\Src\stm32l5xx_hal_tim_ex.c:763:7
	cmp	r2, r0
	beq	.LBB12_21
	b	.LBB12_23
.Ltmp232:
	.p2align	2
.LBB12_19:
	@DEBUG_VALUE: HAL_TIMEx_OCN_Start_IT:Channel <- [DW_OP_LLVM_entry_value 1] $r1
	@DEBUG_VALUE: HAL_TIMEx_OCN_Start_IT:htim <- [DW_OP_LLVM_entry_value 1] $r0
	.loc	7 0 7                           @ c:/Keil_v5\ARM\PACK\Keil\STM32L5xx_DFP\1.3.0\Drivers\STM32L5xx_HAL_Driver\Src\stm32l5xx_hal_tim_ex.c:0:7
	movw	r0, #16384
	movt	r0, #16385
	.loc	7 763 7                         @ c:/Keil_v5\ARM\PACK\Keil\STM32L5xx_DFP\1.3.0\Drivers\STM32L5xx_HAL_Driver\Src\stm32l5xx_hal_tim_ex.c:763:7
	cmp	r2, r0
	beq	.LBB12_21
.Ltmp233:
@ %bb.20:
	@DEBUG_VALUE: HAL_TIMEx_OCN_Start_IT:Channel <- [DW_OP_LLVM_entry_value 1] $r1
	@DEBUG_VALUE: HAL_TIMEx_OCN_Start_IT:htim <- [DW_OP_LLVM_entry_value 1] $r0
	.loc	7 0 7                           @ c:/Keil_v5\ARM\PACK\Keil\STM32L5xx_DFP\1.3.0\Drivers\STM32L5xx_HAL_Driver\Src\stm32l5xx_hal_tim_ex.c:0:7
	movw	r0, #13312
	movt	r0, #16385
	.loc	7 763 7                         @ c:/Keil_v5\ARM\PACK\Keil\STM32L5xx_DFP\1.3.0\Drivers\STM32L5xx_HAL_Driver\Src\stm32l5xx_hal_tim_ex.c:763:7
	cmp	r2, r0
	bne	.LBB12_23
.Ltmp234:
.LBB12_21:
	@DEBUG_VALUE: HAL_TIMEx_OCN_Start_IT:Channel <- [DW_OP_LLVM_entry_value 1] $r1
	@DEBUG_VALUE: HAL_TIMEx_OCN_Start_IT:htim <- [DW_OP_LLVM_entry_value 1] $r0
	.loc	7 765 31 is_stmt 1              @ c:/Keil_v5\ARM\PACK\Keil\STM32L5xx_DFP\1.3.0\Drivers\STM32L5xx_HAL_Driver\Src\stm32l5xx_hal_tim_ex.c:765:31
	ldr	r0, [r2, #8]
	movs	r1, #7
	movt	r1, #1
	.loc	7 765 36 is_stmt 0              @ c:/Keil_v5\ARM\PACK\Keil\STM32L5xx_DFP\1.3.0\Drivers\STM32L5xx_HAL_Driver\Src\stm32l5xx_hal_tim_ex.c:765:36
	ands	r1, r0
.Ltmp235:
	@DEBUG_VALUE: HAL_TIMEx_OCN_Start_IT:tmpsmcr <- $r1
	.loc	7 766 10 is_stmt 1              @ c:/Keil_v5\ARM\PACK\Keil\STM32L5xx_DFP\1.3.0\Drivers\STM32L5xx_HAL_Driver\Src\stm32l5xx_hal_tim_ex.c:766:10
	cmp	r1, #6
	mov.w	r0, #0
	it	ne
	cmpne.w	r1, #65536
	bne	.LBB12_23
.Ltmp236:
@ %bb.22:
	@DEBUG_VALUE: HAL_TIMEx_OCN_Start_IT:tmpsmcr <- $r1
	@DEBUG_VALUE: HAL_TIMEx_OCN_Start_IT:Channel <- [DW_OP_LLVM_entry_value 1] $r1
	@DEBUG_VALUE: HAL_TIMEx_OCN_Start_IT:htim <- [DW_OP_LLVM_entry_value 1] $r0
	.loc	7 778 1                         @ c:/Keil_v5\ARM\PACK\Keil\STM32L5xx_DFP\1.3.0\Drivers\STM32L5xx_HAL_Driver\Src\stm32l5xx_hal_tim_ex.c:778:1
	bx	lr
.Ltmp237:
	.p2align	2
.LBB12_23:
	@DEBUG_VALUE: HAL_TIMEx_OCN_Start_IT:Channel <- [DW_OP_LLVM_entry_value 1] $r1
	@DEBUG_VALUE: HAL_TIMEx_OCN_Start_IT:htim <- [DW_OP_LLVM_entry_value 1] $r0
	.loc	7 0 0 is_stmt 0                 @ c:/Keil_v5\ARM\PACK\Keil\STM32L5xx_DFP\1.3.0\Drivers\STM32L5xx_HAL_Driver\Src\stm32l5xx_hal_tim_ex.c:0:0
	ldr	r0, [r2]
	orr	r0, r0, #1
	str	r0, [r2]
	movs	r0, #0
.Ltmp238:
	.loc	7 778 1                         @ c:/Keil_v5\ARM\PACK\Keil\STM32L5xx_DFP\1.3.0\Drivers\STM32L5xx_HAL_Driver\Src\stm32l5xx_hal_tim_ex.c:778:1
	bx	lr
.Ltmp239:
.Lfunc_end12:
	.size	HAL_TIMEx_OCN_Start_IT, .Lfunc_end12-HAL_TIMEx_OCN_Start_IT
	.cfi_endproc
	.cantunwind
	.fnend
                                        @ -- End function
	.section	.text.HAL_TIMEx_OCN_Stop_IT,"ax",%progbits
	.hidden	HAL_TIMEx_OCN_Stop_IT           @ -- Begin function HAL_TIMEx_OCN_Stop_IT
	.globl	HAL_TIMEx_OCN_Stop_IT
	.p2align	2
	.type	HAL_TIMEx_OCN_Stop_IT,%function
	.code	16                              @ @HAL_TIMEx_OCN_Stop_IT
	.thumb_func
HAL_TIMEx_OCN_Stop_IT:
.Lfunc_begin13:
	.loc	7 792 0 is_stmt 1               @ c:/Keil_v5\ARM\PACK\Keil\STM32L5xx_DFP\1.3.0\Drivers\STM32L5xx_HAL_Driver\Src\stm32l5xx_hal_tim_ex.c:792:0
	.fnstart
	.cfi_startproc
@ %bb.0:
	@DEBUG_VALUE: HAL_TIMEx_OCN_Stop_IT:htim <- $r0
	@DEBUG_VALUE: HAL_TIMEx_OCN_Stop_IT:Channel <- $r1
	@DEBUG_VALUE: HAL_TIMEx_OCN_Stop_IT:Channel <- $r1
	.save	{r4, lr}
	push	{r4, lr}
	.cfi_def_cfa_offset 8
	.cfi_offset lr, -4
	.cfi_offset r4, -8
	@DEBUG_VALUE: HAL_TIMEx_OCN_Stop_IT:htim <- $r0
.Ltmp240:
	.loc	7 797 3 prologue_end            @ c:/Keil_v5\ARM\PACK\Keil\STM32L5xx_DFP\1.3.0\Drivers\STM32L5xx_HAL_Driver\Src\stm32l5xx_hal_tim_ex.c:797:3
	cbz	r1, .LBB13_4
.Ltmp241:
@ %bb.1:
	@DEBUG_VALUE: HAL_TIMEx_OCN_Stop_IT:Channel <- $r1
	@DEBUG_VALUE: HAL_TIMEx_OCN_Stop_IT:htim <- $r0
	cmp	r1, #4
	beq	.LBB13_5
.Ltmp242:
@ %bb.2:
	@DEBUG_VALUE: HAL_TIMEx_OCN_Stop_IT:Channel <- $r1
	@DEBUG_VALUE: HAL_TIMEx_OCN_Stop_IT:htim <- $r0
	cmp	r1, #8
	bne	.LBB13_7
.Ltmp243:
@ %bb.3:
	@DEBUG_VALUE: HAL_TIMEx_OCN_Stop_IT:Channel <- $r1
	@DEBUG_VALUE: HAL_TIMEx_OCN_Stop_IT:htim <- $r0
	.loc	7 816 7                         @ c:/Keil_v5\ARM\PACK\Keil\STM32L5xx_DFP\1.3.0\Drivers\STM32L5xx_HAL_Driver\Src\stm32l5xx_hal_tim_ex.c:816:7
	ldr	r2, [r0]
	ldr	r3, [r2, #12]
	bic	r3, r3, #8
	b	.LBB13_6
.Ltmp244:
	.p2align	2
.LBB13_4:
	@DEBUG_VALUE: HAL_TIMEx_OCN_Stop_IT:Channel <- $r1
	@DEBUG_VALUE: HAL_TIMEx_OCN_Stop_IT:htim <- $r0
	.loc	7 802 7                         @ c:/Keil_v5\ARM\PACK\Keil\STM32L5xx_DFP\1.3.0\Drivers\STM32L5xx_HAL_Driver\Src\stm32l5xx_hal_tim_ex.c:802:7
	ldr	r2, [r0]
	ldr	r3, [r2, #12]
	bic	r3, r3, #2
	b	.LBB13_6
.Ltmp245:
	.p2align	2
.LBB13_5:
	@DEBUG_VALUE: HAL_TIMEx_OCN_Stop_IT:Channel <- $r1
	@DEBUG_VALUE: HAL_TIMEx_OCN_Stop_IT:htim <- $r0
	.loc	7 809 7                         @ c:/Keil_v5\ARM\PACK\Keil\STM32L5xx_DFP\1.3.0\Drivers\STM32L5xx_HAL_Driver\Src\stm32l5xx_hal_tim_ex.c:809:7
	ldr	r2, [r0]
	ldr	r3, [r2, #12]
	bic	r3, r3, #4
.Ltmp246:
.LBB13_6:
	@DEBUG_VALUE: HAL_TIMEx_OCN_Stop_IT:Channel <- $r1
	@DEBUG_VALUE: HAL_TIMEx_OCN_Stop_IT:htim <- $r0
	.loc	7 0 0 is_stmt 0                 @ c:/Keil_v5\ARM\PACK\Keil\STM32L5xx_DFP\1.3.0\Drivers\STM32L5xx_HAL_Driver\Src\stm32l5xx_hal_tim_ex.c:0:0
	str	r3, [r2, #12]
	b	.LBB13_8
.Ltmp247:
	.p2align	2
.LBB13_7:
	@DEBUG_VALUE: HAL_TIMEx_OCN_Stop_IT:Channel <- $r1
	@DEBUG_VALUE: HAL_TIMEx_OCN_Stop_IT:htim <- $r0
	.loc	7 825 28 is_stmt 1              @ c:/Keil_v5\ARM\PACK\Keil\STM32L5xx_DFP\1.3.0\Drivers\STM32L5xx_HAL_Driver\Src\stm32l5xx_hal_tim_ex.c:825:28
	ldr	r2, [r0]
.Ltmp248:
.LBB13_8:
	@DEBUG_VALUE: HAL_TIMEx_OCN_Stop_IT:Channel <- $r1
	@DEBUG_VALUE: HAL_TIMEx_OCN_Stop_IT:htim <- $r0
	@DEBUG_VALUE: TIM_CCxNChannelCmd:TIMx <- $r2
	@DEBUG_VALUE: TIM_CCxNChannelCmd:Channel <- $r1
	@DEBUG_VALUE: TIM_CCxNChannelCmd:ChannelNState <- 0
	.loc	7 2735 36                       @ c:/Keil_v5\ARM\PACK\Keil\STM32L5xx_DFP\1.3.0\Drivers\STM32L5xx_HAL_Driver\Src\stm32l5xx_hal_tim_ex.c:2735:36
	and	lr, r1, #31
	mov.w	r12, #4
	.loc	7 2738 14                       @ c:/Keil_v5\ARM\PACK\Keil\STM32L5xx_DFP\1.3.0\Drivers\STM32L5xx_HAL_Driver\Src\stm32l5xx_hal_tim_ex.c:2738:14
	ldr	r4, [r2, #32]
	.loc	7 2735 24                       @ c:/Keil_v5\ARM\PACK\Keil\STM32L5xx_DFP\1.3.0\Drivers\STM32L5xx_HAL_Driver\Src\stm32l5xx_hal_tim_ex.c:2735:24
	lsl.w	r3, r12, lr
.Ltmp249:
	@DEBUG_VALUE: TIM_CCxNChannelCmd:tmp <- $r3
	.loc	7 2738 14                       @ c:/Keil_v5\ARM\PACK\Keil\STM32L5xx_DFP\1.3.0\Drivers\STM32L5xx_HAL_Driver\Src\stm32l5xx_hal_tim_ex.c:2738:14
	bic.w	r3, r4, r3
.Ltmp250:
	str	r3, [r2, #32]
	.loc	7 2741 14                       @ c:/Keil_v5\ARM\PACK\Keil\STM32L5xx_DFP\1.3.0\Drivers\STM32L5xx_HAL_Driver\Src\stm32l5xx_hal_tim_ex.c:2741:14
	ldr	r3, [r2, #32]
	movw	r4, #1092
	str	r3, [r2, #32]
.Ltmp251:
	.loc	7 828 29                        @ c:/Keil_v5\ARM\PACK\Keil\STM32L5xx_DFP\1.3.0\Drivers\STM32L5xx_HAL_Driver\Src\stm32l5xx_hal_tim_ex.c:828:29
	ldr	r3, [r2, #32]
.Ltmp252:
	@DEBUG_VALUE: HAL_TIMEx_OCN_Stop_IT:tmpccer <- $r3
	.loc	7 829 7                         @ c:/Keil_v5\ARM\PACK\Keil\STM32L5xx_DFP\1.3.0\Drivers\STM32L5xx_HAL_Driver\Src\stm32l5xx_hal_tim_ex.c:829:7
	tst	r3, r4
	beq	.LBB13_10
.Ltmp253:
@ %bb.9:
	@DEBUG_VALUE: HAL_TIMEx_OCN_Stop_IT:tmpccer <- $r3
	@DEBUG_VALUE: HAL_TIMEx_OCN_Stop_IT:Channel <- $r1
	@DEBUG_VALUE: HAL_TIMEx_OCN_Stop_IT:htim <- $r0
	.loc	7 835 3                         @ c:/Keil_v5\ARM\PACK\Keil\STM32L5xx_DFP\1.3.0\Drivers\STM32L5xx_HAL_Driver\Src\stm32l5xx_hal_tim_ex.c:835:3
	ldr	r4, [r2, #32]
	movw	r3, #4369
.Ltmp254:
	.loc	7 835 3 is_stmt 0               @ c:/Keil_v5\ARM\PACK\Keil\STM32L5xx_DFP\1.3.0\Drivers\STM32L5xx_HAL_Driver\Src\stm32l5xx_hal_tim_ex.c:835:3
	tst	r4, r3
	bne	.LBB13_12
	b	.LBB13_11
.Ltmp255:
	.p2align	2
.LBB13_10:
	@DEBUG_VALUE: HAL_TIMEx_OCN_Stop_IT:tmpccer <- $r3
	@DEBUG_VALUE: HAL_TIMEx_OCN_Stop_IT:Channel <- $r1
	@DEBUG_VALUE: HAL_TIMEx_OCN_Stop_IT:htim <- $r0
	.loc	7 831 5 is_stmt 1               @ c:/Keil_v5\ARM\PACK\Keil\STM32L5xx_DFP\1.3.0\Drivers\STM32L5xx_HAL_Driver\Src\stm32l5xx_hal_tim_ex.c:831:5
	ldr	r3, [r2, #12]
.Ltmp256:
	bic	r3, r3, #128
	str	r3, [r2, #12]
.Ltmp257:
	.loc	7 835 3                         @ c:/Keil_v5\ARM\PACK\Keil\STM32L5xx_DFP\1.3.0\Drivers\STM32L5xx_HAL_Driver\Src\stm32l5xx_hal_tim_ex.c:835:3
	ldr	r4, [r2, #32]
	movw	r3, #4369
.Ltmp258:
	.loc	7 835 3 is_stmt 0               @ c:/Keil_v5\ARM\PACK\Keil\STM32L5xx_DFP\1.3.0\Drivers\STM32L5xx_HAL_Driver\Src\stm32l5xx_hal_tim_ex.c:835:3
	tst	r4, r3
	bne	.LBB13_12
.Ltmp259:
.LBB13_11:
	@DEBUG_VALUE: HAL_TIMEx_OCN_Stop_IT:Channel <- $r1
	@DEBUG_VALUE: HAL_TIMEx_OCN_Stop_IT:htim <- $r0
	.loc	7 835 3                         @ c:/Keil_v5\ARM\PACK\Keil\STM32L5xx_DFP\1.3.0\Drivers\STM32L5xx_HAL_Driver\Src\stm32l5xx_hal_tim_ex.c:835:3
	ldr.w	r12, [r2, #32]
	movw	r4, #1092
.Ltmp260:
	.loc	7 835 3                         @ c:/Keil_v5\ARM\PACK\Keil\STM32L5xx_DFP\1.3.0\Drivers\STM32L5xx_HAL_Driver\Src\stm32l5xx_hal_tim_ex.c:835:3
	tst.w	r12, r4
	beq	.LBB13_15
.Ltmp261:
.LBB13_12:
	@DEBUG_VALUE: HAL_TIMEx_OCN_Stop_IT:Channel <- $r1
	@DEBUG_VALUE: HAL_TIMEx_OCN_Stop_IT:htim <- $r0
	.loc	7 838 3 is_stmt 1               @ c:/Keil_v5\ARM\PACK\Keil\STM32L5xx_DFP\1.3.0\Drivers\STM32L5xx_HAL_Driver\Src\stm32l5xx_hal_tim_ex.c:838:3
	ldr	r4, [r2, #32]
.Ltmp262:
	.loc	7 838 3 is_stmt 0               @ c:/Keil_v5\ARM\PACK\Keil\STM32L5xx_DFP\1.3.0\Drivers\STM32L5xx_HAL_Driver\Src\stm32l5xx_hal_tim_ex.c:838:3
	tst	r4, r3
	bne	.LBB13_16
.Ltmp263:
.LBB13_13:
	@DEBUG_VALUE: HAL_TIMEx_OCN_Stop_IT:Channel <- $r1
	@DEBUG_VALUE: HAL_TIMEx_OCN_Stop_IT:htim <- $r0
	.loc	7 838 3                         @ c:/Keil_v5\ARM\PACK\Keil\STM32L5xx_DFP\1.3.0\Drivers\STM32L5xx_HAL_Driver\Src\stm32l5xx_hal_tim_ex.c:838:3
	ldr	r3, [r2, #32]
	movw	r4, #1092
.Ltmp264:
	.loc	7 838 3                         @ c:/Keil_v5\ARM\PACK\Keil\STM32L5xx_DFP\1.3.0\Drivers\STM32L5xx_HAL_Driver\Src\stm32l5xx_hal_tim_ex.c:838:3
	tst	r3, r4
	bne	.LBB13_16
.Ltmp265:
@ %bb.14:
	@DEBUG_VALUE: HAL_TIMEx_OCN_Stop_IT:Channel <- $r1
	@DEBUG_VALUE: HAL_TIMEx_OCN_Stop_IT:htim <- $r0
	.loc	7 838 3                         @ c:/Keil_v5\ARM\PACK\Keil\STM32L5xx_DFP\1.3.0\Drivers\STM32L5xx_HAL_Driver\Src\stm32l5xx_hal_tim_ex.c:838:3
	ldr	r3, [r2]
	bic	r3, r3, #1
	str	r3, [r2]
	b	.LBB13_16
.Ltmp266:
	.p2align	2
.LBB13_15:
	@DEBUG_VALUE: HAL_TIMEx_OCN_Stop_IT:Channel <- $r1
	@DEBUG_VALUE: HAL_TIMEx_OCN_Stop_IT:htim <- $r0
	.loc	7 835 3 is_stmt 1               @ c:/Keil_v5\ARM\PACK\Keil\STM32L5xx_DFP\1.3.0\Drivers\STM32L5xx_HAL_Driver\Src\stm32l5xx_hal_tim_ex.c:835:3
	ldr	r4, [r2, #68]
	bic	r4, r4, #32768
	str	r4, [r2, #68]
.Ltmp267:
	.loc	7 838 3                         @ c:/Keil_v5\ARM\PACK\Keil\STM32L5xx_DFP\1.3.0\Drivers\STM32L5xx_HAL_Driver\Src\stm32l5xx_hal_tim_ex.c:838:3
	ldr	r4, [r2, #32]
.Ltmp268:
	.loc	7 838 3 is_stmt 0               @ c:/Keil_v5\ARM\PACK\Keil\STM32L5xx_DFP\1.3.0\Drivers\STM32L5xx_HAL_Driver\Src\stm32l5xx_hal_tim_ex.c:838:3
	tst	r4, r3
	beq	.LBB13_13
.Ltmp269:
.LBB13_16:
	@DEBUG_VALUE: HAL_TIMEx_OCN_Stop_IT:Channel <- $r1
	@DEBUG_VALUE: HAL_TIMEx_OCN_Stop_IT:htim <- $r0
	.loc	7 841 3 is_stmt 1               @ c:/Keil_v5\ARM\PACK\Keil\STM32L5xx_DFP\1.3.0\Drivers\STM32L5xx_HAL_Driver\Src\stm32l5xx_hal_tim_ex.c:841:3
	cmp	r1, #8
	beq	.LBB13_19
.Ltmp270:
@ %bb.17:
	@DEBUG_VALUE: HAL_TIMEx_OCN_Stop_IT:Channel <- $r1
	@DEBUG_VALUE: HAL_TIMEx_OCN_Stop_IT:htim <- $r0
	cmp	r1, #4
	beq	.LBB13_20
.Ltmp271:
@ %bb.18:
	@DEBUG_VALUE: HAL_TIMEx_OCN_Stop_IT:Channel <- $r1
	@DEBUG_VALUE: HAL_TIMEx_OCN_Stop_IT:htim <- $r0
	cmp	r1, #0
	mov.w	r1, #1
.Ltmp272:
	@DEBUG_VALUE: HAL_TIMEx_OCN_Stop_IT:Channel <- [DW_OP_LLVM_entry_value 1] $r1
	ite	ne
	strbne.w	r1, [r0, #71]
	strbeq.w	r1, [r0, #68]
	.loc	7 844 3                         @ c:/Keil_v5\ARM\PACK\Keil\STM32L5xx_DFP\1.3.0\Drivers\STM32L5xx_HAL_Driver\Src\stm32l5xx_hal_tim_ex.c:844:3
	movs	r0, #0
.Ltmp273:
	@DEBUG_VALUE: HAL_TIMEx_OCN_Stop_IT:htim <- [DW_OP_LLVM_entry_value 1] $r0
	pop	{r4, pc}
.Ltmp274:
	.p2align	2
.LBB13_19:
	@DEBUG_VALUE: HAL_TIMEx_OCN_Stop_IT:Channel <- $r1
	@DEBUG_VALUE: HAL_TIMEx_OCN_Stop_IT:htim <- $r0
	.loc	7 0 3 is_stmt 0                 @ c:/Keil_v5\ARM\PACK\Keil\STM32L5xx_DFP\1.3.0\Drivers\STM32L5xx_HAL_Driver\Src\stm32l5xx_hal_tim_ex.c:0:3
	movs	r1, #1
.Ltmp275:
	@DEBUG_VALUE: HAL_TIMEx_OCN_Stop_IT:Channel <- [DW_OP_LLVM_entry_value 1] $r1
	.loc	7 841 3 is_stmt 1               @ c:/Keil_v5\ARM\PACK\Keil\STM32L5xx_DFP\1.3.0\Drivers\STM32L5xx_HAL_Driver\Src\stm32l5xx_hal_tim_ex.c:841:3
	strb.w	r1, [r0, #70]
	.loc	7 844 3                         @ c:/Keil_v5\ARM\PACK\Keil\STM32L5xx_DFP\1.3.0\Drivers\STM32L5xx_HAL_Driver\Src\stm32l5xx_hal_tim_ex.c:844:3
	movs	r0, #0
.Ltmp276:
	@DEBUG_VALUE: HAL_TIMEx_OCN_Stop_IT:htim <- [DW_OP_LLVM_entry_value 1] $r0
	pop	{r4, pc}
.Ltmp277:
	.p2align	2
.LBB13_20:
	@DEBUG_VALUE: HAL_TIMEx_OCN_Stop_IT:Channel <- $r1
	@DEBUG_VALUE: HAL_TIMEx_OCN_Stop_IT:htim <- $r0
	.loc	7 0 3 is_stmt 0                 @ c:/Keil_v5\ARM\PACK\Keil\STM32L5xx_DFP\1.3.0\Drivers\STM32L5xx_HAL_Driver\Src\stm32l5xx_hal_tim_ex.c:0:3
	movs	r1, #1
.Ltmp278:
	@DEBUG_VALUE: HAL_TIMEx_OCN_Stop_IT:Channel <- [DW_OP_LLVM_entry_value 1] $r1
	.loc	7 841 3 is_stmt 1               @ c:/Keil_v5\ARM\PACK\Keil\STM32L5xx_DFP\1.3.0\Drivers\STM32L5xx_HAL_Driver\Src\stm32l5xx_hal_tim_ex.c:841:3
	strb.w	r1, [r0, #69]
	.loc	7 844 3                         @ c:/Keil_v5\ARM\PACK\Keil\STM32L5xx_DFP\1.3.0\Drivers\STM32L5xx_HAL_Driver\Src\stm32l5xx_hal_tim_ex.c:844:3
	movs	r0, #0
.Ltmp279:
	@DEBUG_VALUE: HAL_TIMEx_OCN_Stop_IT:htim <- [DW_OP_LLVM_entry_value 1] $r0
	pop	{r4, pc}
.Ltmp280:
.Lfunc_end13:
	.size	HAL_TIMEx_OCN_Stop_IT, .Lfunc_end13-HAL_TIMEx_OCN_Stop_IT
	.cfi_endproc
	.cantunwind
	.fnend
                                        @ -- End function
	.section	.text.HAL_TIMEx_OCN_Start_DMA,"ax",%progbits
	.hidden	HAL_TIMEx_OCN_Start_DMA         @ -- Begin function HAL_TIMEx_OCN_Start_DMA
	.globl	HAL_TIMEx_OCN_Start_DMA
	.p2align	2
	.type	HAL_TIMEx_OCN_Start_DMA,%function
	.code	16                              @ @HAL_TIMEx_OCN_Start_DMA
	.thumb_func
HAL_TIMEx_OCN_Start_DMA:
.Lfunc_begin14:
	.loc	7 861 0                         @ c:/Keil_v5\ARM\PACK\Keil\STM32L5xx_DFP\1.3.0\Drivers\STM32L5xx_HAL_Driver\Src\stm32l5xx_hal_tim_ex.c:861:0
	.fnstart
	.cfi_startproc
@ %bb.0:
	@DEBUG_VALUE: HAL_TIMEx_OCN_Start_DMA:htim <- $r0
	@DEBUG_VALUE: HAL_TIMEx_OCN_Start_DMA:Channel <- $r1
	@DEBUG_VALUE: HAL_TIMEx_OCN_Start_DMA:pData <- $r2
	@DEBUG_VALUE: HAL_TIMEx_OCN_Start_DMA:Length <- $r3
	.save	{r4, r5, r7, lr}
	push	{r4, r5, r7, lr}
	.cfi_def_cfa_offset 16
	.cfi_offset lr, -4
	.cfi_offset r7, -8
	.cfi_offset r5, -12
	.cfi_offset r4, -16
	mov	r4, r1
	@DEBUG_VALUE: HAL_TIMEx_OCN_Start_DMA:Length <- $r3
	@DEBUG_VALUE: HAL_TIMEx_OCN_Start_DMA:pData <- $r2
.Ltmp281:
	@DEBUG_VALUE: HAL_TIMEx_OCN_Start_DMA:Channel <- $r4
	mov	r5, r0
.Ltmp282:
	@DEBUG_VALUE: HAL_TIMEx_OCN_Start_DMA:htim <- $r5
	@DEBUG_VALUE: HAL_TIMEx_OCN_Start_DMA:htim <- $r5
	.loc	7 868 7 prologue_end            @ c:/Keil_v5\ARM\PACK\Keil\STM32L5xx_DFP\1.3.0\Drivers\STM32L5xx_HAL_Driver\Src\stm32l5xx_hal_tim_ex.c:868:7
	cbz	r1, .LBB14_3
.Ltmp283:
@ %bb.1:
	@DEBUG_VALUE: HAL_TIMEx_OCN_Start_DMA:htim <- $r5
	@DEBUG_VALUE: HAL_TIMEx_OCN_Start_DMA:Channel <- $r4
	@DEBUG_VALUE: HAL_TIMEx_OCN_Start_DMA:Length <- $r3
	@DEBUG_VALUE: HAL_TIMEx_OCN_Start_DMA:pData <- $r2
	cmp	r4, #8
	beq	.LBB14_5
.Ltmp284:
@ %bb.2:
	@DEBUG_VALUE: HAL_TIMEx_OCN_Start_DMA:htim <- $r5
	@DEBUG_VALUE: HAL_TIMEx_OCN_Start_DMA:Channel <- $r4
	@DEBUG_VALUE: HAL_TIMEx_OCN_Start_DMA:Length <- $r3
	@DEBUG_VALUE: HAL_TIMEx_OCN_Start_DMA:pData <- $r2
	cmp	r4, #4
	ite	ne
	addne.w	r0, r5, #71
	addeq.w	r0, r5, #69
	b	.LBB14_6
.Ltmp285:
	.p2align	2
.LBB14_3:
	@DEBUG_VALUE: HAL_TIMEx_OCN_Start_DMA:htim <- $r5
	@DEBUG_VALUE: HAL_TIMEx_OCN_Start_DMA:Channel <- $r4
	@DEBUG_VALUE: HAL_TIMEx_OCN_Start_DMA:Length <- $r3
	@DEBUG_VALUE: HAL_TIMEx_OCN_Start_DMA:pData <- $r2
	ldrb.w	r0, [r5, #68]
.Ltmp286:
	.loc	7 868 7 is_stmt 0               @ c:/Keil_v5\ARM\PACK\Keil\STM32L5xx_DFP\1.3.0\Drivers\STM32L5xx_HAL_Driver\Src\stm32l5xx_hal_tim_ex.c:868:7
	cmp	r0, #2
	itt	eq
	moveq	r0, #2
	.loc	7 973 1 is_stmt 1               @ c:/Keil_v5\ARM\PACK\Keil\STM32L5xx_DFP\1.3.0\Drivers\STM32L5xx_HAL_Driver\Src\stm32l5xx_hal_tim_ex.c:973:1
	popeq	{r4, r5, r7, pc}
.Ltmp287:
.LBB14_4:
	@DEBUG_VALUE: HAL_TIMEx_OCN_Start_DMA:Length <- $r3
	@DEBUG_VALUE: HAL_TIMEx_OCN_Start_DMA:pData <- $r2
	.loc	7 872 12                        @ c:/Keil_v5\ARM\PACK\Keil\STM32L5xx_DFP\1.3.0\Drivers\STM32L5xx_HAL_Driver\Src\stm32l5xx_hal_tim_ex.c:872:12
	add.w	r0, r5, #68
	@DEBUG_VALUE: HAL_TIMEx_OCN_Start_DMA:Length <- $r3
	ldrb	r0, [r0]
.Ltmp288:
	.loc	7 872 12 is_stmt 0              @ c:/Keil_v5\ARM\PACK\Keil\STM32L5xx_DFP\1.3.0\Drivers\STM32L5xx_HAL_Driver\Src\stm32l5xx_hal_tim_ex.c:872:12
	cmp	r0, #1
	beq	.LBB14_10
	b	.LBB14_12
.Ltmp289:
	.p2align	2
.LBB14_5:
	@DEBUG_VALUE: HAL_TIMEx_OCN_Start_DMA:htim <- $r5
	@DEBUG_VALUE: HAL_TIMEx_OCN_Start_DMA:Channel <- $r4
	@DEBUG_VALUE: HAL_TIMEx_OCN_Start_DMA:Length <- $r3
	@DEBUG_VALUE: HAL_TIMEx_OCN_Start_DMA:pData <- $r2
	.loc	7 868 7 is_stmt 1               @ c:/Keil_v5\ARM\PACK\Keil\STM32L5xx_DFP\1.3.0\Drivers\STM32L5xx_HAL_Driver\Src\stm32l5xx_hal_tim_ex.c:868:7
	add.w	r0, r5, #70
.Ltmp290:
.LBB14_6:
	@DEBUG_VALUE: HAL_TIMEx_OCN_Start_DMA:htim <- $r5
	@DEBUG_VALUE: HAL_TIMEx_OCN_Start_DMA:Channel <- $r4
	@DEBUG_VALUE: HAL_TIMEx_OCN_Start_DMA:Length <- $r3
	@DEBUG_VALUE: HAL_TIMEx_OCN_Start_DMA:pData <- $r2
	ldrb	r0, [r0]
.Ltmp291:
	.loc	7 868 7 is_stmt 0               @ c:/Keil_v5\ARM\PACK\Keil\STM32L5xx_DFP\1.3.0\Drivers\STM32L5xx_HAL_Driver\Src\stm32l5xx_hal_tim_ex.c:868:7
	cmp	r0, #2
	itt	eq
	moveq	r0, #2
	.loc	7 973 1 is_stmt 1               @ c:/Keil_v5\ARM\PACK\Keil\STM32L5xx_DFP\1.3.0\Drivers\STM32L5xx_HAL_Driver\Src\stm32l5xx_hal_tim_ex.c:973:1
	popeq	{r4, r5, r7, pc}
.Ltmp292:
.LBB14_7:
	@DEBUG_VALUE: HAL_TIMEx_OCN_Start_DMA:Length <- $r3
	@DEBUG_VALUE: HAL_TIMEx_OCN_Start_DMA:pData <- $r2
	.loc	7 872 12                        @ c:/Keil_v5\ARM\PACK\Keil\STM32L5xx_DFP\1.3.0\Drivers\STM32L5xx_HAL_Driver\Src\stm32l5xx_hal_tim_ex.c:872:12
	cmp	r4, #8
	beq	.LBB14_9
.Ltmp293:
@ %bb.8:
	@DEBUG_VALUE: HAL_TIMEx_OCN_Start_DMA:Length <- $r3
	@DEBUG_VALUE: HAL_TIMEx_OCN_Start_DMA:pData <- $r2
	cmp	r4, #4
	ite	ne
	addne.w	r0, r5, #71
	addeq.w	r0, r5, #69
	@DEBUG_VALUE: HAL_TIMEx_OCN_Start_DMA:Length <- $r3
	ldrb	r0, [r0]
.Ltmp294:
	.loc	7 872 12 is_stmt 0              @ c:/Keil_v5\ARM\PACK\Keil\STM32L5xx_DFP\1.3.0\Drivers\STM32L5xx_HAL_Driver\Src\stm32l5xx_hal_tim_ex.c:872:12
	cmp	r0, #1
	bne	.LBB14_12
	b	.LBB14_10
.Ltmp295:
	.p2align	2
.LBB14_9:
	@DEBUG_VALUE: HAL_TIMEx_OCN_Start_DMA:Length <- $r3
	@DEBUG_VALUE: HAL_TIMEx_OCN_Start_DMA:pData <- $r2
	.loc	7 872 12                        @ c:/Keil_v5\ARM\PACK\Keil\STM32L5xx_DFP\1.3.0\Drivers\STM32L5xx_HAL_Driver\Src\stm32l5xx_hal_tim_ex.c:872:12
	add.w	r0, r5, #70
	@DEBUG_VALUE: HAL_TIMEx_OCN_Start_DMA:Length <- $r3
	ldrb	r0, [r0]
.Ltmp296:
	.loc	7 872 12                        @ c:/Keil_v5\ARM\PACK\Keil\STM32L5xx_DFP\1.3.0\Drivers\STM32L5xx_HAL_Driver\Src\stm32l5xx_hal_tim_ex.c:872:12
	cmp	r0, #1
	bne	.LBB14_12
.Ltmp297:
.LBB14_10:
	@DEBUG_VALUE: HAL_TIMEx_OCN_Start_DMA:Length <- $r3
	@DEBUG_VALUE: HAL_TIMEx_OCN_Start_DMA:pData <- $r2
	@DEBUG_VALUE: HAL_TIMEx_OCN_Start_DMA:Length <- $r3
	.loc	7 874 25 is_stmt 1              @ c:/Keil_v5\ARM\PACK\Keil\STM32L5xx_DFP\1.3.0\Drivers\STM32L5xx_HAL_Driver\Src\stm32l5xx_hal_tim_ex.c:874:25
	cbnz	r2, .LBB14_13
.Ltmp298:
@ %bb.11:
	@DEBUG_VALUE: HAL_TIMEx_OCN_Start_DMA:Length <- $r3
	@DEBUG_VALUE: HAL_TIMEx_OCN_Start_DMA:pData <- $r2
	cbz	r3, .LBB14_13
.Ltmp299:
.LBB14_12:
	@DEBUG_VALUE: HAL_TIMEx_OCN_Start_DMA:Length <- $r3
	@DEBUG_VALUE: HAL_TIMEx_OCN_Start_DMA:pData <- $r2
	.loc	7 0 25 is_stmt 0                @ c:/Keil_v5\ARM\PACK\Keil\STM32L5xx_DFP\1.3.0\Drivers\STM32L5xx_HAL_Driver\Src\stm32l5xx_hal_tim_ex.c:0:25
	movs	r0, #1
	.loc	7 973 1 is_stmt 1               @ c:/Keil_v5\ARM\PACK\Keil\STM32L5xx_DFP\1.3.0\Drivers\STM32L5xx_HAL_Driver\Src\stm32l5xx_hal_tim_ex.c:973:1
	pop	{r4, r5, r7, pc}
.Ltmp300:
	.p2align	2
.LBB14_13:
	@DEBUG_VALUE: HAL_TIMEx_OCN_Start_DMA:Length <- $r3
	@DEBUG_VALUE: HAL_TIMEx_OCN_Start_DMA:pData <- $r2
	@DEBUG_VALUE: HAL_TIMEx_OCN_Start_DMA:Length <- $r3
	.loc	7 0 1 is_stmt 0                 @ c:/Keil_v5\ARM\PACK\Keil\STM32L5xx_DFP\1.3.0\Drivers\STM32L5xx_HAL_Driver\Src\stm32l5xx_hal_tim_ex.c:0:1
	movs	r0, #2
.Ltmp301:
	.loc	7 880 7 is_stmt 1               @ c:/Keil_v5\ARM\PACK\Keil\STM32L5xx_DFP\1.3.0\Drivers\STM32L5xx_HAL_Driver\Src\stm32l5xx_hal_tim_ex.c:880:7
	cbz	r4, .LBB14_18
.Ltmp302:
@ %bb.14:
	@DEBUG_VALUE: HAL_TIMEx_OCN_Start_DMA:Length <- $r3
	@DEBUG_VALUE: HAL_TIMEx_OCN_Start_DMA:pData <- $r2
	cmp	r4, #8
	beq	.LBB14_20
.Ltmp303:
@ %bb.15:
	@DEBUG_VALUE: HAL_TIMEx_OCN_Start_DMA:Length <- $r3
	@DEBUG_VALUE: HAL_TIMEx_OCN_Start_DMA:pData <- $r2
	cmp	r4, #4
	bne	.LBB14_23
.Ltmp304:
@ %bb.16:
	@DEBUG_VALUE: HAL_TIMEx_OCN_Start_DMA:Length <- $r3
	@DEBUG_VALUE: HAL_TIMEx_OCN_Start_DMA:pData <- $r2
	strb.w	r0, [r5, #69]
.Ltmp305:
	.loc	7 912 7                         @ c:/Keil_v5\ARM\PACK\Keil\STM32L5xx_DFP\1.3.0\Drivers\STM32L5xx_HAL_Driver\Src\stm32l5xx_hal_tim_ex.c:912:7
	ldr	r0, [r5, #40]
	.loc	7 912 52 is_stmt 0              @ c:/Keil_v5\ARM\PACK\Keil\STM32L5xx_DFP\1.3.0\Drivers\STM32L5xx_HAL_Driver\Src\stm32l5xx_hal_tim_ex.c:912:52
	movw	r1, :lower16:TIM_DMADelayPulseNCplt
	movt	r1, :upper16:TIM_DMADelayPulseNCplt
	str	r1, [r0, #44]
	.loc	7 913 7 is_stmt 1               @ c:/Keil_v5\ARM\PACK\Keil\STM32L5xx_DFP\1.3.0\Drivers\STM32L5xx_HAL_Driver\Src\stm32l5xx_hal_tim_ex.c:913:7
	ldr	r0, [r5, #40]
	.loc	7 913 56 is_stmt 0              @ c:/Keil_v5\ARM\PACK\Keil\STM32L5xx_DFP\1.3.0\Drivers\STM32L5xx_HAL_Driver\Src\stm32l5xx_hal_tim_ex.c:913:56
	movw	r1, :lower16:TIM_DMADelayPulseHalfCplt
	movt	r1, :upper16:TIM_DMADelayPulseHalfCplt
	str	r1, [r0, #48]
	.loc	7 916 7 is_stmt 1               @ c:/Keil_v5\ARM\PACK\Keil\STM32L5xx_DFP\1.3.0\Drivers\STM32L5xx_HAL_Driver\Src\stm32l5xx_hal_tim_ex.c:916:7
	ldr	r0, [r5, #40]
	.loc	7 916 53 is_stmt 0              @ c:/Keil_v5\ARM\PACK\Keil\STM32L5xx_DFP\1.3.0\Drivers\STM32L5xx_HAL_Driver\Src\stm32l5xx_hal_tim_ex.c:916:53
	movw	r1, :lower16:TIM_DMAErrorCCxN
.Ltmp306:
	.loc	7 919 90 is_stmt 1              @ c:/Keil_v5\ARM\PACK\Keil\STM32L5xx_DFP\1.3.0\Drivers\STM32L5xx_HAL_Driver\Src\stm32l5xx_hal_tim_ex.c:919:90
	ldr.w	r12, [r5]
.Ltmp307:
	.loc	7 916 53                        @ c:/Keil_v5\ARM\PACK\Keil\STM32L5xx_DFP\1.3.0\Drivers\STM32L5xx_HAL_Driver\Src\stm32l5xx_hal_tim_ex.c:916:53
	movt	r1, :upper16:TIM_DMAErrorCCxN
	str	r1, [r0, #60]
.Ltmp308:
	.loc	7 919 28                        @ c:/Keil_v5\ARM\PACK\Keil\STM32L5xx_DFP\1.3.0\Drivers\STM32L5xx_HAL_Driver\Src\stm32l5xx_hal_tim_ex.c:919:28
	ldr	r0, [r5, #40]
	.loc	7 919 100 is_stmt 0             @ c:/Keil_v5\ARM\PACK\Keil\STM32L5xx_DFP\1.3.0\Drivers\STM32L5xx_HAL_Driver\Src\stm32l5xx_hal_tim_ex.c:919:100
	add.w	r12, r12, #56
	.loc	7 919 11                        @ c:/Keil_v5\ARM\PACK\Keil\STM32L5xx_DFP\1.3.0\Drivers\STM32L5xx_HAL_Driver\Src\stm32l5xx_hal_tim_ex.c:919:11
	mov	r1, r2
	mov	r2, r12
.Ltmp309:
	@DEBUG_VALUE: HAL_TIMEx_OCN_Start_DMA:pData <- [DW_OP_LLVM_entry_value 1] $r2
	bl	HAL_DMA_Start_IT
.Ltmp310:
	@DEBUG_VALUE: HAL_TIMEx_OCN_Start_DMA:Length <- [DW_OP_LLVM_entry_value 1] $r3
	.loc	7 919 11                        @ c:/Keil_v5\ARM\PACK\Keil\STM32L5xx_DFP\1.3.0\Drivers\STM32L5xx_HAL_Driver\Src\stm32l5xx_hal_tim_ex.c:919:11
	cmp	r0, #0
	itt	ne
	movne	r0, #1
.Ltmp311:
	.loc	7 973 1 is_stmt 1               @ c:/Keil_v5\ARM\PACK\Keil\STM32L5xx_DFP\1.3.0\Drivers\STM32L5xx_HAL_Driver\Src\stm32l5xx_hal_tim_ex.c:973:1
	popne	{r4, r5, r7, pc}
.Ltmp312:
.LBB14_17:
	@DEBUG_VALUE: HAL_TIMEx_OCN_Start_DMA:Length <- [DW_OP_LLVM_entry_value 1] $r3
	@DEBUG_VALUE: HAL_TIMEx_OCN_Start_DMA:pData <- [DW_OP_LLVM_entry_value 1] $r2
	.loc	7 924 7                         @ c:/Keil_v5\ARM\PACK\Keil\STM32L5xx_DFP\1.3.0\Drivers\STM32L5xx_HAL_Driver\Src\stm32l5xx_hal_tim_ex.c:924:7
	ldr	r1, [r5]
	ldr	r0, [r1, #12]
	orr	r0, r0, #1024
	b	.LBB14_22
.Ltmp313:
	.p2align	2
.LBB14_18:
	@DEBUG_VALUE: HAL_TIMEx_OCN_Start_DMA:Length <- $r3
	@DEBUG_VALUE: HAL_TIMEx_OCN_Start_DMA:pData <- $r2
	.loc	7 880 7                         @ c:/Keil_v5\ARM\PACK\Keil\STM32L5xx_DFP\1.3.0\Drivers\STM32L5xx_HAL_Driver\Src\stm32l5xx_hal_tim_ex.c:880:7
	strb.w	r0, [r5, #68]
.Ltmp314:
	.loc	7 893 7                         @ c:/Keil_v5\ARM\PACK\Keil\STM32L5xx_DFP\1.3.0\Drivers\STM32L5xx_HAL_Driver\Src\stm32l5xx_hal_tim_ex.c:893:7
	ldr	r0, [r5, #36]
	.loc	7 893 52 is_stmt 0              @ c:/Keil_v5\ARM\PACK\Keil\STM32L5xx_DFP\1.3.0\Drivers\STM32L5xx_HAL_Driver\Src\stm32l5xx_hal_tim_ex.c:893:52
	movw	r1, :lower16:TIM_DMADelayPulseNCplt
	movt	r1, :upper16:TIM_DMADelayPulseNCplt
	str	r1, [r0, #44]
	.loc	7 894 7 is_stmt 1               @ c:/Keil_v5\ARM\PACK\Keil\STM32L5xx_DFP\1.3.0\Drivers\STM32L5xx_HAL_Driver\Src\stm32l5xx_hal_tim_ex.c:894:7
	ldr	r0, [r5, #36]
	.loc	7 894 56 is_stmt 0              @ c:/Keil_v5\ARM\PACK\Keil\STM32L5xx_DFP\1.3.0\Drivers\STM32L5xx_HAL_Driver\Src\stm32l5xx_hal_tim_ex.c:894:56
	movw	r1, :lower16:TIM_DMADelayPulseHalfCplt
	movt	r1, :upper16:TIM_DMADelayPulseHalfCplt
	str	r1, [r0, #48]
	.loc	7 897 7 is_stmt 1               @ c:/Keil_v5\ARM\PACK\Keil\STM32L5xx_DFP\1.3.0\Drivers\STM32L5xx_HAL_Driver\Src\stm32l5xx_hal_tim_ex.c:897:7
	ldr	r0, [r5, #36]
	.loc	7 897 53 is_stmt 0              @ c:/Keil_v5\ARM\PACK\Keil\STM32L5xx_DFP\1.3.0\Drivers\STM32L5xx_HAL_Driver\Src\stm32l5xx_hal_tim_ex.c:897:53
	movw	r1, :lower16:TIM_DMAErrorCCxN
.Ltmp315:
	.loc	7 900 90 is_stmt 1              @ c:/Keil_v5\ARM\PACK\Keil\STM32L5xx_DFP\1.3.0\Drivers\STM32L5xx_HAL_Driver\Src\stm32l5xx_hal_tim_ex.c:900:90
	ldr.w	r12, [r5]
.Ltmp316:
	.loc	7 897 53                        @ c:/Keil_v5\ARM\PACK\Keil\STM32L5xx_DFP\1.3.0\Drivers\STM32L5xx_HAL_Driver\Src\stm32l5xx_hal_tim_ex.c:897:53
	movt	r1, :upper16:TIM_DMAErrorCCxN
	str	r1, [r0, #60]
.Ltmp317:
	.loc	7 900 28                        @ c:/Keil_v5\ARM\PACK\Keil\STM32L5xx_DFP\1.3.0\Drivers\STM32L5xx_HAL_Driver\Src\stm32l5xx_hal_tim_ex.c:900:28
	ldr	r0, [r5, #36]
	.loc	7 900 100 is_stmt 0             @ c:/Keil_v5\ARM\PACK\Keil\STM32L5xx_DFP\1.3.0\Drivers\STM32L5xx_HAL_Driver\Src\stm32l5xx_hal_tim_ex.c:900:100
	add.w	r12, r12, #52
	.loc	7 900 11                        @ c:/Keil_v5\ARM\PACK\Keil\STM32L5xx_DFP\1.3.0\Drivers\STM32L5xx_HAL_Driver\Src\stm32l5xx_hal_tim_ex.c:900:11
	mov	r1, r2
	mov	r2, r12
.Ltmp318:
	@DEBUG_VALUE: HAL_TIMEx_OCN_Start_DMA:pData <- [DW_OP_LLVM_entry_value 1] $r2
	bl	HAL_DMA_Start_IT
.Ltmp319:
	@DEBUG_VALUE: HAL_TIMEx_OCN_Start_DMA:Length <- [DW_OP_LLVM_entry_value 1] $r3
	.loc	7 900 11                        @ c:/Keil_v5\ARM\PACK\Keil\STM32L5xx_DFP\1.3.0\Drivers\STM32L5xx_HAL_Driver\Src\stm32l5xx_hal_tim_ex.c:900:11
	cmp	r0, #0
	itt	ne
	movne	r0, #1
.Ltmp320:
	.loc	7 973 1 is_stmt 1               @ c:/Keil_v5\ARM\PACK\Keil\STM32L5xx_DFP\1.3.0\Drivers\STM32L5xx_HAL_Driver\Src\stm32l5xx_hal_tim_ex.c:973:1
	popne	{r4, r5, r7, pc}
.Ltmp321:
.LBB14_19:
	@DEBUG_VALUE: HAL_TIMEx_OCN_Start_DMA:Length <- [DW_OP_LLVM_entry_value 1] $r3
	@DEBUG_VALUE: HAL_TIMEx_OCN_Start_DMA:pData <- [DW_OP_LLVM_entry_value 1] $r2
	.loc	7 905 7                         @ c:/Keil_v5\ARM\PACK\Keil\STM32L5xx_DFP\1.3.0\Drivers\STM32L5xx_HAL_Driver\Src\stm32l5xx_hal_tim_ex.c:905:7
	ldr	r1, [r5]
	ldr	r0, [r1, #12]
	orr	r0, r0, #512
	b	.LBB14_22
.Ltmp322:
	.p2align	2
.LBB14_20:
	@DEBUG_VALUE: HAL_TIMEx_OCN_Start_DMA:Length <- $r3
	@DEBUG_VALUE: HAL_TIMEx_OCN_Start_DMA:pData <- $r2
	.loc	7 880 7                         @ c:/Keil_v5\ARM\PACK\Keil\STM32L5xx_DFP\1.3.0\Drivers\STM32L5xx_HAL_Driver\Src\stm32l5xx_hal_tim_ex.c:880:7
	strb.w	r0, [r5, #70]
.Ltmp323:
	.loc	7 931 7                         @ c:/Keil_v5\ARM\PACK\Keil\STM32L5xx_DFP\1.3.0\Drivers\STM32L5xx_HAL_Driver\Src\stm32l5xx_hal_tim_ex.c:931:7
	ldr	r0, [r5, #44]
	.loc	7 931 52 is_stmt 0              @ c:/Keil_v5\ARM\PACK\Keil\STM32L5xx_DFP\1.3.0\Drivers\STM32L5xx_HAL_Driver\Src\stm32l5xx_hal_tim_ex.c:931:52
	movw	r1, :lower16:TIM_DMADelayPulseNCplt
	movt	r1, :upper16:TIM_DMADelayPulseNCplt
	str	r1, [r0, #44]
	.loc	7 932 7 is_stmt 1               @ c:/Keil_v5\ARM\PACK\Keil\STM32L5xx_DFP\1.3.0\Drivers\STM32L5xx_HAL_Driver\Src\stm32l5xx_hal_tim_ex.c:932:7
	ldr	r0, [r5, #44]
	.loc	7 932 56 is_stmt 0              @ c:/Keil_v5\ARM\PACK\Keil\STM32L5xx_DFP\1.3.0\Drivers\STM32L5xx_HAL_Driver\Src\stm32l5xx_hal_tim_ex.c:932:56
	movw	r1, :lower16:TIM_DMADelayPulseHalfCplt
	movt	r1, :upper16:TIM_DMADelayPulseHalfCplt
	str	r1, [r0, #48]
	.loc	7 935 7 is_stmt 1               @ c:/Keil_v5\ARM\PACK\Keil\STM32L5xx_DFP\1.3.0\Drivers\STM32L5xx_HAL_Driver\Src\stm32l5xx_hal_tim_ex.c:935:7
	ldr	r0, [r5, #44]
	.loc	7 935 53 is_stmt 0              @ c:/Keil_v5\ARM\PACK\Keil\STM32L5xx_DFP\1.3.0\Drivers\STM32L5xx_HAL_Driver\Src\stm32l5xx_hal_tim_ex.c:935:53
	movw	r1, :lower16:TIM_DMAErrorCCxN
.Ltmp324:
	.loc	7 938 90 is_stmt 1              @ c:/Keil_v5\ARM\PACK\Keil\STM32L5xx_DFP\1.3.0\Drivers\STM32L5xx_HAL_Driver\Src\stm32l5xx_hal_tim_ex.c:938:90
	ldr.w	r12, [r5]
.Ltmp325:
	.loc	7 935 53                        @ c:/Keil_v5\ARM\PACK\Keil\STM32L5xx_DFP\1.3.0\Drivers\STM32L5xx_HAL_Driver\Src\stm32l5xx_hal_tim_ex.c:935:53
	movt	r1, :upper16:TIM_DMAErrorCCxN
	str	r1, [r0, #60]
.Ltmp326:
	.loc	7 938 28                        @ c:/Keil_v5\ARM\PACK\Keil\STM32L5xx_DFP\1.3.0\Drivers\STM32L5xx_HAL_Driver\Src\stm32l5xx_hal_tim_ex.c:938:28
	ldr	r0, [r5, #44]
	.loc	7 938 100 is_stmt 0             @ c:/Keil_v5\ARM\PACK\Keil\STM32L5xx_DFP\1.3.0\Drivers\STM32L5xx_HAL_Driver\Src\stm32l5xx_hal_tim_ex.c:938:100
	add.w	r12, r12, #60
	.loc	7 938 11                        @ c:/Keil_v5\ARM\PACK\Keil\STM32L5xx_DFP\1.3.0\Drivers\STM32L5xx_HAL_Driver\Src\stm32l5xx_hal_tim_ex.c:938:11
	mov	r1, r2
	mov	r2, r12
.Ltmp327:
	@DEBUG_VALUE: HAL_TIMEx_OCN_Start_DMA:pData <- [DW_OP_LLVM_entry_value 1] $r2
	bl	HAL_DMA_Start_IT
.Ltmp328:
	@DEBUG_VALUE: HAL_TIMEx_OCN_Start_DMA:Length <- [DW_OP_LLVM_entry_value 1] $r3
	.loc	7 938 11                        @ c:/Keil_v5\ARM\PACK\Keil\STM32L5xx_DFP\1.3.0\Drivers\STM32L5xx_HAL_Driver\Src\stm32l5xx_hal_tim_ex.c:938:11
	cmp	r0, #0
	itt	ne
	movne	r0, #1
.Ltmp329:
	.loc	7 973 1 is_stmt 1               @ c:/Keil_v5\ARM\PACK\Keil\STM32L5xx_DFP\1.3.0\Drivers\STM32L5xx_HAL_Driver\Src\stm32l5xx_hal_tim_ex.c:973:1
	popne	{r4, r5, r7, pc}
.Ltmp330:
.LBB14_21:
	@DEBUG_VALUE: HAL_TIMEx_OCN_Start_DMA:Length <- [DW_OP_LLVM_entry_value 1] $r3
	@DEBUG_VALUE: HAL_TIMEx_OCN_Start_DMA:pData <- [DW_OP_LLVM_entry_value 1] $r2
	.loc	7 943 7                         @ c:/Keil_v5\ARM\PACK\Keil\STM32L5xx_DFP\1.3.0\Drivers\STM32L5xx_HAL_Driver\Src\stm32l5xx_hal_tim_ex.c:943:7
	ldr	r1, [r5]
	ldr	r0, [r1, #12]
	orr	r0, r0, #2048
.Ltmp331:
.LBB14_22:
	@DEBUG_VALUE: HAL_TIMEx_OCN_Start_DMA:Length <- [DW_OP_LLVM_entry_value 1] $r3
	@DEBUG_VALUE: HAL_TIMEx_OCN_Start_DMA:pData <- [DW_OP_LLVM_entry_value 1] $r2
	.loc	7 0 0 is_stmt 0                 @ c:/Keil_v5\ARM\PACK\Keil\STM32L5xx_DFP\1.3.0\Drivers\STM32L5xx_HAL_Driver\Src\stm32l5xx_hal_tim_ex.c:0:0
	str	r0, [r1, #12]
	b	.LBB14_24
.Ltmp332:
	.p2align	2
.LBB14_23:
	@DEBUG_VALUE: HAL_TIMEx_OCN_Start_DMA:Length <- $r3
	@DEBUG_VALUE: HAL_TIMEx_OCN_Start_DMA:pData <- $r2
	.loc	7 880 7 is_stmt 1               @ c:/Keil_v5\ARM\PACK\Keil\STM32L5xx_DFP\1.3.0\Drivers\STM32L5xx_HAL_Driver\Src\stm32l5xx_hal_tim_ex.c:880:7
	strb.w	r0, [r5, #71]
.Ltmp333:
	.loc	7 952 28                        @ c:/Keil_v5\ARM\PACK\Keil\STM32L5xx_DFP\1.3.0\Drivers\STM32L5xx_HAL_Driver\Src\stm32l5xx_hal_tim_ex.c:952:28
	ldr	r1, [r5]
.Ltmp334:
.LBB14_24:
	@DEBUG_VALUE: TIM_CCxNChannelCmd:TIMx <- $r1
	@DEBUG_VALUE: TIM_CCxNChannelCmd:Channel <- $r4
	@DEBUG_VALUE: TIM_CCxNChannelCmd:ChannelNState <- 4
	.loc	7 2735 36                       @ c:/Keil_v5\ARM\PACK\Keil\STM32L5xx_DFP\1.3.0\Drivers\STM32L5xx_HAL_Driver\Src\stm32l5xx_hal_tim_ex.c:2735:36
	and	r0, r4, #31
	movs	r2, #4
	.loc	7 2738 14                       @ c:/Keil_v5\ARM\PACK\Keil\STM32L5xx_DFP\1.3.0\Drivers\STM32L5xx_HAL_Driver\Src\stm32l5xx_hal_tim_ex.c:2738:14
	ldr	r3, [r1, #32]
	.loc	7 2735 24                       @ c:/Keil_v5\ARM\PACK\Keil\STM32L5xx_DFP\1.3.0\Drivers\STM32L5xx_HAL_Driver\Src\stm32l5xx_hal_tim_ex.c:2735:24
	lsl.w	r0, r2, r0
.Ltmp335:
	@DEBUG_VALUE: TIM_CCxNChannelCmd:tmp <- $r0
	.loc	7 2738 14                       @ c:/Keil_v5\ARM\PACK\Keil\STM32L5xx_DFP\1.3.0\Drivers\STM32L5xx_HAL_Driver\Src\stm32l5xx_hal_tim_ex.c:2738:14
	bic.w	r2, r3, r0
	str	r2, [r1, #32]
	.loc	7 2741 14                       @ c:/Keil_v5\ARM\PACK\Keil\STM32L5xx_DFP\1.3.0\Drivers\STM32L5xx_HAL_Driver\Src\stm32l5xx_hal_tim_ex.c:2741:14
	ldr	r2, [r1, #32]
	orrs	r0, r2
.Ltmp336:
	str	r0, [r1, #32]
.Ltmp337:
	.loc	7 955 3                         @ c:/Keil_v5\ARM\PACK\Keil\STM32L5xx_DFP\1.3.0\Drivers\STM32L5xx_HAL_Driver\Src\stm32l5xx_hal_tim_ex.c:955:3
	ldr	r0, [r1, #68]
	movw	r2, #3071
	movt	r2, #16384
	orr	r0, r0, #32768
.Ltmp338:
	.loc	7 958 7                         @ c:/Keil_v5\ARM\PACK\Keil\STM32L5xx_DFP\1.3.0\Drivers\STM32L5xx_HAL_Driver\Src\stm32l5xx_hal_tim_ex.c:958:7
	cmp	r1, r2
.Ltmp339:
	.loc	7 955 3                         @ c:/Keil_v5\ARM\PACK\Keil\STM32L5xx_DFP\1.3.0\Drivers\STM32L5xx_HAL_Driver\Src\stm32l5xx_hal_tim_ex.c:955:3
	str	r0, [r1, #68]
.Ltmp340:
	.loc	7 958 7                         @ c:/Keil_v5\ARM\PACK\Keil\STM32L5xx_DFP\1.3.0\Drivers\STM32L5xx_HAL_Driver\Src\stm32l5xx_hal_tim_ex.c:958:7
	ble	.LBB14_28
.Ltmp341:
@ %bb.25:
	.loc	7 0 7 is_stmt 0                 @ c:/Keil_v5\ARM\PACK\Keil\STM32L5xx_DFP\1.3.0\Drivers\STM32L5xx_HAL_Driver\Src\stm32l5xx_hal_tim_ex.c:0:7
	movw	r0, #13311
	movt	r0, #16385
	.loc	7 958 7                         @ c:/Keil_v5\ARM\PACK\Keil\STM32L5xx_DFP\1.3.0\Drivers\STM32L5xx_HAL_Driver\Src\stm32l5xx_hal_tim_ex.c:958:7
	cmp	r1, r0
	bgt	.LBB14_31
@ %bb.26:
	.loc	7 0 7                           @ c:/Keil_v5\ARM\PACK\Keil\STM32L5xx_DFP\1.3.0\Drivers\STM32L5xx_HAL_Driver\Src\stm32l5xx_hal_tim_ex.c:0:7
	movw	r0, #3072
	movt	r0, #16384
	.loc	7 958 7                         @ c:/Keil_v5\ARM\PACK\Keil\STM32L5xx_DFP\1.3.0\Drivers\STM32L5xx_HAL_Driver\Src\stm32l5xx_hal_tim_ex.c:958:7
	cmp	r1, r0
	beq	.LBB14_35
@ %bb.27:
	.loc	7 0 7                           @ c:/Keil_v5\ARM\PACK\Keil\STM32L5xx_DFP\1.3.0\Drivers\STM32L5xx_HAL_Driver\Src\stm32l5xx_hal_tim_ex.c:0:7
	movw	r0, #11264
	b	.LBB14_33
	.p2align	2
.LBB14_28:
	.loc	7 958 7                         @ c:/Keil_v5\ARM\PACK\Keil\STM32L5xx_DFP\1.3.0\Drivers\STM32L5xx_HAL_Driver\Src\stm32l5xx_hal_tim_ex.c:958:7
	cmp.w	r1, #1073741824
	beq	.LBB14_35
@ %bb.29:
	.loc	7 0 7                           @ c:/Keil_v5\ARM\PACK\Keil\STM32L5xx_DFP\1.3.0\Drivers\STM32L5xx_HAL_Driver\Src\stm32l5xx_hal_tim_ex.c:0:7
	movw	r0, #1024
	movt	r0, #16384
	.loc	7 958 7                         @ c:/Keil_v5\ARM\PACK\Keil\STM32L5xx_DFP\1.3.0\Drivers\STM32L5xx_HAL_Driver\Src\stm32l5xx_hal_tim_ex.c:958:7
	cmp	r1, r0
	beq	.LBB14_35
@ %bb.30:
	.loc	7 0 7                           @ c:/Keil_v5\ARM\PACK\Keil\STM32L5xx_DFP\1.3.0\Drivers\STM32L5xx_HAL_Driver\Src\stm32l5xx_hal_tim_ex.c:0:7
	movw	r0, #2048
	movt	r0, #16384
	b	.LBB14_34
	.p2align	2
.LBB14_31:
	movw	r0, #16384
	movt	r0, #16385
	.loc	7 958 7                         @ c:/Keil_v5\ARM\PACK\Keil\STM32L5xx_DFP\1.3.0\Drivers\STM32L5xx_HAL_Driver\Src\stm32l5xx_hal_tim_ex.c:958:7
	cmp	r1, r0
	beq	.LBB14_35
@ %bb.32:
	.loc	7 0 7                           @ c:/Keil_v5\ARM\PACK\Keil\STM32L5xx_DFP\1.3.0\Drivers\STM32L5xx_HAL_Driver\Src\stm32l5xx_hal_tim_ex.c:0:7
	movw	r0, #13312
.LBB14_33:
	movt	r0, #16385
.LBB14_34:
	.loc	7 958 7                         @ c:/Keil_v5\ARM\PACK\Keil\STM32L5xx_DFP\1.3.0\Drivers\STM32L5xx_HAL_Driver\Src\stm32l5xx_hal_tim_ex.c:958:7
	cmp	r1, r0
	bne	.LBB14_37
.LBB14_35:
.Ltmp342:
	.loc	7 960 31 is_stmt 1              @ c:/Keil_v5\ARM\PACK\Keil\STM32L5xx_DFP\1.3.0\Drivers\STM32L5xx_HAL_Driver\Src\stm32l5xx_hal_tim_ex.c:960:31
	ldr	r0, [r1, #8]
	movs	r2, #7
	movt	r2, #1
	.loc	7 960 36 is_stmt 0              @ c:/Keil_v5\ARM\PACK\Keil\STM32L5xx_DFP\1.3.0\Drivers\STM32L5xx_HAL_Driver\Src\stm32l5xx_hal_tim_ex.c:960:36
	ands	r2, r0
.Ltmp343:
	@DEBUG_VALUE: HAL_TIMEx_OCN_Start_DMA:tmpsmcr <- $r2
	.loc	7 961 10 is_stmt 1              @ c:/Keil_v5\ARM\PACK\Keil\STM32L5xx_DFP\1.3.0\Drivers\STM32L5xx_HAL_Driver\Src\stm32l5xx_hal_tim_ex.c:961:10
	cmp	r2, #6
	mov.w	r0, #0
	it	ne
	cmpne.w	r2, #65536
	bne	.LBB14_37
.Ltmp344:
@ %bb.36:
	@DEBUG_VALUE: HAL_TIMEx_OCN_Start_DMA:tmpsmcr <- $r2
	.loc	7 973 1                         @ c:/Keil_v5\ARM\PACK\Keil\STM32L5xx_DFP\1.3.0\Drivers\STM32L5xx_HAL_Driver\Src\stm32l5xx_hal_tim_ex.c:973:1
	pop	{r4, r5, r7, pc}
.Ltmp345:
	.p2align	2
.LBB14_37:
	.loc	7 0 0 is_stmt 0                 @ c:/Keil_v5\ARM\PACK\Keil\STM32L5xx_DFP\1.3.0\Drivers\STM32L5xx_HAL_Driver\Src\stm32l5xx_hal_tim_ex.c:0:0
	ldr	r0, [r1]
	orr	r0, r0, #1
	str	r0, [r1]
	movs	r0, #0
.Ltmp346:
	.loc	7 973 1                         @ c:/Keil_v5\ARM\PACK\Keil\STM32L5xx_DFP\1.3.0\Drivers\STM32L5xx_HAL_Driver\Src\stm32l5xx_hal_tim_ex.c:973:1
	pop	{r4, r5, r7, pc}
.Ltmp347:
.Lfunc_end14:
	.size	HAL_TIMEx_OCN_Start_DMA, .Lfunc_end14-HAL_TIMEx_OCN_Start_DMA
	.cfi_endproc
	.cantunwind
	.fnend
                                        @ -- End function
	.section	.text.TIM_DMADelayPulseNCplt,"ax",%progbits
	.p2align	2                               @ -- Begin function TIM_DMADelayPulseNCplt
	.type	TIM_DMADelayPulseNCplt,%function
	.code	16                              @ @TIM_DMADelayPulseNCplt
	.thumb_func
TIM_DMADelayPulseNCplt:
.Lfunc_begin15:
	.loc	7 2628 0 is_stmt 1              @ c:/Keil_v5\ARM\PACK\Keil\STM32L5xx_DFP\1.3.0\Drivers\STM32L5xx_HAL_Driver\Src\stm32l5xx_hal_tim_ex.c:2628:0
	.fnstart
	.cfi_startproc
@ %bb.0:
	@DEBUG_VALUE: TIM_DMADelayPulseNCplt:hdma <- $r0
	@DEBUG_VALUE: TIM_DMADelayPulseNCplt:hdma <- $r0
	.save	{r4, lr}
	push	{r4, lr}
	.cfi_def_cfa_offset 8
	.cfi_offset lr, -4
	.cfi_offset r4, -8
.Ltmp348:
	.loc	7 2629 79 prologue_end          @ c:/Keil_v5\ARM\PACK\Keil\STM32L5xx_DFP\1.3.0\Drivers\STM32L5xx_HAL_Driver\Src\stm32l5xx_hal_tim_ex.c:2629:79
	ldr	r4, [r0, #40]
.Ltmp349:
	@DEBUG_VALUE: TIM_DMADelayPulseNCplt:htim <- $r4
	.loc	7 2631 15                       @ c:/Keil_v5\ARM\PACK\Keil\STM32L5xx_DFP\1.3.0\Drivers\STM32L5xx_HAL_Driver\Src\stm32l5xx_hal_tim_ex.c:2631:15
	ldr	r1, [r4, #36]
.Ltmp350:
	.loc	7 2631 7 is_stmt 0              @ c:/Keil_v5\ARM\PACK\Keil\STM32L5xx_DFP\1.3.0\Drivers\STM32L5xx_HAL_Driver\Src\stm32l5xx_hal_tim_ex.c:2631:7
	cmp	r1, r0
	beq	.LBB15_5
.Ltmp351:
@ %bb.1:
	@DEBUG_VALUE: TIM_DMADelayPulseNCplt:htim <- $r4
	@DEBUG_VALUE: TIM_DMADelayPulseNCplt:hdma <- $r0
	.loc	7 2640 20 is_stmt 1             @ c:/Keil_v5\ARM\PACK\Keil\STM32L5xx_DFP\1.3.0\Drivers\STM32L5xx_HAL_Driver\Src\stm32l5xx_hal_tim_ex.c:2640:20
	ldr	r1, [r4, #40]
.Ltmp352:
	.loc	7 2640 12 is_stmt 0             @ c:/Keil_v5\ARM\PACK\Keil\STM32L5xx_DFP\1.3.0\Drivers\STM32L5xx_HAL_Driver\Src\stm32l5xx_hal_tim_ex.c:2640:12
	cmp	r1, r0
	beq	.LBB15_6
.Ltmp353:
@ %bb.2:
	@DEBUG_VALUE: TIM_DMADelayPulseNCplt:htim <- $r4
	@DEBUG_VALUE: TIM_DMADelayPulseNCplt:hdma <- $r0
	.loc	7 2649 20 is_stmt 1             @ c:/Keil_v5\ARM\PACK\Keil\STM32L5xx_DFP\1.3.0\Drivers\STM32L5xx_HAL_Driver\Src\stm32l5xx_hal_tim_ex.c:2649:20
	ldr	r1, [r4, #44]
.Ltmp354:
	.loc	7 2649 12 is_stmt 0             @ c:/Keil_v5\ARM\PACK\Keil\STM32L5xx_DFP\1.3.0\Drivers\STM32L5xx_HAL_Driver\Src\stm32l5xx_hal_tim_ex.c:2649:12
	cmp	r1, r0
	beq	.LBB15_8
.Ltmp355:
@ %bb.3:
	@DEBUG_VALUE: TIM_DMADelayPulseNCplt:htim <- $r4
	@DEBUG_VALUE: TIM_DMADelayPulseNCplt:hdma <- $r0
	.loc	7 2658 20 is_stmt 1             @ c:/Keil_v5\ARM\PACK\Keil\STM32L5xx_DFP\1.3.0\Drivers\STM32L5xx_HAL_Driver\Src\stm32l5xx_hal_tim_ex.c:2658:20
	ldr	r1, [r4, #48]
.Ltmp356:
	.loc	7 2658 12 is_stmt 0             @ c:/Keil_v5\ARM\PACK\Keil\STM32L5xx_DFP\1.3.0\Drivers\STM32L5xx_HAL_Driver\Src\stm32l5xx_hal_tim_ex.c:2658:12
	cmp	r1, r0
	bne	.LBB15_10
.Ltmp357:
@ %bb.4:
	@DEBUG_VALUE: TIM_DMADelayPulseNCplt:htim <- $r4
	@DEBUG_VALUE: TIM_DMADelayPulseNCplt:hdma <- $r0
	.loc	7 2662 20 is_stmt 1             @ c:/Keil_v5\ARM\PACK\Keil\STM32L5xx_DFP\1.3.0\Drivers\STM32L5xx_HAL_Driver\Src\stm32l5xx_hal_tim_ex.c:2662:20
	ldr	r0, [r0, #28]
.Ltmp358:
	@DEBUG_VALUE: TIM_DMADelayPulseNCplt:hdma <- [DW_OP_LLVM_entry_value 1] $r0
	.loc	7 0 20 is_stmt 0                @ c:/Keil_v5\ARM\PACK\Keil\STM32L5xx_DFP\1.3.0\Drivers\STM32L5xx_HAL_Driver\Src\stm32l5xx_hal_tim_ex.c:0:20
	movs	r1, #8
.Ltmp359:
	.loc	7 2662 9                        @ c:/Keil_v5\ARM\PACK\Keil\STM32L5xx_DFP\1.3.0\Drivers\STM32L5xx_HAL_Driver\Src\stm32l5xx_hal_tim_ex.c:2662:9
	cmp	r0, #0
	.loc	7 2660 19 is_stmt 1             @ c:/Keil_v5\ARM\PACK\Keil\STM32L5xx_DFP\1.3.0\Drivers\STM32L5xx_HAL_Driver\Src\stm32l5xx_hal_tim_ex.c:2660:19
	strb	r1, [r4, #28]
	itt	eq
	moveq	r0, #1
.Ltmp360:
	.loc	7 2664 7                        @ c:/Keil_v5\ARM\PACK\Keil\STM32L5xx_DFP\1.3.0\Drivers\STM32L5xx_HAL_Driver\Src\stm32l5xx_hal_tim_ex.c:2664:7
	strbeq.w	r0, [r4, #71]
	b	.LBB15_10
.Ltmp361:
	.p2align	2
.LBB15_5:
	@DEBUG_VALUE: TIM_DMADelayPulseNCplt:htim <- $r4
	@DEBUG_VALUE: TIM_DMADelayPulseNCplt:hdma <- $r0
	.loc	7 2635 20                       @ c:/Keil_v5\ARM\PACK\Keil\STM32L5xx_DFP\1.3.0\Drivers\STM32L5xx_HAL_Driver\Src\stm32l5xx_hal_tim_ex.c:2635:20
	ldr	r1, [r0, #28]
	movs	r0, #1
.Ltmp362:
	@DEBUG_VALUE: TIM_DMADelayPulseNCplt:hdma <- [DW_OP_LLVM_entry_value 1] $r0
	.loc	7 2635 9 is_stmt 0              @ c:/Keil_v5\ARM\PACK\Keil\STM32L5xx_DFP\1.3.0\Drivers\STM32L5xx_HAL_Driver\Src\stm32l5xx_hal_tim_ex.c:2635:9
	cmp	r1, #0
	.loc	7 2633 19 is_stmt 1             @ c:/Keil_v5\ARM\PACK\Keil\STM32L5xx_DFP\1.3.0\Drivers\STM32L5xx_HAL_Driver\Src\stm32l5xx_hal_tim_ex.c:2633:19
	strb	r0, [r4, #28]
.Ltmp363:
	.loc	7 2637 7                        @ c:/Keil_v5\ARM\PACK\Keil\STM32L5xx_DFP\1.3.0\Drivers\STM32L5xx_HAL_Driver\Src\stm32l5xx_hal_tim_ex.c:2637:7
	it	eq
	strbeq.w	r0, [r4, #68]
	b	.LBB15_10
.Ltmp364:
	.p2align	2
.LBB15_6:
	@DEBUG_VALUE: TIM_DMADelayPulseNCplt:htim <- $r4
	@DEBUG_VALUE: TIM_DMADelayPulseNCplt:hdma <- $r0
	.loc	7 2644 20                       @ c:/Keil_v5\ARM\PACK\Keil\STM32L5xx_DFP\1.3.0\Drivers\STM32L5xx_HAL_Driver\Src\stm32l5xx_hal_tim_ex.c:2644:20
	ldr	r0, [r0, #28]
.Ltmp365:
	@DEBUG_VALUE: TIM_DMADelayPulseNCplt:hdma <- [DW_OP_LLVM_entry_value 1] $r0
	.loc	7 0 20 is_stmt 0                @ c:/Keil_v5\ARM\PACK\Keil\STM32L5xx_DFP\1.3.0\Drivers\STM32L5xx_HAL_Driver\Src\stm32l5xx_hal_tim_ex.c:0:20
	movs	r1, #2
.Ltmp366:
	.loc	7 2642 19 is_stmt 1             @ c:/Keil_v5\ARM\PACK\Keil\STM32L5xx_DFP\1.3.0\Drivers\STM32L5xx_HAL_Driver\Src\stm32l5xx_hal_tim_ex.c:2642:19
	strb	r1, [r4, #28]
	.loc	7 2644 9                        @ c:/Keil_v5\ARM\PACK\Keil\STM32L5xx_DFP\1.3.0\Drivers\STM32L5xx_HAL_Driver\Src\stm32l5xx_hal_tim_ex.c:2644:9
	cbnz	r0, .LBB15_10
.Ltmp367:
@ %bb.7:
	@DEBUG_VALUE: TIM_DMADelayPulseNCplt:htim <- $r4
	@DEBUG_VALUE: TIM_DMADelayPulseNCplt:hdma <- [DW_OP_LLVM_entry_value 1] $r0
	.loc	7 0 9 is_stmt 0                 @ c:/Keil_v5\ARM\PACK\Keil\STM32L5xx_DFP\1.3.0\Drivers\STM32L5xx_HAL_Driver\Src\stm32l5xx_hal_tim_ex.c:0:9
	movs	r0, #1
.Ltmp368:
	.loc	7 2646 7 is_stmt 1              @ c:/Keil_v5\ARM\PACK\Keil\STM32L5xx_DFP\1.3.0\Drivers\STM32L5xx_HAL_Driver\Src\stm32l5xx_hal_tim_ex.c:2646:7
	strb.w	r0, [r4, #69]
	.loc	7 2647 5                        @ c:/Keil_v5\ARM\PACK\Keil\STM32L5xx_DFP\1.3.0\Drivers\STM32L5xx_HAL_Driver\Src\stm32l5xx_hal_tim_ex.c:2647:5
	b	.LBB15_10
.Ltmp369:
	.p2align	2
.LBB15_8:
	@DEBUG_VALUE: TIM_DMADelayPulseNCplt:htim <- $r4
	@DEBUG_VALUE: TIM_DMADelayPulseNCplt:hdma <- $r0
	.loc	7 2653 20                       @ c:/Keil_v5\ARM\PACK\Keil\STM32L5xx_DFP\1.3.0\Drivers\STM32L5xx_HAL_Driver\Src\stm32l5xx_hal_tim_ex.c:2653:20
	ldr	r0, [r0, #28]
.Ltmp370:
	@DEBUG_VALUE: TIM_DMADelayPulseNCplt:hdma <- [DW_OP_LLVM_entry_value 1] $r0
	.loc	7 0 20 is_stmt 0                @ c:/Keil_v5\ARM\PACK\Keil\STM32L5xx_DFP\1.3.0\Drivers\STM32L5xx_HAL_Driver\Src\stm32l5xx_hal_tim_ex.c:0:20
	movs	r1, #4
.Ltmp371:
	.loc	7 2651 19 is_stmt 1             @ c:/Keil_v5\ARM\PACK\Keil\STM32L5xx_DFP\1.3.0\Drivers\STM32L5xx_HAL_Driver\Src\stm32l5xx_hal_tim_ex.c:2651:19
	strb	r1, [r4, #28]
	.loc	7 2653 9                        @ c:/Keil_v5\ARM\PACK\Keil\STM32L5xx_DFP\1.3.0\Drivers\STM32L5xx_HAL_Driver\Src\stm32l5xx_hal_tim_ex.c:2653:9
	cbnz	r0, .LBB15_10
.Ltmp372:
@ %bb.9:
	@DEBUG_VALUE: TIM_DMADelayPulseNCplt:htim <- $r4
	@DEBUG_VALUE: TIM_DMADelayPulseNCplt:hdma <- [DW_OP_LLVM_entry_value 1] $r0
	.loc	7 0 9 is_stmt 0                 @ c:/Keil_v5\ARM\PACK\Keil\STM32L5xx_DFP\1.3.0\Drivers\STM32L5xx_HAL_Driver\Src\stm32l5xx_hal_tim_ex.c:0:9
	movs	r0, #1
.Ltmp373:
	.loc	7 2655 7 is_stmt 1              @ c:/Keil_v5\ARM\PACK\Keil\STM32L5xx_DFP\1.3.0\Drivers\STM32L5xx_HAL_Driver\Src\stm32l5xx_hal_tim_ex.c:2655:7
	strb.w	r0, [r4, #70]
.Ltmp374:
.LBB15_10:
	@DEBUG_VALUE: TIM_DMADelayPulseNCplt:htim <- $r4
	.loc	7 2675 3                        @ c:/Keil_v5\ARM\PACK\Keil\STM32L5xx_DFP\1.3.0\Drivers\STM32L5xx_HAL_Driver\Src\stm32l5xx_hal_tim_ex.c:2675:3
	mov	r0, r4
	bl	HAL_TIM_PWM_PulseFinishedCallback
	movs	r0, #0
	.loc	7 2678 17                       @ c:/Keil_v5\ARM\PACK\Keil\STM32L5xx_DFP\1.3.0\Drivers\STM32L5xx_HAL_Driver\Src\stm32l5xx_hal_tim_ex.c:2678:17
	strb	r0, [r4, #28]
	.loc	7 2679 1                        @ c:/Keil_v5\ARM\PACK\Keil\STM32L5xx_DFP\1.3.0\Drivers\STM32L5xx_HAL_Driver\Src\stm32l5xx_hal_tim_ex.c:2679:1
	pop	{r4, pc}
.Ltmp375:
.Lfunc_end15:
	.size	TIM_DMADelayPulseNCplt, .Lfunc_end15-TIM_DMADelayPulseNCplt
	.cfi_endproc
	.cantunwind
	.fnend
                                        @ -- End function
	.section	.text.TIM_DMAErrorCCxN,"ax",%progbits
	.p2align	2                               @ -- Begin function TIM_DMAErrorCCxN
	.type	TIM_DMAErrorCCxN,%function
	.code	16                              @ @TIM_DMAErrorCCxN
	.thumb_func
TIM_DMAErrorCCxN:
.Lfunc_begin16:
	.loc	7 2687 0                        @ c:/Keil_v5\ARM\PACK\Keil\STM32L5xx_DFP\1.3.0\Drivers\STM32L5xx_HAL_Driver\Src\stm32l5xx_hal_tim_ex.c:2687:0
	.fnstart
	.cfi_startproc
@ %bb.0:
	@DEBUG_VALUE: TIM_DMAErrorCCxN:hdma <- $r0
	@DEBUG_VALUE: TIM_DMAErrorCCxN:hdma <- $r0
	.save	{r4, lr}
	push	{r4, lr}
	.cfi_def_cfa_offset 8
	.cfi_offset lr, -4
	.cfi_offset r4, -8
.Ltmp376:
	.loc	7 2688 79 prologue_end          @ c:/Keil_v5\ARM\PACK\Keil\STM32L5xx_DFP\1.3.0\Drivers\STM32L5xx_HAL_Driver\Src\stm32l5xx_hal_tim_ex.c:2688:79
	ldr	r4, [r0, #40]
.Ltmp377:
	@DEBUG_VALUE: TIM_DMAErrorCCxN:htim <- $r4
	.loc	7 2690 15                       @ c:/Keil_v5\ARM\PACK\Keil\STM32L5xx_DFP\1.3.0\Drivers\STM32L5xx_HAL_Driver\Src\stm32l5xx_hal_tim_ex.c:2690:15
	ldr	r1, [r4, #36]
.Ltmp378:
	.loc	7 2690 7 is_stmt 0              @ c:/Keil_v5\ARM\PACK\Keil\STM32L5xx_DFP\1.3.0\Drivers\STM32L5xx_HAL_Driver\Src\stm32l5xx_hal_tim_ex.c:2690:7
	cmp	r1, r0
	beq	.LBB16_4
.Ltmp379:
@ %bb.1:
	@DEBUG_VALUE: TIM_DMAErrorCCxN:htim <- $r4
	@DEBUG_VALUE: TIM_DMAErrorCCxN:hdma <- $r0
	.loc	7 2695 20 is_stmt 1             @ c:/Keil_v5\ARM\PACK\Keil\STM32L5xx_DFP\1.3.0\Drivers\STM32L5xx_HAL_Driver\Src\stm32l5xx_hal_tim_ex.c:2695:20
	ldr	r1, [r4, #40]
.Ltmp380:
	.loc	7 2695 12 is_stmt 0             @ c:/Keil_v5\ARM\PACK\Keil\STM32L5xx_DFP\1.3.0\Drivers\STM32L5xx_HAL_Driver\Src\stm32l5xx_hal_tim_ex.c:2695:12
	cmp	r1, r0
	beq	.LBB16_5
.Ltmp381:
@ %bb.2:
	@DEBUG_VALUE: TIM_DMAErrorCCxN:htim <- $r4
	@DEBUG_VALUE: TIM_DMAErrorCCxN:hdma <- $r0
	.loc	7 2700 20 is_stmt 1             @ c:/Keil_v5\ARM\PACK\Keil\STM32L5xx_DFP\1.3.0\Drivers\STM32L5xx_HAL_Driver\Src\stm32l5xx_hal_tim_ex.c:2700:20
	ldr	r1, [r4, #44]
.Ltmp382:
	.loc	7 2700 12 is_stmt 0             @ c:/Keil_v5\ARM\PACK\Keil\STM32L5xx_DFP\1.3.0\Drivers\STM32L5xx_HAL_Driver\Src\stm32l5xx_hal_tim_ex.c:2700:12
	cmp	r1, r0
	bne	.LBB16_6
.Ltmp383:
@ %bb.3:
	@DEBUG_VALUE: TIM_DMAErrorCCxN:htim <- $r4
	@DEBUG_VALUE: TIM_DMAErrorCCxN:hdma <- $r0
	.loc	7 0 12                          @ c:/Keil_v5\ARM\PACK\Keil\STM32L5xx_DFP\1.3.0\Drivers\STM32L5xx_HAL_Driver\Src\stm32l5xx_hal_tim_ex.c:0:12
	movs	r0, #4
.Ltmp384:
	@DEBUG_VALUE: TIM_DMAErrorCCxN:hdma <- [DW_OP_LLVM_entry_value 1] $r0
	.loc	7 2702 19 is_stmt 1             @ c:/Keil_v5\ARM\PACK\Keil\STM32L5xx_DFP\1.3.0\Drivers\STM32L5xx_HAL_Driver\Src\stm32l5xx_hal_tim_ex.c:2702:19
	strb	r0, [r4, #28]
	movs	r0, #1
	.loc	7 2703 5                        @ c:/Keil_v5\ARM\PACK\Keil\STM32L5xx_DFP\1.3.0\Drivers\STM32L5xx_HAL_Driver\Src\stm32l5xx_hal_tim_ex.c:2703:5
	strb.w	r0, [r4, #70]
	b	.LBB16_6
.Ltmp385:
	.p2align	2
.LBB16_4:
	@DEBUG_VALUE: TIM_DMAErrorCCxN:htim <- $r4
	@DEBUG_VALUE: TIM_DMAErrorCCxN:hdma <- $r0
	.loc	7 0 5 is_stmt 0                 @ c:/Keil_v5\ARM\PACK\Keil\STM32L5xx_DFP\1.3.0\Drivers\STM32L5xx_HAL_Driver\Src\stm32l5xx_hal_tim_ex.c:0:5
	movs	r0, #1
.Ltmp386:
	@DEBUG_VALUE: TIM_DMAErrorCCxN:hdma <- [DW_OP_LLVM_entry_value 1] $r0
	.loc	7 2692 19 is_stmt 1             @ c:/Keil_v5\ARM\PACK\Keil\STM32L5xx_DFP\1.3.0\Drivers\STM32L5xx_HAL_Driver\Src\stm32l5xx_hal_tim_ex.c:2692:19
	strb	r0, [r4, #28]
	.loc	7 2693 5                        @ c:/Keil_v5\ARM\PACK\Keil\STM32L5xx_DFP\1.3.0\Drivers\STM32L5xx_HAL_Driver\Src\stm32l5xx_hal_tim_ex.c:2693:5
	strb.w	r0, [r4, #68]
	.loc	7 2694 3                        @ c:/Keil_v5\ARM\PACK\Keil\STM32L5xx_DFP\1.3.0\Drivers\STM32L5xx_HAL_Driver\Src\stm32l5xx_hal_tim_ex.c:2694:3
	b	.LBB16_6
.Ltmp387:
	.p2align	2
.LBB16_5:
	@DEBUG_VALUE: TIM_DMAErrorCCxN:htim <- $r4
	@DEBUG_VALUE: TIM_DMAErrorCCxN:hdma <- $r0
	.loc	7 0 3 is_stmt 0                 @ c:/Keil_v5\ARM\PACK\Keil\STM32L5xx_DFP\1.3.0\Drivers\STM32L5xx_HAL_Driver\Src\stm32l5xx_hal_tim_ex.c:0:3
	movs	r0, #2
.Ltmp388:
	@DEBUG_VALUE: TIM_DMAErrorCCxN:hdma <- [DW_OP_LLVM_entry_value 1] $r0
	.loc	7 2697 19 is_stmt 1             @ c:/Keil_v5\ARM\PACK\Keil\STM32L5xx_DFP\1.3.0\Drivers\STM32L5xx_HAL_Driver\Src\stm32l5xx_hal_tim_ex.c:2697:19
	strb	r0, [r4, #28]
	movs	r0, #1
	.loc	7 2698 5                        @ c:/Keil_v5\ARM\PACK\Keil\STM32L5xx_DFP\1.3.0\Drivers\STM32L5xx_HAL_Driver\Src\stm32l5xx_hal_tim_ex.c:2698:5
	strb.w	r0, [r4, #69]
.Ltmp389:
.LBB16_6:
	@DEBUG_VALUE: TIM_DMAErrorCCxN:htim <- $r4
	.loc	7 2713 3                        @ c:/Keil_v5\ARM\PACK\Keil\STM32L5xx_DFP\1.3.0\Drivers\STM32L5xx_HAL_Driver\Src\stm32l5xx_hal_tim_ex.c:2713:3
	mov	r0, r4
	bl	HAL_TIM_ErrorCallback
	movs	r0, #0
	.loc	7 2716 17                       @ c:/Keil_v5\ARM\PACK\Keil\STM32L5xx_DFP\1.3.0\Drivers\STM32L5xx_HAL_Driver\Src\stm32l5xx_hal_tim_ex.c:2716:17
	strb	r0, [r4, #28]
	.loc	7 2717 1                        @ c:/Keil_v5\ARM\PACK\Keil\STM32L5xx_DFP\1.3.0\Drivers\STM32L5xx_HAL_Driver\Src\stm32l5xx_hal_tim_ex.c:2717:1
	pop	{r4, pc}
.Ltmp390:
.Lfunc_end16:
	.size	TIM_DMAErrorCCxN, .Lfunc_end16-TIM_DMAErrorCCxN
	.cfi_endproc
	.cantunwind
	.fnend
                                        @ -- End function
	.section	.text.HAL_TIMEx_OCN_Stop_DMA,"ax",%progbits
	.hidden	HAL_TIMEx_OCN_Stop_DMA          @ -- Begin function HAL_TIMEx_OCN_Stop_DMA
	.globl	HAL_TIMEx_OCN_Stop_DMA
	.p2align	2
	.type	HAL_TIMEx_OCN_Stop_DMA,%function
	.code	16                              @ @HAL_TIMEx_OCN_Stop_DMA
	.thumb_func
HAL_TIMEx_OCN_Stop_DMA:
.Lfunc_begin17:
	.loc	7 987 0                         @ c:/Keil_v5\ARM\PACK\Keil\STM32L5xx_DFP\1.3.0\Drivers\STM32L5xx_HAL_Driver\Src\stm32l5xx_hal_tim_ex.c:987:0
	.fnstart
	.cfi_startproc
@ %bb.0:
	@DEBUG_VALUE: HAL_TIMEx_OCN_Stop_DMA:htim <- $r0
	@DEBUG_VALUE: HAL_TIMEx_OCN_Stop_DMA:Channel <- $r1
	.save	{r4, r5, r7, lr}
	push	{r4, r5, r7, lr}
	.cfi_def_cfa_offset 16
	.cfi_offset lr, -4
	.cfi_offset r7, -8
	.cfi_offset r5, -12
	.cfi_offset r4, -16
	mov	r5, r1
.Ltmp391:
	@DEBUG_VALUE: HAL_TIMEx_OCN_Stop_DMA:Channel <- $r5
	.loc	7 991 3 prologue_end            @ c:/Keil_v5\ARM\PACK\Keil\STM32L5xx_DFP\1.3.0\Drivers\STM32L5xx_HAL_Driver\Src\stm32l5xx_hal_tim_ex.c:991:3
	cmp	r1, #8
	mov	r4, r0
.Ltmp392:
	@DEBUG_VALUE: HAL_TIMEx_OCN_Stop_DMA:htim <- $r4
	@DEBUG_VALUE: HAL_TIMEx_OCN_Stop_DMA:htim <- $r4
	beq	.LBB17_4
.Ltmp393:
@ %bb.1:
	@DEBUG_VALUE: HAL_TIMEx_OCN_Stop_DMA:Channel <- $r5
	@DEBUG_VALUE: HAL_TIMEx_OCN_Stop_DMA:htim <- $r4
	cmp	r5, #4
	beq	.LBB17_5
.Ltmp394:
@ %bb.2:
	@DEBUG_VALUE: HAL_TIMEx_OCN_Stop_DMA:Channel <- $r5
	@DEBUG_VALUE: HAL_TIMEx_OCN_Stop_DMA:htim <- $r4
	cbnz	r5, .LBB17_7
.Ltmp395:
@ %bb.3:
	@DEBUG_VALUE: HAL_TIMEx_OCN_Stop_DMA:Channel <- $r5
	@DEBUG_VALUE: HAL_TIMEx_OCN_Stop_DMA:htim <- $r4
	.loc	7 996 7                         @ c:/Keil_v5\ARM\PACK\Keil\STM32L5xx_DFP\1.3.0\Drivers\STM32L5xx_HAL_Driver\Src\stm32l5xx_hal_tim_ex.c:996:7
	mov	r0, r4
	ldr	r1, [r0], #36
	ldr	r2, [r1, #12]
	bic	r2, r2, #512
	b	.LBB17_6
.Ltmp396:
	.p2align	2
.LBB17_4:
	@DEBUG_VALUE: HAL_TIMEx_OCN_Stop_DMA:Channel <- $r5
	@DEBUG_VALUE: HAL_TIMEx_OCN_Stop_DMA:htim <- $r4
	.loc	7 1012 7                        @ c:/Keil_v5\ARM\PACK\Keil\STM32L5xx_DFP\1.3.0\Drivers\STM32L5xx_HAL_Driver\Src\stm32l5xx_hal_tim_ex.c:1012:7
	mov	r0, r4
	ldr	r1, [r0], #44
	ldr	r2, [r1, #12]
	bic	r2, r2, #2048
	b	.LBB17_6
.Ltmp397:
	.p2align	2
.LBB17_5:
	@DEBUG_VALUE: HAL_TIMEx_OCN_Stop_DMA:Channel <- $r5
	@DEBUG_VALUE: HAL_TIMEx_OCN_Stop_DMA:htim <- $r4
	.loc	7 1004 7                        @ c:/Keil_v5\ARM\PACK\Keil\STM32L5xx_DFP\1.3.0\Drivers\STM32L5xx_HAL_Driver\Src\stm32l5xx_hal_tim_ex.c:1004:7
	mov	r0, r4
	ldr	r1, [r0], #40
	ldr	r2, [r1, #12]
	bic	r2, r2, #1024
.Ltmp398:
.LBB17_6:
	@DEBUG_VALUE: HAL_TIMEx_OCN_Stop_DMA:Channel <- $r5
	@DEBUG_VALUE: HAL_TIMEx_OCN_Stop_DMA:htim <- $r4
	.loc	7 0 0 is_stmt 0                 @ c:/Keil_v5\ARM\PACK\Keil\STM32L5xx_DFP\1.3.0\Drivers\STM32L5xx_HAL_Driver\Src\stm32l5xx_hal_tim_ex.c:0:0
	str	r2, [r1, #12]
	ldr	r0, [r0]
	bl	HAL_DMA_Abort_IT
.Ltmp399:
.LBB17_7:
	@DEBUG_VALUE: HAL_TIMEx_OCN_Stop_DMA:Channel <- $r5
	@DEBUG_VALUE: HAL_TIMEx_OCN_Stop_DMA:htim <- $r4
	.loc	7 1022 28 is_stmt 1             @ c:/Keil_v5\ARM\PACK\Keil\STM32L5xx_DFP\1.3.0\Drivers\STM32L5xx_HAL_Driver\Src\stm32l5xx_hal_tim_ex.c:1022:28
	ldr	r0, [r4]
.Ltmp400:
	@DEBUG_VALUE: TIM_CCxNChannelCmd:ChannelNState <- 0
	@DEBUG_VALUE: TIM_CCxNChannelCmd:Channel <- $r5
	@DEBUG_VALUE: TIM_CCxNChannelCmd:TIMx <- $r0
	.loc	7 2735 36                       @ c:/Keil_v5\ARM\PACK\Keil\STM32L5xx_DFP\1.3.0\Drivers\STM32L5xx_HAL_Driver\Src\stm32l5xx_hal_tim_ex.c:2735:36
	and	r1, r5, #31
	movs	r2, #4
	.loc	7 2738 14                       @ c:/Keil_v5\ARM\PACK\Keil\STM32L5xx_DFP\1.3.0\Drivers\STM32L5xx_HAL_Driver\Src\stm32l5xx_hal_tim_ex.c:2738:14
	ldr	r3, [r0, #32]
	.loc	7 2735 24                       @ c:/Keil_v5\ARM\PACK\Keil\STM32L5xx_DFP\1.3.0\Drivers\STM32L5xx_HAL_Driver\Src\stm32l5xx_hal_tim_ex.c:2735:24
	lsl.w	r1, r2, r1
.Ltmp401:
	@DEBUG_VALUE: TIM_CCxNChannelCmd:tmp <- $r1
	.loc	7 2738 14                       @ c:/Keil_v5\ARM\PACK\Keil\STM32L5xx_DFP\1.3.0\Drivers\STM32L5xx_HAL_Driver\Src\stm32l5xx_hal_tim_ex.c:2738:14
	bic.w	r1, r3, r1
.Ltmp402:
	str	r1, [r0, #32]
	.loc	7 2741 14                       @ c:/Keil_v5\ARM\PACK\Keil\STM32L5xx_DFP\1.3.0\Drivers\STM32L5xx_HAL_Driver\Src\stm32l5xx_hal_tim_ex.c:2741:14
	ldr	r1, [r0, #32]
	str	r1, [r0, #32]
.Ltmp403:
	.loc	7 1025 3                        @ c:/Keil_v5\ARM\PACK\Keil\STM32L5xx_DFP\1.3.0\Drivers\STM32L5xx_HAL_Driver\Src\stm32l5xx_hal_tim_ex.c:1025:3
	ldr	r2, [r0, #32]
	movw	r1, #4369
.Ltmp404:
	.loc	7 1025 3 is_stmt 0              @ c:/Keil_v5\ARM\PACK\Keil\STM32L5xx_DFP\1.3.0\Drivers\STM32L5xx_HAL_Driver\Src\stm32l5xx_hal_tim_ex.c:1025:3
	tst	r2, r1
	bne	.LBB17_9
.Ltmp405:
@ %bb.8:
	@DEBUG_VALUE: HAL_TIMEx_OCN_Stop_DMA:Channel <- $r5
	@DEBUG_VALUE: HAL_TIMEx_OCN_Stop_DMA:htim <- $r4
	.loc	7 1025 3                        @ c:/Keil_v5\ARM\PACK\Keil\STM32L5xx_DFP\1.3.0\Drivers\STM32L5xx_HAL_Driver\Src\stm32l5xx_hal_tim_ex.c:1025:3
	ldr	r2, [r0, #32]
	movw	r3, #1092
.Ltmp406:
	.loc	7 1025 3                        @ c:/Keil_v5\ARM\PACK\Keil\STM32L5xx_DFP\1.3.0\Drivers\STM32L5xx_HAL_Driver\Src\stm32l5xx_hal_tim_ex.c:1025:3
	tst	r2, r3
	beq	.LBB17_12
.Ltmp407:
.LBB17_9:
	@DEBUG_VALUE: HAL_TIMEx_OCN_Stop_DMA:Channel <- $r5
	@DEBUG_VALUE: HAL_TIMEx_OCN_Stop_DMA:htim <- $r4
	.loc	7 1028 3 is_stmt 1              @ c:/Keil_v5\ARM\PACK\Keil\STM32L5xx_DFP\1.3.0\Drivers\STM32L5xx_HAL_Driver\Src\stm32l5xx_hal_tim_ex.c:1028:3
	ldr	r2, [r0, #32]
.Ltmp408:
	.loc	7 1028 3 is_stmt 0              @ c:/Keil_v5\ARM\PACK\Keil\STM32L5xx_DFP\1.3.0\Drivers\STM32L5xx_HAL_Driver\Src\stm32l5xx_hal_tim_ex.c:1028:3
	tst	r2, r1
	bne	.LBB17_13
.Ltmp409:
.LBB17_10:
	@DEBUG_VALUE: HAL_TIMEx_OCN_Stop_DMA:Channel <- $r5
	@DEBUG_VALUE: HAL_TIMEx_OCN_Stop_DMA:htim <- $r4
	.loc	7 1028 3                        @ c:/Keil_v5\ARM\PACK\Keil\STM32L5xx_DFP\1.3.0\Drivers\STM32L5xx_HAL_Driver\Src\stm32l5xx_hal_tim_ex.c:1028:3
	ldr	r1, [r0, #32]
	movw	r2, #1092
.Ltmp410:
	.loc	7 1028 3                        @ c:/Keil_v5\ARM\PACK\Keil\STM32L5xx_DFP\1.3.0\Drivers\STM32L5xx_HAL_Driver\Src\stm32l5xx_hal_tim_ex.c:1028:3
	tst	r1, r2
	bne	.LBB17_13
.Ltmp411:
@ %bb.11:
	@DEBUG_VALUE: HAL_TIMEx_OCN_Stop_DMA:Channel <- $r5
	@DEBUG_VALUE: HAL_TIMEx_OCN_Stop_DMA:htim <- $r4
	.loc	7 1028 3                        @ c:/Keil_v5\ARM\PACK\Keil\STM32L5xx_DFP\1.3.0\Drivers\STM32L5xx_HAL_Driver\Src\stm32l5xx_hal_tim_ex.c:1028:3
	ldr	r1, [r0]
	bic	r1, r1, #1
	str	r1, [r0]
	b	.LBB17_13
.Ltmp412:
	.p2align	2
.LBB17_12:
	@DEBUG_VALUE: HAL_TIMEx_OCN_Stop_DMA:Channel <- $r5
	@DEBUG_VALUE: HAL_TIMEx_OCN_Stop_DMA:htim <- $r4
	.loc	7 1025 3 is_stmt 1              @ c:/Keil_v5\ARM\PACK\Keil\STM32L5xx_DFP\1.3.0\Drivers\STM32L5xx_HAL_Driver\Src\stm32l5xx_hal_tim_ex.c:1025:3
	ldr	r2, [r0, #68]
	bic	r2, r2, #32768
	str	r2, [r0, #68]
.Ltmp413:
	.loc	7 1028 3                        @ c:/Keil_v5\ARM\PACK\Keil\STM32L5xx_DFP\1.3.0\Drivers\STM32L5xx_HAL_Driver\Src\stm32l5xx_hal_tim_ex.c:1028:3
	ldr	r2, [r0, #32]
.Ltmp414:
	.loc	7 1028 3 is_stmt 0              @ c:/Keil_v5\ARM\PACK\Keil\STM32L5xx_DFP\1.3.0\Drivers\STM32L5xx_HAL_Driver\Src\stm32l5xx_hal_tim_ex.c:1028:3
	tst	r2, r1
	beq	.LBB17_10
.Ltmp415:
.LBB17_13:
	@DEBUG_VALUE: HAL_TIMEx_OCN_Stop_DMA:Channel <- $r5
	@DEBUG_VALUE: HAL_TIMEx_OCN_Stop_DMA:htim <- $r4
	.loc	7 0 3                           @ c:/Keil_v5\ARM\PACK\Keil\STM32L5xx_DFP\1.3.0\Drivers\STM32L5xx_HAL_Driver\Src\stm32l5xx_hal_tim_ex.c:0:3
	movs	r0, #1
	.loc	7 1031 3 is_stmt 1              @ c:/Keil_v5\ARM\PACK\Keil\STM32L5xx_DFP\1.3.0\Drivers\STM32L5xx_HAL_Driver\Src\stm32l5xx_hal_tim_ex.c:1031:3
	cmp	r5, #8
	beq	.LBB17_16
.Ltmp416:
@ %bb.14:
	@DEBUG_VALUE: HAL_TIMEx_OCN_Stop_DMA:Channel <- $r5
	@DEBUG_VALUE: HAL_TIMEx_OCN_Stop_DMA:htim <- $r4
	cmp	r5, #4
	beq	.LBB17_17
.Ltmp417:
@ %bb.15:
	@DEBUG_VALUE: HAL_TIMEx_OCN_Stop_DMA:Channel <- $r5
	@DEBUG_VALUE: HAL_TIMEx_OCN_Stop_DMA:htim <- $r4
	cmp	r5, #0
	ite	ne
	strbne.w	r0, [r4, #71]
	strbeq.w	r0, [r4, #68]
	.loc	7 1034 3                        @ c:/Keil_v5\ARM\PACK\Keil\STM32L5xx_DFP\1.3.0\Drivers\STM32L5xx_HAL_Driver\Src\stm32l5xx_hal_tim_ex.c:1034:3
	movs	r0, #0
	pop	{r4, r5, r7, pc}
.Ltmp418:
	.p2align	2
.LBB17_16:
	@DEBUG_VALUE: HAL_TIMEx_OCN_Stop_DMA:Channel <- $r5
	@DEBUG_VALUE: HAL_TIMEx_OCN_Stop_DMA:htim <- $r4
	.loc	7 1031 3                        @ c:/Keil_v5\ARM\PACK\Keil\STM32L5xx_DFP\1.3.0\Drivers\STM32L5xx_HAL_Driver\Src\stm32l5xx_hal_tim_ex.c:1031:3
	strb.w	r0, [r4, #70]
	.loc	7 1034 3                        @ c:/Keil_v5\ARM\PACK\Keil\STM32L5xx_DFP\1.3.0\Drivers\STM32L5xx_HAL_Driver\Src\stm32l5xx_hal_tim_ex.c:1034:3
	movs	r0, #0
	pop	{r4, r5, r7, pc}
.Ltmp419:
	.p2align	2
.LBB17_17:
	@DEBUG_VALUE: HAL_TIMEx_OCN_Stop_DMA:Channel <- $r5
	@DEBUG_VALUE: HAL_TIMEx_OCN_Stop_DMA:htim <- $r4
	.loc	7 1031 3                        @ c:/Keil_v5\ARM\PACK\Keil\STM32L5xx_DFP\1.3.0\Drivers\STM32L5xx_HAL_Driver\Src\stm32l5xx_hal_tim_ex.c:1031:3
	strb.w	r0, [r4, #69]
	.loc	7 1034 3                        @ c:/Keil_v5\ARM\PACK\Keil\STM32L5xx_DFP\1.3.0\Drivers\STM32L5xx_HAL_Driver\Src\stm32l5xx_hal_tim_ex.c:1034:3
	movs	r0, #0
	pop	{r4, r5, r7, pc}
.Ltmp420:
.Lfunc_end17:
	.size	HAL_TIMEx_OCN_Stop_DMA, .Lfunc_end17-HAL_TIMEx_OCN_Stop_DMA
	.cfi_endproc
	.cantunwind
	.fnend
                                        @ -- End function
	.section	.text.HAL_TIMEx_PWMN_Start,"ax",%progbits
	.hidden	HAL_TIMEx_PWMN_Start            @ -- Begin function HAL_TIMEx_PWMN_Start
	.globl	HAL_TIMEx_PWMN_Start
	.p2align	2
	.type	HAL_TIMEx_PWMN_Start,%function
	.code	16                              @ @HAL_TIMEx_PWMN_Start
	.thumb_func
HAL_TIMEx_PWMN_Start:
.Lfunc_begin18:
	.loc	7 1082 0                        @ c:/Keil_v5\ARM\PACK\Keil\STM32L5xx_DFP\1.3.0\Drivers\STM32L5xx_HAL_Driver\Src\stm32l5xx_hal_tim_ex.c:1082:0
	.fnstart
	.cfi_startproc
@ %bb.0:
	@DEBUG_VALUE: HAL_TIMEx_PWMN_Start:htim <- $r0
	@DEBUG_VALUE: HAL_TIMEx_PWMN_Start:Channel <- $r1
	@DEBUG_VALUE: HAL_TIMEx_PWMN_Start:Channel <- $r1
	@DEBUG_VALUE: HAL_TIMEx_PWMN_Start:htim <- $r0
	.loc	7 1089 7 prologue_end           @ c:/Keil_v5\ARM\PACK\Keil\STM32L5xx_DFP\1.3.0\Drivers\STM32L5xx_HAL_Driver\Src\stm32l5xx_hal_tim_ex.c:1089:7
	cbz	r1, .LBB18_3
.Ltmp421:
@ %bb.1:
	@DEBUG_VALUE: HAL_TIMEx_PWMN_Start:Channel <- $r1
	@DEBUG_VALUE: HAL_TIMEx_PWMN_Start:htim <- $r0
	cmp	r1, #8
	beq	.LBB18_5
.Ltmp422:
@ %bb.2:
	@DEBUG_VALUE: HAL_TIMEx_PWMN_Start:Channel <- $r1
	@DEBUG_VALUE: HAL_TIMEx_PWMN_Start:htim <- $r0
	cmp	r1, #4
	ite	ne
	addne.w	r2, r0, #71
	addeq.w	r2, r0, #69
	b	.LBB18_6
.Ltmp423:
	.p2align	2
.LBB18_3:
	@DEBUG_VALUE: HAL_TIMEx_PWMN_Start:Channel <- $r1
	@DEBUG_VALUE: HAL_TIMEx_PWMN_Start:htim <- $r0
	ldrb.w	r2, [r0, #68]
.Ltmp424:
	.loc	7 1089 7 is_stmt 0              @ c:/Keil_v5\ARM\PACK\Keil\STM32L5xx_DFP\1.3.0\Drivers\STM32L5xx_HAL_Driver\Src\stm32l5xx_hal_tim_ex.c:1089:7
	cmp	r2, #1
	itt	ne
	movne	r0, #1
.Ltmp425:
	@DEBUG_VALUE: HAL_TIMEx_PWMN_Start:htim <- [DW_OP_LLVM_entry_value 1] $r0
	.loc	7 1119 1 is_stmt 1              @ c:/Keil_v5\ARM\PACK\Keil\STM32L5xx_DFP\1.3.0\Drivers\STM32L5xx_HAL_Driver\Src\stm32l5xx_hal_tim_ex.c:1119:1
	bxne	lr
.Ltmp426:
.LBB18_4:
	@DEBUG_VALUE: HAL_TIMEx_PWMN_Start:Channel <- $r1
	@DEBUG_VALUE: HAL_TIMEx_PWMN_Start:htim <- [DW_OP_LLVM_entry_value 1] $r0
	.loc	7 0 1 is_stmt 0                 @ c:/Keil_v5\ARM\PACK\Keil\STM32L5xx_DFP\1.3.0\Drivers\STM32L5xx_HAL_Driver\Src\stm32l5xx_hal_tim_ex.c:0:1
	movs	r2, #2
	.loc	7 1095 3 is_stmt 1              @ c:/Keil_v5\ARM\PACK\Keil\STM32L5xx_DFP\1.3.0\Drivers\STM32L5xx_HAL_Driver\Src\stm32l5xx_hal_tim_ex.c:1095:3
	strb.w	r2, [r0, #68]
	b	.LBB18_10
.Ltmp427:
	.p2align	2
.LBB18_5:
	@DEBUG_VALUE: HAL_TIMEx_PWMN_Start:Channel <- $r1
	@DEBUG_VALUE: HAL_TIMEx_PWMN_Start:htim <- $r0
	.loc	7 1089 7                        @ c:/Keil_v5\ARM\PACK\Keil\STM32L5xx_DFP\1.3.0\Drivers\STM32L5xx_HAL_Driver\Src\stm32l5xx_hal_tim_ex.c:1089:7
	add.w	r2, r0, #70
.Ltmp428:
.LBB18_6:
	@DEBUG_VALUE: HAL_TIMEx_PWMN_Start:Channel <- $r1
	@DEBUG_VALUE: HAL_TIMEx_PWMN_Start:htim <- $r0
	ldrb	r2, [r2]
.Ltmp429:
	.loc	7 1089 7 is_stmt 0              @ c:/Keil_v5\ARM\PACK\Keil\STM32L5xx_DFP\1.3.0\Drivers\STM32L5xx_HAL_Driver\Src\stm32l5xx_hal_tim_ex.c:1089:7
	cmp	r2, #1
	itt	ne
	movne	r0, #1
.Ltmp430:
	@DEBUG_VALUE: HAL_TIMEx_PWMN_Start:htim <- [DW_OP_LLVM_entry_value 1] $r0
	.loc	7 1119 1 is_stmt 1              @ c:/Keil_v5\ARM\PACK\Keil\STM32L5xx_DFP\1.3.0\Drivers\STM32L5xx_HAL_Driver\Src\stm32l5xx_hal_tim_ex.c:1119:1
	bxne	lr
.Ltmp431:
.LBB18_7:
	@DEBUG_VALUE: HAL_TIMEx_PWMN_Start:Channel <- $r1
	@DEBUG_VALUE: HAL_TIMEx_PWMN_Start:htim <- [DW_OP_LLVM_entry_value 1] $r0
	.loc	7 0 1 is_stmt 0                 @ c:/Keil_v5\ARM\PACK\Keil\STM32L5xx_DFP\1.3.0\Drivers\STM32L5xx_HAL_Driver\Src\stm32l5xx_hal_tim_ex.c:0:1
	movs	r2, #2
	.loc	7 1095 3 is_stmt 1              @ c:/Keil_v5\ARM\PACK\Keil\STM32L5xx_DFP\1.3.0\Drivers\STM32L5xx_HAL_Driver\Src\stm32l5xx_hal_tim_ex.c:1095:3
	cmp	r1, #8
	beq	.LBB18_9
.Ltmp432:
@ %bb.8:
	@DEBUG_VALUE: HAL_TIMEx_PWMN_Start:Channel <- $r1
	@DEBUG_VALUE: HAL_TIMEx_PWMN_Start:htim <- [DW_OP_LLVM_entry_value 1] $r0
	cmp	r1, #4
	ite	ne
	strbne.w	r2, [r0, #71]
	strbeq.w	r2, [r0, #69]
	b	.LBB18_10
.Ltmp433:
	.p2align	2
.LBB18_9:
	@DEBUG_VALUE: HAL_TIMEx_PWMN_Start:Channel <- $r1
	@DEBUG_VALUE: HAL_TIMEx_PWMN_Start:htim <- [DW_OP_LLVM_entry_value 1] $r0
	strb.w	r2, [r0, #70]
.Ltmp434:
.LBB18_10:
	@DEBUG_VALUE: HAL_TIMEx_PWMN_Start:Channel <- $r1
	@DEBUG_VALUE: HAL_TIMEx_PWMN_Start:htim <- [DW_OP_LLVM_entry_value 1] $r0
	.loc	7 1098 28                       @ c:/Keil_v5\ARM\PACK\Keil\STM32L5xx_DFP\1.3.0\Drivers\STM32L5xx_HAL_Driver\Src\stm32l5xx_hal_tim_ex.c:1098:28
	ldr	r2, [r0]
.Ltmp435:
	@DEBUG_VALUE: TIM_CCxNChannelCmd:ChannelNState <- 4
	@DEBUG_VALUE: TIM_CCxNChannelCmd:Channel <- $r1
	@DEBUG_VALUE: TIM_CCxNChannelCmd:TIMx <- $r2
	.loc	7 2735 36                       @ c:/Keil_v5\ARM\PACK\Keil\STM32L5xx_DFP\1.3.0\Drivers\STM32L5xx_HAL_Driver\Src\stm32l5xx_hal_tim_ex.c:2735:36
	and	r0, r1, #31
	movs	r1, #4
.Ltmp436:
	@DEBUG_VALUE: HAL_TIMEx_PWMN_Start:Channel <- [DW_OP_LLVM_entry_value 1] $r1
	.loc	7 2738 14                       @ c:/Keil_v5\ARM\PACK\Keil\STM32L5xx_DFP\1.3.0\Drivers\STM32L5xx_HAL_Driver\Src\stm32l5xx_hal_tim_ex.c:2738:14
	ldr	r3, [r2, #32]
	.loc	7 2735 24                       @ c:/Keil_v5\ARM\PACK\Keil\STM32L5xx_DFP\1.3.0\Drivers\STM32L5xx_HAL_Driver\Src\stm32l5xx_hal_tim_ex.c:2735:24
	lsl.w	r0, r1, r0
.Ltmp437:
	@DEBUG_VALUE: TIM_CCxNChannelCmd:tmp <- $r0
	.loc	7 2738 14                       @ c:/Keil_v5\ARM\PACK\Keil\STM32L5xx_DFP\1.3.0\Drivers\STM32L5xx_HAL_Driver\Src\stm32l5xx_hal_tim_ex.c:2738:14
	bic.w	r1, r3, r0
	str	r1, [r2, #32]
	.loc	7 2741 14                       @ c:/Keil_v5\ARM\PACK\Keil\STM32L5xx_DFP\1.3.0\Drivers\STM32L5xx_HAL_Driver\Src\stm32l5xx_hal_tim_ex.c:2741:14
	ldr	r1, [r2, #32]
	orrs	r0, r1
.Ltmp438:
	str	r0, [r2, #32]
.Ltmp439:
	.loc	7 1101 3                        @ c:/Keil_v5\ARM\PACK\Keil\STM32L5xx_DFP\1.3.0\Drivers\STM32L5xx_HAL_Driver\Src\stm32l5xx_hal_tim_ex.c:1101:3
	ldr	r0, [r2, #68]
	movw	r1, #3071
	movt	r1, #16384
	orr	r0, r0, #32768
.Ltmp440:
	.loc	7 1104 7                        @ c:/Keil_v5\ARM\PACK\Keil\STM32L5xx_DFP\1.3.0\Drivers\STM32L5xx_HAL_Driver\Src\stm32l5xx_hal_tim_ex.c:1104:7
	cmp	r2, r1
.Ltmp441:
	.loc	7 1101 3                        @ c:/Keil_v5\ARM\PACK\Keil\STM32L5xx_DFP\1.3.0\Drivers\STM32L5xx_HAL_Driver\Src\stm32l5xx_hal_tim_ex.c:1101:3
	str	r0, [r2, #68]
.Ltmp442:
	.loc	7 1104 7                        @ c:/Keil_v5\ARM\PACK\Keil\STM32L5xx_DFP\1.3.0\Drivers\STM32L5xx_HAL_Driver\Src\stm32l5xx_hal_tim_ex.c:1104:7
	ble	.LBB18_14
.Ltmp443:
@ %bb.11:
	@DEBUG_VALUE: HAL_TIMEx_PWMN_Start:Channel <- [DW_OP_LLVM_entry_value 1] $r1
	@DEBUG_VALUE: HAL_TIMEx_PWMN_Start:htim <- [DW_OP_LLVM_entry_value 1] $r0
	.loc	7 0 7 is_stmt 0                 @ c:/Keil_v5\ARM\PACK\Keil\STM32L5xx_DFP\1.3.0\Drivers\STM32L5xx_HAL_Driver\Src\stm32l5xx_hal_tim_ex.c:0:7
	movw	r0, #13311
	movt	r0, #16385
	.loc	7 1104 7                        @ c:/Keil_v5\ARM\PACK\Keil\STM32L5xx_DFP\1.3.0\Drivers\STM32L5xx_HAL_Driver\Src\stm32l5xx_hal_tim_ex.c:1104:7
	cmp	r2, r0
	bgt	.LBB18_17
.Ltmp444:
@ %bb.12:
	@DEBUG_VALUE: HAL_TIMEx_PWMN_Start:Channel <- [DW_OP_LLVM_entry_value 1] $r1
	@DEBUG_VALUE: HAL_TIMEx_PWMN_Start:htim <- [DW_OP_LLVM_entry_value 1] $r0
	.loc	7 0 7                           @ c:/Keil_v5\ARM\PACK\Keil\STM32L5xx_DFP\1.3.0\Drivers\STM32L5xx_HAL_Driver\Src\stm32l5xx_hal_tim_ex.c:0:7
	movw	r0, #3072
	movt	r0, #16384
	.loc	7 1104 7                        @ c:/Keil_v5\ARM\PACK\Keil\STM32L5xx_DFP\1.3.0\Drivers\STM32L5xx_HAL_Driver\Src\stm32l5xx_hal_tim_ex.c:1104:7
	cmp	r2, r0
	beq	.LBB18_19
.Ltmp445:
@ %bb.13:
	@DEBUG_VALUE: HAL_TIMEx_PWMN_Start:Channel <- [DW_OP_LLVM_entry_value 1] $r1
	@DEBUG_VALUE: HAL_TIMEx_PWMN_Start:htim <- [DW_OP_LLVM_entry_value 1] $r0
	.loc	7 0 7                           @ c:/Keil_v5\ARM\PACK\Keil\STM32L5xx_DFP\1.3.0\Drivers\STM32L5xx_HAL_Driver\Src\stm32l5xx_hal_tim_ex.c:0:7
	movw	r0, #11264
	movt	r0, #16385
	.loc	7 1104 7                        @ c:/Keil_v5\ARM\PACK\Keil\STM32L5xx_DFP\1.3.0\Drivers\STM32L5xx_HAL_Driver\Src\stm32l5xx_hal_tim_ex.c:1104:7
	cmp	r2, r0
	beq	.LBB18_19
	b	.LBB18_21
.Ltmp446:
	.p2align	2
.LBB18_14:
	@DEBUG_VALUE: HAL_TIMEx_PWMN_Start:Channel <- [DW_OP_LLVM_entry_value 1] $r1
	@DEBUG_VALUE: HAL_TIMEx_PWMN_Start:htim <- [DW_OP_LLVM_entry_value 1] $r0
	cmp.w	r2, #1073741824
	beq	.LBB18_19
.Ltmp447:
@ %bb.15:
	@DEBUG_VALUE: HAL_TIMEx_PWMN_Start:Channel <- [DW_OP_LLVM_entry_value 1] $r1
	@DEBUG_VALUE: HAL_TIMEx_PWMN_Start:htim <- [DW_OP_LLVM_entry_value 1] $r0
	.loc	7 0 7                           @ c:/Keil_v5\ARM\PACK\Keil\STM32L5xx_DFP\1.3.0\Drivers\STM32L5xx_HAL_Driver\Src\stm32l5xx_hal_tim_ex.c:0:7
	movw	r0, #1024
	movt	r0, #16384
	.loc	7 1104 7                        @ c:/Keil_v5\ARM\PACK\Keil\STM32L5xx_DFP\1.3.0\Drivers\STM32L5xx_HAL_Driver\Src\stm32l5xx_hal_tim_ex.c:1104:7
	cmp	r2, r0
	beq	.LBB18_19
.Ltmp448:
@ %bb.16:
	@DEBUG_VALUE: HAL_TIMEx_PWMN_Start:Channel <- [DW_OP_LLVM_entry_value 1] $r1
	@DEBUG_VALUE: HAL_TIMEx_PWMN_Start:htim <- [DW_OP_LLVM_entry_value 1] $r0
	.loc	7 0 7                           @ c:/Keil_v5\ARM\PACK\Keil\STM32L5xx_DFP\1.3.0\Drivers\STM32L5xx_HAL_Driver\Src\stm32l5xx_hal_tim_ex.c:0:7
	movw	r0, #2048
	movt	r0, #16384
	.loc	7 1104 7                        @ c:/Keil_v5\ARM\PACK\Keil\STM32L5xx_DFP\1.3.0\Drivers\STM32L5xx_HAL_Driver\Src\stm32l5xx_hal_tim_ex.c:1104:7
	cmp	r2, r0
	beq	.LBB18_19
	b	.LBB18_21
.Ltmp449:
	.p2align	2
.LBB18_17:
	@DEBUG_VALUE: HAL_TIMEx_PWMN_Start:Channel <- [DW_OP_LLVM_entry_value 1] $r1
	@DEBUG_VALUE: HAL_TIMEx_PWMN_Start:htim <- [DW_OP_LLVM_entry_value 1] $r0
	.loc	7 0 7                           @ c:/Keil_v5\ARM\PACK\Keil\STM32L5xx_DFP\1.3.0\Drivers\STM32L5xx_HAL_Driver\Src\stm32l5xx_hal_tim_ex.c:0:7
	movw	r0, #16384
	movt	r0, #16385
	.loc	7 1104 7                        @ c:/Keil_v5\ARM\PACK\Keil\STM32L5xx_DFP\1.3.0\Drivers\STM32L5xx_HAL_Driver\Src\stm32l5xx_hal_tim_ex.c:1104:7
	cmp	r2, r0
	beq	.LBB18_19
.Ltmp450:
@ %bb.18:
	@DEBUG_VALUE: HAL_TIMEx_PWMN_Start:Channel <- [DW_OP_LLVM_entry_value 1] $r1
	@DEBUG_VALUE: HAL_TIMEx_PWMN_Start:htim <- [DW_OP_LLVM_entry_value 1] $r0
	.loc	7 0 7                           @ c:/Keil_v5\ARM\PACK\Keil\STM32L5xx_DFP\1.3.0\Drivers\STM32L5xx_HAL_Driver\Src\stm32l5xx_hal_tim_ex.c:0:7
	movw	r0, #13312
	movt	r0, #16385
	.loc	7 1104 7                        @ c:/Keil_v5\ARM\PACK\Keil\STM32L5xx_DFP\1.3.0\Drivers\STM32L5xx_HAL_Driver\Src\stm32l5xx_hal_tim_ex.c:1104:7
	cmp	r2, r0
	bne	.LBB18_21
.Ltmp451:
.LBB18_19:
	@DEBUG_VALUE: HAL_TIMEx_PWMN_Start:Channel <- [DW_OP_LLVM_entry_value 1] $r1
	@DEBUG_VALUE: HAL_TIMEx_PWMN_Start:htim <- [DW_OP_LLVM_entry_value 1] $r0
	.loc	7 1106 31 is_stmt 1             @ c:/Keil_v5\ARM\PACK\Keil\STM32L5xx_DFP\1.3.0\Drivers\STM32L5xx_HAL_Driver\Src\stm32l5xx_hal_tim_ex.c:1106:31
	ldr	r0, [r2, #8]
	movs	r1, #7
	movt	r1, #1
	.loc	7 1106 36 is_stmt 0             @ c:/Keil_v5\ARM\PACK\Keil\STM32L5xx_DFP\1.3.0\Drivers\STM32L5xx_HAL_Driver\Src\stm32l5xx_hal_tim_ex.c:1106:36
	ands	r1, r0
.Ltmp452:
	@DEBUG_VALUE: HAL_TIMEx_PWMN_Start:tmpsmcr <- $r1
	.loc	7 1107 10 is_stmt 1             @ c:/Keil_v5\ARM\PACK\Keil\STM32L5xx_DFP\1.3.0\Drivers\STM32L5xx_HAL_Driver\Src\stm32l5xx_hal_tim_ex.c:1107:10
	cmp	r1, #6
	mov.w	r0, #0
	it	ne
	cmpne.w	r1, #65536
	bne	.LBB18_21
.Ltmp453:
@ %bb.20:
	@DEBUG_VALUE: HAL_TIMEx_PWMN_Start:tmpsmcr <- $r1
	@DEBUG_VALUE: HAL_TIMEx_PWMN_Start:Channel <- [DW_OP_LLVM_entry_value 1] $r1
	@DEBUG_VALUE: HAL_TIMEx_PWMN_Start:htim <- [DW_OP_LLVM_entry_value 1] $r0
	.loc	7 1119 1                        @ c:/Keil_v5\ARM\PACK\Keil\STM32L5xx_DFP\1.3.0\Drivers\STM32L5xx_HAL_Driver\Src\stm32l5xx_hal_tim_ex.c:1119:1
	bx	lr
.Ltmp454:
	.p2align	2
.LBB18_21:
	@DEBUG_VALUE: HAL_TIMEx_PWMN_Start:Channel <- [DW_OP_LLVM_entry_value 1] $r1
	@DEBUG_VALUE: HAL_TIMEx_PWMN_Start:htim <- [DW_OP_LLVM_entry_value 1] $r0
	.loc	7 0 0 is_stmt 0                 @ c:/Keil_v5\ARM\PACK\Keil\STM32L5xx_DFP\1.3.0\Drivers\STM32L5xx_HAL_Driver\Src\stm32l5xx_hal_tim_ex.c:0:0
	ldr	r0, [r2]
	orr	r0, r0, #1
	str	r0, [r2]
	movs	r0, #0
.Ltmp455:
	.loc	7 1119 1                        @ c:/Keil_v5\ARM\PACK\Keil\STM32L5xx_DFP\1.3.0\Drivers\STM32L5xx_HAL_Driver\Src\stm32l5xx_hal_tim_ex.c:1119:1
	bx	lr
.Ltmp456:
.Lfunc_end18:
	.size	HAL_TIMEx_PWMN_Start, .Lfunc_end18-HAL_TIMEx_PWMN_Start
	.cfi_endproc
	.cantunwind
	.fnend
                                        @ -- End function
	.section	.text.HAL_TIMEx_PWMN_Stop,"ax",%progbits
	.hidden	HAL_TIMEx_PWMN_Stop             @ -- Begin function HAL_TIMEx_PWMN_Stop
	.globl	HAL_TIMEx_PWMN_Stop
	.p2align	2
	.type	HAL_TIMEx_PWMN_Stop,%function
	.code	16                              @ @HAL_TIMEx_PWMN_Stop
	.thumb_func
HAL_TIMEx_PWMN_Stop:
.Lfunc_begin19:
	.loc	7 1132 0 is_stmt 1              @ c:/Keil_v5\ARM\PACK\Keil\STM32L5xx_DFP\1.3.0\Drivers\STM32L5xx_HAL_Driver\Src\stm32l5xx_hal_tim_ex.c:1132:0
	.fnstart
	.cfi_startproc
@ %bb.0:
	@DEBUG_VALUE: HAL_TIMEx_PWMN_Stop:htim <- $r0
	@DEBUG_VALUE: HAL_TIMEx_PWMN_Stop:htim <- $r0
	@DEBUG_VALUE: HAL_TIMEx_PWMN_Stop:Channel <- $r1
	@DEBUG_VALUE: HAL_TIMEx_PWMN_Stop:Channel <- $r1
	.save	{r4, lr}
	push	{r4, lr}
	.cfi_def_cfa_offset 8
	.cfi_offset lr, -4
	.cfi_offset r4, -8
.Ltmp457:
	.loc	7 1137 28 prologue_end          @ c:/Keil_v5\ARM\PACK\Keil\STM32L5xx_DFP\1.3.0\Drivers\STM32L5xx_HAL_Driver\Src\stm32l5xx_hal_tim_ex.c:1137:28
	ldr	r2, [r0]
.Ltmp458:
	@DEBUG_VALUE: TIM_CCxNChannelCmd:ChannelNState <- 0
	@DEBUG_VALUE: TIM_CCxNChannelCmd:Channel <- $r1
	@DEBUG_VALUE: TIM_CCxNChannelCmd:TIMx <- $r2
	.loc	7 2735 36                       @ c:/Keil_v5\ARM\PACK\Keil\STM32L5xx_DFP\1.3.0\Drivers\STM32L5xx_HAL_Driver\Src\stm32l5xx_hal_tim_ex.c:2735:36
	and	lr, r1, #31
	mov.w	r12, #4
	.loc	7 2738 14                       @ c:/Keil_v5\ARM\PACK\Keil\STM32L5xx_DFP\1.3.0\Drivers\STM32L5xx_HAL_Driver\Src\stm32l5xx_hal_tim_ex.c:2738:14
	ldr	r4, [r2, #32]
	.loc	7 2735 24                       @ c:/Keil_v5\ARM\PACK\Keil\STM32L5xx_DFP\1.3.0\Drivers\STM32L5xx_HAL_Driver\Src\stm32l5xx_hal_tim_ex.c:2735:24
	lsl.w	r3, r12, lr
.Ltmp459:
	@DEBUG_VALUE: TIM_CCxNChannelCmd:tmp <- $r3
	.loc	7 2738 14                       @ c:/Keil_v5\ARM\PACK\Keil\STM32L5xx_DFP\1.3.0\Drivers\STM32L5xx_HAL_Driver\Src\stm32l5xx_hal_tim_ex.c:2738:14
	bic.w	r3, r4, r3
.Ltmp460:
	str	r3, [r2, #32]
	.loc	7 2741 14                       @ c:/Keil_v5\ARM\PACK\Keil\STM32L5xx_DFP\1.3.0\Drivers\STM32L5xx_HAL_Driver\Src\stm32l5xx_hal_tim_ex.c:2741:14
	ldr	r3, [r2, #32]
	str	r3, [r2, #32]
.Ltmp461:
	.loc	7 1140 3                        @ c:/Keil_v5\ARM\PACK\Keil\STM32L5xx_DFP\1.3.0\Drivers\STM32L5xx_HAL_Driver\Src\stm32l5xx_hal_tim_ex.c:1140:3
	ldr	r4, [r2, #32]
	movw	r3, #4369
.Ltmp462:
	.loc	7 1140 3 is_stmt 0              @ c:/Keil_v5\ARM\PACK\Keil\STM32L5xx_DFP\1.3.0\Drivers\STM32L5xx_HAL_Driver\Src\stm32l5xx_hal_tim_ex.c:1140:3
	tst	r4, r3
	bne	.LBB19_2
.Ltmp463:
@ %bb.1:
	@DEBUG_VALUE: HAL_TIMEx_PWMN_Stop:Channel <- $r1
	@DEBUG_VALUE: HAL_TIMEx_PWMN_Stop:htim <- $r0
	.loc	7 1140 3                        @ c:/Keil_v5\ARM\PACK\Keil\STM32L5xx_DFP\1.3.0\Drivers\STM32L5xx_HAL_Driver\Src\stm32l5xx_hal_tim_ex.c:1140:3
	ldr.w	r12, [r2, #32]
	movw	r4, #1092
.Ltmp464:
	.loc	7 1140 3                        @ c:/Keil_v5\ARM\PACK\Keil\STM32L5xx_DFP\1.3.0\Drivers\STM32L5xx_HAL_Driver\Src\stm32l5xx_hal_tim_ex.c:1140:3
	tst.w	r12, r4
	beq	.LBB19_5
.Ltmp465:
.LBB19_2:
	@DEBUG_VALUE: HAL_TIMEx_PWMN_Stop:Channel <- $r1
	@DEBUG_VALUE: HAL_TIMEx_PWMN_Stop:htim <- $r0
	.loc	7 1143 3 is_stmt 1              @ c:/Keil_v5\ARM\PACK\Keil\STM32L5xx_DFP\1.3.0\Drivers\STM32L5xx_HAL_Driver\Src\stm32l5xx_hal_tim_ex.c:1143:3
	ldr	r4, [r2, #32]
.Ltmp466:
	.loc	7 1143 3 is_stmt 0              @ c:/Keil_v5\ARM\PACK\Keil\STM32L5xx_DFP\1.3.0\Drivers\STM32L5xx_HAL_Driver\Src\stm32l5xx_hal_tim_ex.c:1143:3
	tst	r4, r3
	bne	.LBB19_6
.Ltmp467:
.LBB19_3:
	@DEBUG_VALUE: HAL_TIMEx_PWMN_Stop:Channel <- $r1
	@DEBUG_VALUE: HAL_TIMEx_PWMN_Stop:htim <- $r0
	.loc	7 1143 3                        @ c:/Keil_v5\ARM\PACK\Keil\STM32L5xx_DFP\1.3.0\Drivers\STM32L5xx_HAL_Driver\Src\stm32l5xx_hal_tim_ex.c:1143:3
	ldr	r3, [r2, #32]
	movw	r4, #1092
.Ltmp468:
	.loc	7 1143 3                        @ c:/Keil_v5\ARM\PACK\Keil\STM32L5xx_DFP\1.3.0\Drivers\STM32L5xx_HAL_Driver\Src\stm32l5xx_hal_tim_ex.c:1143:3
	tst	r3, r4
	bne	.LBB19_6
.Ltmp469:
@ %bb.4:
	@DEBUG_VALUE: HAL_TIMEx_PWMN_Stop:Channel <- $r1
	@DEBUG_VALUE: HAL_TIMEx_PWMN_Stop:htim <- $r0
	.loc	7 1143 3                        @ c:/Keil_v5\ARM\PACK\Keil\STM32L5xx_DFP\1.3.0\Drivers\STM32L5xx_HAL_Driver\Src\stm32l5xx_hal_tim_ex.c:1143:3
	ldr	r3, [r2]
	bic	r3, r3, #1
	str	r3, [r2]
	b	.LBB19_6
.Ltmp470:
	.p2align	2
.LBB19_5:
	@DEBUG_VALUE: HAL_TIMEx_PWMN_Stop:Channel <- $r1
	@DEBUG_VALUE: HAL_TIMEx_PWMN_Stop:htim <- $r0
	.loc	7 1140 3 is_stmt 1              @ c:/Keil_v5\ARM\PACK\Keil\STM32L5xx_DFP\1.3.0\Drivers\STM32L5xx_HAL_Driver\Src\stm32l5xx_hal_tim_ex.c:1140:3
	ldr	r4, [r2, #68]
	bic	r4, r4, #32768
	str	r4, [r2, #68]
.Ltmp471:
	.loc	7 1143 3                        @ c:/Keil_v5\ARM\PACK\Keil\STM32L5xx_DFP\1.3.0\Drivers\STM32L5xx_HAL_Driver\Src\stm32l5xx_hal_tim_ex.c:1143:3
	ldr	r4, [r2, #32]
.Ltmp472:
	.loc	7 1143 3 is_stmt 0              @ c:/Keil_v5\ARM\PACK\Keil\STM32L5xx_DFP\1.3.0\Drivers\STM32L5xx_HAL_Driver\Src\stm32l5xx_hal_tim_ex.c:1143:3
	tst	r4, r3
	beq	.LBB19_3
.Ltmp473:
.LBB19_6:
	@DEBUG_VALUE: HAL_TIMEx_PWMN_Stop:Channel <- $r1
	@DEBUG_VALUE: HAL_TIMEx_PWMN_Stop:htim <- $r0
	.loc	7 1146 3 is_stmt 1              @ c:/Keil_v5\ARM\PACK\Keil\STM32L5xx_DFP\1.3.0\Drivers\STM32L5xx_HAL_Driver\Src\stm32l5xx_hal_tim_ex.c:1146:3
	cmp	r1, #8
	beq	.LBB19_9
.Ltmp474:
@ %bb.7:
	@DEBUG_VALUE: HAL_TIMEx_PWMN_Stop:Channel <- $r1
	@DEBUG_VALUE: HAL_TIMEx_PWMN_Stop:htim <- $r0
	cmp	r1, #4
	beq	.LBB19_10
.Ltmp475:
@ %bb.8:
	@DEBUG_VALUE: HAL_TIMEx_PWMN_Stop:Channel <- $r1
	@DEBUG_VALUE: HAL_TIMEx_PWMN_Stop:htim <- $r0
	cmp	r1, #0
	mov.w	r1, #1
.Ltmp476:
	@DEBUG_VALUE: HAL_TIMEx_PWMN_Stop:Channel <- [DW_OP_LLVM_entry_value 1] $r1
	ite	ne
	strbne.w	r1, [r0, #71]
	strbeq.w	r1, [r0, #68]
	.loc	7 1149 3                        @ c:/Keil_v5\ARM\PACK\Keil\STM32L5xx_DFP\1.3.0\Drivers\STM32L5xx_HAL_Driver\Src\stm32l5xx_hal_tim_ex.c:1149:3
	movs	r0, #0
.Ltmp477:
	@DEBUG_VALUE: HAL_TIMEx_PWMN_Stop:htim <- [DW_OP_LLVM_entry_value 1] $r0
	pop	{r4, pc}
.Ltmp478:
	.p2align	2
.LBB19_9:
	@DEBUG_VALUE: HAL_TIMEx_PWMN_Stop:Channel <- $r1
	@DEBUG_VALUE: HAL_TIMEx_PWMN_Stop:htim <- $r0
	.loc	7 0 3 is_stmt 0                 @ c:/Keil_v5\ARM\PACK\Keil\STM32L5xx_DFP\1.3.0\Drivers\STM32L5xx_HAL_Driver\Src\stm32l5xx_hal_tim_ex.c:0:3
	movs	r1, #1
.Ltmp479:
	@DEBUG_VALUE: HAL_TIMEx_PWMN_Stop:Channel <- [DW_OP_LLVM_entry_value 1] $r1
	.loc	7 1146 3 is_stmt 1              @ c:/Keil_v5\ARM\PACK\Keil\STM32L5xx_DFP\1.3.0\Drivers\STM32L5xx_HAL_Driver\Src\stm32l5xx_hal_tim_ex.c:1146:3
	strb.w	r1, [r0, #70]
	.loc	7 1149 3                        @ c:/Keil_v5\ARM\PACK\Keil\STM32L5xx_DFP\1.3.0\Drivers\STM32L5xx_HAL_Driver\Src\stm32l5xx_hal_tim_ex.c:1149:3
	movs	r0, #0
.Ltmp480:
	@DEBUG_VALUE: HAL_TIMEx_PWMN_Stop:htim <- [DW_OP_LLVM_entry_value 1] $r0
	pop	{r4, pc}
.Ltmp481:
	.p2align	2
.LBB19_10:
	@DEBUG_VALUE: HAL_TIMEx_PWMN_Stop:Channel <- $r1
	@DEBUG_VALUE: HAL_TIMEx_PWMN_Stop:htim <- $r0
	.loc	7 0 3 is_stmt 0                 @ c:/Keil_v5\ARM\PACK\Keil\STM32L5xx_DFP\1.3.0\Drivers\STM32L5xx_HAL_Driver\Src\stm32l5xx_hal_tim_ex.c:0:3
	movs	r1, #1
.Ltmp482:
	@DEBUG_VALUE: HAL_TIMEx_PWMN_Stop:Channel <- [DW_OP_LLVM_entry_value 1] $r1
	.loc	7 1146 3 is_stmt 1              @ c:/Keil_v5\ARM\PACK\Keil\STM32L5xx_DFP\1.3.0\Drivers\STM32L5xx_HAL_Driver\Src\stm32l5xx_hal_tim_ex.c:1146:3
	strb.w	r1, [r0, #69]
	.loc	7 1149 3                        @ c:/Keil_v5\ARM\PACK\Keil\STM32L5xx_DFP\1.3.0\Drivers\STM32L5xx_HAL_Driver\Src\stm32l5xx_hal_tim_ex.c:1149:3
	movs	r0, #0
.Ltmp483:
	@DEBUG_VALUE: HAL_TIMEx_PWMN_Stop:htim <- [DW_OP_LLVM_entry_value 1] $r0
	pop	{r4, pc}
.Ltmp484:
.Lfunc_end19:
	.size	HAL_TIMEx_PWMN_Stop, .Lfunc_end19-HAL_TIMEx_PWMN_Stop
	.cfi_endproc
	.cantunwind
	.fnend
                                        @ -- End function
	.section	.text.HAL_TIMEx_PWMN_Start_IT,"ax",%progbits
	.hidden	HAL_TIMEx_PWMN_Start_IT         @ -- Begin function HAL_TIMEx_PWMN_Start_IT
	.globl	HAL_TIMEx_PWMN_Start_IT
	.p2align	2
	.type	HAL_TIMEx_PWMN_Start_IT,%function
	.code	16                              @ @HAL_TIMEx_PWMN_Start_IT
	.thumb_func
HAL_TIMEx_PWMN_Start_IT:
.Lfunc_begin20:
	.loc	7 1164 0                        @ c:/Keil_v5\ARM\PACK\Keil\STM32L5xx_DFP\1.3.0\Drivers\STM32L5xx_HAL_Driver\Src\stm32l5xx_hal_tim_ex.c:1164:0
	.fnstart
	.cfi_startproc
@ %bb.0:
	@DEBUG_VALUE: HAL_TIMEx_PWMN_Start_IT:htim <- $r0
	@DEBUG_VALUE: HAL_TIMEx_PWMN_Start_IT:Channel <- $r1
	@DEBUG_VALUE: HAL_TIMEx_PWMN_Start_IT:Channel <- $r1
	@DEBUG_VALUE: HAL_TIMEx_PWMN_Start_IT:htim <- $r0
	.loc	7 1171 7 prologue_end           @ c:/Keil_v5\ARM\PACK\Keil\STM32L5xx_DFP\1.3.0\Drivers\STM32L5xx_HAL_Driver\Src\stm32l5xx_hal_tim_ex.c:1171:7
	cbz	r1, .LBB20_3
.Ltmp485:
@ %bb.1:
	@DEBUG_VALUE: HAL_TIMEx_PWMN_Start_IT:Channel <- $r1
	@DEBUG_VALUE: HAL_TIMEx_PWMN_Start_IT:htim <- $r0
	cmp	r1, #8
	beq	.LBB20_5
.Ltmp486:
@ %bb.2:
	@DEBUG_VALUE: HAL_TIMEx_PWMN_Start_IT:Channel <- $r1
	@DEBUG_VALUE: HAL_TIMEx_PWMN_Start_IT:htim <- $r0
	cmp	r1, #4
	ite	ne
	addne.w	r2, r0, #71
	addeq.w	r2, r0, #69
	b	.LBB20_6
.Ltmp487:
	.p2align	2
.LBB20_3:
	@DEBUG_VALUE: HAL_TIMEx_PWMN_Start_IT:Channel <- $r1
	@DEBUG_VALUE: HAL_TIMEx_PWMN_Start_IT:htim <- $r0
	ldrb.w	r2, [r0, #68]
.Ltmp488:
	.loc	7 1171 7 is_stmt 0              @ c:/Keil_v5\ARM\PACK\Keil\STM32L5xx_DFP\1.3.0\Drivers\STM32L5xx_HAL_Driver\Src\stm32l5xx_hal_tim_ex.c:1171:7
	cmp	r2, #1
	itt	ne
	movne	r0, #1
.Ltmp489:
	@DEBUG_VALUE: HAL_TIMEx_PWMN_Start_IT:htim <- [DW_OP_LLVM_entry_value 1] $r0
	.loc	7 1231 1 is_stmt 1              @ c:/Keil_v5\ARM\PACK\Keil\STM32L5xx_DFP\1.3.0\Drivers\STM32L5xx_HAL_Driver\Src\stm32l5xx_hal_tim_ex.c:1231:1
	bxne	lr
.Ltmp490:
.LBB20_4:
	@DEBUG_VALUE: HAL_TIMEx_PWMN_Start_IT:Channel <- $r1
	@DEBUG_VALUE: HAL_TIMEx_PWMN_Start_IT:htim <- [DW_OP_LLVM_entry_value 1] $r0
	.loc	7 0 1 is_stmt 0                 @ c:/Keil_v5\ARM\PACK\Keil\STM32L5xx_DFP\1.3.0\Drivers\STM32L5xx_HAL_Driver\Src\stm32l5xx_hal_tim_ex.c:0:1
	movs	r2, #2
	.loc	7 1177 3 is_stmt 1              @ c:/Keil_v5\ARM\PACK\Keil\STM32L5xx_DFP\1.3.0\Drivers\STM32L5xx_HAL_Driver\Src\stm32l5xx_hal_tim_ex.c:1177:3
	strb.w	r2, [r0, #68]
.Ltmp491:
	.loc	7 1184 7                        @ c:/Keil_v5\ARM\PACK\Keil\STM32L5xx_DFP\1.3.0\Drivers\STM32L5xx_HAL_Driver\Src\stm32l5xx_hal_tim_ex.c:1184:7
	ldr	r2, [r0]
	ldr	r0, [r2, #12]
	orr	r0, r0, #2
	str	r0, [r2, #12]
	b	.LBB20_12
.Ltmp492:
	.p2align	2
.LBB20_5:
	@DEBUG_VALUE: HAL_TIMEx_PWMN_Start_IT:Channel <- $r1
	@DEBUG_VALUE: HAL_TIMEx_PWMN_Start_IT:htim <- $r0
	.loc	7 1171 7                        @ c:/Keil_v5\ARM\PACK\Keil\STM32L5xx_DFP\1.3.0\Drivers\STM32L5xx_HAL_Driver\Src\stm32l5xx_hal_tim_ex.c:1171:7
	add.w	r2, r0, #70
.Ltmp493:
.LBB20_6:
	@DEBUG_VALUE: HAL_TIMEx_PWMN_Start_IT:Channel <- $r1
	@DEBUG_VALUE: HAL_TIMEx_PWMN_Start_IT:htim <- $r0
	ldrb	r2, [r2]
.Ltmp494:
	.loc	7 1171 7 is_stmt 0              @ c:/Keil_v5\ARM\PACK\Keil\STM32L5xx_DFP\1.3.0\Drivers\STM32L5xx_HAL_Driver\Src\stm32l5xx_hal_tim_ex.c:1171:7
	cmp	r2, #1
	itt	ne
	movne	r0, #1
.Ltmp495:
	@DEBUG_VALUE: HAL_TIMEx_PWMN_Start_IT:htim <- [DW_OP_LLVM_entry_value 1] $r0
	.loc	7 1231 1 is_stmt 1              @ c:/Keil_v5\ARM\PACK\Keil\STM32L5xx_DFP\1.3.0\Drivers\STM32L5xx_HAL_Driver\Src\stm32l5xx_hal_tim_ex.c:1231:1
	bxne	lr
.Ltmp496:
.LBB20_7:
	@DEBUG_VALUE: HAL_TIMEx_PWMN_Start_IT:Channel <- $r1
	@DEBUG_VALUE: HAL_TIMEx_PWMN_Start_IT:htim <- [DW_OP_LLVM_entry_value 1] $r0
	.loc	7 0 1 is_stmt 0                 @ c:/Keil_v5\ARM\PACK\Keil\STM32L5xx_DFP\1.3.0\Drivers\STM32L5xx_HAL_Driver\Src\stm32l5xx_hal_tim_ex.c:0:1
	movs	r2, #2
	.loc	7 1177 3 is_stmt 1              @ c:/Keil_v5\ARM\PACK\Keil\STM32L5xx_DFP\1.3.0\Drivers\STM32L5xx_HAL_Driver\Src\stm32l5xx_hal_tim_ex.c:1177:3
	cmp	r1, #8
	beq	.LBB20_10
.Ltmp497:
@ %bb.8:
	@DEBUG_VALUE: HAL_TIMEx_PWMN_Start_IT:Channel <- $r1
	@DEBUG_VALUE: HAL_TIMEx_PWMN_Start_IT:htim <- [DW_OP_LLVM_entry_value 1] $r0
	cmp	r1, #4
	bne	.LBB20_11
.Ltmp498:
@ %bb.9:
	@DEBUG_VALUE: HAL_TIMEx_PWMN_Start_IT:Channel <- $r1
	@DEBUG_VALUE: HAL_TIMEx_PWMN_Start_IT:htim <- [DW_OP_LLVM_entry_value 1] $r0
	strb.w	r2, [r0, #69]
.Ltmp499:
	.loc	7 1191 7                        @ c:/Keil_v5\ARM\PACK\Keil\STM32L5xx_DFP\1.3.0\Drivers\STM32L5xx_HAL_Driver\Src\stm32l5xx_hal_tim_ex.c:1191:7
	ldr	r2, [r0]
	ldr	r0, [r2, #12]
	orr	r0, r0, #4
	str	r0, [r2, #12]
	b	.LBB20_12
.Ltmp500:
	.p2align	2
.LBB20_10:
	@DEBUG_VALUE: HAL_TIMEx_PWMN_Start_IT:Channel <- $r1
	@DEBUG_VALUE: HAL_TIMEx_PWMN_Start_IT:htim <- [DW_OP_LLVM_entry_value 1] $r0
	.loc	7 1177 3                        @ c:/Keil_v5\ARM\PACK\Keil\STM32L5xx_DFP\1.3.0\Drivers\STM32L5xx_HAL_Driver\Src\stm32l5xx_hal_tim_ex.c:1177:3
	strb.w	r2, [r0, #70]
.Ltmp501:
	.loc	7 1198 7                        @ c:/Keil_v5\ARM\PACK\Keil\STM32L5xx_DFP\1.3.0\Drivers\STM32L5xx_HAL_Driver\Src\stm32l5xx_hal_tim_ex.c:1198:7
	ldr	r2, [r0]
	ldr	r0, [r2, #12]
	orr	r0, r0, #8
	str	r0, [r2, #12]
	b	.LBB20_12
.Ltmp502:
	.p2align	2
.LBB20_11:
	@DEBUG_VALUE: HAL_TIMEx_PWMN_Start_IT:Channel <- $r1
	@DEBUG_VALUE: HAL_TIMEx_PWMN_Start_IT:htim <- [DW_OP_LLVM_entry_value 1] $r0
	.loc	7 1177 3                        @ c:/Keil_v5\ARM\PACK\Keil\STM32L5xx_DFP\1.3.0\Drivers\STM32L5xx_HAL_Driver\Src\stm32l5xx_hal_tim_ex.c:1177:3
	strb.w	r2, [r0, #71]
	.loc	7 1207 3                        @ c:/Keil_v5\ARM\PACK\Keil\STM32L5xx_DFP\1.3.0\Drivers\STM32L5xx_HAL_Driver\Src\stm32l5xx_hal_tim_ex.c:1207:3
	ldr	r2, [r0]
.Ltmp503:
.LBB20_12:
	@DEBUG_VALUE: HAL_TIMEx_PWMN_Start_IT:Channel <- $r1
	@DEBUG_VALUE: HAL_TIMEx_PWMN_Start_IT:htim <- [DW_OP_LLVM_entry_value 1] $r0
	ldr	r0, [r2, #12]
	orr	r0, r0, #128
	str	r0, [r2, #12]
.Ltmp504:
	@DEBUG_VALUE: TIM_CCxNChannelCmd:ChannelNState <- 4
	@DEBUG_VALUE: TIM_CCxNChannelCmd:Channel <- $r1
	@DEBUG_VALUE: TIM_CCxNChannelCmd:TIMx <- $r2
	.loc	7 2735 36                       @ c:/Keil_v5\ARM\PACK\Keil\STM32L5xx_DFP\1.3.0\Drivers\STM32L5xx_HAL_Driver\Src\stm32l5xx_hal_tim_ex.c:2735:36
	and	r0, r1, #31
	movs	r1, #4
.Ltmp505:
	@DEBUG_VALUE: HAL_TIMEx_PWMN_Start_IT:Channel <- [DW_OP_LLVM_entry_value 1] $r1
	.loc	7 2738 14                       @ c:/Keil_v5\ARM\PACK\Keil\STM32L5xx_DFP\1.3.0\Drivers\STM32L5xx_HAL_Driver\Src\stm32l5xx_hal_tim_ex.c:2738:14
	ldr	r3, [r2, #32]
	.loc	7 2735 24                       @ c:/Keil_v5\ARM\PACK\Keil\STM32L5xx_DFP\1.3.0\Drivers\STM32L5xx_HAL_Driver\Src\stm32l5xx_hal_tim_ex.c:2735:24
	lsl.w	r0, r1, r0
.Ltmp506:
	@DEBUG_VALUE: TIM_CCxNChannelCmd:tmp <- $r0
	.loc	7 2738 14                       @ c:/Keil_v5\ARM\PACK\Keil\STM32L5xx_DFP\1.3.0\Drivers\STM32L5xx_HAL_Driver\Src\stm32l5xx_hal_tim_ex.c:2738:14
	bic.w	r1, r3, r0
	str	r1, [r2, #32]
	.loc	7 2741 14                       @ c:/Keil_v5\ARM\PACK\Keil\STM32L5xx_DFP\1.3.0\Drivers\STM32L5xx_HAL_Driver\Src\stm32l5xx_hal_tim_ex.c:2741:14
	ldr	r1, [r2, #32]
	orrs	r0, r1
.Ltmp507:
	str	r0, [r2, #32]
.Ltmp508:
	.loc	7 1213 3                        @ c:/Keil_v5\ARM\PACK\Keil\STM32L5xx_DFP\1.3.0\Drivers\STM32L5xx_HAL_Driver\Src\stm32l5xx_hal_tim_ex.c:1213:3
	ldr	r0, [r2, #68]
	movw	r1, #3071
	movt	r1, #16384
	orr	r0, r0, #32768
.Ltmp509:
	.loc	7 1216 7                        @ c:/Keil_v5\ARM\PACK\Keil\STM32L5xx_DFP\1.3.0\Drivers\STM32L5xx_HAL_Driver\Src\stm32l5xx_hal_tim_ex.c:1216:7
	cmp	r2, r1
.Ltmp510:
	.loc	7 1213 3                        @ c:/Keil_v5\ARM\PACK\Keil\STM32L5xx_DFP\1.3.0\Drivers\STM32L5xx_HAL_Driver\Src\stm32l5xx_hal_tim_ex.c:1213:3
	str	r0, [r2, #68]
.Ltmp511:
	.loc	7 1216 7                        @ c:/Keil_v5\ARM\PACK\Keil\STM32L5xx_DFP\1.3.0\Drivers\STM32L5xx_HAL_Driver\Src\stm32l5xx_hal_tim_ex.c:1216:7
	ble	.LBB20_16
.Ltmp512:
@ %bb.13:
	@DEBUG_VALUE: HAL_TIMEx_PWMN_Start_IT:Channel <- [DW_OP_LLVM_entry_value 1] $r1
	@DEBUG_VALUE: HAL_TIMEx_PWMN_Start_IT:htim <- [DW_OP_LLVM_entry_value 1] $r0
	.loc	7 0 7 is_stmt 0                 @ c:/Keil_v5\ARM\PACK\Keil\STM32L5xx_DFP\1.3.0\Drivers\STM32L5xx_HAL_Driver\Src\stm32l5xx_hal_tim_ex.c:0:7
	movw	r0, #13311
	movt	r0, #16385
	.loc	7 1216 7                        @ c:/Keil_v5\ARM\PACK\Keil\STM32L5xx_DFP\1.3.0\Drivers\STM32L5xx_HAL_Driver\Src\stm32l5xx_hal_tim_ex.c:1216:7
	cmp	r2, r0
	bgt	.LBB20_19
.Ltmp513:
@ %bb.14:
	@DEBUG_VALUE: HAL_TIMEx_PWMN_Start_IT:Channel <- [DW_OP_LLVM_entry_value 1] $r1
	@DEBUG_VALUE: HAL_TIMEx_PWMN_Start_IT:htim <- [DW_OP_LLVM_entry_value 1] $r0
	.loc	7 0 7                           @ c:/Keil_v5\ARM\PACK\Keil\STM32L5xx_DFP\1.3.0\Drivers\STM32L5xx_HAL_Driver\Src\stm32l5xx_hal_tim_ex.c:0:7
	movw	r0, #3072
	movt	r0, #16384
	.loc	7 1216 7                        @ c:/Keil_v5\ARM\PACK\Keil\STM32L5xx_DFP\1.3.0\Drivers\STM32L5xx_HAL_Driver\Src\stm32l5xx_hal_tim_ex.c:1216:7
	cmp	r2, r0
	beq	.LBB20_21
.Ltmp514:
@ %bb.15:
	@DEBUG_VALUE: HAL_TIMEx_PWMN_Start_IT:Channel <- [DW_OP_LLVM_entry_value 1] $r1
	@DEBUG_VALUE: HAL_TIMEx_PWMN_Start_IT:htim <- [DW_OP_LLVM_entry_value 1] $r0
	.loc	7 0 7                           @ c:/Keil_v5\ARM\PACK\Keil\STM32L5xx_DFP\1.3.0\Drivers\STM32L5xx_HAL_Driver\Src\stm32l5xx_hal_tim_ex.c:0:7
	movw	r0, #11264
	movt	r0, #16385
	.loc	7 1216 7                        @ c:/Keil_v5\ARM\PACK\Keil\STM32L5xx_DFP\1.3.0\Drivers\STM32L5xx_HAL_Driver\Src\stm32l5xx_hal_tim_ex.c:1216:7
	cmp	r2, r0
	beq	.LBB20_21
	b	.LBB20_23
.Ltmp515:
	.p2align	2
.LBB20_16:
	@DEBUG_VALUE: HAL_TIMEx_PWMN_Start_IT:Channel <- [DW_OP_LLVM_entry_value 1] $r1
	@DEBUG_VALUE: HAL_TIMEx_PWMN_Start_IT:htim <- [DW_OP_LLVM_entry_value 1] $r0
	cmp.w	r2, #1073741824
	beq	.LBB20_21
.Ltmp516:
@ %bb.17:
	@DEBUG_VALUE: HAL_TIMEx_PWMN_Start_IT:Channel <- [DW_OP_LLVM_entry_value 1] $r1
	@DEBUG_VALUE: HAL_TIMEx_PWMN_Start_IT:htim <- [DW_OP_LLVM_entry_value 1] $r0
	.loc	7 0 7                           @ c:/Keil_v5\ARM\PACK\Keil\STM32L5xx_DFP\1.3.0\Drivers\STM32L5xx_HAL_Driver\Src\stm32l5xx_hal_tim_ex.c:0:7
	movw	r0, #1024
	movt	r0, #16384
	.loc	7 1216 7                        @ c:/Keil_v5\ARM\PACK\Keil\STM32L5xx_DFP\1.3.0\Drivers\STM32L5xx_HAL_Driver\Src\stm32l5xx_hal_tim_ex.c:1216:7
	cmp	r2, r0
	beq	.LBB20_21
.Ltmp517:
@ %bb.18:
	@DEBUG_VALUE: HAL_TIMEx_PWMN_Start_IT:Channel <- [DW_OP_LLVM_entry_value 1] $r1
	@DEBUG_VALUE: HAL_TIMEx_PWMN_Start_IT:htim <- [DW_OP_LLVM_entry_value 1] $r0
	.loc	7 0 7                           @ c:/Keil_v5\ARM\PACK\Keil\STM32L5xx_DFP\1.3.0\Drivers\STM32L5xx_HAL_Driver\Src\stm32l5xx_hal_tim_ex.c:0:7
	movw	r0, #2048
	movt	r0, #16384
	.loc	7 1216 7                        @ c:/Keil_v5\ARM\PACK\Keil\STM32L5xx_DFP\1.3.0\Drivers\STM32L5xx_HAL_Driver\Src\stm32l5xx_hal_tim_ex.c:1216:7
	cmp	r2, r0
	beq	.LBB20_21
	b	.LBB20_23
.Ltmp518:
	.p2align	2
.LBB20_19:
	@DEBUG_VALUE: HAL_TIMEx_PWMN_Start_IT:Channel <- [DW_OP_LLVM_entry_value 1] $r1
	@DEBUG_VALUE: HAL_TIMEx_PWMN_Start_IT:htim <- [DW_OP_LLVM_entry_value 1] $r0
	.loc	7 0 7                           @ c:/Keil_v5\ARM\PACK\Keil\STM32L5xx_DFP\1.3.0\Drivers\STM32L5xx_HAL_Driver\Src\stm32l5xx_hal_tim_ex.c:0:7
	movw	r0, #16384
	movt	r0, #16385
	.loc	7 1216 7                        @ c:/Keil_v5\ARM\PACK\Keil\STM32L5xx_DFP\1.3.0\Drivers\STM32L5xx_HAL_Driver\Src\stm32l5xx_hal_tim_ex.c:1216:7
	cmp	r2, r0
	beq	.LBB20_21
.Ltmp519:
@ %bb.20:
	@DEBUG_VALUE: HAL_TIMEx_PWMN_Start_IT:Channel <- [DW_OP_LLVM_entry_value 1] $r1
	@DEBUG_VALUE: HAL_TIMEx_PWMN_Start_IT:htim <- [DW_OP_LLVM_entry_value 1] $r0
	.loc	7 0 7                           @ c:/Keil_v5\ARM\PACK\Keil\STM32L5xx_DFP\1.3.0\Drivers\STM32L5xx_HAL_Driver\Src\stm32l5xx_hal_tim_ex.c:0:7
	movw	r0, #13312
	movt	r0, #16385
	.loc	7 1216 7                        @ c:/Keil_v5\ARM\PACK\Keil\STM32L5xx_DFP\1.3.0\Drivers\STM32L5xx_HAL_Driver\Src\stm32l5xx_hal_tim_ex.c:1216:7
	cmp	r2, r0
	bne	.LBB20_23
.Ltmp520:
.LBB20_21:
	@DEBUG_VALUE: HAL_TIMEx_PWMN_Start_IT:Channel <- [DW_OP_LLVM_entry_value 1] $r1
	@DEBUG_VALUE: HAL_TIMEx_PWMN_Start_IT:htim <- [DW_OP_LLVM_entry_value 1] $r0
	.loc	7 1218 31 is_stmt 1             @ c:/Keil_v5\ARM\PACK\Keil\STM32L5xx_DFP\1.3.0\Drivers\STM32L5xx_HAL_Driver\Src\stm32l5xx_hal_tim_ex.c:1218:31
	ldr	r0, [r2, #8]
	movs	r1, #7
	movt	r1, #1
	.loc	7 1218 36 is_stmt 0             @ c:/Keil_v5\ARM\PACK\Keil\STM32L5xx_DFP\1.3.0\Drivers\STM32L5xx_HAL_Driver\Src\stm32l5xx_hal_tim_ex.c:1218:36
	ands	r1, r0
.Ltmp521:
	@DEBUG_VALUE: HAL_TIMEx_PWMN_Start_IT:tmpsmcr <- $r1
	.loc	7 1219 10 is_stmt 1             @ c:/Keil_v5\ARM\PACK\Keil\STM32L5xx_DFP\1.3.0\Drivers\STM32L5xx_HAL_Driver\Src\stm32l5xx_hal_tim_ex.c:1219:10
	cmp	r1, #6
	mov.w	r0, #0
	it	ne
	cmpne.w	r1, #65536
	bne	.LBB20_23
.Ltmp522:
@ %bb.22:
	@DEBUG_VALUE: HAL_TIMEx_PWMN_Start_IT:tmpsmcr <- $r1
	@DEBUG_VALUE: HAL_TIMEx_PWMN_Start_IT:Channel <- [DW_OP_LLVM_entry_value 1] $r1
	@DEBUG_VALUE: HAL_TIMEx_PWMN_Start_IT:htim <- [DW_OP_LLVM_entry_value 1] $r0
	.loc	7 1231 1                        @ c:/Keil_v5\ARM\PACK\Keil\STM32L5xx_DFP\1.3.0\Drivers\STM32L5xx_HAL_Driver\Src\stm32l5xx_hal_tim_ex.c:1231:1
	bx	lr
.Ltmp523:
	.p2align	2
.LBB20_23:
	@DEBUG_VALUE: HAL_TIMEx_PWMN_Start_IT:Channel <- [DW_OP_LLVM_entry_value 1] $r1
	@DEBUG_VALUE: HAL_TIMEx_PWMN_Start_IT:htim <- [DW_OP_LLVM_entry_value 1] $r0
	.loc	7 0 0 is_stmt 0                 @ c:/Keil_v5\ARM\PACK\Keil\STM32L5xx_DFP\1.3.0\Drivers\STM32L5xx_HAL_Driver\Src\stm32l5xx_hal_tim_ex.c:0:0
	ldr	r0, [r2]
	orr	r0, r0, #1
	str	r0, [r2]
	movs	r0, #0
.Ltmp524:
	.loc	7 1231 1                        @ c:/Keil_v5\ARM\PACK\Keil\STM32L5xx_DFP\1.3.0\Drivers\STM32L5xx_HAL_Driver\Src\stm32l5xx_hal_tim_ex.c:1231:1
	bx	lr
.Ltmp525:
.Lfunc_end20:
	.size	HAL_TIMEx_PWMN_Start_IT, .Lfunc_end20-HAL_TIMEx_PWMN_Start_IT
	.cfi_endproc
	.cantunwind
	.fnend
                                        @ -- End function
	.section	.text.HAL_TIMEx_PWMN_Stop_IT,"ax",%progbits
	.hidden	HAL_TIMEx_PWMN_Stop_IT          @ -- Begin function HAL_TIMEx_PWMN_Stop_IT
	.globl	HAL_TIMEx_PWMN_Stop_IT
	.p2align	2
	.type	HAL_TIMEx_PWMN_Stop_IT,%function
	.code	16                              @ @HAL_TIMEx_PWMN_Stop_IT
	.thumb_func
HAL_TIMEx_PWMN_Stop_IT:
.Lfunc_begin21:
	.loc	7 1245 0 is_stmt 1              @ c:/Keil_v5\ARM\PACK\Keil\STM32L5xx_DFP\1.3.0\Drivers\STM32L5xx_HAL_Driver\Src\stm32l5xx_hal_tim_ex.c:1245:0
	.fnstart
	.cfi_startproc
@ %bb.0:
	@DEBUG_VALUE: HAL_TIMEx_PWMN_Stop_IT:htim <- $r0
	@DEBUG_VALUE: HAL_TIMEx_PWMN_Stop_IT:Channel <- $r1
	@DEBUG_VALUE: HAL_TIMEx_PWMN_Stop_IT:Channel <- $r1
	.save	{r4, lr}
	push	{r4, lr}
	.cfi_def_cfa_offset 8
	.cfi_offset lr, -4
	.cfi_offset r4, -8
	@DEBUG_VALUE: HAL_TIMEx_PWMN_Stop_IT:htim <- $r0
.Ltmp526:
	.loc	7 1251 3 prologue_end           @ c:/Keil_v5\ARM\PACK\Keil\STM32L5xx_DFP\1.3.0\Drivers\STM32L5xx_HAL_Driver\Src\stm32l5xx_hal_tim_ex.c:1251:3
	cbz	r1, .LBB21_4
.Ltmp527:
@ %bb.1:
	@DEBUG_VALUE: HAL_TIMEx_PWMN_Stop_IT:Channel <- $r1
	@DEBUG_VALUE: HAL_TIMEx_PWMN_Stop_IT:htim <- $r0
	cmp	r1, #4
	beq	.LBB21_5
.Ltmp528:
@ %bb.2:
	@DEBUG_VALUE: HAL_TIMEx_PWMN_Stop_IT:Channel <- $r1
	@DEBUG_VALUE: HAL_TIMEx_PWMN_Stop_IT:htim <- $r0
	cmp	r1, #8
	bne	.LBB21_7
.Ltmp529:
@ %bb.3:
	@DEBUG_VALUE: HAL_TIMEx_PWMN_Stop_IT:Channel <- $r1
	@DEBUG_VALUE: HAL_TIMEx_PWMN_Stop_IT:htim <- $r0
	.loc	7 1270 7                        @ c:/Keil_v5\ARM\PACK\Keil\STM32L5xx_DFP\1.3.0\Drivers\STM32L5xx_HAL_Driver\Src\stm32l5xx_hal_tim_ex.c:1270:7
	ldr	r2, [r0]
	ldr	r3, [r2, #12]
	bic	r3, r3, #8
	b	.LBB21_6
.Ltmp530:
	.p2align	2
.LBB21_4:
	@DEBUG_VALUE: HAL_TIMEx_PWMN_Stop_IT:Channel <- $r1
	@DEBUG_VALUE: HAL_TIMEx_PWMN_Stop_IT:htim <- $r0
	.loc	7 1256 7                        @ c:/Keil_v5\ARM\PACK\Keil\STM32L5xx_DFP\1.3.0\Drivers\STM32L5xx_HAL_Driver\Src\stm32l5xx_hal_tim_ex.c:1256:7
	ldr	r2, [r0]
	ldr	r3, [r2, #12]
	bic	r3, r3, #2
	b	.LBB21_6
.Ltmp531:
	.p2align	2
.LBB21_5:
	@DEBUG_VALUE: HAL_TIMEx_PWMN_Stop_IT:Channel <- $r1
	@DEBUG_VALUE: HAL_TIMEx_PWMN_Stop_IT:htim <- $r0
	.loc	7 1263 7                        @ c:/Keil_v5\ARM\PACK\Keil\STM32L5xx_DFP\1.3.0\Drivers\STM32L5xx_HAL_Driver\Src\stm32l5xx_hal_tim_ex.c:1263:7
	ldr	r2, [r0]
	ldr	r3, [r2, #12]
	bic	r3, r3, #4
.Ltmp532:
.LBB21_6:
	@DEBUG_VALUE: HAL_TIMEx_PWMN_Stop_IT:Channel <- $r1
	@DEBUG_VALUE: HAL_TIMEx_PWMN_Stop_IT:htim <- $r0
	.loc	7 0 0 is_stmt 0                 @ c:/Keil_v5\ARM\PACK\Keil\STM32L5xx_DFP\1.3.0\Drivers\STM32L5xx_HAL_Driver\Src\stm32l5xx_hal_tim_ex.c:0:0
	str	r3, [r2, #12]
	b	.LBB21_8
.Ltmp533:
	.p2align	2
.LBB21_7:
	@DEBUG_VALUE: HAL_TIMEx_PWMN_Stop_IT:Channel <- $r1
	@DEBUG_VALUE: HAL_TIMEx_PWMN_Stop_IT:htim <- $r0
	.loc	7 1279 28 is_stmt 1             @ c:/Keil_v5\ARM\PACK\Keil\STM32L5xx_DFP\1.3.0\Drivers\STM32L5xx_HAL_Driver\Src\stm32l5xx_hal_tim_ex.c:1279:28
	ldr	r2, [r0]
.Ltmp534:
.LBB21_8:
	@DEBUG_VALUE: HAL_TIMEx_PWMN_Stop_IT:Channel <- $r1
	@DEBUG_VALUE: HAL_TIMEx_PWMN_Stop_IT:htim <- $r0
	@DEBUG_VALUE: TIM_CCxNChannelCmd:TIMx <- $r2
	@DEBUG_VALUE: TIM_CCxNChannelCmd:Channel <- $r1
	@DEBUG_VALUE: TIM_CCxNChannelCmd:ChannelNState <- 0
	.loc	7 2735 36                       @ c:/Keil_v5\ARM\PACK\Keil\STM32L5xx_DFP\1.3.0\Drivers\STM32L5xx_HAL_Driver\Src\stm32l5xx_hal_tim_ex.c:2735:36
	and	lr, r1, #31
	mov.w	r12, #4
	.loc	7 2738 14                       @ c:/Keil_v5\ARM\PACK\Keil\STM32L5xx_DFP\1.3.0\Drivers\STM32L5xx_HAL_Driver\Src\stm32l5xx_hal_tim_ex.c:2738:14
	ldr	r4, [r2, #32]
	.loc	7 2735 24                       @ c:/Keil_v5\ARM\PACK\Keil\STM32L5xx_DFP\1.3.0\Drivers\STM32L5xx_HAL_Driver\Src\stm32l5xx_hal_tim_ex.c:2735:24
	lsl.w	r3, r12, lr
.Ltmp535:
	@DEBUG_VALUE: TIM_CCxNChannelCmd:tmp <- $r3
	.loc	7 2738 14                       @ c:/Keil_v5\ARM\PACK\Keil\STM32L5xx_DFP\1.3.0\Drivers\STM32L5xx_HAL_Driver\Src\stm32l5xx_hal_tim_ex.c:2738:14
	bic.w	r3, r4, r3
.Ltmp536:
	str	r3, [r2, #32]
	.loc	7 2741 14                       @ c:/Keil_v5\ARM\PACK\Keil\STM32L5xx_DFP\1.3.0\Drivers\STM32L5xx_HAL_Driver\Src\stm32l5xx_hal_tim_ex.c:2741:14
	ldr	r3, [r2, #32]
	movw	r4, #1092
	str	r3, [r2, #32]
.Ltmp537:
	.loc	7 1282 29                       @ c:/Keil_v5\ARM\PACK\Keil\STM32L5xx_DFP\1.3.0\Drivers\STM32L5xx_HAL_Driver\Src\stm32l5xx_hal_tim_ex.c:1282:29
	ldr	r3, [r2, #32]
.Ltmp538:
	@DEBUG_VALUE: HAL_TIMEx_PWMN_Stop_IT:tmpccer <- $r3
	.loc	7 1283 7                        @ c:/Keil_v5\ARM\PACK\Keil\STM32L5xx_DFP\1.3.0\Drivers\STM32L5xx_HAL_Driver\Src\stm32l5xx_hal_tim_ex.c:1283:7
	tst	r3, r4
	beq	.LBB21_10
.Ltmp539:
@ %bb.9:
	@DEBUG_VALUE: HAL_TIMEx_PWMN_Stop_IT:tmpccer <- $r3
	@DEBUG_VALUE: HAL_TIMEx_PWMN_Stop_IT:Channel <- $r1
	@DEBUG_VALUE: HAL_TIMEx_PWMN_Stop_IT:htim <- $r0
	.loc	7 1289 3                        @ c:/Keil_v5\ARM\PACK\Keil\STM32L5xx_DFP\1.3.0\Drivers\STM32L5xx_HAL_Driver\Src\stm32l5xx_hal_tim_ex.c:1289:3
	ldr	r4, [r2, #32]
	movw	r3, #4369
.Ltmp540:
	.loc	7 1289 3 is_stmt 0              @ c:/Keil_v5\ARM\PACK\Keil\STM32L5xx_DFP\1.3.0\Drivers\STM32L5xx_HAL_Driver\Src\stm32l5xx_hal_tim_ex.c:1289:3
	tst	r4, r3
	bne	.LBB21_12
	b	.LBB21_11
.Ltmp541:
	.p2align	2
.LBB21_10:
	@DEBUG_VALUE: HAL_TIMEx_PWMN_Stop_IT:tmpccer <- $r3
	@DEBUG_VALUE: HAL_TIMEx_PWMN_Stop_IT:Channel <- $r1
	@DEBUG_VALUE: HAL_TIMEx_PWMN_Stop_IT:htim <- $r0
	.loc	7 1285 5 is_stmt 1              @ c:/Keil_v5\ARM\PACK\Keil\STM32L5xx_DFP\1.3.0\Drivers\STM32L5xx_HAL_Driver\Src\stm32l5xx_hal_tim_ex.c:1285:5
	ldr	r3, [r2, #12]
.Ltmp542:
	bic	r3, r3, #128
	str	r3, [r2, #12]
.Ltmp543:
	.loc	7 1289 3                        @ c:/Keil_v5\ARM\PACK\Keil\STM32L5xx_DFP\1.3.0\Drivers\STM32L5xx_HAL_Driver\Src\stm32l5xx_hal_tim_ex.c:1289:3
	ldr	r4, [r2, #32]
	movw	r3, #4369
.Ltmp544:
	.loc	7 1289 3 is_stmt 0              @ c:/Keil_v5\ARM\PACK\Keil\STM32L5xx_DFP\1.3.0\Drivers\STM32L5xx_HAL_Driver\Src\stm32l5xx_hal_tim_ex.c:1289:3
	tst	r4, r3
	bne	.LBB21_12
.Ltmp545:
.LBB21_11:
	@DEBUG_VALUE: HAL_TIMEx_PWMN_Stop_IT:Channel <- $r1
	@DEBUG_VALUE: HAL_TIMEx_PWMN_Stop_IT:htim <- $r0
	.loc	7 1289 3                        @ c:/Keil_v5\ARM\PACK\Keil\STM32L5xx_DFP\1.3.0\Drivers\STM32L5xx_HAL_Driver\Src\stm32l5xx_hal_tim_ex.c:1289:3
	ldr.w	r12, [r2, #32]
	movw	r4, #1092
.Ltmp546:
	.loc	7 1289 3                        @ c:/Keil_v5\ARM\PACK\Keil\STM32L5xx_DFP\1.3.0\Drivers\STM32L5xx_HAL_Driver\Src\stm32l5xx_hal_tim_ex.c:1289:3
	tst.w	r12, r4
	beq	.LBB21_15
.Ltmp547:
.LBB21_12:
	@DEBUG_VALUE: HAL_TIMEx_PWMN_Stop_IT:Channel <- $r1
	@DEBUG_VALUE: HAL_TIMEx_PWMN_Stop_IT:htim <- $r0
	.loc	7 1292 3 is_stmt 1              @ c:/Keil_v5\ARM\PACK\Keil\STM32L5xx_DFP\1.3.0\Drivers\STM32L5xx_HAL_Driver\Src\stm32l5xx_hal_tim_ex.c:1292:3
	ldr	r4, [r2, #32]
.Ltmp548:
	.loc	7 1292 3 is_stmt 0              @ c:/Keil_v5\ARM\PACK\Keil\STM32L5xx_DFP\1.3.0\Drivers\STM32L5xx_HAL_Driver\Src\stm32l5xx_hal_tim_ex.c:1292:3
	tst	r4, r3
	bne	.LBB21_16
.Ltmp549:
.LBB21_13:
	@DEBUG_VALUE: HAL_TIMEx_PWMN_Stop_IT:Channel <- $r1
	@DEBUG_VALUE: HAL_TIMEx_PWMN_Stop_IT:htim <- $r0
	.loc	7 1292 3                        @ c:/Keil_v5\ARM\PACK\Keil\STM32L5xx_DFP\1.3.0\Drivers\STM32L5xx_HAL_Driver\Src\stm32l5xx_hal_tim_ex.c:1292:3
	ldr	r3, [r2, #32]
	movw	r4, #1092
.Ltmp550:
	.loc	7 1292 3                        @ c:/Keil_v5\ARM\PACK\Keil\STM32L5xx_DFP\1.3.0\Drivers\STM32L5xx_HAL_Driver\Src\stm32l5xx_hal_tim_ex.c:1292:3
	tst	r3, r4
	bne	.LBB21_16
.Ltmp551:
@ %bb.14:
	@DEBUG_VALUE: HAL_TIMEx_PWMN_Stop_IT:Channel <- $r1
	@DEBUG_VALUE: HAL_TIMEx_PWMN_Stop_IT:htim <- $r0
	.loc	7 1292 3                        @ c:/Keil_v5\ARM\PACK\Keil\STM32L5xx_DFP\1.3.0\Drivers\STM32L5xx_HAL_Driver\Src\stm32l5xx_hal_tim_ex.c:1292:3
	ldr	r3, [r2]
	bic	r3, r3, #1
	str	r3, [r2]
	b	.LBB21_16
.Ltmp552:
	.p2align	2
.LBB21_15:
	@DEBUG_VALUE: HAL_TIMEx_PWMN_Stop_IT:Channel <- $r1
	@DEBUG_VALUE: HAL_TIMEx_PWMN_Stop_IT:htim <- $r0
	.loc	7 1289 3 is_stmt 1              @ c:/Keil_v5\ARM\PACK\Keil\STM32L5xx_DFP\1.3.0\Drivers\STM32L5xx_HAL_Driver\Src\stm32l5xx_hal_tim_ex.c:1289:3
	ldr	r4, [r2, #68]
	bic	r4, r4, #32768
	str	r4, [r2, #68]
.Ltmp553:
	.loc	7 1292 3                        @ c:/Keil_v5\ARM\PACK\Keil\STM32L5xx_DFP\1.3.0\Drivers\STM32L5xx_HAL_Driver\Src\stm32l5xx_hal_tim_ex.c:1292:3
	ldr	r4, [r2, #32]
.Ltmp554:
	.loc	7 1292 3 is_stmt 0              @ c:/Keil_v5\ARM\PACK\Keil\STM32L5xx_DFP\1.3.0\Drivers\STM32L5xx_HAL_Driver\Src\stm32l5xx_hal_tim_ex.c:1292:3
	tst	r4, r3
	beq	.LBB21_13
.Ltmp555:
.LBB21_16:
	@DEBUG_VALUE: HAL_TIMEx_PWMN_Stop_IT:Channel <- $r1
	@DEBUG_VALUE: HAL_TIMEx_PWMN_Stop_IT:htim <- $r0
	.loc	7 1295 3 is_stmt 1              @ c:/Keil_v5\ARM\PACK\Keil\STM32L5xx_DFP\1.3.0\Drivers\STM32L5xx_HAL_Driver\Src\stm32l5xx_hal_tim_ex.c:1295:3
	cmp	r1, #8
	beq	.LBB21_19
.Ltmp556:
@ %bb.17:
	@DEBUG_VALUE: HAL_TIMEx_PWMN_Stop_IT:Channel <- $r1
	@DEBUG_VALUE: HAL_TIMEx_PWMN_Stop_IT:htim <- $r0
	cmp	r1, #4
	beq	.LBB21_20
.Ltmp557:
@ %bb.18:
	@DEBUG_VALUE: HAL_TIMEx_PWMN_Stop_IT:Channel <- $r1
	@DEBUG_VALUE: HAL_TIMEx_PWMN_Stop_IT:htim <- $r0
	cmp	r1, #0
	mov.w	r1, #1
.Ltmp558:
	@DEBUG_VALUE: HAL_TIMEx_PWMN_Stop_IT:Channel <- [DW_OP_LLVM_entry_value 1] $r1
	ite	ne
	strbne.w	r1, [r0, #71]
	strbeq.w	r1, [r0, #68]
	.loc	7 1298 3                        @ c:/Keil_v5\ARM\PACK\Keil\STM32L5xx_DFP\1.3.0\Drivers\STM32L5xx_HAL_Driver\Src\stm32l5xx_hal_tim_ex.c:1298:3
	movs	r0, #0
.Ltmp559:
	@DEBUG_VALUE: HAL_TIMEx_PWMN_Stop_IT:htim <- [DW_OP_LLVM_entry_value 1] $r0
	pop	{r4, pc}
.Ltmp560:
	.p2align	2
.LBB21_19:
	@DEBUG_VALUE: HAL_TIMEx_PWMN_Stop_IT:Channel <- $r1
	@DEBUG_VALUE: HAL_TIMEx_PWMN_Stop_IT:htim <- $r0
	.loc	7 0 3 is_stmt 0                 @ c:/Keil_v5\ARM\PACK\Keil\STM32L5xx_DFP\1.3.0\Drivers\STM32L5xx_HAL_Driver\Src\stm32l5xx_hal_tim_ex.c:0:3
	movs	r1, #1
.Ltmp561:
	@DEBUG_VALUE: HAL_TIMEx_PWMN_Stop_IT:Channel <- [DW_OP_LLVM_entry_value 1] $r1
	.loc	7 1295 3 is_stmt 1              @ c:/Keil_v5\ARM\PACK\Keil\STM32L5xx_DFP\1.3.0\Drivers\STM32L5xx_HAL_Driver\Src\stm32l5xx_hal_tim_ex.c:1295:3
	strb.w	r1, [r0, #70]
	.loc	7 1298 3                        @ c:/Keil_v5\ARM\PACK\Keil\STM32L5xx_DFP\1.3.0\Drivers\STM32L5xx_HAL_Driver\Src\stm32l5xx_hal_tim_ex.c:1298:3
	movs	r0, #0
.Ltmp562:
	@DEBUG_VALUE: HAL_TIMEx_PWMN_Stop_IT:htim <- [DW_OP_LLVM_entry_value 1] $r0
	pop	{r4, pc}
.Ltmp563:
	.p2align	2
.LBB21_20:
	@DEBUG_VALUE: HAL_TIMEx_PWMN_Stop_IT:Channel <- $r1
	@DEBUG_VALUE: HAL_TIMEx_PWMN_Stop_IT:htim <- $r0
	.loc	7 0 3 is_stmt 0                 @ c:/Keil_v5\ARM\PACK\Keil\STM32L5xx_DFP\1.3.0\Drivers\STM32L5xx_HAL_Driver\Src\stm32l5xx_hal_tim_ex.c:0:3
	movs	r1, #1
.Ltmp564:
	@DEBUG_VALUE: HAL_TIMEx_PWMN_Stop_IT:Channel <- [DW_OP_LLVM_entry_value 1] $r1
	.loc	7 1295 3 is_stmt 1              @ c:/Keil_v5\ARM\PACK\Keil\STM32L5xx_DFP\1.3.0\Drivers\STM32L5xx_HAL_Driver\Src\stm32l5xx_hal_tim_ex.c:1295:3
	strb.w	r1, [r0, #69]
	.loc	7 1298 3                        @ c:/Keil_v5\ARM\PACK\Keil\STM32L5xx_DFP\1.3.0\Drivers\STM32L5xx_HAL_Driver\Src\stm32l5xx_hal_tim_ex.c:1298:3
	movs	r0, #0
.Ltmp565:
	@DEBUG_VALUE: HAL_TIMEx_PWMN_Stop_IT:htim <- [DW_OP_LLVM_entry_value 1] $r0
	pop	{r4, pc}
.Ltmp566:
.Lfunc_end21:
	.size	HAL_TIMEx_PWMN_Stop_IT, .Lfunc_end21-HAL_TIMEx_PWMN_Stop_IT
	.cfi_endproc
	.cantunwind
	.fnend
                                        @ -- End function
	.section	.text.HAL_TIMEx_PWMN_Start_DMA,"ax",%progbits
	.hidden	HAL_TIMEx_PWMN_Start_DMA        @ -- Begin function HAL_TIMEx_PWMN_Start_DMA
	.globl	HAL_TIMEx_PWMN_Start_DMA
	.p2align	2
	.type	HAL_TIMEx_PWMN_Start_DMA,%function
	.code	16                              @ @HAL_TIMEx_PWMN_Start_DMA
	.thumb_func
HAL_TIMEx_PWMN_Start_DMA:
.Lfunc_begin22:
	.loc	7 1315 0                        @ c:/Keil_v5\ARM\PACK\Keil\STM32L5xx_DFP\1.3.0\Drivers\STM32L5xx_HAL_Driver\Src\stm32l5xx_hal_tim_ex.c:1315:0
	.fnstart
	.cfi_startproc
@ %bb.0:
	@DEBUG_VALUE: HAL_TIMEx_PWMN_Start_DMA:htim <- $r0
	@DEBUG_VALUE: HAL_TIMEx_PWMN_Start_DMA:Channel <- $r1
	@DEBUG_VALUE: HAL_TIMEx_PWMN_Start_DMA:pData <- $r2
	@DEBUG_VALUE: HAL_TIMEx_PWMN_Start_DMA:Length <- $r3
	.save	{r4, r5, r7, lr}
	push	{r4, r5, r7, lr}
	.cfi_def_cfa_offset 16
	.cfi_offset lr, -4
	.cfi_offset r7, -8
	.cfi_offset r5, -12
	.cfi_offset r4, -16
	mov	r4, r1
	@DEBUG_VALUE: HAL_TIMEx_PWMN_Start_DMA:Length <- $r3
	@DEBUG_VALUE: HAL_TIMEx_PWMN_Start_DMA:pData <- $r2
.Ltmp567:
	@DEBUG_VALUE: HAL_TIMEx_PWMN_Start_DMA:Channel <- $r4
	mov	r5, r0
.Ltmp568:
	@DEBUG_VALUE: HAL_TIMEx_PWMN_Start_DMA:htim <- $r5
	@DEBUG_VALUE: HAL_TIMEx_PWMN_Start_DMA:htim <- $r5
	.loc	7 1322 7 prologue_end           @ c:/Keil_v5\ARM\PACK\Keil\STM32L5xx_DFP\1.3.0\Drivers\STM32L5xx_HAL_Driver\Src\stm32l5xx_hal_tim_ex.c:1322:7
	cbz	r1, .LBB22_3
.Ltmp569:
@ %bb.1:
	@DEBUG_VALUE: HAL_TIMEx_PWMN_Start_DMA:htim <- $r5
	@DEBUG_VALUE: HAL_TIMEx_PWMN_Start_DMA:Channel <- $r4
	@DEBUG_VALUE: HAL_TIMEx_PWMN_Start_DMA:Length <- $r3
	@DEBUG_VALUE: HAL_TIMEx_PWMN_Start_DMA:pData <- $r2
	cmp	r4, #8
	beq	.LBB22_5
.Ltmp570:
@ %bb.2:
	@DEBUG_VALUE: HAL_TIMEx_PWMN_Start_DMA:htim <- $r5
	@DEBUG_VALUE: HAL_TIMEx_PWMN_Start_DMA:Channel <- $r4
	@DEBUG_VALUE: HAL_TIMEx_PWMN_Start_DMA:Length <- $r3
	@DEBUG_VALUE: HAL_TIMEx_PWMN_Start_DMA:pData <- $r2
	cmp	r4, #4
	ite	ne
	addne.w	r0, r5, #71
	addeq.w	r0, r5, #69
	b	.LBB22_6
.Ltmp571:
	.p2align	2
.LBB22_3:
	@DEBUG_VALUE: HAL_TIMEx_PWMN_Start_DMA:htim <- $r5
	@DEBUG_VALUE: HAL_TIMEx_PWMN_Start_DMA:Channel <- $r4
	@DEBUG_VALUE: HAL_TIMEx_PWMN_Start_DMA:Length <- $r3
	@DEBUG_VALUE: HAL_TIMEx_PWMN_Start_DMA:pData <- $r2
	ldrb.w	r0, [r5, #68]
.Ltmp572:
	.loc	7 1322 7 is_stmt 0              @ c:/Keil_v5\ARM\PACK\Keil\STM32L5xx_DFP\1.3.0\Drivers\STM32L5xx_HAL_Driver\Src\stm32l5xx_hal_tim_ex.c:1322:7
	cmp	r0, #2
	itt	eq
	moveq	r0, #2
	.loc	7 1427 1 is_stmt 1              @ c:/Keil_v5\ARM\PACK\Keil\STM32L5xx_DFP\1.3.0\Drivers\STM32L5xx_HAL_Driver\Src\stm32l5xx_hal_tim_ex.c:1427:1
	popeq	{r4, r5, r7, pc}
.Ltmp573:
.LBB22_4:
	@DEBUG_VALUE: HAL_TIMEx_PWMN_Start_DMA:Length <- $r3
	@DEBUG_VALUE: HAL_TIMEx_PWMN_Start_DMA:pData <- $r2
	.loc	7 1326 12                       @ c:/Keil_v5\ARM\PACK\Keil\STM32L5xx_DFP\1.3.0\Drivers\STM32L5xx_HAL_Driver\Src\stm32l5xx_hal_tim_ex.c:1326:12
	add.w	r0, r5, #68
	@DEBUG_VALUE: HAL_TIMEx_PWMN_Start_DMA:Length <- $r3
	ldrb	r0, [r0]
.Ltmp574:
	.loc	7 1326 12 is_stmt 0             @ c:/Keil_v5\ARM\PACK\Keil\STM32L5xx_DFP\1.3.0\Drivers\STM32L5xx_HAL_Driver\Src\stm32l5xx_hal_tim_ex.c:1326:12
	cmp	r0, #1
	beq	.LBB22_10
	b	.LBB22_12
.Ltmp575:
	.p2align	2
.LBB22_5:
	@DEBUG_VALUE: HAL_TIMEx_PWMN_Start_DMA:htim <- $r5
	@DEBUG_VALUE: HAL_TIMEx_PWMN_Start_DMA:Channel <- $r4
	@DEBUG_VALUE: HAL_TIMEx_PWMN_Start_DMA:Length <- $r3
	@DEBUG_VALUE: HAL_TIMEx_PWMN_Start_DMA:pData <- $r2
	.loc	7 1322 7 is_stmt 1              @ c:/Keil_v5\ARM\PACK\Keil\STM32L5xx_DFP\1.3.0\Drivers\STM32L5xx_HAL_Driver\Src\stm32l5xx_hal_tim_ex.c:1322:7
	add.w	r0, r5, #70
.Ltmp576:
.LBB22_6:
	@DEBUG_VALUE: HAL_TIMEx_PWMN_Start_DMA:htim <- $r5
	@DEBUG_VALUE: HAL_TIMEx_PWMN_Start_DMA:Channel <- $r4
	@DEBUG_VALUE: HAL_TIMEx_PWMN_Start_DMA:Length <- $r3
	@DEBUG_VALUE: HAL_TIMEx_PWMN_Start_DMA:pData <- $r2
	ldrb	r0, [r0]
.Ltmp577:
	.loc	7 1322 7 is_stmt 0              @ c:/Keil_v5\ARM\PACK\Keil\STM32L5xx_DFP\1.3.0\Drivers\STM32L5xx_HAL_Driver\Src\stm32l5xx_hal_tim_ex.c:1322:7
	cmp	r0, #2
	itt	eq
	moveq	r0, #2
	.loc	7 1427 1 is_stmt 1              @ c:/Keil_v5\ARM\PACK\Keil\STM32L5xx_DFP\1.3.0\Drivers\STM32L5xx_HAL_Driver\Src\stm32l5xx_hal_tim_ex.c:1427:1
	popeq	{r4, r5, r7, pc}
.Ltmp578:
.LBB22_7:
	@DEBUG_VALUE: HAL_TIMEx_PWMN_Start_DMA:Length <- $r3
	@DEBUG_VALUE: HAL_TIMEx_PWMN_Start_DMA:pData <- $r2
	.loc	7 1326 12                       @ c:/Keil_v5\ARM\PACK\Keil\STM32L5xx_DFP\1.3.0\Drivers\STM32L5xx_HAL_Driver\Src\stm32l5xx_hal_tim_ex.c:1326:12
	cmp	r4, #8
	beq	.LBB22_9
.Ltmp579:
@ %bb.8:
	@DEBUG_VALUE: HAL_TIMEx_PWMN_Start_DMA:Length <- $r3
	@DEBUG_VALUE: HAL_TIMEx_PWMN_Start_DMA:pData <- $r2
	cmp	r4, #4
	ite	ne
	addne.w	r0, r5, #71
	addeq.w	r0, r5, #69
	@DEBUG_VALUE: HAL_TIMEx_PWMN_Start_DMA:Length <- $r3
	ldrb	r0, [r0]
.Ltmp580:
	.loc	7 1326 12 is_stmt 0             @ c:/Keil_v5\ARM\PACK\Keil\STM32L5xx_DFP\1.3.0\Drivers\STM32L5xx_HAL_Driver\Src\stm32l5xx_hal_tim_ex.c:1326:12
	cmp	r0, #1
	bne	.LBB22_12
	b	.LBB22_10
.Ltmp581:
	.p2align	2
.LBB22_9:
	@DEBUG_VALUE: HAL_TIMEx_PWMN_Start_DMA:Length <- $r3
	@DEBUG_VALUE: HAL_TIMEx_PWMN_Start_DMA:pData <- $r2
	.loc	7 1326 12                       @ c:/Keil_v5\ARM\PACK\Keil\STM32L5xx_DFP\1.3.0\Drivers\STM32L5xx_HAL_Driver\Src\stm32l5xx_hal_tim_ex.c:1326:12
	add.w	r0, r5, #70
	@DEBUG_VALUE: HAL_TIMEx_PWMN_Start_DMA:Length <- $r3
	ldrb	r0, [r0]
.Ltmp582:
	.loc	7 1326 12                       @ c:/Keil_v5\ARM\PACK\Keil\STM32L5xx_DFP\1.3.0\Drivers\STM32L5xx_HAL_Driver\Src\stm32l5xx_hal_tim_ex.c:1326:12
	cmp	r0, #1
	bne	.LBB22_12
.Ltmp583:
.LBB22_10:
	@DEBUG_VALUE: HAL_TIMEx_PWMN_Start_DMA:Length <- $r3
	@DEBUG_VALUE: HAL_TIMEx_PWMN_Start_DMA:pData <- $r2
	@DEBUG_VALUE: HAL_TIMEx_PWMN_Start_DMA:Length <- $r3
	.loc	7 1328 25 is_stmt 1             @ c:/Keil_v5\ARM\PACK\Keil\STM32L5xx_DFP\1.3.0\Drivers\STM32L5xx_HAL_Driver\Src\stm32l5xx_hal_tim_ex.c:1328:25
	cbnz	r2, .LBB22_13
.Ltmp584:
@ %bb.11:
	@DEBUG_VALUE: HAL_TIMEx_PWMN_Start_DMA:Length <- $r3
	@DEBUG_VALUE: HAL_TIMEx_PWMN_Start_DMA:pData <- $r2
	cbz	r3, .LBB22_13
.Ltmp585:
.LBB22_12:
	@DEBUG_VALUE: HAL_TIMEx_PWMN_Start_DMA:Length <- $r3
	@DEBUG_VALUE: HAL_TIMEx_PWMN_Start_DMA:pData <- $r2
	.loc	7 0 25 is_stmt 0                @ c:/Keil_v5\ARM\PACK\Keil\STM32L5xx_DFP\1.3.0\Drivers\STM32L5xx_HAL_Driver\Src\stm32l5xx_hal_tim_ex.c:0:25
	movs	r0, #1
	.loc	7 1427 1 is_stmt 1              @ c:/Keil_v5\ARM\PACK\Keil\STM32L5xx_DFP\1.3.0\Drivers\STM32L5xx_HAL_Driver\Src\stm32l5xx_hal_tim_ex.c:1427:1
	pop	{r4, r5, r7, pc}
.Ltmp586:
	.p2align	2
.LBB22_13:
	@DEBUG_VALUE: HAL_TIMEx_PWMN_Start_DMA:Length <- $r3
	@DEBUG_VALUE: HAL_TIMEx_PWMN_Start_DMA:pData <- $r2
	@DEBUG_VALUE: HAL_TIMEx_PWMN_Start_DMA:Length <- $r3
	.loc	7 0 1 is_stmt 0                 @ c:/Keil_v5\ARM\PACK\Keil\STM32L5xx_DFP\1.3.0\Drivers\STM32L5xx_HAL_Driver\Src\stm32l5xx_hal_tim_ex.c:0:1
	movs	r0, #2
.Ltmp587:
	.loc	7 1334 7 is_stmt 1              @ c:/Keil_v5\ARM\PACK\Keil\STM32L5xx_DFP\1.3.0\Drivers\STM32L5xx_HAL_Driver\Src\stm32l5xx_hal_tim_ex.c:1334:7
	cbz	r4, .LBB22_18
.Ltmp588:
@ %bb.14:
	@DEBUG_VALUE: HAL_TIMEx_PWMN_Start_DMA:Length <- $r3
	@DEBUG_VALUE: HAL_TIMEx_PWMN_Start_DMA:pData <- $r2
	cmp	r4, #8
	beq	.LBB22_20
.Ltmp589:
@ %bb.15:
	@DEBUG_VALUE: HAL_TIMEx_PWMN_Start_DMA:Length <- $r3
	@DEBUG_VALUE: HAL_TIMEx_PWMN_Start_DMA:pData <- $r2
	cmp	r4, #4
	bne	.LBB22_23
.Ltmp590:
@ %bb.16:
	@DEBUG_VALUE: HAL_TIMEx_PWMN_Start_DMA:Length <- $r3
	@DEBUG_VALUE: HAL_TIMEx_PWMN_Start_DMA:pData <- $r2
	strb.w	r0, [r5, #69]
.Ltmp591:
	.loc	7 1366 7                        @ c:/Keil_v5\ARM\PACK\Keil\STM32L5xx_DFP\1.3.0\Drivers\STM32L5xx_HAL_Driver\Src\stm32l5xx_hal_tim_ex.c:1366:7
	ldr	r0, [r5, #40]
	.loc	7 1366 52 is_stmt 0             @ c:/Keil_v5\ARM\PACK\Keil\STM32L5xx_DFP\1.3.0\Drivers\STM32L5xx_HAL_Driver\Src\stm32l5xx_hal_tim_ex.c:1366:52
	movw	r1, :lower16:TIM_DMADelayPulseNCplt
	movt	r1, :upper16:TIM_DMADelayPulseNCplt
	str	r1, [r0, #44]
	.loc	7 1367 7 is_stmt 1              @ c:/Keil_v5\ARM\PACK\Keil\STM32L5xx_DFP\1.3.0\Drivers\STM32L5xx_HAL_Driver\Src\stm32l5xx_hal_tim_ex.c:1367:7
	ldr	r0, [r5, #40]
	.loc	7 1367 56 is_stmt 0             @ c:/Keil_v5\ARM\PACK\Keil\STM32L5xx_DFP\1.3.0\Drivers\STM32L5xx_HAL_Driver\Src\stm32l5xx_hal_tim_ex.c:1367:56
	movw	r1, :lower16:TIM_DMADelayPulseHalfCplt
	movt	r1, :upper16:TIM_DMADelayPulseHalfCplt
	str	r1, [r0, #48]
	.loc	7 1370 7 is_stmt 1              @ c:/Keil_v5\ARM\PACK\Keil\STM32L5xx_DFP\1.3.0\Drivers\STM32L5xx_HAL_Driver\Src\stm32l5xx_hal_tim_ex.c:1370:7
	ldr	r0, [r5, #40]
	.loc	7 1370 53 is_stmt 0             @ c:/Keil_v5\ARM\PACK\Keil\STM32L5xx_DFP\1.3.0\Drivers\STM32L5xx_HAL_Driver\Src\stm32l5xx_hal_tim_ex.c:1370:53
	movw	r1, :lower16:TIM_DMAErrorCCxN
.Ltmp592:
	.loc	7 1373 90 is_stmt 1             @ c:/Keil_v5\ARM\PACK\Keil\STM32L5xx_DFP\1.3.0\Drivers\STM32L5xx_HAL_Driver\Src\stm32l5xx_hal_tim_ex.c:1373:90
	ldr.w	r12, [r5]
.Ltmp593:
	.loc	7 1370 53                       @ c:/Keil_v5\ARM\PACK\Keil\STM32L5xx_DFP\1.3.0\Drivers\STM32L5xx_HAL_Driver\Src\stm32l5xx_hal_tim_ex.c:1370:53
	movt	r1, :upper16:TIM_DMAErrorCCxN
	str	r1, [r0, #60]
.Ltmp594:
	.loc	7 1373 28                       @ c:/Keil_v5\ARM\PACK\Keil\STM32L5xx_DFP\1.3.0\Drivers\STM32L5xx_HAL_Driver\Src\stm32l5xx_hal_tim_ex.c:1373:28
	ldr	r0, [r5, #40]
	.loc	7 1373 100 is_stmt 0            @ c:/Keil_v5\ARM\PACK\Keil\STM32L5xx_DFP\1.3.0\Drivers\STM32L5xx_HAL_Driver\Src\stm32l5xx_hal_tim_ex.c:1373:100
	add.w	r12, r12, #56
	.loc	7 1373 11                       @ c:/Keil_v5\ARM\PACK\Keil\STM32L5xx_DFP\1.3.0\Drivers\STM32L5xx_HAL_Driver\Src\stm32l5xx_hal_tim_ex.c:1373:11
	mov	r1, r2
	mov	r2, r12
.Ltmp595:
	@DEBUG_VALUE: HAL_TIMEx_PWMN_Start_DMA:pData <- [DW_OP_LLVM_entry_value 1] $r2
	bl	HAL_DMA_Start_IT
.Ltmp596:
	@DEBUG_VALUE: HAL_TIMEx_PWMN_Start_DMA:Length <- [DW_OP_LLVM_entry_value 1] $r3
	.loc	7 1373 11                       @ c:/Keil_v5\ARM\PACK\Keil\STM32L5xx_DFP\1.3.0\Drivers\STM32L5xx_HAL_Driver\Src\stm32l5xx_hal_tim_ex.c:1373:11
	cmp	r0, #0
	itt	ne
	movne	r0, #1
.Ltmp597:
	.loc	7 1427 1 is_stmt 1              @ c:/Keil_v5\ARM\PACK\Keil\STM32L5xx_DFP\1.3.0\Drivers\STM32L5xx_HAL_Driver\Src\stm32l5xx_hal_tim_ex.c:1427:1
	popne	{r4, r5, r7, pc}
.Ltmp598:
.LBB22_17:
	@DEBUG_VALUE: HAL_TIMEx_PWMN_Start_DMA:Length <- [DW_OP_LLVM_entry_value 1] $r3
	@DEBUG_VALUE: HAL_TIMEx_PWMN_Start_DMA:pData <- [DW_OP_LLVM_entry_value 1] $r2
	.loc	7 1378 7                        @ c:/Keil_v5\ARM\PACK\Keil\STM32L5xx_DFP\1.3.0\Drivers\STM32L5xx_HAL_Driver\Src\stm32l5xx_hal_tim_ex.c:1378:7
	ldr	r1, [r5]
	ldr	r0, [r1, #12]
	orr	r0, r0, #1024
	b	.LBB22_22
.Ltmp599:
	.p2align	2
.LBB22_18:
	@DEBUG_VALUE: HAL_TIMEx_PWMN_Start_DMA:Length <- $r3
	@DEBUG_VALUE: HAL_TIMEx_PWMN_Start_DMA:pData <- $r2
	.loc	7 1334 7                        @ c:/Keil_v5\ARM\PACK\Keil\STM32L5xx_DFP\1.3.0\Drivers\STM32L5xx_HAL_Driver\Src\stm32l5xx_hal_tim_ex.c:1334:7
	strb.w	r0, [r5, #68]
.Ltmp600:
	.loc	7 1347 7                        @ c:/Keil_v5\ARM\PACK\Keil\STM32L5xx_DFP\1.3.0\Drivers\STM32L5xx_HAL_Driver\Src\stm32l5xx_hal_tim_ex.c:1347:7
	ldr	r0, [r5, #36]
	.loc	7 1347 52 is_stmt 0             @ c:/Keil_v5\ARM\PACK\Keil\STM32L5xx_DFP\1.3.0\Drivers\STM32L5xx_HAL_Driver\Src\stm32l5xx_hal_tim_ex.c:1347:52
	movw	r1, :lower16:TIM_DMADelayPulseNCplt
	movt	r1, :upper16:TIM_DMADelayPulseNCplt
	str	r1, [r0, #44]
	.loc	7 1348 7 is_stmt 1              @ c:/Keil_v5\ARM\PACK\Keil\STM32L5xx_DFP\1.3.0\Drivers\STM32L5xx_HAL_Driver\Src\stm32l5xx_hal_tim_ex.c:1348:7
	ldr	r0, [r5, #36]
	.loc	7 1348 56 is_stmt 0             @ c:/Keil_v5\ARM\PACK\Keil\STM32L5xx_DFP\1.3.0\Drivers\STM32L5xx_HAL_Driver\Src\stm32l5xx_hal_tim_ex.c:1348:56
	movw	r1, :lower16:TIM_DMADelayPulseHalfCplt
	movt	r1, :upper16:TIM_DMADelayPulseHalfCplt
	str	r1, [r0, #48]
	.loc	7 1351 7 is_stmt 1              @ c:/Keil_v5\ARM\PACK\Keil\STM32L5xx_DFP\1.3.0\Drivers\STM32L5xx_HAL_Driver\Src\stm32l5xx_hal_tim_ex.c:1351:7
	ldr	r0, [r5, #36]
	.loc	7 1351 53 is_stmt 0             @ c:/Keil_v5\ARM\PACK\Keil\STM32L5xx_DFP\1.3.0\Drivers\STM32L5xx_HAL_Driver\Src\stm32l5xx_hal_tim_ex.c:1351:53
	movw	r1, :lower16:TIM_DMAErrorCCxN
.Ltmp601:
	.loc	7 1354 90 is_stmt 1             @ c:/Keil_v5\ARM\PACK\Keil\STM32L5xx_DFP\1.3.0\Drivers\STM32L5xx_HAL_Driver\Src\stm32l5xx_hal_tim_ex.c:1354:90
	ldr.w	r12, [r5]
.Ltmp602:
	.loc	7 1351 53                       @ c:/Keil_v5\ARM\PACK\Keil\STM32L5xx_DFP\1.3.0\Drivers\STM32L5xx_HAL_Driver\Src\stm32l5xx_hal_tim_ex.c:1351:53
	movt	r1, :upper16:TIM_DMAErrorCCxN
	str	r1, [r0, #60]
.Ltmp603:
	.loc	7 1354 28                       @ c:/Keil_v5\ARM\PACK\Keil\STM32L5xx_DFP\1.3.0\Drivers\STM32L5xx_HAL_Driver\Src\stm32l5xx_hal_tim_ex.c:1354:28
	ldr	r0, [r5, #36]
	.loc	7 1354 100 is_stmt 0            @ c:/Keil_v5\ARM\PACK\Keil\STM32L5xx_DFP\1.3.0\Drivers\STM32L5xx_HAL_Driver\Src\stm32l5xx_hal_tim_ex.c:1354:100
	add.w	r12, r12, #52
	.loc	7 1354 11                       @ c:/Keil_v5\ARM\PACK\Keil\STM32L5xx_DFP\1.3.0\Drivers\STM32L5xx_HAL_Driver\Src\stm32l5xx_hal_tim_ex.c:1354:11
	mov	r1, r2
	mov	r2, r12
.Ltmp604:
	@DEBUG_VALUE: HAL_TIMEx_PWMN_Start_DMA:pData <- [DW_OP_LLVM_entry_value 1] $r2
	bl	HAL_DMA_Start_IT
.Ltmp605:
	@DEBUG_VALUE: HAL_TIMEx_PWMN_Start_DMA:Length <- [DW_OP_LLVM_entry_value 1] $r3
	.loc	7 1354 11                       @ c:/Keil_v5\ARM\PACK\Keil\STM32L5xx_DFP\1.3.0\Drivers\STM32L5xx_HAL_Driver\Src\stm32l5xx_hal_tim_ex.c:1354:11
	cmp	r0, #0
	itt	ne
	movne	r0, #1
.Ltmp606:
	.loc	7 1427 1 is_stmt 1              @ c:/Keil_v5\ARM\PACK\Keil\STM32L5xx_DFP\1.3.0\Drivers\STM32L5xx_HAL_Driver\Src\stm32l5xx_hal_tim_ex.c:1427:1
	popne	{r4, r5, r7, pc}
.Ltmp607:
.LBB22_19:
	@DEBUG_VALUE: HAL_TIMEx_PWMN_Start_DMA:Length <- [DW_OP_LLVM_entry_value 1] $r3
	@DEBUG_VALUE: HAL_TIMEx_PWMN_Start_DMA:pData <- [DW_OP_LLVM_entry_value 1] $r2
	.loc	7 1359 7                        @ c:/Keil_v5\ARM\PACK\Keil\STM32L5xx_DFP\1.3.0\Drivers\STM32L5xx_HAL_Driver\Src\stm32l5xx_hal_tim_ex.c:1359:7
	ldr	r1, [r5]
	ldr	r0, [r1, #12]
	orr	r0, r0, #512
	b	.LBB22_22
.Ltmp608:
	.p2align	2
.LBB22_20:
	@DEBUG_VALUE: HAL_TIMEx_PWMN_Start_DMA:Length <- $r3
	@DEBUG_VALUE: HAL_TIMEx_PWMN_Start_DMA:pData <- $r2
	.loc	7 1334 7                        @ c:/Keil_v5\ARM\PACK\Keil\STM32L5xx_DFP\1.3.0\Drivers\STM32L5xx_HAL_Driver\Src\stm32l5xx_hal_tim_ex.c:1334:7
	strb.w	r0, [r5, #70]
.Ltmp609:
	.loc	7 1385 7                        @ c:/Keil_v5\ARM\PACK\Keil\STM32L5xx_DFP\1.3.0\Drivers\STM32L5xx_HAL_Driver\Src\stm32l5xx_hal_tim_ex.c:1385:7
	ldr	r0, [r5, #44]
	.loc	7 1385 52 is_stmt 0             @ c:/Keil_v5\ARM\PACK\Keil\STM32L5xx_DFP\1.3.0\Drivers\STM32L5xx_HAL_Driver\Src\stm32l5xx_hal_tim_ex.c:1385:52
	movw	r1, :lower16:TIM_DMADelayPulseNCplt
	movt	r1, :upper16:TIM_DMADelayPulseNCplt
	str	r1, [r0, #44]
	.loc	7 1386 7 is_stmt 1              @ c:/Keil_v5\ARM\PACK\Keil\STM32L5xx_DFP\1.3.0\Drivers\STM32L5xx_HAL_Driver\Src\stm32l5xx_hal_tim_ex.c:1386:7
	ldr	r0, [r5, #44]
	.loc	7 1386 56 is_stmt 0             @ c:/Keil_v5\ARM\PACK\Keil\STM32L5xx_DFP\1.3.0\Drivers\STM32L5xx_HAL_Driver\Src\stm32l5xx_hal_tim_ex.c:1386:56
	movw	r1, :lower16:TIM_DMADelayPulseHalfCplt
	movt	r1, :upper16:TIM_DMADelayPulseHalfCplt
	str	r1, [r0, #48]
	.loc	7 1389 7 is_stmt 1              @ c:/Keil_v5\ARM\PACK\Keil\STM32L5xx_DFP\1.3.0\Drivers\STM32L5xx_HAL_Driver\Src\stm32l5xx_hal_tim_ex.c:1389:7
	ldr	r0, [r5, #44]
	.loc	7 1389 53 is_stmt 0             @ c:/Keil_v5\ARM\PACK\Keil\STM32L5xx_DFP\1.3.0\Drivers\STM32L5xx_HAL_Driver\Src\stm32l5xx_hal_tim_ex.c:1389:53
	movw	r1, :lower16:TIM_DMAErrorCCxN
.Ltmp610:
	.loc	7 1392 90 is_stmt 1             @ c:/Keil_v5\ARM\PACK\Keil\STM32L5xx_DFP\1.3.0\Drivers\STM32L5xx_HAL_Driver\Src\stm32l5xx_hal_tim_ex.c:1392:90
	ldr.w	r12, [r5]
.Ltmp611:
	.loc	7 1389 53                       @ c:/Keil_v5\ARM\PACK\Keil\STM32L5xx_DFP\1.3.0\Drivers\STM32L5xx_HAL_Driver\Src\stm32l5xx_hal_tim_ex.c:1389:53
	movt	r1, :upper16:TIM_DMAErrorCCxN
	str	r1, [r0, #60]
.Ltmp612:
	.loc	7 1392 28                       @ c:/Keil_v5\ARM\PACK\Keil\STM32L5xx_DFP\1.3.0\Drivers\STM32L5xx_HAL_Driver\Src\stm32l5xx_hal_tim_ex.c:1392:28
	ldr	r0, [r5, #44]
	.loc	7 1392 100 is_stmt 0            @ c:/Keil_v5\ARM\PACK\Keil\STM32L5xx_DFP\1.3.0\Drivers\STM32L5xx_HAL_Driver\Src\stm32l5xx_hal_tim_ex.c:1392:100
	add.w	r12, r12, #60
	.loc	7 1392 11                       @ c:/Keil_v5\ARM\PACK\Keil\STM32L5xx_DFP\1.3.0\Drivers\STM32L5xx_HAL_Driver\Src\stm32l5xx_hal_tim_ex.c:1392:11
	mov	r1, r2
	mov	r2, r12
.Ltmp613:
	@DEBUG_VALUE: HAL_TIMEx_PWMN_Start_DMA:pData <- [DW_OP_LLVM_entry_value 1] $r2
	bl	HAL_DMA_Start_IT
.Ltmp614:
	@DEBUG_VALUE: HAL_TIMEx_PWMN_Start_DMA:Length <- [DW_OP_LLVM_entry_value 1] $r3
	.loc	7 1392 11                       @ c:/Keil_v5\ARM\PACK\Keil\STM32L5xx_DFP\1.3.0\Drivers\STM32L5xx_HAL_Driver\Src\stm32l5xx_hal_tim_ex.c:1392:11
	cmp	r0, #0
	itt	ne
	movne	r0, #1
.Ltmp615:
	.loc	7 1427 1 is_stmt 1              @ c:/Keil_v5\ARM\PACK\Keil\STM32L5xx_DFP\1.3.0\Drivers\STM32L5xx_HAL_Driver\Src\stm32l5xx_hal_tim_ex.c:1427:1
	popne	{r4, r5, r7, pc}
.Ltmp616:
.LBB22_21:
	@DEBUG_VALUE: HAL_TIMEx_PWMN_Start_DMA:Length <- [DW_OP_LLVM_entry_value 1] $r3
	@DEBUG_VALUE: HAL_TIMEx_PWMN_Start_DMA:pData <- [DW_OP_LLVM_entry_value 1] $r2
	.loc	7 1397 7                        @ c:/Keil_v5\ARM\PACK\Keil\STM32L5xx_DFP\1.3.0\Drivers\STM32L5xx_HAL_Driver\Src\stm32l5xx_hal_tim_ex.c:1397:7
	ldr	r1, [r5]
	ldr	r0, [r1, #12]
	orr	r0, r0, #2048
.Ltmp617:
.LBB22_22:
	@DEBUG_VALUE: HAL_TIMEx_PWMN_Start_DMA:Length <- [DW_OP_LLVM_entry_value 1] $r3
	@DEBUG_VALUE: HAL_TIMEx_PWMN_Start_DMA:pData <- [DW_OP_LLVM_entry_value 1] $r2
	.loc	7 0 0 is_stmt 0                 @ c:/Keil_v5\ARM\PACK\Keil\STM32L5xx_DFP\1.3.0\Drivers\STM32L5xx_HAL_Driver\Src\stm32l5xx_hal_tim_ex.c:0:0
	str	r0, [r1, #12]
	b	.LBB22_24
.Ltmp618:
	.p2align	2
.LBB22_23:
	@DEBUG_VALUE: HAL_TIMEx_PWMN_Start_DMA:Length <- $r3
	@DEBUG_VALUE: HAL_TIMEx_PWMN_Start_DMA:pData <- $r2
	.loc	7 1334 7 is_stmt 1              @ c:/Keil_v5\ARM\PACK\Keil\STM32L5xx_DFP\1.3.0\Drivers\STM32L5xx_HAL_Driver\Src\stm32l5xx_hal_tim_ex.c:1334:7
	strb.w	r0, [r5, #71]
.Ltmp619:
	.loc	7 1406 28                       @ c:/Keil_v5\ARM\PACK\Keil\STM32L5xx_DFP\1.3.0\Drivers\STM32L5xx_HAL_Driver\Src\stm32l5xx_hal_tim_ex.c:1406:28
	ldr	r1, [r5]
.Ltmp620:
.LBB22_24:
	@DEBUG_VALUE: TIM_CCxNChannelCmd:TIMx <- $r1
	@DEBUG_VALUE: TIM_CCxNChannelCmd:Channel <- $r4
	@DEBUG_VALUE: TIM_CCxNChannelCmd:ChannelNState <- 4
	.loc	7 2735 36                       @ c:/Keil_v5\ARM\PACK\Keil\STM32L5xx_DFP\1.3.0\Drivers\STM32L5xx_HAL_Driver\Src\stm32l5xx_hal_tim_ex.c:2735:36
	and	r0, r4, #31
	movs	r2, #4
	.loc	7 2738 14                       @ c:/Keil_v5\ARM\PACK\Keil\STM32L5xx_DFP\1.3.0\Drivers\STM32L5xx_HAL_Driver\Src\stm32l5xx_hal_tim_ex.c:2738:14
	ldr	r3, [r1, #32]
	.loc	7 2735 24                       @ c:/Keil_v5\ARM\PACK\Keil\STM32L5xx_DFP\1.3.0\Drivers\STM32L5xx_HAL_Driver\Src\stm32l5xx_hal_tim_ex.c:2735:24
	lsl.w	r0, r2, r0
.Ltmp621:
	@DEBUG_VALUE: TIM_CCxNChannelCmd:tmp <- $r0
	.loc	7 2738 14                       @ c:/Keil_v5\ARM\PACK\Keil\STM32L5xx_DFP\1.3.0\Drivers\STM32L5xx_HAL_Driver\Src\stm32l5xx_hal_tim_ex.c:2738:14
	bic.w	r2, r3, r0
	str	r2, [r1, #32]
	.loc	7 2741 14                       @ c:/Keil_v5\ARM\PACK\Keil\STM32L5xx_DFP\1.3.0\Drivers\STM32L5xx_HAL_Driver\Src\stm32l5xx_hal_tim_ex.c:2741:14
	ldr	r2, [r1, #32]
	orrs	r0, r2
.Ltmp622:
	str	r0, [r1, #32]
.Ltmp623:
	.loc	7 1409 3                        @ c:/Keil_v5\ARM\PACK\Keil\STM32L5xx_DFP\1.3.0\Drivers\STM32L5xx_HAL_Driver\Src\stm32l5xx_hal_tim_ex.c:1409:3
	ldr	r0, [r1, #68]
	movw	r2, #3071
	movt	r2, #16384
	orr	r0, r0, #32768
.Ltmp624:
	.loc	7 1412 7                        @ c:/Keil_v5\ARM\PACK\Keil\STM32L5xx_DFP\1.3.0\Drivers\STM32L5xx_HAL_Driver\Src\stm32l5xx_hal_tim_ex.c:1412:7
	cmp	r1, r2
.Ltmp625:
	.loc	7 1409 3                        @ c:/Keil_v5\ARM\PACK\Keil\STM32L5xx_DFP\1.3.0\Drivers\STM32L5xx_HAL_Driver\Src\stm32l5xx_hal_tim_ex.c:1409:3
	str	r0, [r1, #68]
.Ltmp626:
	.loc	7 1412 7                        @ c:/Keil_v5\ARM\PACK\Keil\STM32L5xx_DFP\1.3.0\Drivers\STM32L5xx_HAL_Driver\Src\stm32l5xx_hal_tim_ex.c:1412:7
	ble	.LBB22_28
.Ltmp627:
@ %bb.25:
	.loc	7 0 7 is_stmt 0                 @ c:/Keil_v5\ARM\PACK\Keil\STM32L5xx_DFP\1.3.0\Drivers\STM32L5xx_HAL_Driver\Src\stm32l5xx_hal_tim_ex.c:0:7
	movw	r0, #13311
	movt	r0, #16385
	.loc	7 1412 7                        @ c:/Keil_v5\ARM\PACK\Keil\STM32L5xx_DFP\1.3.0\Drivers\STM32L5xx_HAL_Driver\Src\stm32l5xx_hal_tim_ex.c:1412:7
	cmp	r1, r0
	bgt	.LBB22_31
@ %bb.26:
	.loc	7 0 7                           @ c:/Keil_v5\ARM\PACK\Keil\STM32L5xx_DFP\1.3.0\Drivers\STM32L5xx_HAL_Driver\Src\stm32l5xx_hal_tim_ex.c:0:7
	movw	r0, #3072
	movt	r0, #16384
	.loc	7 1412 7                        @ c:/Keil_v5\ARM\PACK\Keil\STM32L5xx_DFP\1.3.0\Drivers\STM32L5xx_HAL_Driver\Src\stm32l5xx_hal_tim_ex.c:1412:7
	cmp	r1, r0
	beq	.LBB22_35
@ %bb.27:
	.loc	7 0 7                           @ c:/Keil_v5\ARM\PACK\Keil\STM32L5xx_DFP\1.3.0\Drivers\STM32L5xx_HAL_Driver\Src\stm32l5xx_hal_tim_ex.c:0:7
	movw	r0, #11264
	b	.LBB22_33
	.p2align	2
.LBB22_28:
	.loc	7 1412 7                        @ c:/Keil_v5\ARM\PACK\Keil\STM32L5xx_DFP\1.3.0\Drivers\STM32L5xx_HAL_Driver\Src\stm32l5xx_hal_tim_ex.c:1412:7
	cmp.w	r1, #1073741824
	beq	.LBB22_35
@ %bb.29:
	.loc	7 0 7                           @ c:/Keil_v5\ARM\PACK\Keil\STM32L5xx_DFP\1.3.0\Drivers\STM32L5xx_HAL_Driver\Src\stm32l5xx_hal_tim_ex.c:0:7
	movw	r0, #1024
	movt	r0, #16384
	.loc	7 1412 7                        @ c:/Keil_v5\ARM\PACK\Keil\STM32L5xx_DFP\1.3.0\Drivers\STM32L5xx_HAL_Driver\Src\stm32l5xx_hal_tim_ex.c:1412:7
	cmp	r1, r0
	beq	.LBB22_35
@ %bb.30:
	.loc	7 0 7                           @ c:/Keil_v5\ARM\PACK\Keil\STM32L5xx_DFP\1.3.0\Drivers\STM32L5xx_HAL_Driver\Src\stm32l5xx_hal_tim_ex.c:0:7
	movw	r0, #2048
	movt	r0, #16384
	b	.LBB22_34
	.p2align	2
.LBB22_31:
	movw	r0, #16384
	movt	r0, #16385
	.loc	7 1412 7                        @ c:/Keil_v5\ARM\PACK\Keil\STM32L5xx_DFP\1.3.0\Drivers\STM32L5xx_HAL_Driver\Src\stm32l5xx_hal_tim_ex.c:1412:7
	cmp	r1, r0
	beq	.LBB22_35
@ %bb.32:
	.loc	7 0 7                           @ c:/Keil_v5\ARM\PACK\Keil\STM32L5xx_DFP\1.3.0\Drivers\STM32L5xx_HAL_Driver\Src\stm32l5xx_hal_tim_ex.c:0:7
	movw	r0, #13312
.LBB22_33:
	movt	r0, #16385
.LBB22_34:
	.loc	7 1412 7                        @ c:/Keil_v5\ARM\PACK\Keil\STM32L5xx_DFP\1.3.0\Drivers\STM32L5xx_HAL_Driver\Src\stm32l5xx_hal_tim_ex.c:1412:7
	cmp	r1, r0
	bne	.LBB22_37
.LBB22_35:
.Ltmp628:
	.loc	7 1414 31 is_stmt 1             @ c:/Keil_v5\ARM\PACK\Keil\STM32L5xx_DFP\1.3.0\Drivers\STM32L5xx_HAL_Driver\Src\stm32l5xx_hal_tim_ex.c:1414:31
	ldr	r0, [r1, #8]
	movs	r2, #7
	movt	r2, #1
	.loc	7 1414 36 is_stmt 0             @ c:/Keil_v5\ARM\PACK\Keil\STM32L5xx_DFP\1.3.0\Drivers\STM32L5xx_HAL_Driver\Src\stm32l5xx_hal_tim_ex.c:1414:36
	ands	r2, r0
.Ltmp629:
	@DEBUG_VALUE: HAL_TIMEx_PWMN_Start_DMA:tmpsmcr <- $r2
	.loc	7 1415 10 is_stmt 1             @ c:/Keil_v5\ARM\PACK\Keil\STM32L5xx_DFP\1.3.0\Drivers\STM32L5xx_HAL_Driver\Src\stm32l5xx_hal_tim_ex.c:1415:10
	cmp	r2, #6
	mov.w	r0, #0
	it	ne
	cmpne.w	r2, #65536
	bne	.LBB22_37
.Ltmp630:
@ %bb.36:
	@DEBUG_VALUE: HAL_TIMEx_PWMN_Start_DMA:tmpsmcr <- $r2
	.loc	7 1427 1                        @ c:/Keil_v5\ARM\PACK\Keil\STM32L5xx_DFP\1.3.0\Drivers\STM32L5xx_HAL_Driver\Src\stm32l5xx_hal_tim_ex.c:1427:1
	pop	{r4, r5, r7, pc}
.Ltmp631:
	.p2align	2
.LBB22_37:
	.loc	7 0 0 is_stmt 0                 @ c:/Keil_v5\ARM\PACK\Keil\STM32L5xx_DFP\1.3.0\Drivers\STM32L5xx_HAL_Driver\Src\stm32l5xx_hal_tim_ex.c:0:0
	ldr	r0, [r1]
	orr	r0, r0, #1
	str	r0, [r1]
	movs	r0, #0
.Ltmp632:
	.loc	7 1427 1                        @ c:/Keil_v5\ARM\PACK\Keil\STM32L5xx_DFP\1.3.0\Drivers\STM32L5xx_HAL_Driver\Src\stm32l5xx_hal_tim_ex.c:1427:1
	pop	{r4, r5, r7, pc}
.Ltmp633:
.Lfunc_end22:
	.size	HAL_TIMEx_PWMN_Start_DMA, .Lfunc_end22-HAL_TIMEx_PWMN_Start_DMA
	.cfi_endproc
	.cantunwind
	.fnend
                                        @ -- End function
	.section	.text.HAL_TIMEx_PWMN_Stop_DMA,"ax",%progbits
	.hidden	HAL_TIMEx_PWMN_Stop_DMA         @ -- Begin function HAL_TIMEx_PWMN_Stop_DMA
	.globl	HAL_TIMEx_PWMN_Stop_DMA
	.p2align	2
	.type	HAL_TIMEx_PWMN_Stop_DMA,%function
	.code	16                              @ @HAL_TIMEx_PWMN_Stop_DMA
	.thumb_func
HAL_TIMEx_PWMN_Stop_DMA:
.Lfunc_begin23:
	.loc	7 1441 0 is_stmt 1              @ c:/Keil_v5\ARM\PACK\Keil\STM32L5xx_DFP\1.3.0\Drivers\STM32L5xx_HAL_Driver\Src\stm32l5xx_hal_tim_ex.c:1441:0
	.fnstart
	.cfi_startproc
@ %bb.0:
	@DEBUG_VALUE: HAL_TIMEx_PWMN_Stop_DMA:htim <- $r0
	@DEBUG_VALUE: HAL_TIMEx_PWMN_Stop_DMA:Channel <- $r1
	.save	{r4, r5, r7, lr}
	push	{r4, r5, r7, lr}
	.cfi_def_cfa_offset 16
	.cfi_offset lr, -4
	.cfi_offset r7, -8
	.cfi_offset r5, -12
	.cfi_offset r4, -16
	mov	r5, r1
.Ltmp634:
	@DEBUG_VALUE: HAL_TIMEx_PWMN_Stop_DMA:Channel <- $r5
	.loc	7 1445 3 prologue_end           @ c:/Keil_v5\ARM\PACK\Keil\STM32L5xx_DFP\1.3.0\Drivers\STM32L5xx_HAL_Driver\Src\stm32l5xx_hal_tim_ex.c:1445:3
	cmp	r1, #8
	mov	r4, r0
.Ltmp635:
	@DEBUG_VALUE: HAL_TIMEx_PWMN_Stop_DMA:htim <- $r4
	@DEBUG_VALUE: HAL_TIMEx_PWMN_Stop_DMA:htim <- $r4
	beq	.LBB23_4
.Ltmp636:
@ %bb.1:
	@DEBUG_VALUE: HAL_TIMEx_PWMN_Stop_DMA:Channel <- $r5
	@DEBUG_VALUE: HAL_TIMEx_PWMN_Stop_DMA:htim <- $r4
	cmp	r5, #4
	beq	.LBB23_5
.Ltmp637:
@ %bb.2:
	@DEBUG_VALUE: HAL_TIMEx_PWMN_Stop_DMA:Channel <- $r5
	@DEBUG_VALUE: HAL_TIMEx_PWMN_Stop_DMA:htim <- $r4
	cbnz	r5, .LBB23_7
.Ltmp638:
@ %bb.3:
	@DEBUG_VALUE: HAL_TIMEx_PWMN_Stop_DMA:Channel <- $r5
	@DEBUG_VALUE: HAL_TIMEx_PWMN_Stop_DMA:htim <- $r4
	.loc	7 1450 7                        @ c:/Keil_v5\ARM\PACK\Keil\STM32L5xx_DFP\1.3.0\Drivers\STM32L5xx_HAL_Driver\Src\stm32l5xx_hal_tim_ex.c:1450:7
	mov	r0, r4
	ldr	r1, [r0], #36
	ldr	r2, [r1, #12]
	bic	r2, r2, #512
	b	.LBB23_6
.Ltmp639:
	.p2align	2
.LBB23_4:
	@DEBUG_VALUE: HAL_TIMEx_PWMN_Stop_DMA:Channel <- $r5
	@DEBUG_VALUE: HAL_TIMEx_PWMN_Stop_DMA:htim <- $r4
	.loc	7 1466 7                        @ c:/Keil_v5\ARM\PACK\Keil\STM32L5xx_DFP\1.3.0\Drivers\STM32L5xx_HAL_Driver\Src\stm32l5xx_hal_tim_ex.c:1466:7
	mov	r0, r4
	ldr	r1, [r0], #44
	ldr	r2, [r1, #12]
	bic	r2, r2, #2048
	b	.LBB23_6
.Ltmp640:
	.p2align	2
.LBB23_5:
	@DEBUG_VALUE: HAL_TIMEx_PWMN_Stop_DMA:Channel <- $r5
	@DEBUG_VALUE: HAL_TIMEx_PWMN_Stop_DMA:htim <- $r4
	.loc	7 1458 7                        @ c:/Keil_v5\ARM\PACK\Keil\STM32L5xx_DFP\1.3.0\Drivers\STM32L5xx_HAL_Driver\Src\stm32l5xx_hal_tim_ex.c:1458:7
	mov	r0, r4
	ldr	r1, [r0], #40
	ldr	r2, [r1, #12]
	bic	r2, r2, #1024
.Ltmp641:
.LBB23_6:
	@DEBUG_VALUE: HAL_TIMEx_PWMN_Stop_DMA:Channel <- $r5
	@DEBUG_VALUE: HAL_TIMEx_PWMN_Stop_DMA:htim <- $r4
	.loc	7 0 0 is_stmt 0                 @ c:/Keil_v5\ARM\PACK\Keil\STM32L5xx_DFP\1.3.0\Drivers\STM32L5xx_HAL_Driver\Src\stm32l5xx_hal_tim_ex.c:0:0
	str	r2, [r1, #12]
	ldr	r0, [r0]
	bl	HAL_DMA_Abort_IT
.Ltmp642:
.LBB23_7:
	@DEBUG_VALUE: HAL_TIMEx_PWMN_Stop_DMA:Channel <- $r5
	@DEBUG_VALUE: HAL_TIMEx_PWMN_Stop_DMA:htim <- $r4
	.loc	7 1476 28 is_stmt 1             @ c:/Keil_v5\ARM\PACK\Keil\STM32L5xx_DFP\1.3.0\Drivers\STM32L5xx_HAL_Driver\Src\stm32l5xx_hal_tim_ex.c:1476:28
	ldr	r0, [r4]
.Ltmp643:
	@DEBUG_VALUE: TIM_CCxNChannelCmd:ChannelNState <- 0
	@DEBUG_VALUE: TIM_CCxNChannelCmd:Channel <- $r5
	@DEBUG_VALUE: TIM_CCxNChannelCmd:TIMx <- $r0
	.loc	7 2735 36                       @ c:/Keil_v5\ARM\PACK\Keil\STM32L5xx_DFP\1.3.0\Drivers\STM32L5xx_HAL_Driver\Src\stm32l5xx_hal_tim_ex.c:2735:36
	and	r1, r5, #31
	movs	r2, #4
	.loc	7 2738 14                       @ c:/Keil_v5\ARM\PACK\Keil\STM32L5xx_DFP\1.3.0\Drivers\STM32L5xx_HAL_Driver\Src\stm32l5xx_hal_tim_ex.c:2738:14
	ldr	r3, [r0, #32]
	.loc	7 2735 24                       @ c:/Keil_v5\ARM\PACK\Keil\STM32L5xx_DFP\1.3.0\Drivers\STM32L5xx_HAL_Driver\Src\stm32l5xx_hal_tim_ex.c:2735:24
	lsl.w	r1, r2, r1
.Ltmp644:
	@DEBUG_VALUE: TIM_CCxNChannelCmd:tmp <- $r1
	.loc	7 2738 14                       @ c:/Keil_v5\ARM\PACK\Keil\STM32L5xx_DFP\1.3.0\Drivers\STM32L5xx_HAL_Driver\Src\stm32l5xx_hal_tim_ex.c:2738:14
	bic.w	r1, r3, r1
.Ltmp645:
	str	r1, [r0, #32]
	.loc	7 2741 14                       @ c:/Keil_v5\ARM\PACK\Keil\STM32L5xx_DFP\1.3.0\Drivers\STM32L5xx_HAL_Driver\Src\stm32l5xx_hal_tim_ex.c:2741:14
	ldr	r1, [r0, #32]
	str	r1, [r0, #32]
.Ltmp646:
	.loc	7 1479 3                        @ c:/Keil_v5\ARM\PACK\Keil\STM32L5xx_DFP\1.3.0\Drivers\STM32L5xx_HAL_Driver\Src\stm32l5xx_hal_tim_ex.c:1479:3
	ldr	r2, [r0, #32]
	movw	r1, #4369
.Ltmp647:
	.loc	7 1479 3 is_stmt 0              @ c:/Keil_v5\ARM\PACK\Keil\STM32L5xx_DFP\1.3.0\Drivers\STM32L5xx_HAL_Driver\Src\stm32l5xx_hal_tim_ex.c:1479:3
	tst	r2, r1
	bne	.LBB23_9
.Ltmp648:
@ %bb.8:
	@DEBUG_VALUE: HAL_TIMEx_PWMN_Stop_DMA:Channel <- $r5
	@DEBUG_VALUE: HAL_TIMEx_PWMN_Stop_DMA:htim <- $r4
	.loc	7 1479 3                        @ c:/Keil_v5\ARM\PACK\Keil\STM32L5xx_DFP\1.3.0\Drivers\STM32L5xx_HAL_Driver\Src\stm32l5xx_hal_tim_ex.c:1479:3
	ldr	r2, [r0, #32]
	movw	r3, #1092
.Ltmp649:
	.loc	7 1479 3                        @ c:/Keil_v5\ARM\PACK\Keil\STM32L5xx_DFP\1.3.0\Drivers\STM32L5xx_HAL_Driver\Src\stm32l5xx_hal_tim_ex.c:1479:3
	tst	r2, r3
	beq	.LBB23_12
.Ltmp650:
.LBB23_9:
	@DEBUG_VALUE: HAL_TIMEx_PWMN_Stop_DMA:Channel <- $r5
	@DEBUG_VALUE: HAL_TIMEx_PWMN_Stop_DMA:htim <- $r4
	.loc	7 1482 3 is_stmt 1              @ c:/Keil_v5\ARM\PACK\Keil\STM32L5xx_DFP\1.3.0\Drivers\STM32L5xx_HAL_Driver\Src\stm32l5xx_hal_tim_ex.c:1482:3
	ldr	r2, [r0, #32]
.Ltmp651:
	.loc	7 1482 3 is_stmt 0              @ c:/Keil_v5\ARM\PACK\Keil\STM32L5xx_DFP\1.3.0\Drivers\STM32L5xx_HAL_Driver\Src\stm32l5xx_hal_tim_ex.c:1482:3
	tst	r2, r1
	bne	.LBB23_13
.Ltmp652:
.LBB23_10:
	@DEBUG_VALUE: HAL_TIMEx_PWMN_Stop_DMA:Channel <- $r5
	@DEBUG_VALUE: HAL_TIMEx_PWMN_Stop_DMA:htim <- $r4
	.loc	7 1482 3                        @ c:/Keil_v5\ARM\PACK\Keil\STM32L5xx_DFP\1.3.0\Drivers\STM32L5xx_HAL_Driver\Src\stm32l5xx_hal_tim_ex.c:1482:3
	ldr	r1, [r0, #32]
	movw	r2, #1092
.Ltmp653:
	.loc	7 1482 3                        @ c:/Keil_v5\ARM\PACK\Keil\STM32L5xx_DFP\1.3.0\Drivers\STM32L5xx_HAL_Driver\Src\stm32l5xx_hal_tim_ex.c:1482:3
	tst	r1, r2
	bne	.LBB23_13
.Ltmp654:
@ %bb.11:
	@DEBUG_VALUE: HAL_TIMEx_PWMN_Stop_DMA:Channel <- $r5
	@DEBUG_VALUE: HAL_TIMEx_PWMN_Stop_DMA:htim <- $r4
	.loc	7 1482 3                        @ c:/Keil_v5\ARM\PACK\Keil\STM32L5xx_DFP\1.3.0\Drivers\STM32L5xx_HAL_Driver\Src\stm32l5xx_hal_tim_ex.c:1482:3
	ldr	r1, [r0]
	bic	r1, r1, #1
	str	r1, [r0]
	b	.LBB23_13
.Ltmp655:
	.p2align	2
.LBB23_12:
	@DEBUG_VALUE: HAL_TIMEx_PWMN_Stop_DMA:Channel <- $r5
	@DEBUG_VALUE: HAL_TIMEx_PWMN_Stop_DMA:htim <- $r4
	.loc	7 1479 3 is_stmt 1              @ c:/Keil_v5\ARM\PACK\Keil\STM32L5xx_DFP\1.3.0\Drivers\STM32L5xx_HAL_Driver\Src\stm32l5xx_hal_tim_ex.c:1479:3
	ldr	r2, [r0, #68]
	bic	r2, r2, #32768
	str	r2, [r0, #68]
.Ltmp656:
	.loc	7 1482 3                        @ c:/Keil_v5\ARM\PACK\Keil\STM32L5xx_DFP\1.3.0\Drivers\STM32L5xx_HAL_Driver\Src\stm32l5xx_hal_tim_ex.c:1482:3
	ldr	r2, [r0, #32]
.Ltmp657:
	.loc	7 1482 3 is_stmt 0              @ c:/Keil_v5\ARM\PACK\Keil\STM32L5xx_DFP\1.3.0\Drivers\STM32L5xx_HAL_Driver\Src\stm32l5xx_hal_tim_ex.c:1482:3
	tst	r2, r1
	beq	.LBB23_10
.Ltmp658:
.LBB23_13:
	@DEBUG_VALUE: HAL_TIMEx_PWMN_Stop_DMA:Channel <- $r5
	@DEBUG_VALUE: HAL_TIMEx_PWMN_Stop_DMA:htim <- $r4
	.loc	7 0 3                           @ c:/Keil_v5\ARM\PACK\Keil\STM32L5xx_DFP\1.3.0\Drivers\STM32L5xx_HAL_Driver\Src\stm32l5xx_hal_tim_ex.c:0:3
	movs	r0, #1
	.loc	7 1485 3 is_stmt 1              @ c:/Keil_v5\ARM\PACK\Keil\STM32L5xx_DFP\1.3.0\Drivers\STM32L5xx_HAL_Driver\Src\stm32l5xx_hal_tim_ex.c:1485:3
	cmp	r5, #8
	beq	.LBB23_16
.Ltmp659:
@ %bb.14:
	@DEBUG_VALUE: HAL_TIMEx_PWMN_Stop_DMA:Channel <- $r5
	@DEBUG_VALUE: HAL_TIMEx_PWMN_Stop_DMA:htim <- $r4
	cmp	r5, #4
	beq	.LBB23_17
.Ltmp660:
@ %bb.15:
	@DEBUG_VALUE: HAL_TIMEx_PWMN_Stop_DMA:Channel <- $r5
	@DEBUG_VALUE: HAL_TIMEx_PWMN_Stop_DMA:htim <- $r4
	cmp	r5, #0
	ite	ne
	strbne.w	r0, [r4, #71]
	strbeq.w	r0, [r4, #68]
	.loc	7 1488 3                        @ c:/Keil_v5\ARM\PACK\Keil\STM32L5xx_DFP\1.3.0\Drivers\STM32L5xx_HAL_Driver\Src\stm32l5xx_hal_tim_ex.c:1488:3
	movs	r0, #0
	pop	{r4, r5, r7, pc}
.Ltmp661:
	.p2align	2
.LBB23_16:
	@DEBUG_VALUE: HAL_TIMEx_PWMN_Stop_DMA:Channel <- $r5
	@DEBUG_VALUE: HAL_TIMEx_PWMN_Stop_DMA:htim <- $r4
	.loc	7 1485 3                        @ c:/Keil_v5\ARM\PACK\Keil\STM32L5xx_DFP\1.3.0\Drivers\STM32L5xx_HAL_Driver\Src\stm32l5xx_hal_tim_ex.c:1485:3
	strb.w	r0, [r4, #70]
	.loc	7 1488 3                        @ c:/Keil_v5\ARM\PACK\Keil\STM32L5xx_DFP\1.3.0\Drivers\STM32L5xx_HAL_Driver\Src\stm32l5xx_hal_tim_ex.c:1488:3
	movs	r0, #0
	pop	{r4, r5, r7, pc}
.Ltmp662:
	.p2align	2
.LBB23_17:
	@DEBUG_VALUE: HAL_TIMEx_PWMN_Stop_DMA:Channel <- $r5
	@DEBUG_VALUE: HAL_TIMEx_PWMN_Stop_DMA:htim <- $r4
	.loc	7 1485 3                        @ c:/Keil_v5\ARM\PACK\Keil\STM32L5xx_DFP\1.3.0\Drivers\STM32L5xx_HAL_Driver\Src\stm32l5xx_hal_tim_ex.c:1485:3
	strb.w	r0, [r4, #69]
	.loc	7 1488 3                        @ c:/Keil_v5\ARM\PACK\Keil\STM32L5xx_DFP\1.3.0\Drivers\STM32L5xx_HAL_Driver\Src\stm32l5xx_hal_tim_ex.c:1488:3
	movs	r0, #0
	pop	{r4, r5, r7, pc}
.Ltmp663:
.Lfunc_end23:
	.size	HAL_TIMEx_PWMN_Stop_DMA, .Lfunc_end23-HAL_TIMEx_PWMN_Stop_DMA
	.cfi_endproc
	.cantunwind
	.fnend
                                        @ -- End function
	.section	.text.HAL_TIMEx_OnePulseN_Start,"ax",%progbits
	.hidden	HAL_TIMEx_OnePulseN_Start       @ -- Begin function HAL_TIMEx_OnePulseN_Start
	.globl	HAL_TIMEx_OnePulseN_Start
	.p2align	2
	.type	HAL_TIMEx_OnePulseN_Start,%function
	.code	16                              @ @HAL_TIMEx_OnePulseN_Start
	.thumb_func
HAL_TIMEx_OnePulseN_Start:
.Lfunc_begin24:
	.loc	7 1524 0                        @ c:/Keil_v5\ARM\PACK\Keil\STM32L5xx_DFP\1.3.0\Drivers\STM32L5xx_HAL_Driver\Src\stm32l5xx_hal_tim_ex.c:1524:0
	.fnstart
	.cfi_startproc
@ %bb.0:
	@DEBUG_VALUE: HAL_TIMEx_OnePulseN_Start:htim <- $r0
	@DEBUG_VALUE: HAL_TIMEx_OnePulseN_Start:OutputChannel <- $r1
	.save	{r4, lr}
	push	{r4, lr}
	.cfi_def_cfa_offset 8
	.cfi_offset lr, -4
	.cfi_offset r4, -8
	mov	r4, r0
.Ltmp664:
	@DEBUG_VALUE: HAL_TIMEx_OnePulseN_Start:htim <- $r4
	@DEBUG_VALUE: HAL_TIMEx_OnePulseN_Start:input_channel <- undef
	movs	r0, #62
	@DEBUG_VALUE: HAL_TIMEx_OnePulseN_Start:OutputChannel <- $r1
	@DEBUG_VALUE: HAL_TIMEx_OnePulseN_Start:htim <- $r4
.Ltmp665:
	.loc	7 1526 53 prologue_end          @ c:/Keil_v5\ARM\PACK\Keil\STM32L5xx_DFP\1.3.0\Drivers\STM32L5xx_HAL_Driver\Src\stm32l5xx_hal_tim_ex.c:1526:53
	cmp	r1, #0
	it	eq
	moveq	r0, #63
	ldrb	r0, [r4, r0]
.Ltmp666:
	@DEBUG_VALUE: HAL_TIMEx_OnePulseN_Start:input_channel_state <- undef
	.loc	7 1527 54                       @ c:/Keil_v5\ARM\PACK\Keil\STM32L5xx_DFP\1.3.0\Drivers\STM32L5xx_HAL_Driver\Src\stm32l5xx_hal_tim_ex.c:1527:54
	beq	.LBB24_3
.Ltmp667:
@ %bb.1:
	@DEBUG_VALUE: HAL_TIMEx_OnePulseN_Start:htim <- $r4
	@DEBUG_VALUE: HAL_TIMEx_OnePulseN_Start:OutputChannel <- $r1
	cmp	r1, #8
	beq	.LBB24_5
.Ltmp668:
@ %bb.2:
	@DEBUG_VALUE: HAL_TIMEx_OnePulseN_Start:htim <- $r4
	@DEBUG_VALUE: HAL_TIMEx_OnePulseN_Start:OutputChannel <- $r1
	cmp	r1, #4
	ite	ne
	addne.w	r2, r4, #71
	addeq.w	r2, r4, #69
	b	.LBB24_6
.Ltmp669:
	.p2align	2
.LBB24_3:
	@DEBUG_VALUE: HAL_TIMEx_OnePulseN_Start:htim <- $r4
	@DEBUG_VALUE: HAL_TIMEx_OnePulseN_Start:OutputChannel <- $r1
	.loc	7 1534 4                        @ c:/Keil_v5\ARM\PACK\Keil\STM32L5xx_DFP\1.3.0\Drivers\STM32L5xx_HAL_Driver\Src\stm32l5xx_hal_tim_ex.c:1534:4
	cmp	r0, #1
	mov.w	r0, #1
.Ltmp670:
	.loc	7 1527 54                       @ c:/Keil_v5\ARM\PACK\Keil\STM32L5xx_DFP\1.3.0\Drivers\STM32L5xx_HAL_Driver\Src\stm32l5xx_hal_tim_ex.c:1527:54
	ldrb.w	r2, [r4, #68]
.Ltmp671:
	.loc	7 1534 4                        @ c:/Keil_v5\ARM\PACK\Keil\STM32L5xx_DFP\1.3.0\Drivers\STM32L5xx_HAL_Driver\Src\stm32l5xx_hal_tim_ex.c:1534:4
	it	eq
	cmpeq	r2, #1
	beq	.LBB24_9
.Ltmp672:
.LBB24_4:
	@DEBUG_VALUE: HAL_TIMEx_OnePulseN_Start:htim <- $r4
	@DEBUG_VALUE: HAL_TIMEx_OnePulseN_Start:OutputChannel <- $r1
	.loc	7 1552 1                        @ c:/Keil_v5\ARM\PACK\Keil\STM32L5xx_DFP\1.3.0\Drivers\STM32L5xx_HAL_Driver\Src\stm32l5xx_hal_tim_ex.c:1552:1
	pop	{r4, pc}
.Ltmp673:
	.p2align	2
.LBB24_5:
	@DEBUG_VALUE: HAL_TIMEx_OnePulseN_Start:htim <- $r4
	@DEBUG_VALUE: HAL_TIMEx_OnePulseN_Start:OutputChannel <- $r1
	.loc	7 1527 54                       @ c:/Keil_v5\ARM\PACK\Keil\STM32L5xx_DFP\1.3.0\Drivers\STM32L5xx_HAL_Driver\Src\stm32l5xx_hal_tim_ex.c:1527:54
	add.w	r2, r4, #70
.Ltmp674:
.LBB24_6:
	@DEBUG_VALUE: HAL_TIMEx_OnePulseN_Start:htim <- $r4
	@DEBUG_VALUE: HAL_TIMEx_OnePulseN_Start:OutputChannel <- $r1
	.loc	7 1534 4                        @ c:/Keil_v5\ARM\PACK\Keil\STM32L5xx_DFP\1.3.0\Drivers\STM32L5xx_HAL_Driver\Src\stm32l5xx_hal_tim_ex.c:1534:4
	cmp	r0, #1
	mov.w	r0, #1
.Ltmp675:
	@DEBUG_VALUE: HAL_TIMEx_OnePulseN_Start:output_channel_state <- undef
	.loc	7 1527 54                       @ c:/Keil_v5\ARM\PACK\Keil\STM32L5xx_DFP\1.3.0\Drivers\STM32L5xx_HAL_Driver\Src\stm32l5xx_hal_tim_ex.c:1527:54
	ldrb	r2, [r2]
.Ltmp676:
	.loc	7 1534 4                        @ c:/Keil_v5\ARM\PACK\Keil\STM32L5xx_DFP\1.3.0\Drivers\STM32L5xx_HAL_Driver\Src\stm32l5xx_hal_tim_ex.c:1534:4
	it	eq
	cmpeq	r2, #1
	bne	.LBB24_4
.Ltmp677:
@ %bb.7:
	@DEBUG_VALUE: HAL_TIMEx_OnePulseN_Start:htim <- $r4
	@DEBUG_VALUE: HAL_TIMEx_OnePulseN_Start:OutputChannel <- $r1
	.loc	7 0 4 is_stmt 0                 @ c:/Keil_v5\ARM\PACK\Keil\STM32L5xx_DFP\1.3.0\Drivers\STM32L5xx_HAL_Driver\Src\stm32l5xx_hal_tim_ex.c:0:4
	movs	r0, #2
	.loc	7 1540 3 is_stmt 1              @ c:/Keil_v5\ARM\PACK\Keil\STM32L5xx_DFP\1.3.0\Drivers\STM32L5xx_HAL_Driver\Src\stm32l5xx_hal_tim_ex.c:1540:3
	cmp	r1, #8
	beq	.LBB24_10
.Ltmp678:
@ %bb.8:
	@DEBUG_VALUE: HAL_TIMEx_OnePulseN_Start:htim <- $r4
	@DEBUG_VALUE: HAL_TIMEx_OnePulseN_Start:OutputChannel <- $r1
	cmp	r1, #4
	ite	ne
	strbne.w	r0, [r4, #71]
	strbeq.w	r0, [r4, #69]
	b	.LBB24_11
.Ltmp679:
	.p2align	2
.LBB24_9:
	@DEBUG_VALUE: HAL_TIMEx_OnePulseN_Start:htim <- $r4
	@DEBUG_VALUE: HAL_TIMEx_OnePulseN_Start:OutputChannel <- $r1
	.loc	7 0 3 is_stmt 0                 @ c:/Keil_v5\ARM\PACK\Keil\STM32L5xx_DFP\1.3.0\Drivers\STM32L5xx_HAL_Driver\Src\stm32l5xx_hal_tim_ex.c:0:3
	movs	r0, #2
	.loc	7 1540 3                        @ c:/Keil_v5\ARM\PACK\Keil\STM32L5xx_DFP\1.3.0\Drivers\STM32L5xx_HAL_Driver\Src\stm32l5xx_hal_tim_ex.c:1540:3
	strb.w	r0, [r4, #68]
	.loc	7 1541 3 is_stmt 1              @ c:/Keil_v5\ARM\PACK\Keil\STM32L5xx_DFP\1.3.0\Drivers\STM32L5xx_HAL_Driver\Src\stm32l5xx_hal_tim_ex.c:1541:3
	strb.w	r0, [r4, #63]
	b	.LBB24_12
.Ltmp680:
	.p2align	2
.LBB24_10:
	@DEBUG_VALUE: HAL_TIMEx_OnePulseN_Start:htim <- $r4
	@DEBUG_VALUE: HAL_TIMEx_OnePulseN_Start:OutputChannel <- $r1
	.loc	7 1540 3                        @ c:/Keil_v5\ARM\PACK\Keil\STM32L5xx_DFP\1.3.0\Drivers\STM32L5xx_HAL_Driver\Src\stm32l5xx_hal_tim_ex.c:1540:3
	strb.w	r0, [r4, #70]
.Ltmp681:
.LBB24_11:
	@DEBUG_VALUE: HAL_TIMEx_OnePulseN_Start:htim <- $r4
	@DEBUG_VALUE: HAL_TIMEx_OnePulseN_Start:OutputChannel <- $r1
	.loc	7 0 3 is_stmt 0                 @ c:/Keil_v5\ARM\PACK\Keil\STM32L5xx_DFP\1.3.0\Drivers\STM32L5xx_HAL_Driver\Src\stm32l5xx_hal_tim_ex.c:0:3
	movs	r0, #2
	.loc	7 1541 3 is_stmt 1              @ c:/Keil_v5\ARM\PACK\Keil\STM32L5xx_DFP\1.3.0\Drivers\STM32L5xx_HAL_Driver\Src\stm32l5xx_hal_tim_ex.c:1541:3
	strb.w	r0, [r4, #62]
.Ltmp682:
.LBB24_12:
	@DEBUG_VALUE: HAL_TIMEx_OnePulseN_Start:htim <- $r4
	@DEBUG_VALUE: HAL_TIMEx_OnePulseN_Start:OutputChannel <- $r1
	.loc	7 1544 28                       @ c:/Keil_v5\ARM\PACK\Keil\STM32L5xx_DFP\1.3.0\Drivers\STM32L5xx_HAL_Driver\Src\stm32l5xx_hal_tim_ex.c:1544:28
	ldr	r0, [r4]
.Ltmp683:
	@DEBUG_VALUE: TIM_CCxNChannelCmd:ChannelNState <- 4
	@DEBUG_VALUE: TIM_CCxNChannelCmd:Channel <- $r1
	@DEBUG_VALUE: TIM_CCxNChannelCmd:TIMx <- $r0
	.loc	7 0 28 is_stmt 0                @ c:/Keil_v5\ARM\PACK\Keil\STM32L5xx_DFP\1.3.0\Drivers\STM32L5xx_HAL_Driver\Src\stm32l5xx_hal_tim_ex.c:0:28
	clz	r2, r1
.Ltmp684:
	.loc	7 2735 36 is_stmt 1             @ c:/Keil_v5\ARM\PACK\Keil\STM32L5xx_DFP\1.3.0\Drivers\STM32L5xx_HAL_Driver\Src\stm32l5xx_hal_tim_ex.c:2735:36
	and	r1, r1, #31
.Ltmp685:
	@DEBUG_VALUE: HAL_TIMEx_OnePulseN_Start:OutputChannel <- [DW_OP_LLVM_entry_value 1] $r1
	.loc	7 0 36 is_stmt 0                @ c:/Keil_v5\ARM\PACK\Keil\STM32L5xx_DFP\1.3.0\Drivers\STM32L5xx_HAL_Driver\Src\stm32l5xx_hal_tim_ex.c:0:36
	movs	r3, #4
	.loc	7 2735 24                       @ c:/Keil_v5\ARM\PACK\Keil\STM32L5xx_DFP\1.3.0\Drivers\STM32L5xx_HAL_Driver\Src\stm32l5xx_hal_tim_ex.c:2735:24
	lsls	r3, r1
.Ltmp686:
	@DEBUG_VALUE: TIM_CCxNChannelCmd:tmp <- $r3
	.loc	7 2738 14 is_stmt 1             @ c:/Keil_v5\ARM\PACK\Keil\STM32L5xx_DFP\1.3.0\Drivers\STM32L5xx_HAL_Driver\Src\stm32l5xx_hal_tim_ex.c:2738:14
	ldr	r1, [r0, #32]
	lsr.w	r12, r2, #5
	bics	r1, r3
	str	r1, [r0, #32]
	.loc	7 2741 14                       @ c:/Keil_v5\ARM\PACK\Keil\STM32L5xx_DFP\1.3.0\Drivers\STM32L5xx_HAL_Driver\Src\stm32l5xx_hal_tim_ex.c:2741:14
	ldr	r2, [r0, #32]
.Ltmp687:
	.loc	7 0 0 is_stmt 0                 @ c:/Keil_v5\ARM\PACK\Keil\STM32L5xx_DFP\1.3.0\Drivers\STM32L5xx_HAL_Driver\Src\stm32l5xx_hal_tim_ex.c:0:0
	lsl.w	r1, r12, #2
.Ltmp688:
	@DEBUG_VALUE: HAL_TIMEx_OnePulseN_Start:input_channel <- $r1
	.loc	7 2741 14                       @ c:/Keil_v5\ARM\PACK\Keil\STM32L5xx_DFP\1.3.0\Drivers\STM32L5xx_HAL_Driver\Src\stm32l5xx_hal_tim_ex.c:2741:14
	orrs	r2, r3
	@DEBUG_VALUE: TIM_CCxNChannelCmd:tmp <- $r3
	@DEBUG_VALUE: TIM_CCxNChannelCmd:ChannelNState <- 4
	@DEBUG_VALUE: TIM_CCxNChannelCmd:TIMx <- $r0
	str	r2, [r0, #32]
.Ltmp689:
	.loc	7 1545 3 is_stmt 1              @ c:/Keil_v5\ARM\PACK\Keil\STM32L5xx_DFP\1.3.0\Drivers\STM32L5xx_HAL_Driver\Src\stm32l5xx_hal_tim_ex.c:1545:3
	movs	r2, #1
	bl	TIM_CCxChannelCmd
.Ltmp690:
	.loc	7 1548 3                        @ c:/Keil_v5\ARM\PACK\Keil\STM32L5xx_DFP\1.3.0\Drivers\STM32L5xx_HAL_Driver\Src\stm32l5xx_hal_tim_ex.c:1548:3
	ldr	r0, [r4]
	ldr	r1, [r0, #68]
	orr	r1, r1, #32768
	str	r1, [r0, #68]
	movs	r0, #0
	.loc	7 1552 1                        @ c:/Keil_v5\ARM\PACK\Keil\STM32L5xx_DFP\1.3.0\Drivers\STM32L5xx_HAL_Driver\Src\stm32l5xx_hal_tim_ex.c:1552:1
	pop	{r4, pc}
.Ltmp691:
.Lfunc_end24:
	.size	HAL_TIMEx_OnePulseN_Start, .Lfunc_end24-HAL_TIMEx_OnePulseN_Start
	.cfi_endproc
	.cantunwind
	.fnend
                                        @ -- End function
	.section	.text.HAL_TIMEx_OnePulseN_Stop,"ax",%progbits
	.hidden	HAL_TIMEx_OnePulseN_Stop        @ -- Begin function HAL_TIMEx_OnePulseN_Stop
	.globl	HAL_TIMEx_OnePulseN_Stop
	.p2align	2
	.type	HAL_TIMEx_OnePulseN_Stop,%function
	.code	16                              @ @HAL_TIMEx_OnePulseN_Stop
	.thumb_func
HAL_TIMEx_OnePulseN_Stop:
.Lfunc_begin25:
	.loc	7 1565 0                        @ c:/Keil_v5\ARM\PACK\Keil\STM32L5xx_DFP\1.3.0\Drivers\STM32L5xx_HAL_Driver\Src\stm32l5xx_hal_tim_ex.c:1565:0
	.fnstart
	.cfi_startproc
@ %bb.0:
	@DEBUG_VALUE: HAL_TIMEx_OnePulseN_Stop:htim <- $r0
	@DEBUG_VALUE: HAL_TIMEx_OnePulseN_Stop:OutputChannel <- $r1
	.save	{r4, r5, r7, lr}
	push	{r4, r5, r7, lr}
	.cfi_def_cfa_offset 16
	.cfi_offset lr, -4
	.cfi_offset r7, -8
	.cfi_offset r5, -12
	.cfi_offset r4, -16
	mov	r5, r1
	mov	r4, r0
.Ltmp692:
	.loc	7 1572 28 prologue_end          @ c:/Keil_v5\ARM\PACK\Keil\STM32L5xx_DFP\1.3.0\Drivers\STM32L5xx_HAL_Driver\Src\stm32l5xx_hal_tim_ex.c:1572:28
	ldr	r0, [r0]
.Ltmp693:
	@DEBUG_VALUE: HAL_TIMEx_OnePulseN_Stop:htim <- [DW_OP_LLVM_entry_value 1] $r0
	@DEBUG_VALUE: TIM_CCxNChannelCmd:ChannelNState <- 0
	@DEBUG_VALUE: TIM_CCxNChannelCmd:Channel <- $r5
	@DEBUG_VALUE: TIM_CCxNChannelCmd:TIMx <- $r0
	.loc	7 2735 36                       @ c:/Keil_v5\ARM\PACK\Keil\STM32L5xx_DFP\1.3.0\Drivers\STM32L5xx_HAL_Driver\Src\stm32l5xx_hal_tim_ex.c:2735:36
	and	r2, r5, #31
	movs	r3, #4
	.loc	7 2735 24 is_stmt 0             @ c:/Keil_v5\ARM\PACK\Keil\STM32L5xx_DFP\1.3.0\Drivers\STM32L5xx_HAL_Driver\Src\stm32l5xx_hal_tim_ex.c:2735:24
	lsl.w	r2, r3, r2
.Ltmp694:
	@DEBUG_VALUE: TIM_CCxNChannelCmd:tmp <- $r2
	.loc	7 2738 14 is_stmt 1             @ c:/Keil_v5\ARM\PACK\Keil\STM32L5xx_DFP\1.3.0\Drivers\STM32L5xx_HAL_Driver\Src\stm32l5xx_hal_tim_ex.c:2738:14
	ldr	r3, [r0, #32]
	clz	r1, r1
.Ltmp695:
	@DEBUG_VALUE: HAL_TIMEx_OnePulseN_Stop:OutputChannel <- [DW_OP_LLVM_entry_value 1] $r1
	@DEBUG_VALUE: HAL_TIMEx_OnePulseN_Stop:OutputChannel <- $r5
	@DEBUG_VALUE: HAL_TIMEx_OnePulseN_Stop:htim <- $r4
	bic.w	r2, r3, r2
.Ltmp696:
	str	r2, [r0, #32]
	.loc	7 2741 14                       @ c:/Keil_v5\ARM\PACK\Keil\STM32L5xx_DFP\1.3.0\Drivers\STM32L5xx_HAL_Driver\Src\stm32l5xx_hal_tim_ex.c:2741:14
	ldr	r2, [r0, #32]
	lsrs	r1, r1, #5
.Ltmp697:
	.loc	7 1566 28                       @ c:/Keil_v5\ARM\PACK\Keil\STM32L5xx_DFP\1.3.0\Drivers\STM32L5xx_HAL_Driver\Src\stm32l5xx_hal_tim_ex.c:1566:28
	lsls	r1, r1, #2
.Ltmp698:
	@DEBUG_VALUE: HAL_TIMEx_OnePulseN_Stop:input_channel <- $r1
	.loc	7 2741 14                       @ c:/Keil_v5\ARM\PACK\Keil\STM32L5xx_DFP\1.3.0\Drivers\STM32L5xx_HAL_Driver\Src\stm32l5xx_hal_tim_ex.c:2741:14
	str	r2, [r0, #32]
.Ltmp699:
	@DEBUG_VALUE: TIM_CCxNChannelCmd:ChannelNState <- 0
	@DEBUG_VALUE: TIM_CCxNChannelCmd:Channel <- $r5
	@DEBUG_VALUE: TIM_CCxNChannelCmd:TIMx <- $r0
	.loc	7 1573 3                        @ c:/Keil_v5\ARM\PACK\Keil\STM32L5xx_DFP\1.3.0\Drivers\STM32L5xx_HAL_Driver\Src\stm32l5xx_hal_tim_ex.c:1573:3
	movs	r2, #0
	bl	TIM_CCxChannelCmd
.Ltmp700:
	.loc	7 1576 3                        @ c:/Keil_v5\ARM\PACK\Keil\STM32L5xx_DFP\1.3.0\Drivers\STM32L5xx_HAL_Driver\Src\stm32l5xx_hal_tim_ex.c:1576:3
	ldr	r0, [r4]
	movw	r1, #4369
	ldr	r2, [r0, #32]
.Ltmp701:
	.loc	7 1576 3 is_stmt 0              @ c:/Keil_v5\ARM\PACK\Keil\STM32L5xx_DFP\1.3.0\Drivers\STM32L5xx_HAL_Driver\Src\stm32l5xx_hal_tim_ex.c:1576:3
	tst	r2, r1
	bne	.LBB25_2
.Ltmp702:
@ %bb.1:
	@DEBUG_VALUE: HAL_TIMEx_OnePulseN_Stop:OutputChannel <- $r5
	@DEBUG_VALUE: HAL_TIMEx_OnePulseN_Stop:htim <- $r4
	.loc	7 1576 3                        @ c:/Keil_v5\ARM\PACK\Keil\STM32L5xx_DFP\1.3.0\Drivers\STM32L5xx_HAL_Driver\Src\stm32l5xx_hal_tim_ex.c:1576:3
	ldr	r2, [r0, #32]
	movw	r3, #1092
.Ltmp703:
	.loc	7 1576 3                        @ c:/Keil_v5\ARM\PACK\Keil\STM32L5xx_DFP\1.3.0\Drivers\STM32L5xx_HAL_Driver\Src\stm32l5xx_hal_tim_ex.c:1576:3
	tst	r2, r3
	beq	.LBB25_5
.Ltmp704:
.LBB25_2:
	@DEBUG_VALUE: HAL_TIMEx_OnePulseN_Stop:OutputChannel <- $r5
	@DEBUG_VALUE: HAL_TIMEx_OnePulseN_Stop:htim <- $r4
	.loc	7 1579 3 is_stmt 1              @ c:/Keil_v5\ARM\PACK\Keil\STM32L5xx_DFP\1.3.0\Drivers\STM32L5xx_HAL_Driver\Src\stm32l5xx_hal_tim_ex.c:1579:3
	ldr	r2, [r0, #32]
.Ltmp705:
	.loc	7 1579 3 is_stmt 0              @ c:/Keil_v5\ARM\PACK\Keil\STM32L5xx_DFP\1.3.0\Drivers\STM32L5xx_HAL_Driver\Src\stm32l5xx_hal_tim_ex.c:1579:3
	tst	r2, r1
	bne	.LBB25_6
.Ltmp706:
.LBB25_3:
	@DEBUG_VALUE: HAL_TIMEx_OnePulseN_Stop:OutputChannel <- $r5
	@DEBUG_VALUE: HAL_TIMEx_OnePulseN_Stop:htim <- $r4
	.loc	7 1579 3                        @ c:/Keil_v5\ARM\PACK\Keil\STM32L5xx_DFP\1.3.0\Drivers\STM32L5xx_HAL_Driver\Src\stm32l5xx_hal_tim_ex.c:1579:3
	ldr	r1, [r0, #32]
	movw	r2, #1092
.Ltmp707:
	.loc	7 1579 3                        @ c:/Keil_v5\ARM\PACK\Keil\STM32L5xx_DFP\1.3.0\Drivers\STM32L5xx_HAL_Driver\Src\stm32l5xx_hal_tim_ex.c:1579:3
	tst	r1, r2
	bne	.LBB25_6
.Ltmp708:
@ %bb.4:
	@DEBUG_VALUE: HAL_TIMEx_OnePulseN_Stop:OutputChannel <- $r5
	@DEBUG_VALUE: HAL_TIMEx_OnePulseN_Stop:htim <- $r4
	.loc	7 1579 3                        @ c:/Keil_v5\ARM\PACK\Keil\STM32L5xx_DFP\1.3.0\Drivers\STM32L5xx_HAL_Driver\Src\stm32l5xx_hal_tim_ex.c:1579:3
	ldr	r1, [r0]
	bic	r1, r1, #1
	str	r1, [r0]
	b	.LBB25_6
.Ltmp709:
	.p2align	2
.LBB25_5:
	@DEBUG_VALUE: HAL_TIMEx_OnePulseN_Stop:OutputChannel <- $r5
	@DEBUG_VALUE: HAL_TIMEx_OnePulseN_Stop:htim <- $r4
	.loc	7 1576 3 is_stmt 1              @ c:/Keil_v5\ARM\PACK\Keil\STM32L5xx_DFP\1.3.0\Drivers\STM32L5xx_HAL_Driver\Src\stm32l5xx_hal_tim_ex.c:1576:3
	ldr	r2, [r0, #68]
	bic	r2, r2, #32768
	str	r2, [r0, #68]
.Ltmp710:
	.loc	7 1579 3                        @ c:/Keil_v5\ARM\PACK\Keil\STM32L5xx_DFP\1.3.0\Drivers\STM32L5xx_HAL_Driver\Src\stm32l5xx_hal_tim_ex.c:1579:3
	ldr	r2, [r0, #32]
.Ltmp711:
	.loc	7 1579 3 is_stmt 0              @ c:/Keil_v5\ARM\PACK\Keil\STM32L5xx_DFP\1.3.0\Drivers\STM32L5xx_HAL_Driver\Src\stm32l5xx_hal_tim_ex.c:1579:3
	tst	r2, r1
	beq	.LBB25_3
.Ltmp712:
.LBB25_6:
	@DEBUG_VALUE: HAL_TIMEx_OnePulseN_Stop:OutputChannel <- $r5
	@DEBUG_VALUE: HAL_TIMEx_OnePulseN_Stop:htim <- $r4
	.loc	7 0 3                           @ c:/Keil_v5\ARM\PACK\Keil\STM32L5xx_DFP\1.3.0\Drivers\STM32L5xx_HAL_Driver\Src\stm32l5xx_hal_tim_ex.c:0:3
	movs	r0, #1
	.loc	7 1582 3 is_stmt 1              @ c:/Keil_v5\ARM\PACK\Keil\STM32L5xx_DFP\1.3.0\Drivers\STM32L5xx_HAL_Driver\Src\stm32l5xx_hal_tim_ex.c:1582:3
	cbz	r5, .LBB25_9
.Ltmp713:
@ %bb.7:
	@DEBUG_VALUE: HAL_TIMEx_OnePulseN_Stop:OutputChannel <- $r5
	@DEBUG_VALUE: HAL_TIMEx_OnePulseN_Stop:htim <- $r4
	cmp	r5, #8
	beq	.LBB25_10
.Ltmp714:
@ %bb.8:
	@DEBUG_VALUE: HAL_TIMEx_OnePulseN_Stop:OutputChannel <- $r5
	@DEBUG_VALUE: HAL_TIMEx_OnePulseN_Stop:htim <- $r4
	cmp	r5, #4
	ite	ne
	strbne.w	r0, [r4, #71]
	strbeq.w	r0, [r4, #69]
	movs	r0, #1
	.loc	7 1583 3                        @ c:/Keil_v5\ARM\PACK\Keil\STM32L5xx_DFP\1.3.0\Drivers\STM32L5xx_HAL_Driver\Src\stm32l5xx_hal_tim_ex.c:1583:3
	strb.w	r0, [r4, #62]
	.loc	7 1586 3                        @ c:/Keil_v5\ARM\PACK\Keil\STM32L5xx_DFP\1.3.0\Drivers\STM32L5xx_HAL_Driver\Src\stm32l5xx_hal_tim_ex.c:1586:3
	movs	r0, #0
	pop	{r4, r5, r7, pc}
.Ltmp715:
	.p2align	2
.LBB25_9:
	@DEBUG_VALUE: HAL_TIMEx_OnePulseN_Stop:OutputChannel <- $r5
	@DEBUG_VALUE: HAL_TIMEx_OnePulseN_Stop:htim <- $r4
	.loc	7 1582 3                        @ c:/Keil_v5\ARM\PACK\Keil\STM32L5xx_DFP\1.3.0\Drivers\STM32L5xx_HAL_Driver\Src\stm32l5xx_hal_tim_ex.c:1582:3
	strb.w	r0, [r4, #68]
	.loc	7 1583 3                        @ c:/Keil_v5\ARM\PACK\Keil\STM32L5xx_DFP\1.3.0\Drivers\STM32L5xx_HAL_Driver\Src\stm32l5xx_hal_tim_ex.c:1583:3
	strb.w	r0, [r4, #63]
	.loc	7 1586 3                        @ c:/Keil_v5\ARM\PACK\Keil\STM32L5xx_DFP\1.3.0\Drivers\STM32L5xx_HAL_Driver\Src\stm32l5xx_hal_tim_ex.c:1586:3
	movs	r0, #0
	pop	{r4, r5, r7, pc}
.Ltmp716:
	.p2align	2
.LBB25_10:
	@DEBUG_VALUE: HAL_TIMEx_OnePulseN_Stop:OutputChannel <- $r5
	@DEBUG_VALUE: HAL_TIMEx_OnePulseN_Stop:htim <- $r4
	.loc	7 1582 3                        @ c:/Keil_v5\ARM\PACK\Keil\STM32L5xx_DFP\1.3.0\Drivers\STM32L5xx_HAL_Driver\Src\stm32l5xx_hal_tim_ex.c:1582:3
	strb.w	r0, [r4, #70]
	movs	r0, #1
	.loc	7 1583 3                        @ c:/Keil_v5\ARM\PACK\Keil\STM32L5xx_DFP\1.3.0\Drivers\STM32L5xx_HAL_Driver\Src\stm32l5xx_hal_tim_ex.c:1583:3
	strb.w	r0, [r4, #62]
	.loc	7 1586 3                        @ c:/Keil_v5\ARM\PACK\Keil\STM32L5xx_DFP\1.3.0\Drivers\STM32L5xx_HAL_Driver\Src\stm32l5xx_hal_tim_ex.c:1586:3
	movs	r0, #0
	pop	{r4, r5, r7, pc}
.Ltmp717:
.Lfunc_end25:
	.size	HAL_TIMEx_OnePulseN_Stop, .Lfunc_end25-HAL_TIMEx_OnePulseN_Stop
	.cfi_endproc
	.cantunwind
	.fnend
                                        @ -- End function
	.section	.text.HAL_TIMEx_OnePulseN_Start_IT,"ax",%progbits
	.hidden	HAL_TIMEx_OnePulseN_Start_IT    @ -- Begin function HAL_TIMEx_OnePulseN_Start_IT
	.globl	HAL_TIMEx_OnePulseN_Start_IT
	.p2align	2
	.type	HAL_TIMEx_OnePulseN_Start_IT,%function
	.code	16                              @ @HAL_TIMEx_OnePulseN_Start_IT
	.thumb_func
HAL_TIMEx_OnePulseN_Start_IT:
.Lfunc_begin26:
	.loc	7 1600 0                        @ c:/Keil_v5\ARM\PACK\Keil\STM32L5xx_DFP\1.3.0\Drivers\STM32L5xx_HAL_Driver\Src\stm32l5xx_hal_tim_ex.c:1600:0
	.fnstart
	.cfi_startproc
@ %bb.0:
	@DEBUG_VALUE: HAL_TIMEx_OnePulseN_Start_IT:htim <- $r0
	@DEBUG_VALUE: HAL_TIMEx_OnePulseN_Start_IT:OutputChannel <- $r1
	.save	{r4, lr}
	push	{r4, lr}
	.cfi_def_cfa_offset 8
	.cfi_offset lr, -4
	.cfi_offset r4, -8
	mov	r4, r0
.Ltmp718:
	@DEBUG_VALUE: HAL_TIMEx_OnePulseN_Start_IT:htim <- $r4
	@DEBUG_VALUE: HAL_TIMEx_OnePulseN_Start_IT:input_channel <- undef
	movs	r0, #62
	@DEBUG_VALUE: HAL_TIMEx_OnePulseN_Start_IT:OutputChannel <- $r1
	@DEBUG_VALUE: HAL_TIMEx_OnePulseN_Start_IT:htim <- $r4
.Ltmp719:
	.loc	7 1602 53 prologue_end          @ c:/Keil_v5\ARM\PACK\Keil\STM32L5xx_DFP\1.3.0\Drivers\STM32L5xx_HAL_Driver\Src\stm32l5xx_hal_tim_ex.c:1602:53
	cmp	r1, #0
	it	eq
	moveq	r0, #63
	ldrb	r0, [r4, r0]
.Ltmp720:
	@DEBUG_VALUE: HAL_TIMEx_OnePulseN_Start_IT:input_channel_state <- undef
	.loc	7 1603 54                       @ c:/Keil_v5\ARM\PACK\Keil\STM32L5xx_DFP\1.3.0\Drivers\STM32L5xx_HAL_Driver\Src\stm32l5xx_hal_tim_ex.c:1603:54
	beq	.LBB26_3
.Ltmp721:
@ %bb.1:
	@DEBUG_VALUE: HAL_TIMEx_OnePulseN_Start_IT:htim <- $r4
	@DEBUG_VALUE: HAL_TIMEx_OnePulseN_Start_IT:OutputChannel <- $r1
	cmp	r1, #8
	beq	.LBB26_5
.Ltmp722:
@ %bb.2:
	@DEBUG_VALUE: HAL_TIMEx_OnePulseN_Start_IT:htim <- $r4
	@DEBUG_VALUE: HAL_TIMEx_OnePulseN_Start_IT:OutputChannel <- $r1
	cmp	r1, #4
	ite	ne
	addne.w	r2, r4, #71
	addeq.w	r2, r4, #69
	b	.LBB26_6
