	.text
	.syntax unified
	.eabi_attribute	67, "2.09"	@ Tag_conformance
	.cpu	cortex-m33
	.eabi_attribute	6, 17	@ Tag_CPU_arch
	.eabi_attribute	7, 77	@ Tag_CPU_arch_profile
	.eabi_attribute	8, 0	@ Tag_ARM_ISA_use
	.eabi_attribute	9, 3	@ Tag_THUMB_ISA_use
	.fpu	fpv5-sp-d16
	.eabi_attribute	27, 1	@ Tag_ABI_HardFP_use
	.eabi_attribute	36, 1	@ Tag_FP_HP_extension
	.eabi_attribute	46, 1	@ Tag_DSP_extension
	.eabi_attribute	34, 1	@ Tag_CPU_unaligned_access
	.eabi_attribute	17, 1	@ Tag_ABI_PCS_GOT_use
	.eabi_attribute	20, 2	@ Tag_ABI_FP_denormal
	.eabi_attribute	21, 0	@ Tag_ABI_FP_exceptions
	.eabi_attribute	23, 1	@ Tag_ABI_FP_number_model
	.eabi_attribute	24, 1	@ Tag_ABI_align_needed
	.eabi_attribute	25, 1	@ Tag_ABI_align_preserved
	.eabi_attribute	28, 1	@ Tag_ABI_VFP_args
	.eabi_attribute	38, 1	@ Tag_ABI_FP_16bit_format
	.eabi_attribute	18, 2	@ Tag_ABI_PCS_wchar_t
	.eabi_attribute	26, 1	@ Tag_ABI_enum_size
	.eabi_attribute	14, 0	@ Tag_ABI_PCS_R9_use
	.file	"stm32l5xx_hal_i2c.c"
	.file	1 "c:/Keil_v5\\ARM\\PACK\\Keil\\STM32L5xx_DFP\\1.3.0\\Drivers\\STM32L5xx_HAL_Driver\\Inc" "stm32l5xx_hal_def.h"
	.file	2 "c:/Keil_v5\\ARM\\PACK\\Keil\\STM32L5xx_DFP\\1.3.0\\Drivers\\STM32L5xx_HAL_Driver\\Inc" "stm32l5xx_hal_dma.h"
	.file	3 "c:/Keil_v5\\ARM\\PACK\\Keil\\STM32L5xx_DFP\\1.3.0\\Drivers\\STM32L5xx_HAL_Driver\\Inc" "stm32l5xx_hal_i2c.h"
	.file	4 "c:/Keil_v5\\ARM\\PACK\\Keil\\STM32L5xx_DFP\\1.3.0\\Drivers\\CMSIS\\Device\\ST\\STM32L5xx\\Include" "stm32l5xx.h"
	.file	5 "c:\\Keil_v5\\ARM\\ARMCLANG\\Bin\\..\\include" "stdint.h"
	.file	6 "c:/Keil_v5\\ARM\\PACK\\Keil\\STM32L5xx_DFP\\1.3.0\\Drivers\\CMSIS\\Device\\ST\\STM32L5xx\\Include" "stm32l552xx.h"
	.section	.text.HAL_I2C_Init,"ax",%progbits
	.hidden	HAL_I2C_Init                    @ -- Begin function HAL_I2C_Init
	.globl	HAL_I2C_Init
	.p2align	2
	.type	HAL_I2C_Init,%function
	.code	16                              @ @HAL_I2C_Init
	.thumb_func
HAL_I2C_Init:
.Lfunc_begin0:
	.file	7 "c:/Keil_v5\\ARM\\PACK\\Keil\\STM32L5xx_DFP\\1.3.0\\Drivers\\STM32L5xx_HAL_Driver\\Src" "stm32l5xx_hal_i2c.c"
	.loc	7 477 0                         @ c:/Keil_v5\ARM\PACK\Keil\STM32L5xx_DFP\1.3.0\Drivers\STM32L5xx_HAL_Driver\Src\stm32l5xx_hal_i2c.c:477:0
	.fnstart
	.cfi_sections .debug_frame
	.cfi_startproc
@ %bb.0:
	@DEBUG_VALUE: HAL_I2C_Init:hi2c <- $r0
	@DEBUG_VALUE: HAL_I2C_Init:hi2c <- $r0
	.loc	7 479 7 prologue_end            @ c:/Keil_v5\ARM\PACK\Keil\STM32L5xx_DFP\1.3.0\Drivers\STM32L5xx_HAL_Driver\Src\stm32l5xx_hal_i2c.c:479:7
	cmp	r0, #0
	itt	eq
	moveq	r0, #1
.Ltmp0:
	@DEBUG_VALUE: HAL_I2C_Init:hi2c <- [DW_OP_LLVM_entry_value 1] $r0
	.loc	7 577 1                         @ c:/Keil_v5\ARM\PACK\Keil\STM32L5xx_DFP\1.3.0\Drivers\STM32L5xx_HAL_Driver\Src\stm32l5xx_hal_i2c.c:577:1
	bxeq	lr
.Ltmp1:
.LBB0_1:
	@DEBUG_VALUE: HAL_I2C_Init:hi2c <- [DW_OP_LLVM_entry_value 1] $r0
	.save	{r4, lr}
	push	{r4, lr}
	.cfi_def_cfa_offset 8
	.cfi_offset lr, -4
	.cfi_offset r4, -8
	mov	r4, r0
.Ltmp2:
	@DEBUG_VALUE: HAL_I2C_Init:hi2c <- $r4
	.loc	7 494 13                        @ c:/Keil_v5\ARM\PACK\Keil\STM32L5xx_DFP\1.3.0\Drivers\STM32L5xx_HAL_Driver\Src\stm32l5xx_hal_i2c.c:494:13
	ldrb.w	r0, [r0, #65]
.Ltmp3:
	.loc	7 494 7 is_stmt 0               @ c:/Keil_v5\ARM\PACK\Keil\STM32L5xx_DFP\1.3.0\Drivers\STM32L5xx_HAL_Driver\Src\stm32l5xx_hal_i2c.c:494:7
	cbnz	r0, .LBB0_3
.Ltmp4:
@ %bb.2:
	@DEBUG_VALUE: HAL_I2C_Init:hi2c <- $r4
	.loc	7 0 7                           @ c:/Keil_v5\ARM\PACK\Keil\STM32L5xx_DFP\1.3.0\Drivers\STM32L5xx_HAL_Driver\Src\stm32l5xx_hal_i2c.c:0:7
	movs	r0, #0
.Ltmp5:
	.loc	7 497 16 is_stmt 1              @ c:/Keil_v5\ARM\PACK\Keil\STM32L5xx_DFP\1.3.0\Drivers\STM32L5xx_HAL_Driver\Src\stm32l5xx_hal_i2c.c:497:16
	strb.w	r0, [r4, #64]
	.loc	7 521 5                         @ c:/Keil_v5\ARM\PACK\Keil\STM32L5xx_DFP\1.3.0\Drivers\STM32L5xx_HAL_Driver\Src\stm32l5xx_hal_i2c.c:521:5
	mov	r0, r4
	bl	HAL_I2C_MspInit
.Ltmp6:
.LBB0_3:
	@DEBUG_VALUE: HAL_I2C_Init:hi2c <- $r4
	.loc	7 0 5 is_stmt 0                 @ c:/Keil_v5\ARM\PACK\Keil\STM32L5xx_DFP\1.3.0\Drivers\STM32L5xx_HAL_Driver\Src\stm32l5xx_hal_i2c.c:0:5
	movs	r0, #36
	.loc	7 525 15 is_stmt 1              @ c:/Keil_v5\ARM\PACK\Keil\STM32L5xx_DFP\1.3.0\Drivers\STM32L5xx_HAL_Driver\Src\stm32l5xx_hal_i2c.c:525:15
	strb.w	r0, [r4, #65]
	.loc	7 528 3                         @ c:/Keil_v5\ARM\PACK\Keil\STM32L5xx_DFP\1.3.0\Drivers\STM32L5xx_HAL_Driver\Src\stm32l5xx_hal_i2c.c:528:3
	ldm.w	r4, {r0, r3, r12}
.Ltmp7:
	.loc	7 539 18                        @ c:/Keil_v5\ARM\PACK\Keil\STM32L5xx_DFP\1.3.0\Drivers\STM32L5xx_HAL_Driver\Src\stm32l5xx_hal_i2c.c:539:18
	ldr	r2, [r4, #12]
.Ltmp8:
	.loc	7 528 3                         @ c:/Keil_v5\ARM\PACK\Keil\STM32L5xx_DFP\1.3.0\Drivers\STM32L5xx_HAL_Driver\Src\stm32l5xx_hal_i2c.c:528:3
	ldr	r1, [r0]
	.loc	7 539 7                         @ c:/Keil_v5\ARM\PACK\Keil\STM32L5xx_DFP\1.3.0\Drivers\STM32L5xx_HAL_Driver\Src\stm32l5xx_hal_i2c.c:539:7
	cmp	r2, #1
	.loc	7 528 3                         @ c:/Keil_v5\ARM\PACK\Keil\STM32L5xx_DFP\1.3.0\Drivers\STM32L5xx_HAL_Driver\Src\stm32l5xx_hal_i2c.c:528:3
	bic	r1, r1, #1
	str	r1, [r0]
	.loc	7 532 47                        @ c:/Keil_v5\ARM\PACK\Keil\STM32L5xx_DFP\1.3.0\Drivers\STM32L5xx_HAL_Driver\Src\stm32l5xx_hal_i2c.c:532:47
	bic	r1, r3, #251658240
	.loc	7 532 27 is_stmt 0              @ c:/Keil_v5\ARM\PACK\Keil\STM32L5xx_DFP\1.3.0\Drivers\STM32L5xx_HAL_Driver\Src\stm32l5xx_hal_i2c.c:532:27
	str	r1, [r0, #16]
	.loc	7 536 24 is_stmt 1              @ c:/Keil_v5\ARM\PACK\Keil\STM32L5xx_DFP\1.3.0\Drivers\STM32L5xx_HAL_Driver\Src\stm32l5xx_hal_i2c.c:536:24
	ldr	r1, [r0, #8]
	bic	r1, r1, #32768
	str	r1, [r0, #8]
	.loc	7 539 7                         @ c:/Keil_v5\ARM\PACK\Keil\STM32L5xx_DFP\1.3.0\Drivers\STM32L5xx_HAL_Driver\Src\stm32l5xx_hal_i2c.c:539:7
	bne	.LBB0_5
.Ltmp9:
@ %bb.4:
	@DEBUG_VALUE: HAL_I2C_Init:hi2c <- $r4
	.loc	7 541 44                        @ c:/Keil_v5\ARM\PACK\Keil\STM32L5xx_DFP\1.3.0\Drivers\STM32L5xx_HAL_Driver\Src\stm32l5xx_hal_i2c.c:541:44
	orr	r1, r12, #32768
	.loc	7 541 26 is_stmt 0              @ c:/Keil_v5\ARM\PACK\Keil\STM32L5xx_DFP\1.3.0\Drivers\STM32L5xx_HAL_Driver\Src\stm32l5xx_hal_i2c.c:541:26
	str	r1, [r0, #8]
	b	.LBB0_6
.Ltmp10:
	.p2align	2
.LBB0_5:
	@DEBUG_VALUE: HAL_I2C_Init:hi2c <- $r4
	.loc	7 545 63 is_stmt 1              @ c:/Keil_v5\ARM\PACK\Keil\STM32L5xx_DFP\1.3.0\Drivers\STM32L5xx_HAL_Driver\Src\stm32l5xx_hal_i2c.c:545:63
	orr	r1, r12, #33792
.Ltmp11:
	.loc	7 550 7                         @ c:/Keil_v5\ARM\PACK\Keil\STM32L5xx_DFP\1.3.0\Drivers\STM32L5xx_HAL_Driver\Src\stm32l5xx_hal_i2c.c:550:7
	cmp	r2, #2
.Ltmp12:
	.loc	7 545 26                        @ c:/Keil_v5\ARM\PACK\Keil\STM32L5xx_DFP\1.3.0\Drivers\STM32L5xx_HAL_Driver\Src\stm32l5xx_hal_i2c.c:545:26
	str	r1, [r0, #8]
	itt	eq
	moveq.w	r1, #2048
.Ltmp13:
	.loc	7 552 25                        @ c:/Keil_v5\ARM\PACK\Keil\STM32L5xx_DFP\1.3.0\Drivers\STM32L5xx_HAL_Driver\Src\stm32l5xx_hal_i2c.c:552:25
	streq	r1, [r0, #4]
.Ltmp14:
.LBB0_6:
	@DEBUG_VALUE: HAL_I2C_Init:hi2c <- $r4
	.loc	7 555 23                        @ c:/Keil_v5\ARM\PACK\Keil\STM32L5xx_DFP\1.3.0\Drivers\STM32L5xx_HAL_Driver\Src\stm32l5xx_hal_i2c.c:555:23
	ldr	r1, [r0, #4]
	.loc	7 562 38                        @ c:/Keil_v5\ARM\PACK\Keil\STM32L5xx_DFP\1.3.0\Drivers\STM32L5xx_HAL_Driver\Src\stm32l5xx_hal_i2c.c:562:38
	add.w	r3, r4, #16
	.loc	7 555 23                        @ c:/Keil_v5\ARM\PACK\Keil\STM32L5xx_DFP\1.3.0\Drivers\STM32L5xx_HAL_Driver\Src\stm32l5xx_hal_i2c.c:555:23
	orr	r1, r1, #33554432
	orr	r1, r1, #32768
	str	r1, [r0, #4]
	.loc	7 559 24                        @ c:/Keil_v5\ARM\PACK\Keil\STM32L5xx_DFP\1.3.0\Drivers\STM32L5xx_HAL_Driver\Src\stm32l5xx_hal_i2c.c:559:24
	ldr	r1, [r0, #12]
	bic	r1, r1, #32768
	str	r1, [r0, #12]
	.loc	7 562 38                        @ c:/Keil_v5\ARM\PACK\Keil\STM32L5xx_DFP\1.3.0\Drivers\STM32L5xx_HAL_Driver\Src\stm32l5xx_hal_i2c.c:562:38
	ldm	r3, {r1, r2, r3}
	.loc	7 562 54 is_stmt 0              @ c:/Keil_v5\ARM\PACK\Keil\STM32L5xx_DFP\1.3.0\Drivers\STM32L5xx_HAL_Driver\Src\stm32l5xx_hal_i2c.c:562:54
	orrs	r1, r2
	.loc	7 562 79                        @ c:/Keil_v5\ARM\PACK\Keil\STM32L5xx_DFP\1.3.0\Drivers\STM32L5xx_HAL_Driver\Src\stm32l5xx_hal_i2c.c:562:79
	orr.w	r1, r1, r3, lsl #8
	.loc	7 566 37 is_stmt 1              @ c:/Keil_v5\ARM\PACK\Keil\STM32L5xx_DFP\1.3.0\Drivers\STM32L5xx_HAL_Driver\Src\stm32l5xx_hal_i2c.c:566:37
	ldr	r2, [r4, #28]
	.loc	7 562 24                        @ c:/Keil_v5\ARM\PACK\Keil\STM32L5xx_DFP\1.3.0\Drivers\STM32L5xx_HAL_Driver\Src\stm32l5xx_hal_i2c.c:562:24
	str	r1, [r0, #12]
	.loc	7 566 66                        @ c:/Keil_v5\ARM\PACK\Keil\STM32L5xx_DFP\1.3.0\Drivers\STM32L5xx_HAL_Driver\Src\stm32l5xx_hal_i2c.c:566:66
	ldr	r1, [r4, #32]
	.loc	7 566 53 is_stmt 0              @ c:/Keil_v5\ARM\PACK\Keil\STM32L5xx_DFP\1.3.0\Drivers\STM32L5xx_HAL_Driver\Src\stm32l5xx_hal_i2c.c:566:53
	orrs	r1, r2
	.loc	7 566 23                        @ c:/Keil_v5\ARM\PACK\Keil\STM32L5xx_DFP\1.3.0\Drivers\STM32L5xx_HAL_Driver\Src\stm32l5xx_hal_i2c.c:566:23
	str	r1, [r0]
	.loc	7 569 3 is_stmt 1               @ c:/Keil_v5\ARM\PACK\Keil\STM32L5xx_DFP\1.3.0\Drivers\STM32L5xx_HAL_Driver\Src\stm32l5xx_hal_i2c.c:569:3
	ldr	r1, [r0]
	orr	r1, r1, #1
	str	r1, [r0]
	movs	r0, #0
	movs	r1, #32
	.loc	7 571 19                        @ c:/Keil_v5\ARM\PACK\Keil\STM32L5xx_DFP\1.3.0\Drivers\STM32L5xx_HAL_Driver\Src\stm32l5xx_hal_i2c.c:571:19
	str	r0, [r4, #68]
	.loc	7 572 15                        @ c:/Keil_v5\ARM\PACK\Keil\STM32L5xx_DFP\1.3.0\Drivers\STM32L5xx_HAL_Driver\Src\stm32l5xx_hal_i2c.c:572:15
	strb.w	r1, [r4, #65]
	.loc	7 573 23                        @ c:/Keil_v5\ARM\PACK\Keil\STM32L5xx_DFP\1.3.0\Drivers\STM32L5xx_HAL_Driver\Src\stm32l5xx_hal_i2c.c:573:23
	str	r0, [r4, #48]
	.loc	7 574 14                        @ c:/Keil_v5\ARM\PACK\Keil\STM32L5xx_DFP\1.3.0\Drivers\STM32L5xx_HAL_Driver\Src\stm32l5xx_hal_i2c.c:574:14
	strb.w	r0, [r4, #66]
	pop	{r4, pc}
.Ltmp15:
.Lfunc_end0:
	.size	HAL_I2C_Init, .Lfunc_end0-HAL_I2C_Init
	.cfi_endproc
	.cantunwind
	.fnend
                                        @ -- End function
	.section	.text.HAL_I2C_MspInit,"ax",%progbits
	.hidden	HAL_I2C_MspInit                 @ -- Begin function HAL_I2C_MspInit
	.weak	HAL_I2C_MspInit
	.p2align	2
	.type	HAL_I2C_MspInit,%function
	.code	16                              @ @HAL_I2C_MspInit
	.thumb_func
HAL_I2C_MspInit:
.Lfunc_begin1:
	.loc	7 632 0                         @ c:/Keil_v5\ARM\PACK\Keil\STM32L5xx_DFP\1.3.0\Drivers\STM32L5xx_HAL_Driver\Src\stm32l5xx_hal_i2c.c:632:0
	.fnstart
	.cfi_startproc
@ %bb.0:
	@DEBUG_VALUE: HAL_I2C_MspInit:hi2c <- $r0
	.loc	7 639 1 prologue_end            @ c:/Keil_v5\ARM\PACK\Keil\STM32L5xx_DFP\1.3.0\Drivers\STM32L5xx_HAL_Driver\Src\stm32l5xx_hal_i2c.c:639:1
	bx	lr
.Ltmp16:
.Lfunc_end1:
	.size	HAL_I2C_MspInit, .Lfunc_end1-HAL_I2C_MspInit
	.cfi_endproc
	.cantunwind
	.fnend
                                        @ -- End function
	.section	.text.HAL_I2C_DeInit,"ax",%progbits
	.hidden	HAL_I2C_DeInit                  @ -- Begin function HAL_I2C_DeInit
	.globl	HAL_I2C_DeInit
	.p2align	2
	.type	HAL_I2C_DeInit,%function
	.code	16                              @ @HAL_I2C_DeInit
	.thumb_func
HAL_I2C_DeInit:
.Lfunc_begin2:
	.loc	7 586 0                         @ c:/Keil_v5\ARM\PACK\Keil\STM32L5xx_DFP\1.3.0\Drivers\STM32L5xx_HAL_Driver\Src\stm32l5xx_hal_i2c.c:586:0
	.fnstart
	.cfi_startproc
@ %bb.0:
	@DEBUG_VALUE: HAL_I2C_DeInit:hi2c <- $r0
	@DEBUG_VALUE: HAL_I2C_DeInit:hi2c <- $r0
	.loc	7 588 7 prologue_end            @ c:/Keil_v5\ARM\PACK\Keil\STM32L5xx_DFP\1.3.0\Drivers\STM32L5xx_HAL_Driver\Src\stm32l5xx_hal_i2c.c:588:7
	cmp	r0, #0
	itt	eq
	moveq	r0, #1
.Ltmp17:
	@DEBUG_VALUE: HAL_I2C_DeInit:hi2c <- [DW_OP_LLVM_entry_value 1] $r0
	.loc	7 623 1                         @ c:/Keil_v5\ARM\PACK\Keil\STM32L5xx_DFP\1.3.0\Drivers\STM32L5xx_HAL_Driver\Src\stm32l5xx_hal_i2c.c:623:1
	bxeq	lr
.Ltmp18:
.LBB2_1:
	@DEBUG_VALUE: HAL_I2C_DeInit:hi2c <- [DW_OP_LLVM_entry_value 1] $r0
	.save	{r4, lr}
	push	{r4, lr}
	.cfi_def_cfa_offset 8
	.cfi_offset lr, -4
	.cfi_offset r4, -8
	mov	r4, r0
.Ltmp19:
	@DEBUG_VALUE: HAL_I2C_DeInit:hi2c <- $r4
	.loc	7 0 1 is_stmt 0                 @ c:/Keil_v5\ARM\PACK\Keil\STM32L5xx_DFP\1.3.0\Drivers\STM32L5xx_HAL_Driver\Src\stm32l5xx_hal_i2c.c:0:1
	movs	r0, #36
	.loc	7 596 15 is_stmt 1              @ c:/Keil_v5\ARM\PACK\Keil\STM32L5xx_DFP\1.3.0\Drivers\STM32L5xx_HAL_Driver\Src\stm32l5xx_hal_i2c.c:596:15
	strb.w	r0, [r4, #65]
	.loc	7 599 3                         @ c:/Keil_v5\ARM\PACK\Keil\STM32L5xx_DFP\1.3.0\Drivers\STM32L5xx_HAL_Driver\Src\stm32l5xx_hal_i2c.c:599:3
	ldr	r0, [r4]
	ldr	r1, [r0]
	bic	r1, r1, #1
	str	r1, [r0]
	.loc	7 611 3                         @ c:/Keil_v5\ARM\PACK\Keil\STM32L5xx_DFP\1.3.0\Drivers\STM32L5xx_HAL_Driver\Src\stm32l5xx_hal_i2c.c:611:3
	mov	r0, r4
	bl	HAL_I2C_MspDeInit
	movs	r0, #0
	.loc	7 614 19                        @ c:/Keil_v5\ARM\PACK\Keil\STM32L5xx_DFP\1.3.0\Drivers\STM32L5xx_HAL_Driver\Src\stm32l5xx_hal_i2c.c:614:19
	str	r0, [r4, #68]
	.loc	7 615 15                        @ c:/Keil_v5\ARM\PACK\Keil\STM32L5xx_DFP\1.3.0\Drivers\STM32L5xx_HAL_Driver\Src\stm32l5xx_hal_i2c.c:615:15
	strb.w	r0, [r4, #65]
	.loc	7 616 23                        @ c:/Keil_v5\ARM\PACK\Keil\STM32L5xx_DFP\1.3.0\Drivers\STM32L5xx_HAL_Driver\Src\stm32l5xx_hal_i2c.c:616:23
	str	r0, [r4, #48]
	.loc	7 617 14                        @ c:/Keil_v5\ARM\PACK\Keil\STM32L5xx_DFP\1.3.0\Drivers\STM32L5xx_HAL_Driver\Src\stm32l5xx_hal_i2c.c:617:14
	strb.w	r0, [r4, #66]
.Ltmp20:
	.loc	7 620 3                         @ c:/Keil_v5\ARM\PACK\Keil\STM32L5xx_DFP\1.3.0\Drivers\STM32L5xx_HAL_Driver\Src\stm32l5xx_hal_i2c.c:620:3
	strb.w	r0, [r4, #64]
	pop	{r4, pc}
.Ltmp21:
.Lfunc_end2:
	.size	HAL_I2C_DeInit, .Lfunc_end2-HAL_I2C_DeInit
	.cfi_endproc
	.cantunwind
	.fnend
                                        @ -- End function
	.section	.text.HAL_I2C_MspDeInit,"ax",%progbits
	.hidden	HAL_I2C_MspDeInit               @ -- Begin function HAL_I2C_MspDeInit
	.weak	HAL_I2C_MspDeInit
	.p2align	2
	.type	HAL_I2C_MspDeInit,%function
	.code	16                              @ @HAL_I2C_MspDeInit
	.thumb_func
HAL_I2C_MspDeInit:
.Lfunc_begin3:
	.loc	7 648 0                         @ c:/Keil_v5\ARM\PACK\Keil\STM32L5xx_DFP\1.3.0\Drivers\STM32L5xx_HAL_Driver\Src\stm32l5xx_hal_i2c.c:648:0
	.fnstart
	.cfi_startproc
@ %bb.0:
	@DEBUG_VALUE: HAL_I2C_MspDeInit:hi2c <- $r0
	.loc	7 655 1 prologue_end            @ c:/Keil_v5\ARM\PACK\Keil\STM32L5xx_DFP\1.3.0\Drivers\STM32L5xx_HAL_Driver\Src\stm32l5xx_hal_i2c.c:655:1
	bx	lr
.Ltmp22:
.Lfunc_end3:
	.size	HAL_I2C_MspDeInit, .Lfunc_end3-HAL_I2C_MspDeInit
	.cfi_endproc
	.cantunwind
	.fnend
                                        @ -- End function
	.section	.text.HAL_I2C_Master_Transmit,"ax",%progbits
	.hidden	HAL_I2C_Master_Transmit         @ -- Begin function HAL_I2C_Master_Transmit
	.globl	HAL_I2C_Master_Transmit
	.p2align	2
	.type	HAL_I2C_Master_Transmit,%function
	.code	16                              @ @HAL_I2C_Master_Transmit
	.thumb_func
HAL_I2C_Master_Transmit:
.Lfunc_begin4:
	.loc	7 1070 0                        @ c:/Keil_v5\ARM\PACK\Keil\STM32L5xx_DFP\1.3.0\Drivers\STM32L5xx_HAL_Driver\Src\stm32l5xx_hal_i2c.c:1070:0
	.fnstart
	.cfi_startproc
@ %bb.0:
	@DEBUG_VALUE: HAL_I2C_Master_Transmit:hi2c <- $r0
	@DEBUG_VALUE: HAL_I2C_Master_Transmit:DevAddress <- $r1
	@DEBUG_VALUE: HAL_I2C_Master_Transmit:pData <- $r2
	@DEBUG_VALUE: HAL_I2C_Master_Transmit:Size <- $r3
	.save	{r4, r5, r6, r7, r8, r9, r10, lr}
	push.w	{r4, r5, r6, r7, r8, r9, r10, lr}
	.cfi_def_cfa_offset 32
	.cfi_offset lr, -4
	.cfi_offset r10, -8
	.cfi_offset r9, -12
	.cfi_offset r8, -16
	.cfi_offset r7, -20
	.cfi_offset r6, -24
	.cfi_offset r5, -28
	.cfi_offset r4, -32
	mov	r4, r0
.Ltmp23:
	@DEBUG_VALUE: HAL_I2C_Master_Transmit:Timeout <- [DW_OP_plus_uconst 32] [$sp+0]
	@DEBUG_VALUE: HAL_I2C_Master_Transmit:Size <- $r3
	@DEBUG_VALUE: HAL_I2C_Master_Transmit:DevAddress <- undef
	@DEBUG_VALUE: HAL_I2C_Master_Transmit:hi2c <- $r4
	.loc	7 1073 13 prologue_end          @ c:/Keil_v5\ARM\PACK\Keil\STM32L5xx_DFP\1.3.0\Drivers\STM32L5xx_HAL_Driver\Src\stm32l5xx_hal_i2c.c:1073:13
	ldrb.w	r0, [r0, #65]
.Ltmp24:
	@DEBUG_VALUE: HAL_I2C_Master_Transmit:pData <- $r2
	.loc	7 1073 7 is_stmt 0              @ c:/Keil_v5\ARM\PACK\Keil\STM32L5xx_DFP\1.3.0\Drivers\STM32L5xx_HAL_Driver\Src\stm32l5xx_hal_i2c.c:1073:7
	cmp	r0, #32
.Ltmp25:
	@DEBUG_VALUE: HAL_I2C_Master_Transmit:DevAddress <- $r1
	bne	.LBB4_2
.Ltmp26:
@ %bb.1:
	@DEBUG_VALUE: HAL_I2C_Master_Transmit:hi2c <- $r4
	@DEBUG_VALUE: HAL_I2C_Master_Transmit:Size <- $r3
	@DEBUG_VALUE: HAL_I2C_Master_Transmit:pData <- $r2
	@DEBUG_VALUE: HAL_I2C_Master_Transmit:DevAddress <- $r1
	@DEBUG_VALUE: HAL_I2C_Master_Transmit:Timeout <- [DW_OP_plus_uconst 32] [$sp+0]
	@DEBUG_VALUE: HAL_I2C_Master_Transmit:Size <- $r3
	@DEBUG_VALUE: HAL_I2C_Master_Transmit:pData <- $r2
	@DEBUG_VALUE: HAL_I2C_Master_Transmit:DevAddress <- $r1
	@DEBUG_VALUE: HAL_I2C_Master_Transmit:Size <- $r3
	.loc	7 1076 5 is_stmt 1              @ c:/Keil_v5\ARM\PACK\Keil\STM32L5xx_DFP\1.3.0\Drivers\STM32L5xx_HAL_Driver\Src\stm32l5xx_hal_i2c.c:1076:5
	ldrb.w	r0, [r4, #64]
.Ltmp27:
	.loc	7 1076 5 is_stmt 0              @ c:/Keil_v5\ARM\PACK\Keil\STM32L5xx_DFP\1.3.0\Drivers\STM32L5xx_HAL_Driver\Src\stm32l5xx_hal_i2c.c:1076:5
	cmp	r0, #1
	bne	.LBB4_3
.Ltmp28:
.LBB4_2:
	@DEBUG_VALUE: HAL_I2C_Master_Transmit:hi2c <- $r4
	@DEBUG_VALUE: HAL_I2C_Master_Transmit:Size <- $r3
	@DEBUG_VALUE: HAL_I2C_Master_Transmit:pData <- $r2
	@DEBUG_VALUE: HAL_I2C_Master_Transmit:DevAddress <- $r1
	@DEBUG_VALUE: HAL_I2C_Master_Transmit:Timeout <- [DW_OP_plus_uconst 32] [$sp+0]
	.loc	7 0 5                           @ c:/Keil_v5\ARM\PACK\Keil\STM32L5xx_DFP\1.3.0\Drivers\STM32L5xx_HAL_Driver\Src\stm32l5xx_hal_i2c.c:0:5
	movs	r0, #2
	.loc	7 1170 1 is_stmt 1              @ c:/Keil_v5\ARM\PACK\Keil\STM32L5xx_DFP\1.3.0\Drivers\STM32L5xx_HAL_Driver\Src\stm32l5xx_hal_i2c.c:1170:1
	pop.w	{r4, r5, r6, r7, r8, r9, r10, pc}
.Ltmp29:
	.p2align	2
.LBB4_3:
	@DEBUG_VALUE: HAL_I2C_Master_Transmit:hi2c <- $r4
	@DEBUG_VALUE: HAL_I2C_Master_Transmit:Size <- $r3
	@DEBUG_VALUE: HAL_I2C_Master_Transmit:pData <- $r2
	@DEBUG_VALUE: HAL_I2C_Master_Transmit:DevAddress <- $r1
	@DEBUG_VALUE: HAL_I2C_Master_Transmit:Timeout <- [DW_OP_plus_uconst 32] [$sp+0]
	.loc	7 0 1 is_stmt 0                 @ c:/Keil_v5\ARM\PACK\Keil\STM32L5xx_DFP\1.3.0\Drivers\STM32L5xx_HAL_Driver\Src\stm32l5xx_hal_i2c.c:0:1
	movs	r0, #1
	mov	r6, r3
.Ltmp30:
	@DEBUG_VALUE: HAL_I2C_Master_Transmit:Size <- $r6
	@DEBUG_VALUE: HAL_I2C_Master_Transmit:Size <- $r6
	@DEBUG_VALUE: HAL_I2C_Master_Transmit:Size <- $r6
	mov	r7, r2
.Ltmp31:
	@DEBUG_VALUE: HAL_I2C_Master_Transmit:pData <- $r7
	@DEBUG_VALUE: HAL_I2C_Master_Transmit:pData <- $r7
	mov	r8, r1
.Ltmp32:
	@DEBUG_VALUE: HAL_I2C_Master_Transmit:DevAddress <- $r8
	@DEBUG_VALUE: HAL_I2C_Master_Transmit:DevAddress <- $r8
	@DEBUG_VALUE: HAL_I2C_Master_Transmit:Size <- $r6
	.loc	7 1076 5 is_stmt 1              @ c:/Keil_v5\ARM\PACK\Keil\STM32L5xx_DFP\1.3.0\Drivers\STM32L5xx_HAL_Driver\Src\stm32l5xx_hal_i2c.c:1076:5
	strb.w	r0, [r4, #64]
.Ltmp33:
	.loc	7 1079 17                       @ c:/Keil_v5\ARM\PACK\Keil\STM32L5xx_DFP\1.3.0\Drivers\STM32L5xx_HAL_Driver\Src\stm32l5xx_hal_i2c.c:1079:17
	bl	HAL_GetTick
.Ltmp34:
	.loc	7 6223 10                       @ c:/Keil_v5\ARM\PACK\Keil\STM32L5xx_DFP\1.3.0\Drivers\STM32L5xx_HAL_Driver\Src\stm32l5xx_hal_i2c.c:6223:10
	ldr	r1, [r4]
.Ltmp35:
	.loc	7 1079 17                       @ c:/Keil_v5\ARM\PACK\Keil\STM32L5xx_DFP\1.3.0\Drivers\STM32L5xx_HAL_Driver\Src\stm32l5xx_hal_i2c.c:1079:17
	mov	r5, r0
.Ltmp36:
	@DEBUG_VALUE: I2C_WaitOnFlagUntilTimeout:Timeout <- 25
	@DEBUG_VALUE: I2C_WaitOnFlagUntilTimeout:Status <- 1
	@DEBUG_VALUE: I2C_WaitOnFlagUntilTimeout:Flag <- 32768
	@DEBUG_VALUE: I2C_WaitOnFlagUntilTimeout:hi2c <- $r4
	@DEBUG_VALUE: I2C_WaitOnFlagUntilTimeout:Tickstart <- $r5
	@DEBUG_VALUE: HAL_I2C_Master_Transmit:tickstart <- $r5
	.loc	7 6223 10                       @ c:/Keil_v5\ARM\PACK\Keil\STM32L5xx_DFP\1.3.0\Drivers\STM32L5xx_HAL_Driver\Src\stm32l5xx_hal_i2c.c:6223:10
	ldr	r2, [r1, #24]
	.loc	7 6223 3 is_stmt 0              @ c:/Keil_v5\ARM\PACK\Keil\STM32L5xx_DFP\1.3.0\Drivers\STM32L5xx_HAL_Driver\Src\stm32l5xx_hal_i2c.c:6223:3
	lsls	r2, r2, #16
	bpl	.LBB4_6
.Ltmp37:
	.p2align	2
.LBB4_4:                                @ =>This Inner Loop Header: Depth=1
	@DEBUG_VALUE: HAL_I2C_Master_Transmit:DevAddress <- $r8
	@DEBUG_VALUE: HAL_I2C_Master_Transmit:pData <- $r7
	@DEBUG_VALUE: HAL_I2C_Master_Transmit:Size <- $r6
	@DEBUG_VALUE: HAL_I2C_Master_Transmit:tickstart <- $r5
	@DEBUG_VALUE: I2C_WaitOnFlagUntilTimeout:Tickstart <- $r5
	@DEBUG_VALUE: I2C_WaitOnFlagUntilTimeout:hi2c <- $r4
	@DEBUG_VALUE: HAL_I2C_Master_Transmit:hi2c <- $r4
	@DEBUG_VALUE: HAL_I2C_Master_Transmit:Timeout <- [DW_OP_plus_uconst 32] [$sp+0]
	@DEBUG_VALUE: I2C_WaitOnFlagUntilTimeout:Flag <- 32768
	@DEBUG_VALUE: I2C_WaitOnFlagUntilTimeout:Status <- 1
	@DEBUG_VALUE: I2C_WaitOnFlagUntilTimeout:Timeout <- 25
	.loc	7 6228 13 is_stmt 1             @ c:/Keil_v5\ARM\PACK\Keil\STM32L5xx_DFP\1.3.0\Drivers\STM32L5xx_HAL_Driver\Src\stm32l5xx_hal_i2c.c:6228:13
	bl	HAL_GetTick
	.loc	7 6228 27 is_stmt 0             @ c:/Keil_v5\ARM\PACK\Keil\STM32L5xx_DFP\1.3.0\Drivers\STM32L5xx_HAL_Driver\Src\stm32l5xx_hal_i2c.c:6228:27
	subs	r0, r0, r5
	.loc	7 6228 51                       @ c:/Keil_v5\ARM\PACK\Keil\STM32L5xx_DFP\1.3.0\Drivers\STM32L5xx_HAL_Driver\Src\stm32l5xx_hal_i2c.c:6228:51
	cmp	r0, #25
	bhi.w	.LBB4_41
.Ltmp38:
@ %bb.5:                                @   in Loop: Header=BB4_4 Depth=1
	@DEBUG_VALUE: HAL_I2C_Master_Transmit:DevAddress <- $r8
	@DEBUG_VALUE: HAL_I2C_Master_Transmit:pData <- $r7
	@DEBUG_VALUE: HAL_I2C_Master_Transmit:Size <- $r6
	@DEBUG_VALUE: HAL_I2C_Master_Transmit:tickstart <- $r5
	@DEBUG_VALUE: I2C_WaitOnFlagUntilTimeout:Tickstart <- $r5
	@DEBUG_VALUE: I2C_WaitOnFlagUntilTimeout:hi2c <- $r4
	@DEBUG_VALUE: HAL_I2C_Master_Transmit:hi2c <- $r4
	@DEBUG_VALUE: HAL_I2C_Master_Transmit:Timeout <- [DW_OP_plus_uconst 32] [$sp+0]
	@DEBUG_VALUE: I2C_WaitOnFlagUntilTimeout:Flag <- 32768
	@DEBUG_VALUE: I2C_WaitOnFlagUntilTimeout:Status <- 1
	@DEBUG_VALUE: I2C_WaitOnFlagUntilTimeout:Timeout <- 25
	.loc	7 6223 10 is_stmt 1             @ c:/Keil_v5\ARM\PACK\Keil\STM32L5xx_DFP\1.3.0\Drivers\STM32L5xx_HAL_Driver\Src\stm32l5xx_hal_i2c.c:6223:10
	ldr	r1, [r4]
	ldr	r0, [r1, #24]
	.loc	7 6223 3 is_stmt 0              @ c:/Keil_v5\ARM\PACK\Keil\STM32L5xx_DFP\1.3.0\Drivers\STM32L5xx_HAL_Driver\Src\stm32l5xx_hal_i2c.c:6223:3
	lsls	r0, r0, #16
	bmi	.LBB4_4
.Ltmp39:
.LBB4_6:
	@DEBUG_VALUE: HAL_I2C_Master_Transmit:DevAddress <- $r8
	@DEBUG_VALUE: HAL_I2C_Master_Transmit:pData <- $r7
	@DEBUG_VALUE: HAL_I2C_Master_Transmit:Size <- $r6
	@DEBUG_VALUE: HAL_I2C_Master_Transmit:tickstart <- $r5
	@DEBUG_VALUE: HAL_I2C_Master_Transmit:hi2c <- $r4
	@DEBUG_VALUE: HAL_I2C_Master_Transmit:Timeout <- [DW_OP_plus_uconst 32] [$sp+0]
	@DEBUG_VALUE: HAL_I2C_Master_Transmit:Size <- $r6
	.loc	7 0 3                           @ c:/Keil_v5\ARM\PACK\Keil\STM32L5xx_DFP\1.3.0\Drivers\STM32L5xx_HAL_Driver\Src\stm32l5xx_hal_i2c.c:0:3
	movs	r0, #33
	.loc	7 1086 21 is_stmt 1             @ c:/Keil_v5\ARM\PACK\Keil\STM32L5xx_DFP\1.3.0\Drivers\STM32L5xx_HAL_Driver\Src\stm32l5xx_hal_i2c.c:1086:21
	strb.w	r0, [r4, #65]
	movs	r0, #16
	.loc	7 1087 21                       @ c:/Keil_v5\ARM\PACK\Keil\STM32L5xx_DFP\1.3.0\Drivers\STM32L5xx_HAL_Driver\Src\stm32l5xx_hal_i2c.c:1087:21
	strb.w	r0, [r4, #66]
	movs	r0, #0
	.loc	7 1088 21                       @ c:/Keil_v5\ARM\PACK\Keil\STM32L5xx_DFP\1.3.0\Drivers\STM32L5xx_HAL_Driver\Src\stm32l5xx_hal_i2c.c:1088:21
	str	r0, [r4, #68]
	.loc	7 1091 21                       @ c:/Keil_v5\ARM\PACK\Keil\STM32L5xx_DFP\1.3.0\Drivers\STM32L5xx_HAL_Driver\Src\stm32l5xx_hal_i2c.c:1091:21
	str	r7, [r4, #36]
	.loc	7 1092 21                       @ c:/Keil_v5\ARM\PACK\Keil\STM32L5xx_DFP\1.3.0\Drivers\STM32L5xx_HAL_Driver\Src\stm32l5xx_hal_i2c.c:1092:21
	strh	r6, [r4, #42]
	.loc	7 1093 21                       @ c:/Keil_v5\ARM\PACK\Keil\STM32L5xx_DFP\1.3.0\Drivers\STM32L5xx_HAL_Driver\Src\stm32l5xx_hal_i2c.c:1093:21
	str	r0, [r4, #52]
.Ltmp40:
	.loc	7 1097 15                       @ c:/Keil_v5\ARM\PACK\Keil\STM32L5xx_DFP\1.3.0\Drivers\STM32L5xx_HAL_Driver\Src\stm32l5xx_hal_i2c.c:1097:15
	ldrh	r0, [r4, #42]
.Ltmp41:
	.loc	7 1097 9 is_stmt 0              @ c:/Keil_v5\ARM\PACK\Keil\STM32L5xx_DFP\1.3.0\Drivers\STM32L5xx_HAL_Driver\Src\stm32l5xx_hal_i2c.c:1097:9
	cmp.w	r0, #256
	blo	.LBB4_8
.Ltmp42:
@ %bb.7:
	@DEBUG_VALUE: HAL_I2C_Master_Transmit:DevAddress <- $r8
	@DEBUG_VALUE: HAL_I2C_Master_Transmit:pData <- $r7
	@DEBUG_VALUE: HAL_I2C_Master_Transmit:Size <- $r6
	@DEBUG_VALUE: HAL_I2C_Master_Transmit:tickstart <- $r5
	@DEBUG_VALUE: HAL_I2C_Master_Transmit:hi2c <- $r4
	@DEBUG_VALUE: HAL_I2C_Master_Transmit:Timeout <- [DW_OP_plus_uconst 32] [$sp+0]
	.loc	7 6462 3 is_stmt 1              @ c:/Keil_v5\ARM\PACK\Keil\STM32L5xx_DFP\1.3.0\Drivers\STM32L5xx_HAL_Driver\Src\stm32l5xx_hal_i2c.c:6462:3
	mov	r0, r1
	ldr	r2, [r0, #4]!
	movw	r3, #38912
	movt	r3, #31744
	ands	r2, r3
	mov	r3, r8
	bfc	r3, #10, #22
	movw	r7, #8192
.Ltmp43:
	@DEBUG_VALUE: HAL_I2C_Master_Transmit:pData <- [DW_OP_LLVM_entry_value 1] $r2
	add	r3, r2
	movt	r7, #33279
.Ltmp44:
	@DEBUG_VALUE: I2C_TransferConfig:Request <- -2147475456
	@DEBUG_VALUE: I2C_TransferConfig:Mode <- 16777216
	@DEBUG_VALUE: I2C_TransferConfig:Size <- -1
	@DEBUG_VALUE: I2C_TransferConfig:DevAddress <- $r8
	@DEBUG_VALUE: I2C_TransferConfig:hi2c <- undef
	.loc	7 0 3 is_stmt 0                 @ c:/Keil_v5\ARM\PACK\Keil\STM32L5xx_DFP\1.3.0\Drivers\STM32L5xx_HAL_Driver\Src\stm32l5xx_hal_i2c.c:0:3
	movs	r2, #255
	b	.LBB4_9
.Ltmp45:
	.p2align	2
.LBB4_8:
	@DEBUG_VALUE: HAL_I2C_Master_Transmit:DevAddress <- $r8
	@DEBUG_VALUE: HAL_I2C_Master_Transmit:pData <- $r7
	@DEBUG_VALUE: HAL_I2C_Master_Transmit:Size <- $r6
	@DEBUG_VALUE: HAL_I2C_Master_Transmit:tickstart <- $r5
	@DEBUG_VALUE: HAL_I2C_Master_Transmit:hi2c <- $r4
	@DEBUG_VALUE: HAL_I2C_Master_Transmit:Timeout <- [DW_OP_plus_uconst 32] [$sp+0]
	.loc	7 1104 30 is_stmt 1             @ c:/Keil_v5\ARM\PACK\Keil\STM32L5xx_DFP\1.3.0\Drivers\STM32L5xx_HAL_Driver\Src\stm32l5xx_hal_i2c.c:1104:30
	ldrh	r2, [r4, #42]
.Ltmp46:
	@DEBUG_VALUE: I2C_TransferConfig:Request <- -2147475456
	@DEBUG_VALUE: I2C_TransferConfig:Mode <- 33554432
	@DEBUG_VALUE: I2C_TransferConfig:DevAddress <- $r8
	@DEBUG_VALUE: I2C_TransferConfig:hi2c <- undef
	@DEBUG_VALUE: I2C_TransferConfig:Size <- [DW_OP_LLVM_convert 16 7, DW_OP_LLVM_convert 8 7, DW_OP_stack_value] $r2
	.loc	7 6462 3                        @ c:/Keil_v5\ARM\PACK\Keil\STM32L5xx_DFP\1.3.0\Drivers\STM32L5xx_HAL_Driver\Src\stm32l5xx_hal_i2c.c:6462:3
	mov	r7, r8
.Ltmp47:
	@DEBUG_VALUE: HAL_I2C_Master_Transmit:pData <- [DW_OP_LLVM_entry_value 1] $r2
	mov	r0, r1
	bfc	r7, #10, #22
	uxtb	r6, r2
.Ltmp48:
	ldr	r3, [r0, #4]!
	orr.w	r7, r7, r6, lsl #16
	movw	r6, #38912
	movt	r6, #31744
	ands	r3, r6
	add	r3, r7
	movw	r7, #8192
	movt	r7, #33279
	add.w	r7, r7, #65536
.Ltmp49:
.LBB4_9:
	@DEBUG_VALUE: HAL_I2C_Master_Transmit:DevAddress <- $r8
	@DEBUG_VALUE: HAL_I2C_Master_Transmit:tickstart <- $r5
	@DEBUG_VALUE: HAL_I2C_Master_Transmit:hi2c <- $r4
	@DEBUG_VALUE: HAL_I2C_Master_Transmit:Timeout <- [DW_OP_plus_uconst 32] [$sp+0]
	@DEBUG_VALUE: HAL_I2C_Master_Transmit:pData <- [DW_OP_LLVM_entry_value 1] $r2
	.loc	7 0 0 is_stmt 0                 @ c:/Keil_v5\ARM\PACK\Keil\STM32L5xx_DFP\1.3.0\Drivers\STM32L5xx_HAL_Driver\Src\stm32l5xx_hal_i2c.c:0:0
	orrs	r3, r7
	str	r3, [r0]
.Ltmp50:
	.loc	7 1099 22 is_stmt 1             @ c:/Keil_v5\ARM\PACK\Keil\STM32L5xx_DFP\1.3.0\Drivers\STM32L5xx_HAL_Driver\Src\stm32l5xx_hal_i2c.c:1099:22
	strh	r2, [r4, #40]
.Ltmp51:
	.loc	7 1108 18                       @ c:/Keil_v5\ARM\PACK\Keil\STM32L5xx_DFP\1.3.0\Drivers\STM32L5xx_HAL_Driver\Src\stm32l5xx_hal_i2c.c:1108:18
	ldrh	r0, [r4, #42]
	ldr	r6, [sp, #32]
	.loc	7 1108 5 is_stmt 0              @ c:/Keil_v5\ARM\PACK\Keil\STM32L5xx_DFP\1.3.0\Drivers\STM32L5xx_HAL_Driver\Src\stm32l5xx_hal_i2c.c:1108:5
	cmp	r0, #0
	beq.w	.LBB4_33
.Ltmp52:
@ %bb.10:
	@DEBUG_VALUE: HAL_I2C_Master_Transmit:DevAddress <- $r8
	@DEBUG_VALUE: HAL_I2C_Master_Transmit:tickstart <- $r5
	@DEBUG_VALUE: HAL_I2C_Master_Transmit:hi2c <- $r4
	@DEBUG_VALUE: HAL_I2C_Master_Transmit:Timeout <- [DW_OP_plus_uconst 32] [$sp+0]
	@DEBUG_VALUE: HAL_I2C_Master_Transmit:pData <- [DW_OP_LLVM_entry_value 1] $r2
	.loc	7 0 5                           @ c:/Keil_v5\ARM\PACK\Keil\STM32L5xx_DFP\1.3.0\Drivers\STM32L5xx_HAL_Driver\Src\stm32l5xx_hal_i2c.c:0:5
	bfc	r8, #10, #22
.Ltmp53:
	add.w	r9, r8, #33554432
	orr	r0, r8, #16777216
	movw	r8, #39936
	.loc	7 1108 5                        @ c:/Keil_v5\ARM\PACK\Keil\STM32L5xx_DFP\1.3.0\Drivers\STM32L5xx_HAL_Driver\Src\stm32l5xx_hal_i2c.c:1108:5
	adds	r1, r6, #1
	movt	r8, #64512
	orr	r7, r0, #16711680
	mov.w	r10, #255
	bne	.LBB4_24
	b	.LBB4_14
.Ltmp54:
	.p2align	2
.LBB4_11:                               @   in Loop: Header=BB4_14 Depth=1
	@DEBUG_VALUE: HAL_I2C_Master_Transmit:tickstart <- $r5
	@DEBUG_VALUE: HAL_I2C_Master_Transmit:hi2c <- $r4
	@DEBUG_VALUE: HAL_I2C_Master_Transmit:Timeout <- [DW_OP_plus_uconst 32] [$sp+0]
	@DEBUG_VALUE: HAL_I2C_Master_Transmit:pData <- [DW_OP_LLVM_entry_value 1] $r2
	.loc	7 1134 26 is_stmt 1             @ c:/Keil_v5\ARM\PACK\Keil\STM32L5xx_DFP\1.3.0\Drivers\STM32L5xx_HAL_Driver\Src\stm32l5xx_hal_i2c.c:1134:26
	strh.w	r10, [r4, #40]
.Ltmp55:
	@DEBUG_VALUE: I2C_TransferConfig:Request <- 0
	@DEBUG_VALUE: I2C_TransferConfig:Mode <- 16777216
	@DEBUG_VALUE: I2C_TransferConfig:Size <- -1
	@DEBUG_VALUE: I2C_TransferConfig:DevAddress <- undef
	@DEBUG_VALUE: I2C_TransferConfig:hi2c <- undef
	.loc	7 6462 3                        @ c:/Keil_v5\ARM\PACK\Keil\STM32L5xx_DFP\1.3.0\Drivers\STM32L5xx_HAL_Driver\Src\stm32l5xx_hal_i2c.c:6462:3
	mov	r0, r1
	ldr	r2, [r0, #4]!
	and.w	r2, r2, r8
	orrs	r2, r7
.Ltmp56:
.LBB4_12:                               @   in Loop: Header=BB4_14 Depth=1
	@DEBUG_VALUE: HAL_I2C_Master_Transmit:tickstart <- $r5
	@DEBUG_VALUE: HAL_I2C_Master_Transmit:hi2c <- $r4
	@DEBUG_VALUE: HAL_I2C_Master_Transmit:Timeout <- [DW_OP_plus_uconst 32] [$sp+0]
	@DEBUG_VALUE: HAL_I2C_Master_Transmit:pData <- [DW_OP_LLVM_entry_value 1] $r2
	.loc	7 0 0 is_stmt 0                 @ c:/Keil_v5\ARM\PACK\Keil\STM32L5xx_DFP\1.3.0\Drivers\STM32L5xx_HAL_Driver\Src\stm32l5xx_hal_i2c.c:0:0
	str	r2, [r0]
.Ltmp57:
.LBB4_13:                               @   in Loop: Header=BB4_14 Depth=1
	@DEBUG_VALUE: HAL_I2C_Master_Transmit:tickstart <- $r5
	@DEBUG_VALUE: HAL_I2C_Master_Transmit:hi2c <- $r4
	@DEBUG_VALUE: HAL_I2C_Master_Transmit:Timeout <- [DW_OP_plus_uconst 32] [$sp+0]
	@DEBUG_VALUE: HAL_I2C_Master_Transmit:pData <- [DW_OP_LLVM_entry_value 1] $r2
	.loc	7 1108 18 is_stmt 1             @ c:/Keil_v5\ARM\PACK\Keil\STM32L5xx_DFP\1.3.0\Drivers\STM32L5xx_HAL_Driver\Src\stm32l5xx_hal_i2c.c:1108:18
	ldrh	r0, [r4, #42]
	.loc	7 1108 5 is_stmt 0              @ c:/Keil_v5\ARM\PACK\Keil\STM32L5xx_DFP\1.3.0\Drivers\STM32L5xx_HAL_Driver\Src\stm32l5xx_hal_i2c.c:1108:5
	cmp	r0, #0
	beq	.LBB4_33
.Ltmp58:
.LBB4_14:                               @ =>This Loop Header: Depth=1
                                        @     Child Loop BB4_17 Depth 2
	@DEBUG_VALUE: HAL_I2C_Master_Transmit:tickstart <- $r5
	@DEBUG_VALUE: HAL_I2C_Master_Transmit:hi2c <- $r4
	@DEBUG_VALUE: HAL_I2C_Master_Transmit:Timeout <- [DW_OP_plus_uconst 32] [$sp+0]
	@DEBUG_VALUE: HAL_I2C_Master_Transmit:pData <- [DW_OP_LLVM_entry_value 1] $r2
	.loc	7 1111 11 is_stmt 1             @ c:/Keil_v5\ARM\PACK\Keil\STM32L5xx_DFP\1.3.0\Drivers\STM32L5xx_HAL_Driver\Src\stm32l5xx_hal_i2c.c:1111:11
	mov	r0, r4
	mov.w	r1, #-1
	mov	r2, r5
	bl	I2C_WaitOnTXISFlagUntilTimeout
.Ltmp59:
	.loc	7 1111 11 is_stmt 0             @ c:/Keil_v5\ARM\PACK\Keil\STM32L5xx_DFP\1.3.0\Drivers\STM32L5xx_HAL_Driver\Src\stm32l5xx_hal_i2c.c:1111:11
	cmp	r0, #0
	bne.w	.LBB4_44
.Ltmp60:
@ %bb.15:                               @   in Loop: Header=BB4_14 Depth=1
	@DEBUG_VALUE: HAL_I2C_Master_Transmit:tickstart <- $r5
	@DEBUG_VALUE: HAL_I2C_Master_Transmit:hi2c <- $r4
	@DEBUG_VALUE: HAL_I2C_Master_Transmit:Timeout <- [DW_OP_plus_uconst 32] [$sp+0]
	@DEBUG_VALUE: HAL_I2C_Master_Transmit:pData <- [DW_OP_LLVM_entry_value 1] $r2
	.loc	7 1116 37 is_stmt 1             @ c:/Keil_v5\ARM\PACK\Keil\STM32L5xx_DFP\1.3.0\Drivers\STM32L5xx_HAL_Driver\Src\stm32l5xx_hal_i2c.c:1116:37
	ldr	r0, [r4, #36]
	.loc	7 1116 13 is_stmt 0             @ c:/Keil_v5\ARM\PACK\Keil\STM32L5xx_DFP\1.3.0\Drivers\STM32L5xx_HAL_Driver\Src\stm32l5xx_hal_i2c.c:1116:13
	ldr	r1, [r4]
	.loc	7 1116 30                       @ c:/Keil_v5\ARM\PACK\Keil\STM32L5xx_DFP\1.3.0\Drivers\STM32L5xx_HAL_Driver\Src\stm32l5xx_hal_i2c.c:1116:30
	ldrb	r2, [r0], #1
	.loc	7 1116 28                       @ c:/Keil_v5\ARM\PACK\Keil\STM32L5xx_DFP\1.3.0\Drivers\STM32L5xx_HAL_Driver\Src\stm32l5xx_hal_i2c.c:1116:28
	str	r2, [r1, #40]
	.loc	7 1119 21 is_stmt 1             @ c:/Keil_v5\ARM\PACK\Keil\STM32L5xx_DFP\1.3.0\Drivers\STM32L5xx_HAL_Driver\Src\stm32l5xx_hal_i2c.c:1119:21
	str	r0, [r4, #36]
	.loc	7 1121 22                       @ c:/Keil_v5\ARM\PACK\Keil\STM32L5xx_DFP\1.3.0\Drivers\STM32L5xx_HAL_Driver\Src\stm32l5xx_hal_i2c.c:1121:22
	ldrh	r0, [r4, #42]
	subs	r0, #1
	strh	r0, [r4, #42]
	.loc	7 1122 21                       @ c:/Keil_v5\ARM\PACK\Keil\STM32L5xx_DFP\1.3.0\Drivers\STM32L5xx_HAL_Driver\Src\stm32l5xx_hal_i2c.c:1122:21
	ldrh	r0, [r4, #40]
	subs	r2, r0, #1
	strh	r2, [r4, #40]
.Ltmp61:
	.loc	7 1124 18                       @ c:/Keil_v5\ARM\PACK\Keil\STM32L5xx_DFP\1.3.0\Drivers\STM32L5xx_HAL_Driver\Src\stm32l5xx_hal_i2c.c:1124:18
	ldrh	r0, [r4, #42]
	.loc	7 1124 35 is_stmt 0             @ c:/Keil_v5\ARM\PACK\Keil\STM32L5xx_DFP\1.3.0\Drivers\STM32L5xx_HAL_Driver\Src\stm32l5xx_hal_i2c.c:1124:35
	lsls	r2, r2, #16
	bne	.LBB4_13
.Ltmp62:
@ %bb.16:                               @   in Loop: Header=BB4_14 Depth=1
	@DEBUG_VALUE: HAL_I2C_Master_Transmit:tickstart <- $r5
	@DEBUG_VALUE: HAL_I2C_Master_Transmit:hi2c <- $r4
	@DEBUG_VALUE: HAL_I2C_Master_Transmit:Timeout <- [DW_OP_plus_uconst 32] [$sp+0]
	@DEBUG_VALUE: HAL_I2C_Master_Transmit:pData <- [DW_OP_LLVM_entry_value 1] $r2
	cmp	r0, #0
	beq	.LBB4_13
.Ltmp63:
.LBB4_17:                               @   Parent Loop BB4_14 Depth=1
                                        @ =>  This Inner Loop Header: Depth=2
	@DEBUG_VALUE: HAL_I2C_Master_Transmit:tickstart <- $r5
	@DEBUG_VALUE: HAL_I2C_Master_Transmit:hi2c <- $r4
	@DEBUG_VALUE: HAL_I2C_Master_Transmit:Timeout <- [DW_OP_plus_uconst 32] [$sp+0]
	@DEBUG_VALUE: HAL_I2C_Master_Transmit:pData <- [DW_OP_LLVM_entry_value 1] $r2
	@DEBUG_VALUE: I2C_WaitOnFlagUntilTimeout:hi2c <- $r4
	@DEBUG_VALUE: I2C_WaitOnFlagUntilTimeout:Flag <- 128
	@DEBUG_VALUE: I2C_WaitOnFlagUntilTimeout:Status <- 0
	@DEBUG_VALUE: I2C_WaitOnFlagUntilTimeout:Timeout <- $r6
	@DEBUG_VALUE: I2C_WaitOnFlagUntilTimeout:Tickstart <- $r5
	.loc	7 6223 10 is_stmt 1             @ c:/Keil_v5\ARM\PACK\Keil\STM32L5xx_DFP\1.3.0\Drivers\STM32L5xx_HAL_Driver\Src\stm32l5xx_hal_i2c.c:6223:10
	ldr	r0, [r1, #24]
	.loc	7 6223 3 is_stmt 0              @ c:/Keil_v5\ARM\PACK\Keil\STM32L5xx_DFP\1.3.0\Drivers\STM32L5xx_HAL_Driver\Src\stm32l5xx_hal_i2c.c:6223:3
	lsls	r0, r0, #24
	.loc	7 6223 10                       @ c:/Keil_v5\ARM\PACK\Keil\STM32L5xx_DFP\1.3.0\Drivers\STM32L5xx_HAL_Driver\Src\stm32l5xx_hal_i2c.c:6223:10
	itttt	pl
	ldrpl	r0, [r1, #24]
	.loc	7 6223 3                        @ c:/Keil_v5\ARM\PACK\Keil\STM32L5xx_DFP\1.3.0\Drivers\STM32L5xx_HAL_Driver\Src\stm32l5xx_hal_i2c.c:6223:3
	lslspl.w	r0, r0, #24
	.loc	7 6223 10                       @ c:/Keil_v5\ARM\PACK\Keil\STM32L5xx_DFP\1.3.0\Drivers\STM32L5xx_HAL_Driver\Src\stm32l5xx_hal_i2c.c:6223:10
	ldrpl	r0, [r1, #24]
	.loc	7 6223 3                        @ c:/Keil_v5\ARM\PACK\Keil\STM32L5xx_DFP\1.3.0\Drivers\STM32L5xx_HAL_Driver\Src\stm32l5xx_hal_i2c.c:6223:3
	lslspl.w	r0, r0, #24
	bmi	.LBB4_19
.Ltmp64:
@ %bb.18:                               @   in Loop: Header=BB4_17 Depth=2
	@DEBUG_VALUE: I2C_WaitOnFlagUntilTimeout:Timeout <- $r6
	@DEBUG_VALUE: I2C_WaitOnFlagUntilTimeout:Tickstart <- $r5
	@DEBUG_VALUE: HAL_I2C_Master_Transmit:tickstart <- $r5
	@DEBUG_VALUE: I2C_WaitOnFlagUntilTimeout:hi2c <- $r4
	@DEBUG_VALUE: HAL_I2C_Master_Transmit:hi2c <- $r4
	@DEBUG_VALUE: HAL_I2C_Master_Transmit:Timeout <- [DW_OP_plus_uconst 32] [$sp+0]
	@DEBUG_VALUE: I2C_WaitOnFlagUntilTimeout:Status <- 0
	@DEBUG_VALUE: I2C_WaitOnFlagUntilTimeout:Flag <- 128
	@DEBUG_VALUE: HAL_I2C_Master_Transmit:pData <- [DW_OP_LLVM_entry_value 1] $r2
	.loc	7 6223 10                       @ c:/Keil_v5\ARM\PACK\Keil\STM32L5xx_DFP\1.3.0\Drivers\STM32L5xx_HAL_Driver\Src\stm32l5xx_hal_i2c.c:6223:10
	ldr	r0, [r1, #24]
	.loc	7 6223 3                        @ c:/Keil_v5\ARM\PACK\Keil\STM32L5xx_DFP\1.3.0\Drivers\STM32L5xx_HAL_Driver\Src\stm32l5xx_hal_i2c.c:6223:3
	lsls	r0, r0, #24
	bpl	.LBB4_17
.Ltmp65:
	.p2align	2
.LBB4_19:                               @   in Loop: Header=BB4_14 Depth=1
	@DEBUG_VALUE: HAL_I2C_Master_Transmit:tickstart <- $r5
	@DEBUG_VALUE: HAL_I2C_Master_Transmit:hi2c <- $r4
	@DEBUG_VALUE: HAL_I2C_Master_Transmit:Timeout <- [DW_OP_plus_uconst 32] [$sp+0]
	@DEBUG_VALUE: HAL_I2C_Master_Transmit:pData <- [DW_OP_LLVM_entry_value 1] $r2
	.loc	7 1132 19 is_stmt 1             @ c:/Keil_v5\ARM\PACK\Keil\STM32L5xx_DFP\1.3.0\Drivers\STM32L5xx_HAL_Driver\Src\stm32l5xx_hal_i2c.c:1132:19
	ldrh	r0, [r4, #42]
.Ltmp66:
	.loc	7 1132 13 is_stmt 0             @ c:/Keil_v5\ARM\PACK\Keil\STM32L5xx_DFP\1.3.0\Drivers\STM32L5xx_HAL_Driver\Src\stm32l5xx_hal_i2c.c:1132:13
	cmp	r0, #255
	bhi	.LBB4_11
.Ltmp67:
@ %bb.20:                               @   in Loop: Header=BB4_14 Depth=1
	@DEBUG_VALUE: HAL_I2C_Master_Transmit:tickstart <- $r5
	@DEBUG_VALUE: HAL_I2C_Master_Transmit:hi2c <- $r4
	@DEBUG_VALUE: HAL_I2C_Master_Transmit:Timeout <- [DW_OP_plus_uconst 32] [$sp+0]
	@DEBUG_VALUE: HAL_I2C_Master_Transmit:pData <- [DW_OP_LLVM_entry_value 1] $r2
	.loc	7 1139 34 is_stmt 1             @ c:/Keil_v5\ARM\PACK\Keil\STM32L5xx_DFP\1.3.0\Drivers\STM32L5xx_HAL_Driver\Src\stm32l5xx_hal_i2c.c:1139:34
	ldrh	r2, [r4, #42]
.Ltmp68:
	.loc	7 6462 3                        @ c:/Keil_v5\ARM\PACK\Keil\STM32L5xx_DFP\1.3.0\Drivers\STM32L5xx_HAL_Driver\Src\stm32l5xx_hal_i2c.c:6462:3
	mov	r0, r1
.Ltmp69:
	.loc	7 1139 26                       @ c:/Keil_v5\ARM\PACK\Keil\STM32L5xx_DFP\1.3.0\Drivers\STM32L5xx_HAL_Driver\Src\stm32l5xx_hal_i2c.c:1139:26
	strh	r2, [r4, #40]
.Ltmp70:
	@DEBUG_VALUE: I2C_TransferConfig:Size <- [DW_OP_LLVM_convert 16 7, DW_OP_LLVM_convert 8 7, DW_OP_stack_value] $r2
	@DEBUG_VALUE: I2C_TransferConfig:Request <- 0
	@DEBUG_VALUE: I2C_TransferConfig:Mode <- 33554432
	@DEBUG_VALUE: I2C_TransferConfig:DevAddress <- undef
	@DEBUG_VALUE: I2C_TransferConfig:hi2c <- undef
	.loc	7 6462 3                        @ c:/Keil_v5\ARM\PACK\Keil\STM32L5xx_DFP\1.3.0\Drivers\STM32L5xx_HAL_Driver\Src\stm32l5xx_hal_i2c.c:6462:3
	ldr	r3, [r0, #4]!
	uxtb	r2, r2
.Ltmp71:
	orr.w	r2, r9, r2, lsl #16
	and.w	r3, r3, r8
	orrs	r2, r3
	b	.LBB4_12
.Ltmp72:
	.p2align	2
.LBB4_21:                               @   in Loop: Header=BB4_24 Depth=1
	@DEBUG_VALUE: HAL_I2C_Master_Transmit:tickstart <- $r5
	@DEBUG_VALUE: HAL_I2C_Master_Transmit:hi2c <- $r4
	@DEBUG_VALUE: HAL_I2C_Master_Transmit:Timeout <- [DW_OP_plus_uconst 32] [$sp+0]
	@DEBUG_VALUE: HAL_I2C_Master_Transmit:pData <- [DW_OP_LLVM_entry_value 1] $r2
	.loc	7 1139 34                       @ c:/Keil_v5\ARM\PACK\Keil\STM32L5xx_DFP\1.3.0\Drivers\STM32L5xx_HAL_Driver\Src\stm32l5xx_hal_i2c.c:1139:34
	ldrh	r2, [r4, #42]
.Ltmp73:
	.loc	7 6462 3                        @ c:/Keil_v5\ARM\PACK\Keil\STM32L5xx_DFP\1.3.0\Drivers\STM32L5xx_HAL_Driver\Src\stm32l5xx_hal_i2c.c:6462:3
	mov	r0, r1
.Ltmp74:
	.loc	7 1139 26                       @ c:/Keil_v5\ARM\PACK\Keil\STM32L5xx_DFP\1.3.0\Drivers\STM32L5xx_HAL_Driver\Src\stm32l5xx_hal_i2c.c:1139:26
	strh	r2, [r4, #40]
.Ltmp75:
	@DEBUG_VALUE: I2C_TransferConfig:Size <- [DW_OP_LLVM_convert 16 7, DW_OP_LLVM_convert 8 7, DW_OP_stack_value] $r2
	@DEBUG_VALUE: I2C_TransferConfig:Request <- 0
	@DEBUG_VALUE: I2C_TransferConfig:Mode <- 33554432
	@DEBUG_VALUE: I2C_TransferConfig:DevAddress <- undef
	@DEBUG_VALUE: I2C_TransferConfig:hi2c <- undef
	.loc	7 6462 3                        @ c:/Keil_v5\ARM\PACK\Keil\STM32L5xx_DFP\1.3.0\Drivers\STM32L5xx_HAL_Driver\Src\stm32l5xx_hal_i2c.c:6462:3
	ldr	r3, [r0, #4]!
	uxtb	r2, r2
.Ltmp76:
	orr.w	r2, r9, r2, lsl #16
	and.w	r3, r3, r8
	orrs	r2, r3
.Ltmp77:
.LBB4_22:                               @   in Loop: Header=BB4_24 Depth=1
	@DEBUG_VALUE: HAL_I2C_Master_Transmit:tickstart <- $r5
	@DEBUG_VALUE: HAL_I2C_Master_Transmit:hi2c <- $r4
	@DEBUG_VALUE: HAL_I2C_Master_Transmit:Timeout <- [DW_OP_plus_uconst 32] [$sp+0]
	@DEBUG_VALUE: HAL_I2C_Master_Transmit:pData <- [DW_OP_LLVM_entry_value 1] $r2
	.loc	7 0 0 is_stmt 0                 @ c:/Keil_v5\ARM\PACK\Keil\STM32L5xx_DFP\1.3.0\Drivers\STM32L5xx_HAL_Driver\Src\stm32l5xx_hal_i2c.c:0:0
	str	r2, [r0]
.Ltmp78:
.LBB4_23:                               @   in Loop: Header=BB4_24 Depth=1
	@DEBUG_VALUE: HAL_I2C_Master_Transmit:tickstart <- $r5
	@DEBUG_VALUE: HAL_I2C_Master_Transmit:hi2c <- $r4
	@DEBUG_VALUE: HAL_I2C_Master_Transmit:Timeout <- [DW_OP_plus_uconst 32] [$sp+0]
	@DEBUG_VALUE: HAL_I2C_Master_Transmit:pData <- [DW_OP_LLVM_entry_value 1] $r2
	.loc	7 1108 18 is_stmt 1             @ c:/Keil_v5\ARM\PACK\Keil\STM32L5xx_DFP\1.3.0\Drivers\STM32L5xx_HAL_Driver\Src\stm32l5xx_hal_i2c.c:1108:18
	ldrh	r0, [r4, #42]
	.loc	7 1108 5 is_stmt 0              @ c:/Keil_v5\ARM\PACK\Keil\STM32L5xx_DFP\1.3.0\Drivers\STM32L5xx_HAL_Driver\Src\stm32l5xx_hal_i2c.c:1108:5
	cbz	r0, .LBB4_33
.Ltmp79:
.LBB4_24:                               @ =>This Loop Header: Depth=1
                                        @     Child Loop BB4_29 Depth 2
	@DEBUG_VALUE: HAL_I2C_Master_Transmit:tickstart <- $r5
	@DEBUG_VALUE: HAL_I2C_Master_Transmit:hi2c <- $r4
	@DEBUG_VALUE: HAL_I2C_Master_Transmit:Timeout <- [DW_OP_plus_uconst 32] [$sp+0]
	@DEBUG_VALUE: HAL_I2C_Master_Transmit:pData <- [DW_OP_LLVM_entry_value 1] $r2
	.loc	7 1111 11 is_stmt 1             @ c:/Keil_v5\ARM\PACK\Keil\STM32L5xx_DFP\1.3.0\Drivers\STM32L5xx_HAL_Driver\Src\stm32l5xx_hal_i2c.c:1111:11
	mov	r0, r4
	mov	r1, r6
	mov	r2, r5
	bl	I2C_WaitOnTXISFlagUntilTimeout
.Ltmp80:
	.loc	7 1111 11 is_stmt 0             @ c:/Keil_v5\ARM\PACK\Keil\STM32L5xx_DFP\1.3.0\Drivers\STM32L5xx_HAL_Driver\Src\stm32l5xx_hal_i2c.c:1111:11
	cmp	r0, #0
	bne	.LBB4_44
.Ltmp81:
@ %bb.25:                               @   in Loop: Header=BB4_24 Depth=1
	@DEBUG_VALUE: HAL_I2C_Master_Transmit:tickstart <- $r5
	@DEBUG_VALUE: HAL_I2C_Master_Transmit:hi2c <- $r4
	@DEBUG_VALUE: HAL_I2C_Master_Transmit:Timeout <- [DW_OP_plus_uconst 32] [$sp+0]
	@DEBUG_VALUE: HAL_I2C_Master_Transmit:pData <- [DW_OP_LLVM_entry_value 1] $r2
	.loc	7 1116 37 is_stmt 1             @ c:/Keil_v5\ARM\PACK\Keil\STM32L5xx_DFP\1.3.0\Drivers\STM32L5xx_HAL_Driver\Src\stm32l5xx_hal_i2c.c:1116:37
	ldr	r0, [r4, #36]
	.loc	7 1116 13 is_stmt 0             @ c:/Keil_v5\ARM\PACK\Keil\STM32L5xx_DFP\1.3.0\Drivers\STM32L5xx_HAL_Driver\Src\stm32l5xx_hal_i2c.c:1116:13
	ldr	r1, [r4]
	.loc	7 1116 30                       @ c:/Keil_v5\ARM\PACK\Keil\STM32L5xx_DFP\1.3.0\Drivers\STM32L5xx_HAL_Driver\Src\stm32l5xx_hal_i2c.c:1116:30
	ldrb	r2, [r0], #1
	.loc	7 1116 28                       @ c:/Keil_v5\ARM\PACK\Keil\STM32L5xx_DFP\1.3.0\Drivers\STM32L5xx_HAL_Driver\Src\stm32l5xx_hal_i2c.c:1116:28
	str	r2, [r1, #40]
	.loc	7 1119 21 is_stmt 1             @ c:/Keil_v5\ARM\PACK\Keil\STM32L5xx_DFP\1.3.0\Drivers\STM32L5xx_HAL_Driver\Src\stm32l5xx_hal_i2c.c:1119:21
	str	r0, [r4, #36]
	.loc	7 1121 22                       @ c:/Keil_v5\ARM\PACK\Keil\STM32L5xx_DFP\1.3.0\Drivers\STM32L5xx_HAL_Driver\Src\stm32l5xx_hal_i2c.c:1121:22
	ldrh	r0, [r4, #42]
	subs	r0, #1
	strh	r0, [r4, #42]
	.loc	7 1122 21                       @ c:/Keil_v5\ARM\PACK\Keil\STM32L5xx_DFP\1.3.0\Drivers\STM32L5xx_HAL_Driver\Src\stm32l5xx_hal_i2c.c:1122:21
	ldrh	r0, [r4, #40]
	subs	r2, r0, #1
	strh	r2, [r4, #40]
.Ltmp82:
	.loc	7 1124 18                       @ c:/Keil_v5\ARM\PACK\Keil\STM32L5xx_DFP\1.3.0\Drivers\STM32L5xx_HAL_Driver\Src\stm32l5xx_hal_i2c.c:1124:18
	ldrh	r0, [r4, #42]
	.loc	7 1124 35 is_stmt 0             @ c:/Keil_v5\ARM\PACK\Keil\STM32L5xx_DFP\1.3.0\Drivers\STM32L5xx_HAL_Driver\Src\stm32l5xx_hal_i2c.c:1124:35
	lsls	r2, r2, #16
	bne	.LBB4_23
.Ltmp83:
@ %bb.26:                               @   in Loop: Header=BB4_24 Depth=1
	@DEBUG_VALUE: HAL_I2C_Master_Transmit:tickstart <- $r5
	@DEBUG_VALUE: HAL_I2C_Master_Transmit:hi2c <- $r4
	@DEBUG_VALUE: HAL_I2C_Master_Transmit:Timeout <- [DW_OP_plus_uconst 32] [$sp+0]
	@DEBUG_VALUE: HAL_I2C_Master_Transmit:pData <- [DW_OP_LLVM_entry_value 1] $r2
	cmp	r0, #0
	beq	.LBB4_23
.Ltmp84:
@ %bb.27:                               @   in Loop: Header=BB4_24 Depth=1
	@DEBUG_VALUE: HAL_I2C_Master_Transmit:tickstart <- $r5
	@DEBUG_VALUE: HAL_I2C_Master_Transmit:hi2c <- $r4
	@DEBUG_VALUE: HAL_I2C_Master_Transmit:Timeout <- [DW_OP_plus_uconst 32] [$sp+0]
	@DEBUG_VALUE: HAL_I2C_Master_Transmit:pData <- [DW_OP_LLVM_entry_value 1] $r2
	@DEBUG_VALUE: I2C_WaitOnFlagUntilTimeout:hi2c <- $r4
	@DEBUG_VALUE: I2C_WaitOnFlagUntilTimeout:Flag <- 128
	@DEBUG_VALUE: I2C_WaitOnFlagUntilTimeout:Status <- 0
	@DEBUG_VALUE: I2C_WaitOnFlagUntilTimeout:Timeout <- $r6
	@DEBUG_VALUE: I2C_WaitOnFlagUntilTimeout:Tickstart <- $r5
	.loc	7 6223 10 is_stmt 1             @ c:/Keil_v5\ARM\PACK\Keil\STM32L5xx_DFP\1.3.0\Drivers\STM32L5xx_HAL_Driver\Src\stm32l5xx_hal_i2c.c:6223:10
	ldr	r0, [r1, #24]
	.loc	7 6223 3 is_stmt 0              @ c:/Keil_v5\ARM\PACK\Keil\STM32L5xx_DFP\1.3.0\Drivers\STM32L5xx_HAL_Driver\Src\stm32l5xx_hal_i2c.c:6223:3
	lsls	r0, r0, #24
	bmi	.LBB4_31
.Ltmp85:
@ %bb.28:                               @   in Loop: Header=BB4_24 Depth=1
	@DEBUG_VALUE: I2C_WaitOnFlagUntilTimeout:Timeout <- $r6
	@DEBUG_VALUE: I2C_WaitOnFlagUntilTimeout:Tickstart <- $r5
	@DEBUG_VALUE: HAL_I2C_Master_Transmit:tickstart <- $r5
	@DEBUG_VALUE: I2C_WaitOnFlagUntilTimeout:hi2c <- $r4
	@DEBUG_VALUE: HAL_I2C_Master_Transmit:hi2c <- $r4
	@DEBUG_VALUE: HAL_I2C_Master_Transmit:Timeout <- [DW_OP_plus_uconst 32] [$sp+0]
	@DEBUG_VALUE: I2C_WaitOnFlagUntilTimeout:Status <- 0
	@DEBUG_VALUE: I2C_WaitOnFlagUntilTimeout:Flag <- 128
	@DEBUG_VALUE: HAL_I2C_Master_Transmit:pData <- [DW_OP_LLVM_entry_value 1] $r2
	cbz	r6, .LBB4_40
.Ltmp86:
	.p2align	2
.LBB4_29:                               @   Parent Loop BB4_24 Depth=1
                                        @ =>  This Inner Loop Header: Depth=2
	@DEBUG_VALUE: I2C_WaitOnFlagUntilTimeout:Timeout <- $r6
	@DEBUG_VALUE: I2C_WaitOnFlagUntilTimeout:Tickstart <- $r5
	@DEBUG_VALUE: HAL_I2C_Master_Transmit:tickstart <- $r5
	@DEBUG_VALUE: I2C_WaitOnFlagUntilTimeout:hi2c <- $r4
	@DEBUG_VALUE: HAL_I2C_Master_Transmit:hi2c <- $r4
	@DEBUG_VALUE: HAL_I2C_Master_Transmit:Timeout <- [DW_OP_plus_uconst 32] [$sp+0]
	@DEBUG_VALUE: I2C_WaitOnFlagUntilTimeout:Status <- 0
	@DEBUG_VALUE: I2C_WaitOnFlagUntilTimeout:Flag <- 128
	@DEBUG_VALUE: HAL_I2C_Master_Transmit:pData <- [DW_OP_LLVM_entry_value 1] $r2
	.loc	7 6228 13 is_stmt 1             @ c:/Keil_v5\ARM\PACK\Keil\STM32L5xx_DFP\1.3.0\Drivers\STM32L5xx_HAL_Driver\Src\stm32l5xx_hal_i2c.c:6228:13
	bl	HAL_GetTick
	.loc	7 6228 27 is_stmt 0             @ c:/Keil_v5\ARM\PACK\Keil\STM32L5xx_DFP\1.3.0\Drivers\STM32L5xx_HAL_Driver\Src\stm32l5xx_hal_i2c.c:6228:27
	subs	r0, r0, r5
	.loc	7 6228 51                       @ c:/Keil_v5\ARM\PACK\Keil\STM32L5xx_DFP\1.3.0\Drivers\STM32L5xx_HAL_Driver\Src\stm32l5xx_hal_i2c.c:6228:51
	cmp	r0, r6
	bhi	.LBB4_41
.Ltmp87:
@ %bb.30:                               @   in Loop: Header=BB4_29 Depth=2
	@DEBUG_VALUE: I2C_WaitOnFlagUntilTimeout:Timeout <- $r6
	@DEBUG_VALUE: I2C_WaitOnFlagUntilTimeout:Tickstart <- $r5
	@DEBUG_VALUE: HAL_I2C_Master_Transmit:tickstart <- $r5
	@DEBUG_VALUE: I2C_WaitOnFlagUntilTimeout:hi2c <- $r4
	@DEBUG_VALUE: HAL_I2C_Master_Transmit:hi2c <- $r4
	@DEBUG_VALUE: HAL_I2C_Master_Transmit:Timeout <- [DW_OP_plus_uconst 32] [$sp+0]
	@DEBUG_VALUE: I2C_WaitOnFlagUntilTimeout:Status <- 0
	@DEBUG_VALUE: I2C_WaitOnFlagUntilTimeout:Flag <- 128
	@DEBUG_VALUE: HAL_I2C_Master_Transmit:pData <- [DW_OP_LLVM_entry_value 1] $r2
	.loc	7 6223 10 is_stmt 1             @ c:/Keil_v5\ARM\PACK\Keil\STM32L5xx_DFP\1.3.0\Drivers\STM32L5xx_HAL_Driver\Src\stm32l5xx_hal_i2c.c:6223:10
	ldr	r1, [r4]
	ldr	r0, [r1, #24]
	.loc	7 6223 3 is_stmt 0              @ c:/Keil_v5\ARM\PACK\Keil\STM32L5xx_DFP\1.3.0\Drivers\STM32L5xx_HAL_Driver\Src\stm32l5xx_hal_i2c.c:6223:3
	lsls	r0, r0, #24
	bpl	.LBB4_29
.Ltmp88:
.LBB4_31:                               @   in Loop: Header=BB4_24 Depth=1
	@DEBUG_VALUE: HAL_I2C_Master_Transmit:tickstart <- $r5
	@DEBUG_VALUE: HAL_I2C_Master_Transmit:hi2c <- $r4
	@DEBUG_VALUE: HAL_I2C_Master_Transmit:Timeout <- [DW_OP_plus_uconst 32] [$sp+0]
	@DEBUG_VALUE: HAL_I2C_Master_Transmit:pData <- [DW_OP_LLVM_entry_value 1] $r2
	.loc	7 1132 19 is_stmt 1             @ c:/Keil_v5\ARM\PACK\Keil\STM32L5xx_DFP\1.3.0\Drivers\STM32L5xx_HAL_Driver\Src\stm32l5xx_hal_i2c.c:1132:19
	ldrh	r0, [r4, #42]
.Ltmp89:
	.loc	7 1132 13 is_stmt 0             @ c:/Keil_v5\ARM\PACK\Keil\STM32L5xx_DFP\1.3.0\Drivers\STM32L5xx_HAL_Driver\Src\stm32l5xx_hal_i2c.c:1132:13
	cmp.w	r0, #256
	blo	.LBB4_21
.Ltmp90:
@ %bb.32:                               @   in Loop: Header=BB4_24 Depth=1
	@DEBUG_VALUE: HAL_I2C_Master_Transmit:tickstart <- $r5
	@DEBUG_VALUE: HAL_I2C_Master_Transmit:hi2c <- $r4
	@DEBUG_VALUE: HAL_I2C_Master_Transmit:Timeout <- [DW_OP_plus_uconst 32] [$sp+0]
	@DEBUG_VALUE: HAL_I2C_Master_Transmit:pData <- [DW_OP_LLVM_entry_value 1] $r2
	.loc	7 1134 26 is_stmt 1             @ c:/Keil_v5\ARM\PACK\Keil\STM32L5xx_DFP\1.3.0\Drivers\STM32L5xx_HAL_Driver\Src\stm32l5xx_hal_i2c.c:1134:26
	strh.w	r10, [r4, #40]
.Ltmp91:
	@DEBUG_VALUE: I2C_TransferConfig:Request <- 0
	@DEBUG_VALUE: I2C_TransferConfig:Mode <- 16777216
	@DEBUG_VALUE: I2C_TransferConfig:Size <- -1
	@DEBUG_VALUE: I2C_TransferConfig:DevAddress <- undef
	@DEBUG_VALUE: I2C_TransferConfig:hi2c <- undef
	.loc	7 6462 3                        @ c:/Keil_v5\ARM\PACK\Keil\STM32L5xx_DFP\1.3.0\Drivers\STM32L5xx_HAL_Driver\Src\stm32l5xx_hal_i2c.c:6462:3
	mov	r0, r1
	ldr	r2, [r0, #4]!
	and.w	r2, r2, r8
	orrs	r2, r7
	b	.LBB4_22
.Ltmp92:
	.p2align	2
.LBB4_33:
	@DEBUG_VALUE: HAL_I2C_Master_Transmit:tickstart <- $r5
	@DEBUG_VALUE: HAL_I2C_Master_Transmit:hi2c <- $r4
	@DEBUG_VALUE: HAL_I2C_Master_Transmit:Timeout <- [DW_OP_plus_uconst 32] [$sp+0]
	@DEBUG_VALUE: HAL_I2C_Master_Transmit:pData <- [DW_OP_LLVM_entry_value 1] $r2
	@DEBUG_VALUE: I2C_WaitOnSTOPFlagUntilTimeout:hi2c <- $r4
	@DEBUG_VALUE: I2C_WaitOnSTOPFlagUntilTimeout:Timeout <- $r6
	@DEBUG_VALUE: I2C_WaitOnSTOPFlagUntilTimeout:Tickstart <- $r5
	.loc	7 6290 10                       @ c:/Keil_v5\ARM\PACK\Keil\STM32L5xx_DFP\1.3.0\Drivers\STM32L5xx_HAL_Driver\Src\stm32l5xx_hal_i2c.c:6290:10
	ldr	r0, [r1, #24]
	.loc	7 6290 51 is_stmt 0             @ c:/Keil_v5\ARM\PACK\Keil\STM32L5xx_DFP\1.3.0\Drivers\STM32L5xx_HAL_Driver\Src\stm32l5xx_hal_i2c.c:6290:51
	and	r0, r0, #32
	.loc	7 6290 3                        @ c:/Keil_v5\ARM\PACK\Keil\STM32L5xx_DFP\1.3.0\Drivers\STM32L5xx_HAL_Driver\Src\stm32l5xx_hal_i2c.c:6290:3
	cbz	r6, .LBB4_38
.Ltmp93:
@ %bb.34:
	@DEBUG_VALUE: I2C_WaitOnSTOPFlagUntilTimeout:Timeout <- $r6
	@DEBUG_VALUE: I2C_WaitOnSTOPFlagUntilTimeout:Tickstart <- $r5
	@DEBUG_VALUE: HAL_I2C_Master_Transmit:tickstart <- $r5
	@DEBUG_VALUE: I2C_WaitOnSTOPFlagUntilTimeout:hi2c <- $r4
	@DEBUG_VALUE: HAL_I2C_Master_Transmit:hi2c <- $r4
	@DEBUG_VALUE: HAL_I2C_Master_Transmit:Timeout <- [DW_OP_plus_uconst 32] [$sp+0]
	@DEBUG_VALUE: HAL_I2C_Master_Transmit:pData <- [DW_OP_LLVM_entry_value 1] $r2
	cbnz	r0, .LBB4_43
.Ltmp94:
	.p2align	2
.LBB4_35:                               @ =>This Inner Loop Header: Depth=1
	@DEBUG_VALUE: HAL_I2C_Master_Transmit:pData <- [DW_OP_LLVM_entry_value 1] $r2
	.loc	7 6293 9 is_stmt 1              @ c:/Keil_v5\ARM\PACK\Keil\STM32L5xx_DFP\1.3.0\Drivers\STM32L5xx_HAL_Driver\Src\stm32l5xx_hal_i2c.c:6293:9
	mov	r0, r4
	mov	r1, r6
	mov	r2, r5
	bl	I2C_IsAcknowledgeFailed
.Ltmp95:
	.loc	7 6293 9 is_stmt 0              @ c:/Keil_v5\ARM\PACK\Keil\STM32L5xx_DFP\1.3.0\Drivers\STM32L5xx_HAL_Driver\Src\stm32l5xx_hal_i2c.c:6293:9
	cmp	r0, #0
	itt	ne
	movne	r0, #1
.Ltmp96:
	.loc	7 1170 1 is_stmt 1              @ c:/Keil_v5\ARM\PACK\Keil\STM32L5xx_DFP\1.3.0\Drivers\STM32L5xx_HAL_Driver\Src\stm32l5xx_hal_i2c.c:1170:1
	popne.w	{r4, r5, r6, r7, r8, r9, r10, pc}
.Ltmp97:
.LBB4_36:                               @   in Loop: Header=BB4_35 Depth=1
	@DEBUG_VALUE: HAL_I2C_Master_Transmit:pData <- [DW_OP_LLVM_entry_value 1] $r2
	.loc	7 6299 11                       @ c:/Keil_v5\ARM\PACK\Keil\STM32L5xx_DFP\1.3.0\Drivers\STM32L5xx_HAL_Driver\Src\stm32l5xx_hal_i2c.c:6299:11
	bl	HAL_GetTick
	.loc	7 6299 25 is_stmt 0             @ c:/Keil_v5\ARM\PACK\Keil\STM32L5xx_DFP\1.3.0\Drivers\STM32L5xx_HAL_Driver\Src\stm32l5xx_hal_i2c.c:6299:25
	subs	r0, r0, r5
	.loc	7 6299 49                       @ c:/Keil_v5\ARM\PACK\Keil\STM32L5xx_DFP\1.3.0\Drivers\STM32L5xx_HAL_Driver\Src\stm32l5xx_hal_i2c.c:6299:49
	cmp	r0, r6
	bhi	.LBB4_41
.Ltmp98:
@ %bb.37:                               @   in Loop: Header=BB4_35 Depth=1
	@DEBUG_VALUE: HAL_I2C_Master_Transmit:pData <- [DW_OP_LLVM_entry_value 1] $r2
	.loc	7 6290 10 is_stmt 1             @ c:/Keil_v5\ARM\PACK\Keil\STM32L5xx_DFP\1.3.0\Drivers\STM32L5xx_HAL_Driver\Src\stm32l5xx_hal_i2c.c:6290:10
	ldr	r1, [r4]
	ldr	r0, [r1, #24]
	.loc	7 6290 3 is_stmt 0              @ c:/Keil_v5\ARM\PACK\Keil\STM32L5xx_DFP\1.3.0\Drivers\STM32L5xx_HAL_Driver\Src\stm32l5xx_hal_i2c.c:6290:3
	lsls	r0, r0, #26
	bpl	.LBB4_35
	b	.LBB4_43
.Ltmp99:
	.p2align	2
.LBB4_38:
	@DEBUG_VALUE: I2C_WaitOnSTOPFlagUntilTimeout:Timeout <- $r6
	@DEBUG_VALUE: I2C_WaitOnSTOPFlagUntilTimeout:Tickstart <- $r5
	@DEBUG_VALUE: HAL_I2C_Master_Transmit:tickstart <- $r5
	@DEBUG_VALUE: I2C_WaitOnSTOPFlagUntilTimeout:hi2c <- $r4
	@DEBUG_VALUE: HAL_I2C_Master_Transmit:hi2c <- $r4
	@DEBUG_VALUE: HAL_I2C_Master_Transmit:Timeout <- [DW_OP_plus_uconst 32] [$sp+0]
	@DEBUG_VALUE: HAL_I2C_Master_Transmit:pData <- [DW_OP_LLVM_entry_value 1] $r2
	cbnz	r0, .LBB4_43
.Ltmp100:
@ %bb.39:
	@DEBUG_VALUE: I2C_WaitOnSTOPFlagUntilTimeout:Timeout <- $r6
	@DEBUG_VALUE: I2C_WaitOnSTOPFlagUntilTimeout:Tickstart <- $r5
	@DEBUG_VALUE: HAL_I2C_Master_Transmit:tickstart <- $r5
	@DEBUG_VALUE: I2C_WaitOnSTOPFlagUntilTimeout:hi2c <- $r4
	@DEBUG_VALUE: HAL_I2C_Master_Transmit:hi2c <- $r4
	@DEBUG_VALUE: HAL_I2C_Master_Transmit:Timeout <- [DW_OP_plus_uconst 32] [$sp+0]
	@DEBUG_VALUE: HAL_I2C_Master_Transmit:pData <- [DW_OP_LLVM_entry_value 1] $r2
	@DEBUG_VALUE: I2C_IsAcknowledgeFailed:hi2c <- $r4
	@DEBUG_VALUE: I2C_IsAcknowledgeFailed:Timeout <- 0
	@DEBUG_VALUE: I2C_IsAcknowledgeFailed:Tickstart <- undef
	.loc	7 6387 7 is_stmt 1              @ c:/Keil_v5\ARM\PACK\Keil\STM32L5xx_DFP\1.3.0\Drivers\STM32L5xx_HAL_Driver\Src\stm32l5xx_hal_i2c.c:6387:7
	ldr	r0, [r1, #24]
.Ltmp101:
	.loc	7 6387 7 is_stmt 0              @ c:/Keil_v5\ARM\PACK\Keil\STM32L5xx_DFP\1.3.0\Drivers\STM32L5xx_HAL_Driver\Src\stm32l5xx_hal_i2c.c:6387:7
	lsls	r0, r0, #27
.Ltmp102:
	.loc	7 6391 12 is_stmt 1             @ c:/Keil_v5\ARM\PACK\Keil\STM32L5xx_DFP\1.3.0\Drivers\STM32L5xx_HAL_Driver\Src\stm32l5xx_hal_i2c.c:6391:12
	itt	mi
	ldrmi	r0, [r1, #24]
	.loc	7 6391 5 is_stmt 0              @ c:/Keil_v5\ARM\PACK\Keil\STM32L5xx_DFP\1.3.0\Drivers\STM32L5xx_HAL_Driver\Src\stm32l5xx_hal_i2c.c:6391:5
	lslsmi.w	r0, r0, #26
	bmi	.LBB4_45
.Ltmp103:
.LBB4_40:
	@DEBUG_VALUE: HAL_I2C_Master_Transmit:tickstart <- $r5
	@DEBUG_VALUE: HAL_I2C_Master_Transmit:hi2c <- $r4
	@DEBUG_VALUE: HAL_I2C_Master_Transmit:Timeout <- [DW_OP_plus_uconst 32] [$sp+0]
	@DEBUG_VALUE: HAL_I2C_Master_Transmit:pData <- [DW_OP_LLVM_entry_value 1] $r2
	.loc	7 0 0                           @ c:/Keil_v5\ARM\PACK\Keil\STM32L5xx_DFP\1.3.0\Drivers\STM32L5xx_HAL_Driver\Src\stm32l5xx_hal_i2c.c:0:0
	bl	HAL_GetTick
.Ltmp104:
.LBB4_41:
	ldr	r0, [r4, #68]
	orr	r0, r0, #32
.LBB4_42:
	str	r0, [r4, #68]
	movs	r0, #32
	strb.w	r0, [r4, #65]
	movs	r0, #0
	strb.w	r0, [r4, #66]
	strb.w	r0, [r4, #64]
	movs	r0, #1
.Ltmp105:
	.loc	7 1170 1 is_stmt 1              @ c:/Keil_v5\ARM\PACK\Keil\STM32L5xx_DFP\1.3.0\Drivers\STM32L5xx_HAL_Driver\Src\stm32l5xx_hal_i2c.c:1170:1
	pop.w	{r4, r5, r6, r7, r8, r9, r10, pc}
	.p2align	2
.LBB4_43:
.Ltmp106:
	@DEBUG_VALUE: HAL_I2C_Master_Transmit:pData <- [DW_OP_LLVM_entry_value 1] $r2
	.loc	7 0 1 is_stmt 0                 @ c:/Keil_v5\ARM\PACK\Keil\STM32L5xx_DFP\1.3.0\Drivers\STM32L5xx_HAL_Driver\Src\stm32l5xx_hal_i2c.c:0:1
	movs	r0, #32
.Ltmp107:
	.loc	7 1153 5 is_stmt 1              @ c:/Keil_v5\ARM\PACK\Keil\STM32L5xx_DFP\1.3.0\Drivers\STM32L5xx_HAL_Driver\Src\stm32l5xx_hal_i2c.c:1153:5
	str	r0, [r1, #28]
	.loc	7 1156 5                        @ c:/Keil_v5\ARM\PACK\Keil\STM32L5xx_DFP\1.3.0\Drivers\STM32L5xx_HAL_Driver\Src\stm32l5xx_hal_i2c.c:1156:5
	ldr	r2, [r1, #4]
	movw	r3, #59392
	movt	r3, #65024
	ands	r2, r3
	str	r2, [r1, #4]
	.loc	7 1158 17                       @ c:/Keil_v5\ARM\PACK\Keil\STM32L5xx_DFP\1.3.0\Drivers\STM32L5xx_HAL_Driver\Src\stm32l5xx_hal_i2c.c:1158:17
	strb.w	r0, [r4, #65]
	movs	r0, #0
	.loc	7 1159 17                       @ c:/Keil_v5\ARM\PACK\Keil\STM32L5xx_DFP\1.3.0\Drivers\STM32L5xx_HAL_Driver\Src\stm32l5xx_hal_i2c.c:1159:17
	strb.w	r0, [r4, #66]
.Ltmp108:
	.loc	7 1162 5                        @ c:/Keil_v5\ARM\PACK\Keil\STM32L5xx_DFP\1.3.0\Drivers\STM32L5xx_HAL_Driver\Src\stm32l5xx_hal_i2c.c:1162:5
	strb.w	r0, [r4, #64]
.Ltmp109:
	.loc	7 1170 1                        @ c:/Keil_v5\ARM\PACK\Keil\STM32L5xx_DFP\1.3.0\Drivers\STM32L5xx_HAL_Driver\Src\stm32l5xx_hal_i2c.c:1170:1
	pop.w	{r4, r5, r6, r7, r8, r9, r10, pc}
.Ltmp110:
	.p2align	2
.LBB4_44:
	@DEBUG_VALUE: HAL_I2C_Master_Transmit:tickstart <- $r5
	@DEBUG_VALUE: HAL_I2C_Master_Transmit:hi2c <- $r4
	@DEBUG_VALUE: HAL_I2C_Master_Transmit:Timeout <- [DW_OP_plus_uconst 32] [$sp+0]
	@DEBUG_VALUE: HAL_I2C_Master_Transmit:pData <- [DW_OP_LLVM_entry_value 1] $r2
	.loc	7 0 1 is_stmt 0                 @ c:/Keil_v5\ARM\PACK\Keil\STM32L5xx_DFP\1.3.0\Drivers\STM32L5xx_HAL_Driver\Src\stm32l5xx_hal_i2c.c:0:1
	movs	r0, #1
	.loc	7 1170 1                        @ c:/Keil_v5\ARM\PACK\Keil\STM32L5xx_DFP\1.3.0\Drivers\STM32L5xx_HAL_Driver\Src\stm32l5xx_hal_i2c.c:1170:1
	pop.w	{r4, r5, r6, r7, r8, r9, r10, pc}
.Ltmp111:
	.p2align	2
.LBB4_45:
	@DEBUG_VALUE: I2C_WaitOnSTOPFlagUntilTimeout:Timeout <- $r6
	@DEBUG_VALUE: I2C_WaitOnSTOPFlagUntilTimeout:Tickstart <- $r5
	@DEBUG_VALUE: HAL_I2C_Master_Transmit:tickstart <- $r5
	@DEBUG_VALUE: I2C_IsAcknowledgeFailed:hi2c <- $r4
	@DEBUG_VALUE: I2C_WaitOnSTOPFlagUntilTimeout:hi2c <- $r4
	@DEBUG_VALUE: HAL_I2C_Master_Transmit:hi2c <- $r4
	@DEBUG_VALUE: HAL_I2C_Master_Transmit:Timeout <- [DW_OP_plus_uconst 32] [$sp+0]
	@DEBUG_VALUE: I2C_IsAcknowledgeFailed:Timeout <- 0
	@DEBUG_VALUE: HAL_I2C_Master_Transmit:pData <- [DW_OP_LLVM_entry_value 1] $r2
	.loc	7 0 1                           @ c:/Keil_v5\ARM\PACK\Keil\STM32L5xx_DFP\1.3.0\Drivers\STM32L5xx_HAL_Driver\Src\stm32l5xx_hal_i2c.c:0:1
	movs	r0, #16
.Ltmp112:
	.loc	7 6411 5 is_stmt 1              @ c:/Keil_v5\ARM\PACK\Keil\STM32L5xx_DFP\1.3.0\Drivers\STM32L5xx_HAL_Driver\Src\stm32l5xx_hal_i2c.c:6411:5
	str	r0, [r1, #28]
	movs	r0, #32
	.loc	7 6414 5                        @ c:/Keil_v5\ARM\PACK\Keil\STM32L5xx_DFP\1.3.0\Drivers\STM32L5xx_HAL_Driver\Src\stm32l5xx_hal_i2c.c:6414:5
	str	r0, [r1, #28]
.Ltmp113:
	@DEBUG_VALUE: I2C_Flush_TXDR:hi2c <- undef
	.loc	7 6009 7                        @ c:/Keil_v5\ARM\PACK\Keil\STM32L5xx_DFP\1.3.0\Drivers\STM32L5xx_HAL_Driver\Src\stm32l5xx_hal_i2c.c:6009:7
	ldr	r0, [r1, #24]
.Ltmp114:
	.loc	7 6009 7 is_stmt 0              @ c:/Keil_v5\ARM\PACK\Keil\STM32L5xx_DFP\1.3.0\Drivers\STM32L5xx_HAL_Driver\Src\stm32l5xx_hal_i2c.c:6009:7
	lsls	r0, r0, #30
	itt	mi
	movmi	r0, #0
.Ltmp115:
	.loc	7 6011 26 is_stmt 1             @ c:/Keil_v5\ARM\PACK\Keil\STM32L5xx_DFP\1.3.0\Drivers\STM32L5xx_HAL_Driver\Src\stm32l5xx_hal_i2c.c:6011:26
	strmi	r0, [r1, #40]
.Ltmp116:
	.loc	7 6015 7                        @ c:/Keil_v5\ARM\PACK\Keil\STM32L5xx_DFP\1.3.0\Drivers\STM32L5xx_HAL_Driver\Src\stm32l5xx_hal_i2c.c:6015:7
	ldr	r0, [r1, #24]
.Ltmp117:
	.loc	7 6015 7 is_stmt 0              @ c:/Keil_v5\ARM\PACK\Keil\STM32L5xx_DFP\1.3.0\Drivers\STM32L5xx_HAL_Driver\Src\stm32l5xx_hal_i2c.c:6015:7
	lsls	r0, r0, #31
	bne	.LBB4_47
.Ltmp118:
@ %bb.46:
	@DEBUG_VALUE: I2C_WaitOnSTOPFlagUntilTimeout:Timeout <- $r6
	@DEBUG_VALUE: I2C_WaitOnSTOPFlagUntilTimeout:Tickstart <- $r5
	@DEBUG_VALUE: HAL_I2C_Master_Transmit:tickstart <- $r5
	@DEBUG_VALUE: I2C_IsAcknowledgeFailed:hi2c <- $r4
	@DEBUG_VALUE: I2C_WaitOnSTOPFlagUntilTimeout:hi2c <- $r4
	@DEBUG_VALUE: HAL_I2C_Master_Transmit:hi2c <- $r4
	@DEBUG_VALUE: HAL_I2C_Master_Transmit:Timeout <- [DW_OP_plus_uconst 32] [$sp+0]
	@DEBUG_VALUE: I2C_IsAcknowledgeFailed:Timeout <- 0
	@DEBUG_VALUE: HAL_I2C_Master_Transmit:pData <- [DW_OP_LLVM_entry_value 1] $r2
	.loc	7 6017 5 is_stmt 1              @ c:/Keil_v5\ARM\PACK\Keil\STM32L5xx_DFP\1.3.0\Drivers\STM32L5xx_HAL_Driver\Src\stm32l5xx_hal_i2c.c:6017:5
	ldr	r0, [r1, #24]
	orr	r0, r0, #1
	str	r0, [r1, #24]
.Ltmp119:
.LBB4_47:
	@DEBUG_VALUE: I2C_WaitOnSTOPFlagUntilTimeout:Timeout <- $r6
	@DEBUG_VALUE: I2C_WaitOnSTOPFlagUntilTimeout:Tickstart <- $r5
	@DEBUG_VALUE: HAL_I2C_Master_Transmit:tickstart <- $r5
	@DEBUG_VALUE: I2C_IsAcknowledgeFailed:hi2c <- $r4
	@DEBUG_VALUE: I2C_WaitOnSTOPFlagUntilTimeout:hi2c <- $r4
	@DEBUG_VALUE: HAL_I2C_Master_Transmit:hi2c <- $r4
	@DEBUG_VALUE: HAL_I2C_Master_Transmit:Timeout <- [DW_OP_plus_uconst 32] [$sp+0]
	@DEBUG_VALUE: I2C_IsAcknowledgeFailed:Timeout <- 0
	@DEBUG_VALUE: HAL_I2C_Master_Transmit:pData <- [DW_OP_LLVM_entry_value 1] $r2
	.loc	7 6420 5                        @ c:/Keil_v5\ARM\PACK\Keil\STM32L5xx_DFP\1.3.0\Drivers\STM32L5xx_HAL_Driver\Src\stm32l5xx_hal_i2c.c:6420:5
	ldr	r0, [r1, #4]
	movw	r2, #59392
	movt	r2, #65024
	ands	r0, r2
	str	r0, [r1, #4]
	.loc	7 6422 21                       @ c:/Keil_v5\ARM\PACK\Keil\STM32L5xx_DFP\1.3.0\Drivers\STM32L5xx_HAL_Driver\Src\stm32l5xx_hal_i2c.c:6422:21
	ldr	r0, [r4, #68]
	orr	r0, r0, #4
	b	.LBB4_42
.Ltmp120:
.Lfunc_end4:
	.size	HAL_I2C_Master_Transmit, .Lfunc_end4-HAL_I2C_Master_Transmit
	.cfi_endproc
	.cantunwind
	.fnend
                                        @ -- End function
	.section	.text.I2C_WaitOnFlagUntilTimeout,"ax",%progbits
	.p2align	2                               @ -- Begin function I2C_WaitOnFlagUntilTimeout
	.type	I2C_WaitOnFlagUntilTimeout,%function
	.code	16                              @ @I2C_WaitOnFlagUntilTimeout
	.thumb_func
I2C_WaitOnFlagUntilTimeout:
.Lfunc_begin5:
	.loc	7 6222 0                        @ c:/Keil_v5\ARM\PACK\Keil\STM32L5xx_DFP\1.3.0\Drivers\STM32L5xx_HAL_Driver\Src\stm32l5xx_hal_i2c.c:6222:0
	.fnstart
	.cfi_startproc
@ %bb.0:
	@DEBUG_VALUE: I2C_WaitOnFlagUntilTimeout:hi2c <- $r0
	@DEBUG_VALUE: I2C_WaitOnFlagUntilTimeout:Flag <- $r1
	@DEBUG_VALUE: I2C_WaitOnFlagUntilTimeout:Status <- $r2
	@DEBUG_VALUE: I2C_WaitOnFlagUntilTimeout:Timeout <- $r3
	.save	{r4, r5, r6, r7, r8, lr}
	push.w	{r4, r5, r6, r7, r8, lr}
	.cfi_def_cfa_offset 24
	.cfi_offset lr, -4
	.cfi_offset r8, -8
	.cfi_offset r7, -12
	.cfi_offset r6, -16
	.cfi_offset r5, -20
	.cfi_offset r4, -24
	mov	r6, r0
.Ltmp121:
	@DEBUG_VALUE: I2C_WaitOnFlagUntilTimeout:Tickstart <- [DW_OP_plus_uconst 24] [$sp+0]
	@DEBUG_VALUE: I2C_WaitOnFlagUntilTimeout:hi2c <- $r6
	.loc	7 6223 10 prologue_end          @ c:/Keil_v5\ARM\PACK\Keil\STM32L5xx_DFP\1.3.0\Drivers\STM32L5xx_HAL_Driver\Src\stm32l5xx_hal_i2c.c:6223:10
	ldr	r0, [r0]
	mov	r4, r2
.Ltmp122:
	@DEBUG_VALUE: I2C_WaitOnFlagUntilTimeout:Status <- $r4
	@DEBUG_VALUE: I2C_WaitOnFlagUntilTimeout:Status <- $r4
	ldr	r2, [r0, #24]
	mov	r5, r1
.Ltmp123:
	@DEBUG_VALUE: I2C_WaitOnFlagUntilTimeout:Flag <- $r5
	ands	r1, r2
	subs	r1, r1, r5
	clz	r1, r1
	lsrs	r1, r1, #5
	.loc	7 6223 3 is_stmt 0              @ c:/Keil_v5\ARM\PACK\Keil\STM32L5xx_DFP\1.3.0\Drivers\STM32L5xx_HAL_Driver\Src\stm32l5xx_hal_i2c.c:6223:3
	cmp	r1, r4
	@DEBUG_VALUE: I2C_WaitOnFlagUntilTimeout:Timeout <- $r3
	bne	.LBB5_7
.Ltmp124:
@ %bb.1:
	@DEBUG_VALUE: I2C_WaitOnFlagUntilTimeout:hi2c <- $r6
	@DEBUG_VALUE: I2C_WaitOnFlagUntilTimeout:Flag <- $r5
	@DEBUG_VALUE: I2C_WaitOnFlagUntilTimeout:Status <- $r4
	@DEBUG_VALUE: I2C_WaitOnFlagUntilTimeout:Timeout <- $r3
	@DEBUG_VALUE: I2C_WaitOnFlagUntilTimeout:Tickstart <- [DW_OP_plus_uconst 24] [$sp+0]
	.loc	7 0 3                           @ c:/Keil_v5\ARM\PACK\Keil\STM32L5xx_DFP\1.3.0\Drivers\STM32L5xx_HAL_Driver\Src\stm32l5xx_hal_i2c.c:0:3
	mov	r7, r3
.Ltmp125:
	@DEBUG_VALUE: I2C_WaitOnFlagUntilTimeout:Timeout <- $r7
	.loc	7 6223 3                        @ c:/Keil_v5\ARM\PACK\Keil\STM32L5xx_DFP\1.3.0\Drivers\STM32L5xx_HAL_Driver\Src\stm32l5xx_hal_i2c.c:6223:3
	cbz	r3, .LBB5_8
.Ltmp126:
@ %bb.2:
	@DEBUG_VALUE: I2C_WaitOnFlagUntilTimeout:Timeout <- $r7
	@DEBUG_VALUE: I2C_WaitOnFlagUntilTimeout:hi2c <- $r6
	@DEBUG_VALUE: I2C_WaitOnFlagUntilTimeout:Flag <- $r5
	@DEBUG_VALUE: I2C_WaitOnFlagUntilTimeout:Status <- $r4
	@DEBUG_VALUE: I2C_WaitOnFlagUntilTimeout:Tickstart <- [DW_OP_plus_uconst 24] [$sp+0]
	adds	r1, r7, #1
	bne	.LBB5_10
.Ltmp127:
	.p2align	2
.LBB5_3:                                @ =>This Inner Loop Header: Depth=1
	.loc	7 6223 10                       @ c:/Keil_v5\ARM\PACK\Keil\STM32L5xx_DFP\1.3.0\Drivers\STM32L5xx_HAL_Driver\Src\stm32l5xx_hal_i2c.c:6223:10
	ldr	r1, [r0, #24]
	ands	r1, r5
	subs	r1, r1, r5
	clz	r1, r1
	lsrs	r1, r1, #5
	.loc	7 6223 3                        @ c:/Keil_v5\ARM\PACK\Keil\STM32L5xx_DFP\1.3.0\Drivers\STM32L5xx_HAL_Driver\Src\stm32l5xx_hal_i2c.c:6223:3
	cmp	r1, r4
	itt	ne
	movne	r0, #0
	.loc	7 6241 1 is_stmt 1              @ c:/Keil_v5\ARM\PACK\Keil\STM32L5xx_DFP\1.3.0\Drivers\STM32L5xx_HAL_Driver\Src\stm32l5xx_hal_i2c.c:6241:1
	popne.w	{r4, r5, r6, r7, r8, pc}
.LBB5_4:                                @   in Loop: Header=BB5_3 Depth=1
	.loc	7 6223 10                       @ c:/Keil_v5\ARM\PACK\Keil\STM32L5xx_DFP\1.3.0\Drivers\STM32L5xx_HAL_Driver\Src\stm32l5xx_hal_i2c.c:6223:10
	ldr	r1, [r0, #24]
	ands	r1, r5
	subs	r1, r1, r5
	clz	r1, r1
	lsrs	r1, r1, #5
	.loc	7 6223 3 is_stmt 0              @ c:/Keil_v5\ARM\PACK\Keil\STM32L5xx_DFP\1.3.0\Drivers\STM32L5xx_HAL_Driver\Src\stm32l5xx_hal_i2c.c:6223:3
	cmp	r1, r4
	bne	.LBB5_7
@ %bb.5:                                @   in Loop: Header=BB5_3 Depth=1
	.loc	7 6223 10                       @ c:/Keil_v5\ARM\PACK\Keil\STM32L5xx_DFP\1.3.0\Drivers\STM32L5xx_HAL_Driver\Src\stm32l5xx_hal_i2c.c:6223:10
	ldr	r1, [r0, #24]
	ands	r1, r5
	subs	r1, r1, r5
	clz	r1, r1
	lsrs	r1, r1, #5
	.loc	7 6223 3                        @ c:/Keil_v5\ARM\PACK\Keil\STM32L5xx_DFP\1.3.0\Drivers\STM32L5xx_HAL_Driver\Src\stm32l5xx_hal_i2c.c:6223:3
	cmp	r1, r4
	bne	.LBB5_7
@ %bb.6:                                @   in Loop: Header=BB5_3 Depth=1
	.loc	7 6223 10                       @ c:/Keil_v5\ARM\PACK\Keil\STM32L5xx_DFP\1.3.0\Drivers\STM32L5xx_HAL_Driver\Src\stm32l5xx_hal_i2c.c:6223:10
	ldr	r1, [r0, #24]
	ands	r1, r5
	subs	r1, r1, r5
	clz	r1, r1
	lsrs	r1, r1, #5
	.loc	7 6223 3                        @ c:/Keil_v5\ARM\PACK\Keil\STM32L5xx_DFP\1.3.0\Drivers\STM32L5xx_HAL_Driver\Src\stm32l5xx_hal_i2c.c:6223:3
	cmp	r1, r4
	beq	.LBB5_3
.LBB5_7:
	.loc	7 0 3                           @ c:/Keil_v5\ARM\PACK\Keil\STM32L5xx_DFP\1.3.0\Drivers\STM32L5xx_HAL_Driver\Src\stm32l5xx_hal_i2c.c:0:3
	movs	r0, #0
	.loc	7 6241 1 is_stmt 1              @ c:/Keil_v5\ARM\PACK\Keil\STM32L5xx_DFP\1.3.0\Drivers\STM32L5xx_HAL_Driver\Src\stm32l5xx_hal_i2c.c:6241:1
	pop.w	{r4, r5, r6, r7, r8, pc}
	.p2align	2
.LBB5_8:
.Ltmp128:
	@DEBUG_VALUE: I2C_WaitOnFlagUntilTimeout:Timeout <- $r7
	@DEBUG_VALUE: I2C_WaitOnFlagUntilTimeout:hi2c <- $r6
	@DEBUG_VALUE: I2C_WaitOnFlagUntilTimeout:Flag <- $r5
	@DEBUG_VALUE: I2C_WaitOnFlagUntilTimeout:Status <- $r4
	@DEBUG_VALUE: I2C_WaitOnFlagUntilTimeout:Tickstart <- [DW_OP_plus_uconst 24] [$sp+0]
	.loc	7 6228 13                       @ c:/Keil_v5\ARM\PACK\Keil\STM32L5xx_DFP\1.3.0\Drivers\STM32L5xx_HAL_Driver\Src\stm32l5xx_hal_i2c.c:6228:13
	bl	HAL_GetTick
.Ltmp129:
.LBB5_9:
	.loc	7 6230 25                       @ c:/Keil_v5\ARM\PACK\Keil\STM32L5xx_DFP\1.3.0\Drivers\STM32L5xx_HAL_Driver\Src\stm32l5xx_hal_i2c.c:6230:25
	ldr	r0, [r6, #68]
	orr	r0, r0, #32
	str	r0, [r6, #68]
	movs	r0, #32
	.loc	7 6231 21                       @ c:/Keil_v5\ARM\PACK\Keil\STM32L5xx_DFP\1.3.0\Drivers\STM32L5xx_HAL_Driver\Src\stm32l5xx_hal_i2c.c:6231:21
	strb.w	r0, [r6, #65]
	movs	r0, #0
	.loc	7 6232 20                       @ c:/Keil_v5\ARM\PACK\Keil\STM32L5xx_DFP\1.3.0\Drivers\STM32L5xx_HAL_Driver\Src\stm32l5xx_hal_i2c.c:6232:20
	strb.w	r0, [r6, #66]
.Ltmp130:
	.loc	7 6235 9                        @ c:/Keil_v5\ARM\PACK\Keil\STM32L5xx_DFP\1.3.0\Drivers\STM32L5xx_HAL_Driver\Src\stm32l5xx_hal_i2c.c:6235:9
	strb.w	r0, [r6, #64]
	movs	r0, #1
.Ltmp131:
	.loc	7 6241 1                        @ c:/Keil_v5\ARM\PACK\Keil\STM32L5xx_DFP\1.3.0\Drivers\STM32L5xx_HAL_Driver\Src\stm32l5xx_hal_i2c.c:6241:1
	pop.w	{r4, r5, r6, r7, r8, pc}
	.p2align	2
.LBB5_10:
.Ltmp132:
	@DEBUG_VALUE: I2C_WaitOnFlagUntilTimeout:Timeout <- $r7
	@DEBUG_VALUE: I2C_WaitOnFlagUntilTimeout:hi2c <- $r6
	@DEBUG_VALUE: I2C_WaitOnFlagUntilTimeout:Flag <- $r5
	@DEBUG_VALUE: I2C_WaitOnFlagUntilTimeout:Status <- $r4
	@DEBUG_VALUE: I2C_WaitOnFlagUntilTimeout:Tickstart <- [DW_OP_plus_uconst 24] [$sp+0]
	.loc	7 0 1 is_stmt 0                 @ c:/Keil_v5\ARM\PACK\Keil\STM32L5xx_DFP\1.3.0\Drivers\STM32L5xx_HAL_Driver\Src\stm32l5xx_hal_i2c.c:0:1
	ldr.w	r8, [sp, #24]
.Ltmp133:
	.p2align	2
.LBB5_11:                               @ =>This Inner Loop Header: Depth=1
	.loc	7 6228 13 is_stmt 1             @ c:/Keil_v5\ARM\PACK\Keil\STM32L5xx_DFP\1.3.0\Drivers\STM32L5xx_HAL_Driver\Src\stm32l5xx_hal_i2c.c:6228:13
	bl	HAL_GetTick
	.loc	7 6228 27 is_stmt 0             @ c:/Keil_v5\ARM\PACK\Keil\STM32L5xx_DFP\1.3.0\Drivers\STM32L5xx_HAL_Driver\Src\stm32l5xx_hal_i2c.c:6228:27
	sub.w	r0, r0, r8
	.loc	7 6228 51                       @ c:/Keil_v5\ARM\PACK\Keil\STM32L5xx_DFP\1.3.0\Drivers\STM32L5xx_HAL_Driver\Src\stm32l5xx_hal_i2c.c:6228:51
	cmp	r0, r7
	bhi	.LBB5_9
.Ltmp134:
@ %bb.12:                               @   in Loop: Header=BB5_11 Depth=1
	.loc	7 6223 10 is_stmt 1             @ c:/Keil_v5\ARM\PACK\Keil\STM32L5xx_DFP\1.3.0\Drivers\STM32L5xx_HAL_Driver\Src\stm32l5xx_hal_i2c.c:6223:10
	ldr	r0, [r6]
	ldr	r0, [r0, #24]
	ands	r0, r5
	subs	r0, r0, r5
	clz	r0, r0
	lsrs	r0, r0, #5
	.loc	7 6223 3 is_stmt 0              @ c:/Keil_v5\ARM\PACK\Keil\STM32L5xx_DFP\1.3.0\Drivers\STM32L5xx_HAL_Driver\Src\stm32l5xx_hal_i2c.c:6223:3
	cmp	r0, r4
	itt	ne
	movne	r0, #0
	.loc	7 6241 1 is_stmt 1              @ c:/Keil_v5\ARM\PACK\Keil\STM32L5xx_DFP\1.3.0\Drivers\STM32L5xx_HAL_Driver\Src\stm32l5xx_hal_i2c.c:6241:1
	popne.w	{r4, r5, r6, r7, r8, pc}
	b	.LBB5_11
.Ltmp135:
.Lfunc_end5:
	.size	I2C_WaitOnFlagUntilTimeout, .Lfunc_end5-I2C_WaitOnFlagUntilTimeout
	.cfi_endproc
	.cantunwind
	.fnend
                                        @ -- End function
	.section	.text.I2C_WaitOnTXISFlagUntilTimeout,"ax",%progbits
	.p2align	2                               @ -- Begin function I2C_WaitOnTXISFlagUntilTimeout
	.type	I2C_WaitOnTXISFlagUntilTimeout,%function
	.code	16                              @ @I2C_WaitOnTXISFlagUntilTimeout
	.thumb_func
I2C_WaitOnTXISFlagUntilTimeout:
.Lfunc_begin6:
	.loc	7 6252 0                        @ c:/Keil_v5\ARM\PACK\Keil\STM32L5xx_DFP\1.3.0\Drivers\STM32L5xx_HAL_Driver\Src\stm32l5xx_hal_i2c.c:6252:0
	.fnstart
	.cfi_startproc
@ %bb.0:
	@DEBUG_VALUE: I2C_WaitOnTXISFlagUntilTimeout:hi2c <- $r0
	@DEBUG_VALUE: I2C_WaitOnTXISFlagUntilTimeout:Timeout <- $r1
	@DEBUG_VALUE: I2C_WaitOnTXISFlagUntilTimeout:Tickstart <- $r2
	.save	{r4, r5, r6, lr}
	push	{r4, r5, r6, lr}
	.cfi_def_cfa_offset 16
	.cfi_offset lr, -4
	.cfi_offset r6, -8
	.cfi_offset r5, -12
	.cfi_offset r4, -16
	mov	r4, r0
.Ltmp136:
	@DEBUG_VALUE: I2C_WaitOnTXISFlagUntilTimeout:hi2c <- $r4
	.loc	7 6253 10 prologue_end          @ c:/Keil_v5\ARM\PACK\Keil\STM32L5xx_DFP\1.3.0\Drivers\STM32L5xx_HAL_Driver\Src\stm32l5xx_hal_i2c.c:6253:10
	ldr	r0, [r0]
	ldr	r0, [r0, #24]
	@DEBUG_VALUE: I2C_WaitOnTXISFlagUntilTimeout:Tickstart <- $r2
	.loc	7 6253 3 is_stmt 0              @ c:/Keil_v5\ARM\PACK\Keil\STM32L5xx_DFP\1.3.0\Drivers\STM32L5xx_HAL_Driver\Src\stm32l5xx_hal_i2c.c:6253:3
	lsls	r0, r0, #30
	@DEBUG_VALUE: I2C_WaitOnTXISFlagUntilTimeout:Timeout <- $r1
	bmi	.LBB6_8
.Ltmp137:
@ %bb.1:
	@DEBUG_VALUE: I2C_WaitOnTXISFlagUntilTimeout:hi2c <- $r4
	@DEBUG_VALUE: I2C_WaitOnTXISFlagUntilTimeout:Tickstart <- $r2
	@DEBUG_VALUE: I2C_WaitOnTXISFlagUntilTimeout:Timeout <- $r1
	.loc	7 0 3                           @ c:/Keil_v5\ARM\PACK\Keil\STM32L5xx_DFP\1.3.0\Drivers\STM32L5xx_HAL_Driver\Src\stm32l5xx_hal_i2c.c:0:3
	mov	r5, r2
.Ltmp138:
	@DEBUG_VALUE: I2C_WaitOnTXISFlagUntilTimeout:Tickstart <- $r5
	@DEBUG_VALUE: I2C_WaitOnTXISFlagUntilTimeout:Tickstart <- $r5
	mov	r6, r1
.Ltmp139:
	@DEBUG_VALUE: I2C_WaitOnTXISFlagUntilTimeout:Timeout <- $r6
	.loc	7 6253 3                        @ c:/Keil_v5\ARM\PACK\Keil\STM32L5xx_DFP\1.3.0\Drivers\STM32L5xx_HAL_Driver\Src\stm32l5xx_hal_i2c.c:6253:3
	cbz	r1, .LBB6_9
.Ltmp140:
@ %bb.2:
	@DEBUG_VALUE: I2C_WaitOnTXISFlagUntilTimeout:Timeout <- $r6
	@DEBUG_VALUE: I2C_WaitOnTXISFlagUntilTimeout:Tickstart <- $r5
	@DEBUG_VALUE: I2C_WaitOnTXISFlagUntilTimeout:hi2c <- $r4
	adds	r0, r6, #1
	bne	.LBB6_7
.Ltmp141:
	.p2align	2
.LBB6_3:                                @ =>This Inner Loop Header: Depth=1
	.loc	7 6256 9 is_stmt 1              @ c:/Keil_v5\ARM\PACK\Keil\STM32L5xx_DFP\1.3.0\Drivers\STM32L5xx_HAL_Driver\Src\stm32l5xx_hal_i2c.c:6256:9
	mov	r0, r4
	mov.w	r1, #-1
	mov	r2, r5
	bl	I2C_IsAcknowledgeFailed
.Ltmp142:
	.loc	7 6256 9 is_stmt 0              @ c:/Keil_v5\ARM\PACK\Keil\STM32L5xx_DFP\1.3.0\Drivers\STM32L5xx_HAL_Driver\Src\stm32l5xx_hal_i2c.c:6256:9
	cbnz	r0, .LBB6_10
.Ltmp143:
@ %bb.4:                                @   in Loop: Header=BB6_3 Depth=1
	.loc	7 6253 10 is_stmt 1             @ c:/Keil_v5\ARM\PACK\Keil\STM32L5xx_DFP\1.3.0\Drivers\STM32L5xx_HAL_Driver\Src\stm32l5xx_hal_i2c.c:6253:10
	ldr	r0, [r4]
	ldr	r0, [r0, #24]
	.loc	7 6253 3 is_stmt 0              @ c:/Keil_v5\ARM\PACK\Keil\STM32L5xx_DFP\1.3.0\Drivers\STM32L5xx_HAL_Driver\Src\stm32l5xx_hal_i2c.c:6253:3
	lsls	r0, r0, #30
	itt	mi
	movmi	r0, #0
	.loc	7 6278 1 is_stmt 1              @ c:/Keil_v5\ARM\PACK\Keil\STM32L5xx_DFP\1.3.0\Drivers\STM32L5xx_HAL_Driver\Src\stm32l5xx_hal_i2c.c:6278:1
	popmi	{r4, r5, r6, pc}
	b	.LBB6_3
	.p2align	2
.LBB6_5:                                @   in Loop: Header=BB6_7 Depth=1
.Ltmp144:
	@DEBUG_VALUE: I2C_WaitOnTXISFlagUntilTimeout:Timeout <- $r6
	@DEBUG_VALUE: I2C_WaitOnTXISFlagUntilTimeout:Tickstart <- $r5
	@DEBUG_VALUE: I2C_WaitOnTXISFlagUntilTimeout:hi2c <- $r4
	.loc	7 6264 13                       @ c:/Keil_v5\ARM\PACK\Keil\STM32L5xx_DFP\1.3.0\Drivers\STM32L5xx_HAL_Driver\Src\stm32l5xx_hal_i2c.c:6264:13
	bl	HAL_GetTick
	.loc	7 6264 27 is_stmt 0             @ c:/Keil_v5\ARM\PACK\Keil\STM32L5xx_DFP\1.3.0\Drivers\STM32L5xx_HAL_Driver\Src\stm32l5xx_hal_i2c.c:6264:27
	subs	r0, r0, r5
	.loc	7 6264 51                       @ c:/Keil_v5\ARM\PACK\Keil\STM32L5xx_DFP\1.3.0\Drivers\STM32L5xx_HAL_Driver\Src\stm32l5xx_hal_i2c.c:6264:51
	cmp	r0, r6
	bhi	.LBB6_12
.Ltmp145:
@ %bb.6:                                @   in Loop: Header=BB6_7 Depth=1
	@DEBUG_VALUE: I2C_WaitOnTXISFlagUntilTimeout:Timeout <- $r6
	@DEBUG_VALUE: I2C_WaitOnTXISFlagUntilTimeout:Tickstart <- $r5
	@DEBUG_VALUE: I2C_WaitOnTXISFlagUntilTimeout:hi2c <- $r4
	.loc	7 6253 10 is_stmt 1             @ c:/Keil_v5\ARM\PACK\Keil\STM32L5xx_DFP\1.3.0\Drivers\STM32L5xx_HAL_Driver\Src\stm32l5xx_hal_i2c.c:6253:10
	ldr	r0, [r4]
	ldr	r0, [r0, #24]
	.loc	7 6253 3 is_stmt 0              @ c:/Keil_v5\ARM\PACK\Keil\STM32L5xx_DFP\1.3.0\Drivers\STM32L5xx_HAL_Driver\Src\stm32l5xx_hal_i2c.c:6253:3
	lsls	r0, r0, #30
	bmi	.LBB6_8
.Ltmp146:
.LBB6_7:                                @ =>This Inner Loop Header: Depth=1
	@DEBUG_VALUE: I2C_WaitOnTXISFlagUntilTimeout:Timeout <- $r6
	@DEBUG_VALUE: I2C_WaitOnTXISFlagUntilTimeout:Tickstart <- $r5
	@DEBUG_VALUE: I2C_WaitOnTXISFlagUntilTimeout:hi2c <- $r4
	.loc	7 6256 9 is_stmt 1              @ c:/Keil_v5\ARM\PACK\Keil\STM32L5xx_DFP\1.3.0\Drivers\STM32L5xx_HAL_Driver\Src\stm32l5xx_hal_i2c.c:6256:9
	mov	r0, r4
	mov	r1, r6
	mov	r2, r5
	bl	I2C_IsAcknowledgeFailed
.Ltmp147:
	.loc	7 6256 9 is_stmt 0              @ c:/Keil_v5\ARM\PACK\Keil\STM32L5xx_DFP\1.3.0\Drivers\STM32L5xx_HAL_Driver\Src\stm32l5xx_hal_i2c.c:6256:9
	cmp	r0, #0
	beq	.LBB6_5
	b	.LBB6_10
.Ltmp148:
	.p2align	2
.LBB6_8:
	@DEBUG_VALUE: I2C_WaitOnTXISFlagUntilTimeout:hi2c <- $r4
	.loc	7 0 9                           @ c:/Keil_v5\ARM\PACK\Keil\STM32L5xx_DFP\1.3.0\Drivers\STM32L5xx_HAL_Driver\Src\stm32l5xx_hal_i2c.c:0:9
	movs	r0, #0
	.loc	7 6278 1 is_stmt 1              @ c:/Keil_v5\ARM\PACK\Keil\STM32L5xx_DFP\1.3.0\Drivers\STM32L5xx_HAL_Driver\Src\stm32l5xx_hal_i2c.c:6278:1
	pop	{r4, r5, r6, pc}
.Ltmp149:
	.p2align	2
.LBB6_9:
	@DEBUG_VALUE: I2C_WaitOnTXISFlagUntilTimeout:Timeout <- $r6
	@DEBUG_VALUE: I2C_WaitOnTXISFlagUntilTimeout:Tickstart <- $r5
	@DEBUG_VALUE: I2C_WaitOnTXISFlagUntilTimeout:hi2c <- $r4
	.loc	7 6256 9                        @ c:/Keil_v5\ARM\PACK\Keil\STM32L5xx_DFP\1.3.0\Drivers\STM32L5xx_HAL_Driver\Src\stm32l5xx_hal_i2c.c:6256:9
	mov	r0, r4
	movs	r1, #0
	mov	r2, r5
	bl	I2C_IsAcknowledgeFailed
.Ltmp150:
	.loc	7 6256 9 is_stmt 0              @ c:/Keil_v5\ARM\PACK\Keil\STM32L5xx_DFP\1.3.0\Drivers\STM32L5xx_HAL_Driver\Src\stm32l5xx_hal_i2c.c:6256:9
	cbz	r0, .LBB6_11
.Ltmp151:
.LBB6_10:
	.loc	7 0 9                           @ c:/Keil_v5\ARM\PACK\Keil\STM32L5xx_DFP\1.3.0\Drivers\STM32L5xx_HAL_Driver\Src\stm32l5xx_hal_i2c.c:0:9
	movs	r0, #1
	.loc	7 6278 1 is_stmt 1              @ c:/Keil_v5\ARM\PACK\Keil\STM32L5xx_DFP\1.3.0\Drivers\STM32L5xx_HAL_Driver\Src\stm32l5xx_hal_i2c.c:6278:1
	pop	{r4, r5, r6, pc}
	.p2align	2
.LBB6_11:
.Ltmp152:
	@DEBUG_VALUE: I2C_WaitOnTXISFlagUntilTimeout:Timeout <- $r6
	@DEBUG_VALUE: I2C_WaitOnTXISFlagUntilTimeout:Tickstart <- $r5
	@DEBUG_VALUE: I2C_WaitOnTXISFlagUntilTimeout:hi2c <- $r4
	.loc	7 6264 13                       @ c:/Keil_v5\ARM\PACK\Keil\STM32L5xx_DFP\1.3.0\Drivers\STM32L5xx_HAL_Driver\Src\stm32l5xx_hal_i2c.c:6264:13
	bl	HAL_GetTick
.Ltmp153:
.LBB6_12:
	@DEBUG_VALUE: I2C_WaitOnTXISFlagUntilTimeout:Timeout <- $r6
	@DEBUG_VALUE: I2C_WaitOnTXISFlagUntilTimeout:Tickstart <- $r5
	@DEBUG_VALUE: I2C_WaitOnTXISFlagUntilTimeout:hi2c <- $r4
	.loc	7 6266 25                       @ c:/Keil_v5\ARM\PACK\Keil\STM32L5xx_DFP\1.3.0\Drivers\STM32L5xx_HAL_Driver\Src\stm32l5xx_hal_i2c.c:6266:25
	ldr	r0, [r4, #68]
	orr	r0, r0, #32
	str	r0, [r4, #68]
	movs	r0, #32
	.loc	7 6267 21                       @ c:/Keil_v5\ARM\PACK\Keil\STM32L5xx_DFP\1.3.0\Drivers\STM32L5xx_HAL_Driver\Src\stm32l5xx_hal_i2c.c:6267:21
	strb.w	r0, [r4, #65]
	movs	r0, #0
	.loc	7 6268 20                       @ c:/Keil_v5\ARM\PACK\Keil\STM32L5xx_DFP\1.3.0\Drivers\STM32L5xx_HAL_Driver\Src\stm32l5xx_hal_i2c.c:6268:20
	strb.w	r0, [r4, #66]
.Ltmp154:
	.loc	7 6271 9                        @ c:/Keil_v5\ARM\PACK\Keil\STM32L5xx_DFP\1.3.0\Drivers\STM32L5xx_HAL_Driver\Src\stm32l5xx_hal_i2c.c:6271:9
	strb.w	r0, [r4, #64]
	movs	r0, #1
.Ltmp155:
	.loc	7 6278 1                        @ c:/Keil_v5\ARM\PACK\Keil\STM32L5xx_DFP\1.3.0\Drivers\STM32L5xx_HAL_Driver\Src\stm32l5xx_hal_i2c.c:6278:1
	pop	{r4, r5, r6, pc}
.Ltmp156:
.Lfunc_end6:
	.size	I2C_WaitOnTXISFlagUntilTimeout, .Lfunc_end6-I2C_WaitOnTXISFlagUntilTimeout
	.cfi_endproc
	.cantunwind
	.fnend
                                        @ -- End function
	.section	.text.HAL_I2C_Master_Receive,"ax",%progbits
	.hidden	HAL_I2C_Master_Receive          @ -- Begin function HAL_I2C_Master_Receive
	.globl	HAL_I2C_Master_Receive
	.p2align	2
	.type	HAL_I2C_Master_Receive,%function
	.code	16                              @ @HAL_I2C_Master_Receive
	.thumb_func
HAL_I2C_Master_Receive:
.Lfunc_begin7:
	.loc	7 1185 0                        @ c:/Keil_v5\ARM\PACK\Keil\STM32L5xx_DFP\1.3.0\Drivers\STM32L5xx_HAL_Driver\Src\stm32l5xx_hal_i2c.c:1185:0
	.fnstart
	.cfi_startproc
@ %bb.0:
	@DEBUG_VALUE: HAL_I2C_Master_Receive:hi2c <- $r0
	@DEBUG_VALUE: HAL_I2C_Master_Receive:DevAddress <- $r1
	@DEBUG_VALUE: HAL_I2C_Master_Receive:pData <- $r2
	@DEBUG_VALUE: HAL_I2C_Master_Receive:Size <- $r3
	.save	{r4, r5, r6, r7, r8, r9, r10, lr}
	push.w	{r4, r5, r6, r7, r8, r9, r10, lr}
	.cfi_def_cfa_offset 32
	.cfi_offset lr, -4
	.cfi_offset r10, -8
	.cfi_offset r9, -12
	.cfi_offset r8, -16
	.cfi_offset r7, -20
	.cfi_offset r6, -24
	.cfi_offset r5, -28
	.cfi_offset r4, -32
	mov	r4, r0
.Ltmp157:
	@DEBUG_VALUE: HAL_I2C_Master_Receive:Timeout <- [DW_OP_plus_uconst 32] [$sp+0]
	@DEBUG_VALUE: HAL_I2C_Master_Receive:Size <- $r3
	@DEBUG_VALUE: HAL_I2C_Master_Receive:DevAddress <- undef
	@DEBUG_VALUE: HAL_I2C_Master_Receive:hi2c <- $r4
	.loc	7 1188 13 prologue_end          @ c:/Keil_v5\ARM\PACK\Keil\STM32L5xx_DFP\1.3.0\Drivers\STM32L5xx_HAL_Driver\Src\stm32l5xx_hal_i2c.c:1188:13
	ldrb.w	r0, [r0, #65]
.Ltmp158:
	@DEBUG_VALUE: HAL_I2C_Master_Receive:pData <- $r2
	.loc	7 1188 7 is_stmt 0              @ c:/Keil_v5\ARM\PACK\Keil\STM32L5xx_DFP\1.3.0\Drivers\STM32L5xx_HAL_Driver\Src\stm32l5xx_hal_i2c.c:1188:7
	cmp	r0, #32
.Ltmp159:
	@DEBUG_VALUE: HAL_I2C_Master_Receive:DevAddress <- $r1
	bne	.LBB7_2
.Ltmp160:
@ %bb.1:
	@DEBUG_VALUE: HAL_I2C_Master_Receive:hi2c <- $r4
	@DEBUG_VALUE: HAL_I2C_Master_Receive:Size <- $r3
	@DEBUG_VALUE: HAL_I2C_Master_Receive:pData <- $r2
	@DEBUG_VALUE: HAL_I2C_Master_Receive:DevAddress <- $r1
	@DEBUG_VALUE: HAL_I2C_Master_Receive:Timeout <- [DW_OP_plus_uconst 32] [$sp+0]
	@DEBUG_VALUE: HAL_I2C_Master_Receive:Size <- $r3
	@DEBUG_VALUE: HAL_I2C_Master_Receive:pData <- $r2
	@DEBUG_VALUE: HAL_I2C_Master_Receive:DevAddress <- $r1
	@DEBUG_VALUE: HAL_I2C_Master_Receive:Size <- $r3
	.loc	7 1191 5 is_stmt 1              @ c:/Keil_v5\ARM\PACK\Keil\STM32L5xx_DFP\1.3.0\Drivers\STM32L5xx_HAL_Driver\Src\stm32l5xx_hal_i2c.c:1191:5
	ldrb.w	r0, [r4, #64]
.Ltmp161:
	.loc	7 1191 5 is_stmt 0              @ c:/Keil_v5\ARM\PACK\Keil\STM32L5xx_DFP\1.3.0\Drivers\STM32L5xx_HAL_Driver\Src\stm32l5xx_hal_i2c.c:1191:5
	cmp	r0, #1
	bne	.LBB7_3
.Ltmp162:
.LBB7_2:
	@DEBUG_VALUE: HAL_I2C_Master_Receive:hi2c <- $r4
	@DEBUG_VALUE: HAL_I2C_Master_Receive:Size <- $r3
	@DEBUG_VALUE: HAL_I2C_Master_Receive:pData <- $r2
	@DEBUG_VALUE: HAL_I2C_Master_Receive:DevAddress <- $r1
	@DEBUG_VALUE: HAL_I2C_Master_Receive:Timeout <- [DW_OP_plus_uconst 32] [$sp+0]
	.loc	7 0 5                           @ c:/Keil_v5\ARM\PACK\Keil\STM32L5xx_DFP\1.3.0\Drivers\STM32L5xx_HAL_Driver\Src\stm32l5xx_hal_i2c.c:0:5
	movs	r0, #2
	.loc	7 1286 1 is_stmt 1              @ c:/Keil_v5\ARM\PACK\Keil\STM32L5xx_DFP\1.3.0\Drivers\STM32L5xx_HAL_Driver\Src\stm32l5xx_hal_i2c.c:1286:1
	pop.w	{r4, r5, r6, r7, r8, r9, r10, pc}
.Ltmp163:
	.p2align	2
.LBB7_3:
	@DEBUG_VALUE: HAL_I2C_Master_Receive:hi2c <- $r4
	@DEBUG_VALUE: HAL_I2C_Master_Receive:Size <- $r3
	@DEBUG_VALUE: HAL_I2C_Master_Receive:pData <- $r2
	@DEBUG_VALUE: HAL_I2C_Master_Receive:DevAddress <- $r1
	@DEBUG_VALUE: HAL_I2C_Master_Receive:Timeout <- [DW_OP_plus_uconst 32] [$sp+0]
	.loc	7 0 1 is_stmt 0                 @ c:/Keil_v5\ARM\PACK\Keil\STM32L5xx_DFP\1.3.0\Drivers\STM32L5xx_HAL_Driver\Src\stm32l5xx_hal_i2c.c:0:1
	movs	r0, #1
	mov	r6, r3
.Ltmp164:
	@DEBUG_VALUE: HAL_I2C_Master_Receive:Size <- $r6
	@DEBUG_VALUE: HAL_I2C_Master_Receive:Size <- $r6
	@DEBUG_VALUE: HAL_I2C_Master_Receive:Size <- $r6
	mov	r7, r2
.Ltmp165:
	@DEBUG_VALUE: HAL_I2C_Master_Receive:pData <- $r7
	@DEBUG_VALUE: HAL_I2C_Master_Receive:pData <- $r7
	mov	r8, r1
.Ltmp166:
	@DEBUG_VALUE: HAL_I2C_Master_Receive:DevAddress <- $r8
	@DEBUG_VALUE: HAL_I2C_Master_Receive:DevAddress <- $r8
	@DEBUG_VALUE: HAL_I2C_Master_Receive:Size <- $r6
	.loc	7 1191 5 is_stmt 1              @ c:/Keil_v5\ARM\PACK\Keil\STM32L5xx_DFP\1.3.0\Drivers\STM32L5xx_HAL_Driver\Src\stm32l5xx_hal_i2c.c:1191:5
	strb.w	r0, [r4, #64]
.Ltmp167:
	.loc	7 1194 17                       @ c:/Keil_v5\ARM\PACK\Keil\STM32L5xx_DFP\1.3.0\Drivers\STM32L5xx_HAL_Driver\Src\stm32l5xx_hal_i2c.c:1194:17
	bl	HAL_GetTick
.Ltmp168:
	.loc	7 6223 10                       @ c:/Keil_v5\ARM\PACK\Keil\STM32L5xx_DFP\1.3.0\Drivers\STM32L5xx_HAL_Driver\Src\stm32l5xx_hal_i2c.c:6223:10
	ldr	r1, [r4]
.Ltmp169:
	.loc	7 1194 17                       @ c:/Keil_v5\ARM\PACK\Keil\STM32L5xx_DFP\1.3.0\Drivers\STM32L5xx_HAL_Driver\Src\stm32l5xx_hal_i2c.c:1194:17
	mov	r5, r0
.Ltmp170:
	@DEBUG_VALUE: I2C_WaitOnFlagUntilTimeout:Timeout <- 25
	@DEBUG_VALUE: I2C_WaitOnFlagUntilTimeout:Status <- 1
	@DEBUG_VALUE: I2C_WaitOnFlagUntilTimeout:Flag <- 32768
	@DEBUG_VALUE: I2C_WaitOnFlagUntilTimeout:hi2c <- $r4
	@DEBUG_VALUE: I2C_WaitOnFlagUntilTimeout:Tickstart <- $r5
	@DEBUG_VALUE: HAL_I2C_Master_Receive:tickstart <- $r5
	.loc	7 6223 10                       @ c:/Keil_v5\ARM\PACK\Keil\STM32L5xx_DFP\1.3.0\Drivers\STM32L5xx_HAL_Driver\Src\stm32l5xx_hal_i2c.c:6223:10
	ldr	r2, [r1, #24]
	.loc	7 6223 3 is_stmt 0              @ c:/Keil_v5\ARM\PACK\Keil\STM32L5xx_DFP\1.3.0\Drivers\STM32L5xx_HAL_Driver\Src\stm32l5xx_hal_i2c.c:6223:3
	lsls	r2, r2, #16
	bpl	.LBB7_6
.Ltmp171:
	.p2align	2
.LBB7_4:                                @ =>This Inner Loop Header: Depth=1
	@DEBUG_VALUE: HAL_I2C_Master_Receive:DevAddress <- $r8
	@DEBUG_VALUE: HAL_I2C_Master_Receive:pData <- $r7
	@DEBUG_VALUE: HAL_I2C_Master_Receive:Size <- $r6
	@DEBUG_VALUE: HAL_I2C_Master_Receive:tickstart <- $r5
	@DEBUG_VALUE: I2C_WaitOnFlagUntilTimeout:Tickstart <- $r5
	@DEBUG_VALUE: I2C_WaitOnFlagUntilTimeout:hi2c <- $r4
	@DEBUG_VALUE: HAL_I2C_Master_Receive:hi2c <- $r4
	@DEBUG_VALUE: HAL_I2C_Master_Receive:Timeout <- [DW_OP_plus_uconst 32] [$sp+0]
	@DEBUG_VALUE: I2C_WaitOnFlagUntilTimeout:Flag <- 32768
	@DEBUG_VALUE: I2C_WaitOnFlagUntilTimeout:Status <- 1
	@DEBUG_VALUE: I2C_WaitOnFlagUntilTimeout:Timeout <- 25
	.loc	7 6228 13 is_stmt 1             @ c:/Keil_v5\ARM\PACK\Keil\STM32L5xx_DFP\1.3.0\Drivers\STM32L5xx_HAL_Driver\Src\stm32l5xx_hal_i2c.c:6228:13
	bl	HAL_GetTick
	.loc	7 6228 27 is_stmt 0             @ c:/Keil_v5\ARM\PACK\Keil\STM32L5xx_DFP\1.3.0\Drivers\STM32L5xx_HAL_Driver\Src\stm32l5xx_hal_i2c.c:6228:27
	subs	r0, r0, r5
	.loc	7 6228 51                       @ c:/Keil_v5\ARM\PACK\Keil\STM32L5xx_DFP\1.3.0\Drivers\STM32L5xx_HAL_Driver\Src\stm32l5xx_hal_i2c.c:6228:51
	cmp	r0, #25
	bhi.w	.LBB7_42
.Ltmp172:
@ %bb.5:                                @   in Loop: Header=BB7_4 Depth=1
	@DEBUG_VALUE: HAL_I2C_Master_Receive:DevAddress <- $r8
	@DEBUG_VALUE: HAL_I2C_Master_Receive:pData <- $r7
	@DEBUG_VALUE: HAL_I2C_Master_Receive:Size <- $r6
	@DEBUG_VALUE: HAL_I2C_Master_Receive:tickstart <- $r5
	@DEBUG_VALUE: I2C_WaitOnFlagUntilTimeout:Tickstart <- $r5
	@DEBUG_VALUE: I2C_WaitOnFlagUntilTimeout:hi2c <- $r4
	@DEBUG_VALUE: HAL_I2C_Master_Receive:hi2c <- $r4
	@DEBUG_VALUE: HAL_I2C_Master_Receive:Timeout <- [DW_OP_plus_uconst 32] [$sp+0]
	@DEBUG_VALUE: I2C_WaitOnFlagUntilTimeout:Flag <- 32768
	@DEBUG_VALUE: I2C_WaitOnFlagUntilTimeout:Status <- 1
	@DEBUG_VALUE: I2C_WaitOnFlagUntilTimeout:Timeout <- 25
	.loc	7 6223 10 is_stmt 1             @ c:/Keil_v5\ARM\PACK\Keil\STM32L5xx_DFP\1.3.0\Drivers\STM32L5xx_HAL_Driver\Src\stm32l5xx_hal_i2c.c:6223:10
	ldr	r1, [r4]
	ldr	r0, [r1, #24]
	.loc	7 6223 3 is_stmt 0              @ c:/Keil_v5\ARM\PACK\Keil\STM32L5xx_DFP\1.3.0\Drivers\STM32L5xx_HAL_Driver\Src\stm32l5xx_hal_i2c.c:6223:3
	lsls	r0, r0, #16
	bmi	.LBB7_4
.Ltmp173:
.LBB7_6:
	@DEBUG_VALUE: HAL_I2C_Master_Receive:DevAddress <- $r8
	@DEBUG_VALUE: HAL_I2C_Master_Receive:pData <- $r7
	@DEBUG_VALUE: HAL_I2C_Master_Receive:Size <- $r6
	@DEBUG_VALUE: HAL_I2C_Master_Receive:tickstart <- $r5
	@DEBUG_VALUE: HAL_I2C_Master_Receive:hi2c <- $r4
	@DEBUG_VALUE: HAL_I2C_Master_Receive:Timeout <- [DW_OP_plus_uconst 32] [$sp+0]
	@DEBUG_VALUE: HAL_I2C_Master_Receive:Size <- $r6
	.loc	7 0 3                           @ c:/Keil_v5\ARM\PACK\Keil\STM32L5xx_DFP\1.3.0\Drivers\STM32L5xx_HAL_Driver\Src\stm32l5xx_hal_i2c.c:0:3
	movs	r0, #34
	.loc	7 1201 21 is_stmt 1             @ c:/Keil_v5\ARM\PACK\Keil\STM32L5xx_DFP\1.3.0\Drivers\STM32L5xx_HAL_Driver\Src\stm32l5xx_hal_i2c.c:1201:21
	strb.w	r0, [r4, #65]
	movs	r0, #16
	.loc	7 1202 21                       @ c:/Keil_v5\ARM\PACK\Keil\STM32L5xx_DFP\1.3.0\Drivers\STM32L5xx_HAL_Driver\Src\stm32l5xx_hal_i2c.c:1202:21
	strb.w	r0, [r4, #66]
	movs	r0, #0
	.loc	7 1203 21                       @ c:/Keil_v5\ARM\PACK\Keil\STM32L5xx_DFP\1.3.0\Drivers\STM32L5xx_HAL_Driver\Src\stm32l5xx_hal_i2c.c:1203:21
	str	r0, [r4, #68]
	.loc	7 1206 21                       @ c:/Keil_v5\ARM\PACK\Keil\STM32L5xx_DFP\1.3.0\Drivers\STM32L5xx_HAL_Driver\Src\stm32l5xx_hal_i2c.c:1206:21
	str	r7, [r4, #36]
	.loc	7 1207 21                       @ c:/Keil_v5\ARM\PACK\Keil\STM32L5xx_DFP\1.3.0\Drivers\STM32L5xx_HAL_Driver\Src\stm32l5xx_hal_i2c.c:1207:21
	strh	r6, [r4, #42]
	.loc	7 1208 21                       @ c:/Keil_v5\ARM\PACK\Keil\STM32L5xx_DFP\1.3.0\Drivers\STM32L5xx_HAL_Driver\Src\stm32l5xx_hal_i2c.c:1208:21
	str	r0, [r4, #52]
.Ltmp174:
	.loc	7 1212 15                       @ c:/Keil_v5\ARM\PACK\Keil\STM32L5xx_DFP\1.3.0\Drivers\STM32L5xx_HAL_Driver\Src\stm32l5xx_hal_i2c.c:1212:15
	ldrh	r0, [r4, #42]
.Ltmp175:
	.loc	7 1212 9 is_stmt 0              @ c:/Keil_v5\ARM\PACK\Keil\STM32L5xx_DFP\1.3.0\Drivers\STM32L5xx_HAL_Driver\Src\stm32l5xx_hal_i2c.c:1212:9
	cmp.w	r0, #256
	blo	.LBB7_8
.Ltmp176:
@ %bb.7:
	@DEBUG_VALUE: HAL_I2C_Master_Receive:DevAddress <- $r8
	@DEBUG_VALUE: HAL_I2C_Master_Receive:pData <- $r7
	@DEBUG_VALUE: HAL_I2C_Master_Receive:Size <- $r6
	@DEBUG_VALUE: HAL_I2C_Master_Receive:tickstart <- $r5
	@DEBUG_VALUE: HAL_I2C_Master_Receive:hi2c <- $r4
	@DEBUG_VALUE: HAL_I2C_Master_Receive:Timeout <- [DW_OP_plus_uconst 32] [$sp+0]
	.loc	7 6462 3 is_stmt 1              @ c:/Keil_v5\ARM\PACK\Keil\STM32L5xx_DFP\1.3.0\Drivers\STM32L5xx_HAL_Driver\Src\stm32l5xx_hal_i2c.c:6462:3
	ldr	r0, [r1, #4]!
	movw	r2, #38912
	movt	r2, #31744
	ands	r0, r2
	mov	r2, r8
	bfc	r2, #10, #22
	movw	r3, #9216
	add	r2, r0
	movt	r3, #33279
.Ltmp177:
	@DEBUG_VALUE: I2C_TransferConfig:Request <- -2147474432
	@DEBUG_VALUE: I2C_TransferConfig:Mode <- 16777216
	@DEBUG_VALUE: I2C_TransferConfig:Size <- -1
	@DEBUG_VALUE: I2C_TransferConfig:DevAddress <- $r8
	@DEBUG_VALUE: I2C_TransferConfig:hi2c <- undef
	.loc	7 0 3 is_stmt 0                 @ c:/Keil_v5\ARM\PACK\Keil\STM32L5xx_DFP\1.3.0\Drivers\STM32L5xx_HAL_Driver\Src\stm32l5xx_hal_i2c.c:0:3
	movs	r0, #255
	b	.LBB7_9
.Ltmp178:
	.p2align	2
.LBB7_8:
	@DEBUG_VALUE: HAL_I2C_Master_Receive:DevAddress <- $r8
	@DEBUG_VALUE: HAL_I2C_Master_Receive:pData <- $r7
	@DEBUG_VALUE: HAL_I2C_Master_Receive:Size <- $r6
	@DEBUG_VALUE: HAL_I2C_Master_Receive:tickstart <- $r5
	@DEBUG_VALUE: HAL_I2C_Master_Receive:hi2c <- $r4
	@DEBUG_VALUE: HAL_I2C_Master_Receive:Timeout <- [DW_OP_plus_uconst 32] [$sp+0]
	.loc	7 1219 30 is_stmt 1             @ c:/Keil_v5\ARM\PACK\Keil\STM32L5xx_DFP\1.3.0\Drivers\STM32L5xx_HAL_Driver\Src\stm32l5xx_hal_i2c.c:1219:30
	ldrh	r0, [r4, #42]
.Ltmp179:
	@DEBUG_VALUE: I2C_TransferConfig:Request <- -2147474432
	@DEBUG_VALUE: I2C_TransferConfig:Mode <- 33554432
	@DEBUG_VALUE: I2C_TransferConfig:DevAddress <- $r8
	@DEBUG_VALUE: I2C_TransferConfig:hi2c <- undef
	@DEBUG_VALUE: I2C_TransferConfig:Size <- [DW_OP_LLVM_convert 16 7, DW_OP_LLVM_convert 8 7, DW_OP_stack_value] $r0
	.loc	7 6462 3                        @ c:/Keil_v5\ARM\PACK\Keil\STM32L5xx_DFP\1.3.0\Drivers\STM32L5xx_HAL_Driver\Src\stm32l5xx_hal_i2c.c:6462:3
	mov	r3, r8
	bfc	r3, #10, #22
	uxtb	r7, r0
.Ltmp180:
	@DEBUG_VALUE: HAL_I2C_Master_Receive:pData <- [DW_OP_LLVM_entry_value 1] $r2
	ldr	r2, [r1, #4]!
	orr.w	r3, r3, r7, lsl #16
	movw	r7, #38912
	movt	r7, #31744
	ands	r2, r7
	add	r2, r3
	movw	r3, #9216
	movt	r3, #33279
	add.w	r3, r3, #65536
.Ltmp181:
.LBB7_9:
	@DEBUG_VALUE: HAL_I2C_Master_Receive:DevAddress <- $r8
	@DEBUG_VALUE: HAL_I2C_Master_Receive:Size <- $r6
	@DEBUG_VALUE: HAL_I2C_Master_Receive:tickstart <- $r5
	@DEBUG_VALUE: HAL_I2C_Master_Receive:hi2c <- $r4
	@DEBUG_VALUE: HAL_I2C_Master_Receive:Timeout <- [DW_OP_plus_uconst 32] [$sp+0]
	.loc	7 0 0 is_stmt 0                 @ c:/Keil_v5\ARM\PACK\Keil\STM32L5xx_DFP\1.3.0\Drivers\STM32L5xx_HAL_Driver\Src\stm32l5xx_hal_i2c.c:0:0
	orrs	r2, r3
	str	r2, [r1]
.Ltmp182:
	.loc	7 1214 22 is_stmt 1             @ c:/Keil_v5\ARM\PACK\Keil\STM32L5xx_DFP\1.3.0\Drivers\STM32L5xx_HAL_Driver\Src\stm32l5xx_hal_i2c.c:1214:22
	strh	r0, [r4, #40]
.Ltmp183:
	.loc	7 1223 18                       @ c:/Keil_v5\ARM\PACK\Keil\STM32L5xx_DFP\1.3.0\Drivers\STM32L5xx_HAL_Driver\Src\stm32l5xx_hal_i2c.c:1223:18
	ldrh	r0, [r4, #42]
	ldr	r6, [sp, #32]
.Ltmp184:
	.loc	7 1223 5 is_stmt 0              @ c:/Keil_v5\ARM\PACK\Keil\STM32L5xx_DFP\1.3.0\Drivers\STM32L5xx_HAL_Driver\Src\stm32l5xx_hal_i2c.c:1223:5
	cmp	r0, #0
	beq.w	.LBB7_34
.Ltmp185:
@ %bb.10:
	@DEBUG_VALUE: HAL_I2C_Master_Receive:DevAddress <- $r8
	@DEBUG_VALUE: HAL_I2C_Master_Receive:tickstart <- $r5
	@DEBUG_VALUE: HAL_I2C_Master_Receive:hi2c <- $r4
	@DEBUG_VALUE: HAL_I2C_Master_Receive:Timeout <- [DW_OP_plus_uconst 32] [$sp+0]
	.loc	7 0 5                           @ c:/Keil_v5\ARM\PACK\Keil\STM32L5xx_DFP\1.3.0\Drivers\STM32L5xx_HAL_Driver\Src\stm32l5xx_hal_i2c.c:0:5
	bfc	r8, #10, #22
.Ltmp186:
	add.w	r9, r8, #33554432
	orr	r0, r8, #16777216
	movw	r8, #39936
	.loc	7 1223 5                        @ c:/Keil_v5\ARM\PACK\Keil\STM32L5xx_DFP\1.3.0\Drivers\STM32L5xx_HAL_Driver\Src\stm32l5xx_hal_i2c.c:1223:5
	adds	r1, r6, #1
	movt	r8, #64512
	orr	r7, r0, #16711680
	mov.w	r10, #255
	bne	.LBB7_25
	b	.LBB7_14
.Ltmp187:
	.p2align	2
.LBB7_11:                               @   in Loop: Header=BB7_14 Depth=1
	@DEBUG_VALUE: HAL_I2C_Master_Receive:tickstart <- $r5
	@DEBUG_VALUE: HAL_I2C_Master_Receive:hi2c <- $r4
	@DEBUG_VALUE: HAL_I2C_Master_Receive:Timeout <- [DW_OP_plus_uconst 32] [$sp+0]
	.loc	7 1250 26 is_stmt 1             @ c:/Keil_v5\ARM\PACK\Keil\STM32L5xx_DFP\1.3.0\Drivers\STM32L5xx_HAL_Driver\Src\stm32l5xx_hal_i2c.c:1250:26
	strh.w	r10, [r4, #40]
.Ltmp188:
	@DEBUG_VALUE: I2C_TransferConfig:Request <- 0
	@DEBUG_VALUE: I2C_TransferConfig:Mode <- 16777216
	@DEBUG_VALUE: I2C_TransferConfig:Size <- -1
	@DEBUG_VALUE: I2C_TransferConfig:DevAddress <- undef
	@DEBUG_VALUE: I2C_TransferConfig:hi2c <- undef
	.loc	7 6462 3                        @ c:/Keil_v5\ARM\PACK\Keil\STM32L5xx_DFP\1.3.0\Drivers\STM32L5xx_HAL_Driver\Src\stm32l5xx_hal_i2c.c:6462:3
	ldr	r1, [r0, #4]!
	and.w	r1, r1, r8
	orrs	r1, r7
.Ltmp189:
.LBB7_12:                               @   in Loop: Header=BB7_14 Depth=1
	@DEBUG_VALUE: HAL_I2C_Master_Receive:tickstart <- $r5
	@DEBUG_VALUE: HAL_I2C_Master_Receive:hi2c <- $r4
	@DEBUG_VALUE: HAL_I2C_Master_Receive:Timeout <- [DW_OP_plus_uconst 32] [$sp+0]
	.loc	7 0 0 is_stmt 0                 @ c:/Keil_v5\ARM\PACK\Keil\STM32L5xx_DFP\1.3.0\Drivers\STM32L5xx_HAL_Driver\Src\stm32l5xx_hal_i2c.c:0:0
	str	r1, [r0]
.Ltmp190:
.LBB7_13:                               @   in Loop: Header=BB7_14 Depth=1
	@DEBUG_VALUE: HAL_I2C_Master_Receive:tickstart <- $r5
	@DEBUG_VALUE: HAL_I2C_Master_Receive:hi2c <- $r4
	@DEBUG_VALUE: HAL_I2C_Master_Receive:Timeout <- [DW_OP_plus_uconst 32] [$sp+0]
	.loc	7 1223 18 is_stmt 1             @ c:/Keil_v5\ARM\PACK\Keil\STM32L5xx_DFP\1.3.0\Drivers\STM32L5xx_HAL_Driver\Src\stm32l5xx_hal_i2c.c:1223:18
	ldrh	r0, [r4, #42]
	.loc	7 1223 5 is_stmt 0              @ c:/Keil_v5\ARM\PACK\Keil\STM32L5xx_DFP\1.3.0\Drivers\STM32L5xx_HAL_Driver\Src\stm32l5xx_hal_i2c.c:1223:5
	cmp	r0, #0
	beq	.LBB7_34
.Ltmp191:
.LBB7_14:                               @ =>This Loop Header: Depth=1
                                        @     Child Loop BB7_18 Depth 2
	@DEBUG_VALUE: HAL_I2C_Master_Receive:tickstart <- $r5
	@DEBUG_VALUE: HAL_I2C_Master_Receive:hi2c <- $r4
	@DEBUG_VALUE: HAL_I2C_Master_Receive:Timeout <- [DW_OP_plus_uconst 32] [$sp+0]
	.loc	7 1226 11 is_stmt 1             @ c:/Keil_v5\ARM\PACK\Keil\STM32L5xx_DFP\1.3.0\Drivers\STM32L5xx_HAL_Driver\Src\stm32l5xx_hal_i2c.c:1226:11
	mov	r0, r4
	mov.w	r1, #-1
	mov	r2, r5
	bl	I2C_WaitOnRXNEFlagUntilTimeout
.Ltmp192:
	.loc	7 1226 11 is_stmt 0             @ c:/Keil_v5\ARM\PACK\Keil\STM32L5xx_DFP\1.3.0\Drivers\STM32L5xx_HAL_Driver\Src\stm32l5xx_hal_i2c.c:1226:11
	cmp	r0, #0
	bne.w	.LBB7_38
.Ltmp193:
@ %bb.15:                               @   in Loop: Header=BB7_14 Depth=1
	@DEBUG_VALUE: HAL_I2C_Master_Receive:tickstart <- $r5
	@DEBUG_VALUE: HAL_I2C_Master_Receive:hi2c <- $r4
	@DEBUG_VALUE: HAL_I2C_Master_Receive:Timeout <- [DW_OP_plus_uconst 32] [$sp+0]
	.loc	7 1232 40 is_stmt 1             @ c:/Keil_v5\ARM\PACK\Keil\STM32L5xx_DFP\1.3.0\Drivers\STM32L5xx_HAL_Driver\Src\stm32l5xx_hal_i2c.c:1232:40
	ldr	r0, [r4]
	.loc	7 1232 14 is_stmt 0             @ c:/Keil_v5\ARM\PACK\Keil\STM32L5xx_DFP\1.3.0\Drivers\STM32L5xx_HAL_Driver\Src\stm32l5xx_hal_i2c.c:1232:14
	ldr	r1, [r4, #36]
	.loc	7 1232 50                       @ c:/Keil_v5\ARM\PACK\Keil\STM32L5xx_DFP\1.3.0\Drivers\STM32L5xx_HAL_Driver\Src\stm32l5xx_hal_i2c.c:1232:50
	ldr	r0, [r0, #36]
	.loc	7 1232 23                       @ c:/Keil_v5\ARM\PACK\Keil\STM32L5xx_DFP\1.3.0\Drivers\STM32L5xx_HAL_Driver\Src\stm32l5xx_hal_i2c.c:1232:23
	strb	r0, [r1]
	.loc	7 1235 21 is_stmt 1             @ c:/Keil_v5\ARM\PACK\Keil\STM32L5xx_DFP\1.3.0\Drivers\STM32L5xx_HAL_Driver\Src\stm32l5xx_hal_i2c.c:1235:21
	ldr	r0, [r4, #36]
	.loc	7 1237 21                       @ c:/Keil_v5\ARM\PACK\Keil\STM32L5xx_DFP\1.3.0\Drivers\STM32L5xx_HAL_Driver\Src\stm32l5xx_hal_i2c.c:1237:21
	ldrh	r1, [r4, #40]
	.loc	7 1235 21                       @ c:/Keil_v5\ARM\PACK\Keil\STM32L5xx_DFP\1.3.0\Drivers\STM32L5xx_HAL_Driver\Src\stm32l5xx_hal_i2c.c:1235:21
	adds	r0, #1
	.loc	7 1237 21                       @ c:/Keil_v5\ARM\PACK\Keil\STM32L5xx_DFP\1.3.0\Drivers\STM32L5xx_HAL_Driver\Src\stm32l5xx_hal_i2c.c:1237:21
	subs	r1, #1
	.loc	7 1235 21                       @ c:/Keil_v5\ARM\PACK\Keil\STM32L5xx_DFP\1.3.0\Drivers\STM32L5xx_HAL_Driver\Src\stm32l5xx_hal_i2c.c:1235:21
	str	r0, [r4, #36]
	.loc	7 1237 21                       @ c:/Keil_v5\ARM\PACK\Keil\STM32L5xx_DFP\1.3.0\Drivers\STM32L5xx_HAL_Driver\Src\stm32l5xx_hal_i2c.c:1237:21
	strh	r1, [r4, #40]
	.loc	7 1238 22                       @ c:/Keil_v5\ARM\PACK\Keil\STM32L5xx_DFP\1.3.0\Drivers\STM32L5xx_HAL_Driver\Src\stm32l5xx_hal_i2c.c:1238:22
	ldrh	r0, [r4, #42]
.Ltmp194:
	.loc	7 1240 35                       @ c:/Keil_v5\ARM\PACK\Keil\STM32L5xx_DFP\1.3.0\Drivers\STM32L5xx_HAL_Driver\Src\stm32l5xx_hal_i2c.c:1240:35
	lsls	r1, r1, #16
.Ltmp195:
	.loc	7 1238 22                       @ c:/Keil_v5\ARM\PACK\Keil\STM32L5xx_DFP\1.3.0\Drivers\STM32L5xx_HAL_Driver\Src\stm32l5xx_hal_i2c.c:1238:22
	sub.w	r0, r0, #1
	strh	r0, [r4, #42]
.Ltmp196:
	.loc	7 1240 18                       @ c:/Keil_v5\ARM\PACK\Keil\STM32L5xx_DFP\1.3.0\Drivers\STM32L5xx_HAL_Driver\Src\stm32l5xx_hal_i2c.c:1240:18
	ldrh	r0, [r4, #42]
	.loc	7 1240 35 is_stmt 0             @ c:/Keil_v5\ARM\PACK\Keil\STM32L5xx_DFP\1.3.0\Drivers\STM32L5xx_HAL_Driver\Src\stm32l5xx_hal_i2c.c:1240:35
	bne	.LBB7_13
.Ltmp197:
@ %bb.16:                               @   in Loop: Header=BB7_14 Depth=1
	@DEBUG_VALUE: HAL_I2C_Master_Receive:tickstart <- $r5
	@DEBUG_VALUE: HAL_I2C_Master_Receive:hi2c <- $r4
	@DEBUG_VALUE: HAL_I2C_Master_Receive:Timeout <- [DW_OP_plus_uconst 32] [$sp+0]
	cmp	r0, #0
	beq	.LBB7_13
.Ltmp198:
@ %bb.17:                               @   in Loop: Header=BB7_14 Depth=1
	@DEBUG_VALUE: HAL_I2C_Master_Receive:tickstart <- $r5
	@DEBUG_VALUE: HAL_I2C_Master_Receive:hi2c <- $r4
	@DEBUG_VALUE: HAL_I2C_Master_Receive:Timeout <- [DW_OP_plus_uconst 32] [$sp+0]
	@DEBUG_VALUE: I2C_WaitOnFlagUntilTimeout:hi2c <- $r4
	@DEBUG_VALUE: I2C_WaitOnFlagUntilTimeout:Flag <- 128
	@DEBUG_VALUE: I2C_WaitOnFlagUntilTimeout:Status <- 0
	@DEBUG_VALUE: I2C_WaitOnFlagUntilTimeout:Timeout <- $r6
	@DEBUG_VALUE: I2C_WaitOnFlagUntilTimeout:Tickstart <- $r5
	.loc	7 6223 10 is_stmt 1             @ c:/Keil_v5\ARM\PACK\Keil\STM32L5xx_DFP\1.3.0\Drivers\STM32L5xx_HAL_Driver\Src\stm32l5xx_hal_i2c.c:6223:10
	ldr	r0, [r4]
.Ltmp199:
.LBB7_18:                               @   Parent Loop BB7_14 Depth=1
                                        @ =>  This Inner Loop Header: Depth=2
	@DEBUG_VALUE: I2C_WaitOnFlagUntilTimeout:Timeout <- $r6
	@DEBUG_VALUE: I2C_WaitOnFlagUntilTimeout:Tickstart <- $r5
	@DEBUG_VALUE: HAL_I2C_Master_Receive:tickstart <- $r5
	@DEBUG_VALUE: I2C_WaitOnFlagUntilTimeout:hi2c <- $r4
	@DEBUG_VALUE: HAL_I2C_Master_Receive:hi2c <- $r4
	@DEBUG_VALUE: HAL_I2C_Master_Receive:Timeout <- [DW_OP_plus_uconst 32] [$sp+0]
	@DEBUG_VALUE: I2C_WaitOnFlagUntilTimeout:Status <- 0
	@DEBUG_VALUE: I2C_WaitOnFlagUntilTimeout:Flag <- 128
	ldr	r1, [r0, #24]
	.loc	7 6223 3 is_stmt 0              @ c:/Keil_v5\ARM\PACK\Keil\STM32L5xx_DFP\1.3.0\Drivers\STM32L5xx_HAL_Driver\Src\stm32l5xx_hal_i2c.c:6223:3
	lsls	r1, r1, #24
	.loc	7 6223 10                       @ c:/Keil_v5\ARM\PACK\Keil\STM32L5xx_DFP\1.3.0\Drivers\STM32L5xx_HAL_Driver\Src\stm32l5xx_hal_i2c.c:6223:10
	itttt	pl
	ldrpl	r1, [r0, #24]
	.loc	7 6223 3                        @ c:/Keil_v5\ARM\PACK\Keil\STM32L5xx_DFP\1.3.0\Drivers\STM32L5xx_HAL_Driver\Src\stm32l5xx_hal_i2c.c:6223:3
	lslspl.w	r1, r1, #24
	.loc	7 6223 10                       @ c:/Keil_v5\ARM\PACK\Keil\STM32L5xx_DFP\1.3.0\Drivers\STM32L5xx_HAL_Driver\Src\stm32l5xx_hal_i2c.c:6223:10
	ldrpl	r1, [r0, #24]
	.loc	7 6223 3                        @ c:/Keil_v5\ARM\PACK\Keil\STM32L5xx_DFP\1.3.0\Drivers\STM32L5xx_HAL_Driver\Src\stm32l5xx_hal_i2c.c:6223:3
	lslspl.w	r1, r1, #24
	bmi	.LBB7_20
.Ltmp200:
@ %bb.19:                               @   in Loop: Header=BB7_18 Depth=2
	@DEBUG_VALUE: I2C_WaitOnFlagUntilTimeout:Timeout <- $r6
	@DEBUG_VALUE: I2C_WaitOnFlagUntilTimeout:Tickstart <- $r5
	@DEBUG_VALUE: HAL_I2C_Master_Receive:tickstart <- $r5
	@DEBUG_VALUE: I2C_WaitOnFlagUntilTimeout:hi2c <- $r4
	@DEBUG_VALUE: HAL_I2C_Master_Receive:hi2c <- $r4
	@DEBUG_VALUE: HAL_I2C_Master_Receive:Timeout <- [DW_OP_plus_uconst 32] [$sp+0]
	@DEBUG_VALUE: I2C_WaitOnFlagUntilTimeout:Status <- 0
	@DEBUG_VALUE: I2C_WaitOnFlagUntilTimeout:Flag <- 128
	.loc	7 6223 10                       @ c:/Keil_v5\ARM\PACK\Keil\STM32L5xx_DFP\1.3.0\Drivers\STM32L5xx_HAL_Driver\Src\stm32l5xx_hal_i2c.c:6223:10
	ldr	r1, [r0, #24]
	.loc	7 6223 3                        @ c:/Keil_v5\ARM\PACK\Keil\STM32L5xx_DFP\1.3.0\Drivers\STM32L5xx_HAL_Driver\Src\stm32l5xx_hal_i2c.c:6223:3
	lsls	r1, r1, #24
	bpl	.LBB7_18
.Ltmp201:
	.p2align	2
.LBB7_20:                               @   in Loop: Header=BB7_14 Depth=1
	@DEBUG_VALUE: HAL_I2C_Master_Receive:tickstart <- $r5
	@DEBUG_VALUE: HAL_I2C_Master_Receive:hi2c <- $r4
	@DEBUG_VALUE: HAL_I2C_Master_Receive:Timeout <- [DW_OP_plus_uconst 32] [$sp+0]
	.loc	7 1248 19 is_stmt 1             @ c:/Keil_v5\ARM\PACK\Keil\STM32L5xx_DFP\1.3.0\Drivers\STM32L5xx_HAL_Driver\Src\stm32l5xx_hal_i2c.c:1248:19
	ldrh	r1, [r4, #42]
.Ltmp202:
	.loc	7 1248 13 is_stmt 0             @ c:/Keil_v5\ARM\PACK\Keil\STM32L5xx_DFP\1.3.0\Drivers\STM32L5xx_HAL_Driver\Src\stm32l5xx_hal_i2c.c:1248:13
	cmp	r1, #255
	bhi	.LBB7_11
.Ltmp203:
@ %bb.21:                               @   in Loop: Header=BB7_14 Depth=1
	@DEBUG_VALUE: HAL_I2C_Master_Receive:tickstart <- $r5
	@DEBUG_VALUE: HAL_I2C_Master_Receive:hi2c <- $r4
	@DEBUG_VALUE: HAL_I2C_Master_Receive:Timeout <- [DW_OP_plus_uconst 32] [$sp+0]
	.loc	7 1255 34 is_stmt 1             @ c:/Keil_v5\ARM\PACK\Keil\STM32L5xx_DFP\1.3.0\Drivers\STM32L5xx_HAL_Driver\Src\stm32l5xx_hal_i2c.c:1255:34
	ldrh	r1, [r4, #42]
	.loc	7 1255 26 is_stmt 0             @ c:/Keil_v5\ARM\PACK\Keil\STM32L5xx_DFP\1.3.0\Drivers\STM32L5xx_HAL_Driver\Src\stm32l5xx_hal_i2c.c:1255:26
	strh	r1, [r4, #40]
.Ltmp204:
	@DEBUG_VALUE: I2C_TransferConfig:Size <- [DW_OP_LLVM_convert 16 7, DW_OP_LLVM_convert 8 7, DW_OP_stack_value] $r1
	@DEBUG_VALUE: I2C_TransferConfig:Request <- 0
	@DEBUG_VALUE: I2C_TransferConfig:Mode <- 33554432
	@DEBUG_VALUE: I2C_TransferConfig:DevAddress <- undef
	@DEBUG_VALUE: I2C_TransferConfig:hi2c <- undef
	.loc	7 6462 3 is_stmt 1              @ c:/Keil_v5\ARM\PACK\Keil\STM32L5xx_DFP\1.3.0\Drivers\STM32L5xx_HAL_Driver\Src\stm32l5xx_hal_i2c.c:6462:3
	ldr	r2, [r0, #4]!
	uxtb	r1, r1
.Ltmp205:
	orr.w	r1, r9, r1, lsl #16
	and.w	r2, r2, r8
	orrs	r1, r2
	b	.LBB7_12
.Ltmp206:
	.p2align	2
.LBB7_22:                               @   in Loop: Header=BB7_25 Depth=1
	@DEBUG_VALUE: HAL_I2C_Master_Receive:tickstart <- $r5
	@DEBUG_VALUE: HAL_I2C_Master_Receive:hi2c <- $r4
	@DEBUG_VALUE: HAL_I2C_Master_Receive:Timeout <- [DW_OP_plus_uconst 32] [$sp+0]
	.loc	7 1255 34                       @ c:/Keil_v5\ARM\PACK\Keil\STM32L5xx_DFP\1.3.0\Drivers\STM32L5xx_HAL_Driver\Src\stm32l5xx_hal_i2c.c:1255:34
	ldrh	r1, [r4, #42]
	.loc	7 1255 26 is_stmt 0             @ c:/Keil_v5\ARM\PACK\Keil\STM32L5xx_DFP\1.3.0\Drivers\STM32L5xx_HAL_Driver\Src\stm32l5xx_hal_i2c.c:1255:26
	strh	r1, [r4, #40]
.Ltmp207:
	@DEBUG_VALUE: I2C_TransferConfig:Size <- [DW_OP_LLVM_convert 16 7, DW_OP_LLVM_convert 8 7, DW_OP_stack_value] $r1
	@DEBUG_VALUE: I2C_TransferConfig:Request <- 0
	@DEBUG_VALUE: I2C_TransferConfig:Mode <- 33554432
	@DEBUG_VALUE: I2C_TransferConfig:DevAddress <- undef
	@DEBUG_VALUE: I2C_TransferConfig:hi2c <- undef
	.loc	7 6462 3 is_stmt 1              @ c:/Keil_v5\ARM\PACK\Keil\STM32L5xx_DFP\1.3.0\Drivers\STM32L5xx_HAL_Driver\Src\stm32l5xx_hal_i2c.c:6462:3
	ldr	r2, [r0, #4]!
	uxtb	r1, r1
.Ltmp208:
	orr.w	r1, r9, r1, lsl #16
	and.w	r2, r2, r8
	orrs	r1, r2
.Ltmp209:
.LBB7_23:                               @   in Loop: Header=BB7_25 Depth=1
	@DEBUG_VALUE: HAL_I2C_Master_Receive:tickstart <- $r5
	@DEBUG_VALUE: HAL_I2C_Master_Receive:hi2c <- $r4
	@DEBUG_VALUE: HAL_I2C_Master_Receive:Timeout <- [DW_OP_plus_uconst 32] [$sp+0]
	.loc	7 0 0 is_stmt 0                 @ c:/Keil_v5\ARM\PACK\Keil\STM32L5xx_DFP\1.3.0\Drivers\STM32L5xx_HAL_Driver\Src\stm32l5xx_hal_i2c.c:0:0
	str	r1, [r0]
.Ltmp210:
.LBB7_24:                               @   in Loop: Header=BB7_25 Depth=1
	@DEBUG_VALUE: HAL_I2C_Master_Receive:tickstart <- $r5
	@DEBUG_VALUE: HAL_I2C_Master_Receive:hi2c <- $r4
	@DEBUG_VALUE: HAL_I2C_Master_Receive:Timeout <- [DW_OP_plus_uconst 32] [$sp+0]
	.loc	7 1223 18 is_stmt 1             @ c:/Keil_v5\ARM\PACK\Keil\STM32L5xx_DFP\1.3.0\Drivers\STM32L5xx_HAL_Driver\Src\stm32l5xx_hal_i2c.c:1223:18
	ldrh	r0, [r4, #42]
	.loc	7 1223 5 is_stmt 0              @ c:/Keil_v5\ARM\PACK\Keil\STM32L5xx_DFP\1.3.0\Drivers\STM32L5xx_HAL_Driver\Src\stm32l5xx_hal_i2c.c:1223:5
	cbz	r0, .LBB7_34
.Ltmp211:
.LBB7_25:                               @ =>This Loop Header: Depth=1
                                        @     Child Loop BB7_30 Depth 2
	@DEBUG_VALUE: HAL_I2C_Master_Receive:tickstart <- $r5
	@DEBUG_VALUE: HAL_I2C_Master_Receive:hi2c <- $r4
	@DEBUG_VALUE: HAL_I2C_Master_Receive:Timeout <- [DW_OP_plus_uconst 32] [$sp+0]
	.loc	7 1226 11 is_stmt 1             @ c:/Keil_v5\ARM\PACK\Keil\STM32L5xx_DFP\1.3.0\Drivers\STM32L5xx_HAL_Driver\Src\stm32l5xx_hal_i2c.c:1226:11
	mov	r0, r4
	mov	r1, r6
	mov	r2, r5
	bl	I2C_WaitOnRXNEFlagUntilTimeout
.Ltmp212:
	.loc	7 1226 11 is_stmt 0             @ c:/Keil_v5\ARM\PACK\Keil\STM32L5xx_DFP\1.3.0\Drivers\STM32L5xx_HAL_Driver\Src\stm32l5xx_hal_i2c.c:1226:11
	cmp	r0, #0
	bne	.LBB7_38
.Ltmp213:
@ %bb.26:                               @   in Loop: Header=BB7_25 Depth=1
	@DEBUG_VALUE: HAL_I2C_Master_Receive:tickstart <- $r5
	@DEBUG_VALUE: HAL_I2C_Master_Receive:hi2c <- $r4
	@DEBUG_VALUE: HAL_I2C_Master_Receive:Timeout <- [DW_OP_plus_uconst 32] [$sp+0]
	.loc	7 1232 40 is_stmt 1             @ c:/Keil_v5\ARM\PACK\Keil\STM32L5xx_DFP\1.3.0\Drivers\STM32L5xx_HAL_Driver\Src\stm32l5xx_hal_i2c.c:1232:40
	ldr	r0, [r4]
	.loc	7 1232 14 is_stmt 0             @ c:/Keil_v5\ARM\PACK\Keil\STM32L5xx_DFP\1.3.0\Drivers\STM32L5xx_HAL_Driver\Src\stm32l5xx_hal_i2c.c:1232:14
	ldr	r1, [r4, #36]
	.loc	7 1232 50                       @ c:/Keil_v5\ARM\PACK\Keil\STM32L5xx_DFP\1.3.0\Drivers\STM32L5xx_HAL_Driver\Src\stm32l5xx_hal_i2c.c:1232:50
	ldr	r0, [r0, #36]
	.loc	7 1232 23                       @ c:/Keil_v5\ARM\PACK\Keil\STM32L5xx_DFP\1.3.0\Drivers\STM32L5xx_HAL_Driver\Src\stm32l5xx_hal_i2c.c:1232:23
	strb	r0, [r1]
	.loc	7 1235 21 is_stmt 1             @ c:/Keil_v5\ARM\PACK\Keil\STM32L5xx_DFP\1.3.0\Drivers\STM32L5xx_HAL_Driver\Src\stm32l5xx_hal_i2c.c:1235:21
	ldr	r0, [r4, #36]
	.loc	7 1237 21                       @ c:/Keil_v5\ARM\PACK\Keil\STM32L5xx_DFP\1.3.0\Drivers\STM32L5xx_HAL_Driver\Src\stm32l5xx_hal_i2c.c:1237:21
	ldrh	r1, [r4, #40]
	.loc	7 1235 21                       @ c:/Keil_v5\ARM\PACK\Keil\STM32L5xx_DFP\1.3.0\Drivers\STM32L5xx_HAL_Driver\Src\stm32l5xx_hal_i2c.c:1235:21
	adds	r0, #1
	.loc	7 1237 21                       @ c:/Keil_v5\ARM\PACK\Keil\STM32L5xx_DFP\1.3.0\Drivers\STM32L5xx_HAL_Driver\Src\stm32l5xx_hal_i2c.c:1237:21
	subs	r1, #1
	.loc	7 1235 21                       @ c:/Keil_v5\ARM\PACK\Keil\STM32L5xx_DFP\1.3.0\Drivers\STM32L5xx_HAL_Driver\Src\stm32l5xx_hal_i2c.c:1235:21
	str	r0, [r4, #36]
	.loc	7 1237 21                       @ c:/Keil_v5\ARM\PACK\Keil\STM32L5xx_DFP\1.3.0\Drivers\STM32L5xx_HAL_Driver\Src\stm32l5xx_hal_i2c.c:1237:21
	strh	r1, [r4, #40]
	.loc	7 1238 22                       @ c:/Keil_v5\ARM\PACK\Keil\STM32L5xx_DFP\1.3.0\Drivers\STM32L5xx_HAL_Driver\Src\stm32l5xx_hal_i2c.c:1238:22
	ldrh	r0, [r4, #42]
.Ltmp214:
	.loc	7 1240 35                       @ c:/Keil_v5\ARM\PACK\Keil\STM32L5xx_DFP\1.3.0\Drivers\STM32L5xx_HAL_Driver\Src\stm32l5xx_hal_i2c.c:1240:35
	lsls	r1, r1, #16
.Ltmp215:
	.loc	7 1238 22                       @ c:/Keil_v5\ARM\PACK\Keil\STM32L5xx_DFP\1.3.0\Drivers\STM32L5xx_HAL_Driver\Src\stm32l5xx_hal_i2c.c:1238:22
	sub.w	r0, r0, #1
	strh	r0, [r4, #42]
.Ltmp216:
	.loc	7 1240 18                       @ c:/Keil_v5\ARM\PACK\Keil\STM32L5xx_DFP\1.3.0\Drivers\STM32L5xx_HAL_Driver\Src\stm32l5xx_hal_i2c.c:1240:18
	ldrh	r0, [r4, #42]
	.loc	7 1240 35 is_stmt 0             @ c:/Keil_v5\ARM\PACK\Keil\STM32L5xx_DFP\1.3.0\Drivers\STM32L5xx_HAL_Driver\Src\stm32l5xx_hal_i2c.c:1240:35
	bne	.LBB7_24
.Ltmp217:
@ %bb.27:                               @   in Loop: Header=BB7_25 Depth=1
	@DEBUG_VALUE: HAL_I2C_Master_Receive:tickstart <- $r5
	@DEBUG_VALUE: HAL_I2C_Master_Receive:hi2c <- $r4
	@DEBUG_VALUE: HAL_I2C_Master_Receive:Timeout <- [DW_OP_plus_uconst 32] [$sp+0]
	cmp	r0, #0
	beq	.LBB7_24
.Ltmp218:
@ %bb.28:                               @   in Loop: Header=BB7_25 Depth=1
	@DEBUG_VALUE: HAL_I2C_Master_Receive:tickstart <- $r5
	@DEBUG_VALUE: HAL_I2C_Master_Receive:hi2c <- $r4
	@DEBUG_VALUE: HAL_I2C_Master_Receive:Timeout <- [DW_OP_plus_uconst 32] [$sp+0]
	@DEBUG_VALUE: I2C_WaitOnFlagUntilTimeout:hi2c <- $r4
	@DEBUG_VALUE: I2C_WaitOnFlagUntilTimeout:Flag <- 128
	@DEBUG_VALUE: I2C_WaitOnFlagUntilTimeout:Status <- 0
	@DEBUG_VALUE: I2C_WaitOnFlagUntilTimeout:Timeout <- $r6
	@DEBUG_VALUE: I2C_WaitOnFlagUntilTimeout:Tickstart <- $r5
	.loc	7 6223 10 is_stmt 1             @ c:/Keil_v5\ARM\PACK\Keil\STM32L5xx_DFP\1.3.0\Drivers\STM32L5xx_HAL_Driver\Src\stm32l5xx_hal_i2c.c:6223:10
	ldr	r0, [r4]
	ldr	r1, [r0, #24]
	.loc	7 6223 3 is_stmt 0              @ c:/Keil_v5\ARM\PACK\Keil\STM32L5xx_DFP\1.3.0\Drivers\STM32L5xx_HAL_Driver\Src\stm32l5xx_hal_i2c.c:6223:3
	lsls	r1, r1, #24
	bmi	.LBB7_32
.Ltmp219:
@ %bb.29:                               @   in Loop: Header=BB7_25 Depth=1
	@DEBUG_VALUE: I2C_WaitOnFlagUntilTimeout:Timeout <- $r6
	@DEBUG_VALUE: I2C_WaitOnFlagUntilTimeout:Tickstart <- $r5
	@DEBUG_VALUE: HAL_I2C_Master_Receive:tickstart <- $r5
	@DEBUG_VALUE: I2C_WaitOnFlagUntilTimeout:hi2c <- $r4
	@DEBUG_VALUE: HAL_I2C_Master_Receive:hi2c <- $r4
	@DEBUG_VALUE: HAL_I2C_Master_Receive:Timeout <- [DW_OP_plus_uconst 32] [$sp+0]
	@DEBUG_VALUE: I2C_WaitOnFlagUntilTimeout:Status <- 0
	@DEBUG_VALUE: I2C_WaitOnFlagUntilTimeout:Flag <- 128
	cbz	r6, .LBB7_41
.Ltmp220:
	.p2align	2
.LBB7_30:                               @   Parent Loop BB7_25 Depth=1
                                        @ =>  This Inner Loop Header: Depth=2
	@DEBUG_VALUE: I2C_WaitOnFlagUntilTimeout:Timeout <- $r6
	@DEBUG_VALUE: I2C_WaitOnFlagUntilTimeout:Tickstart <- $r5
	@DEBUG_VALUE: HAL_I2C_Master_Receive:tickstart <- $r5
	@DEBUG_VALUE: I2C_WaitOnFlagUntilTimeout:hi2c <- $r4
	@DEBUG_VALUE: HAL_I2C_Master_Receive:hi2c <- $r4
	@DEBUG_VALUE: HAL_I2C_Master_Receive:Timeout <- [DW_OP_plus_uconst 32] [$sp+0]
	@DEBUG_VALUE: I2C_WaitOnFlagUntilTimeout:Status <- 0
	@DEBUG_VALUE: I2C_WaitOnFlagUntilTimeout:Flag <- 128
	.loc	7 6228 13 is_stmt 1             @ c:/Keil_v5\ARM\PACK\Keil\STM32L5xx_DFP\1.3.0\Drivers\STM32L5xx_HAL_Driver\Src\stm32l5xx_hal_i2c.c:6228:13
	bl	HAL_GetTick
	.loc	7 6228 27 is_stmt 0             @ c:/Keil_v5\ARM\PACK\Keil\STM32L5xx_DFP\1.3.0\Drivers\STM32L5xx_HAL_Driver\Src\stm32l5xx_hal_i2c.c:6228:27
	subs	r0, r0, r5
	.loc	7 6228 51                       @ c:/Keil_v5\ARM\PACK\Keil\STM32L5xx_DFP\1.3.0\Drivers\STM32L5xx_HAL_Driver\Src\stm32l5xx_hal_i2c.c:6228:51
	cmp	r0, r6
	bhi	.LBB7_42
.Ltmp221:
@ %bb.31:                               @   in Loop: Header=BB7_30 Depth=2
	@DEBUG_VALUE: I2C_WaitOnFlagUntilTimeout:Timeout <- $r6
	@DEBUG_VALUE: I2C_WaitOnFlagUntilTimeout:Tickstart <- $r5
	@DEBUG_VALUE: HAL_I2C_Master_Receive:tickstart <- $r5
	@DEBUG_VALUE: I2C_WaitOnFlagUntilTimeout:hi2c <- $r4
	@DEBUG_VALUE: HAL_I2C_Master_Receive:hi2c <- $r4
	@DEBUG_VALUE: HAL_I2C_Master_Receive:Timeout <- [DW_OP_plus_uconst 32] [$sp+0]
	@DEBUG_VALUE: I2C_WaitOnFlagUntilTimeout:Status <- 0
	@DEBUG_VALUE: I2C_WaitOnFlagUntilTimeout:Flag <- 128
	.loc	7 6223 10 is_stmt 1             @ c:/Keil_v5\ARM\PACK\Keil\STM32L5xx_DFP\1.3.0\Drivers\STM32L5xx_HAL_Driver\Src\stm32l5xx_hal_i2c.c:6223:10
	ldr	r0, [r4]
	ldr	r1, [r0, #24]
	.loc	7 6223 3 is_stmt 0              @ c:/Keil_v5\ARM\PACK\Keil\STM32L5xx_DFP\1.3.0\Drivers\STM32L5xx_HAL_Driver\Src\stm32l5xx_hal_i2c.c:6223:3
	lsls	r1, r1, #24
	bpl	.LBB7_30
.Ltmp222:
.LBB7_32:                               @   in Loop: Header=BB7_25 Depth=1
	@DEBUG_VALUE: HAL_I2C_Master_Receive:tickstart <- $r5
	@DEBUG_VALUE: HAL_I2C_Master_Receive:hi2c <- $r4
	@DEBUG_VALUE: HAL_I2C_Master_Receive:Timeout <- [DW_OP_plus_uconst 32] [$sp+0]
	.loc	7 1248 19 is_stmt 1             @ c:/Keil_v5\ARM\PACK\Keil\STM32L5xx_DFP\1.3.0\Drivers\STM32L5xx_HAL_Driver\Src\stm32l5xx_hal_i2c.c:1248:19
	ldrh	r1, [r4, #42]
.Ltmp223:
	.loc	7 1248 13 is_stmt 0             @ c:/Keil_v5\ARM\PACK\Keil\STM32L5xx_DFP\1.3.0\Drivers\STM32L5xx_HAL_Driver\Src\stm32l5xx_hal_i2c.c:1248:13
	cmp.w	r1, #256
	blo	.LBB7_22
.Ltmp224:
@ %bb.33:                               @   in Loop: Header=BB7_25 Depth=1
	@DEBUG_VALUE: HAL_I2C_Master_Receive:tickstart <- $r5
	@DEBUG_VALUE: HAL_I2C_Master_Receive:hi2c <- $r4
	@DEBUG_VALUE: HAL_I2C_Master_Receive:Timeout <- [DW_OP_plus_uconst 32] [$sp+0]
	.loc	7 1250 26 is_stmt 1             @ c:/Keil_v5\ARM\PACK\Keil\STM32L5xx_DFP\1.3.0\Drivers\STM32L5xx_HAL_Driver\Src\stm32l5xx_hal_i2c.c:1250:26
	strh.w	r10, [r4, #40]
.Ltmp225:
	@DEBUG_VALUE: I2C_TransferConfig:Request <- 0
	@DEBUG_VALUE: I2C_TransferConfig:Mode <- 16777216
	@DEBUG_VALUE: I2C_TransferConfig:Size <- -1
	@DEBUG_VALUE: I2C_TransferConfig:DevAddress <- undef
	@DEBUG_VALUE: I2C_TransferConfig:hi2c <- undef
	.loc	7 6462 3                        @ c:/Keil_v5\ARM\PACK\Keil\STM32L5xx_DFP\1.3.0\Drivers\STM32L5xx_HAL_Driver\Src\stm32l5xx_hal_i2c.c:6462:3
	ldr	r1, [r0, #4]!
	and.w	r1, r1, r8
	orrs	r1, r7
	b	.LBB7_23
.Ltmp226:
	.p2align	2
.LBB7_34:
	@DEBUG_VALUE: HAL_I2C_Master_Receive:tickstart <- $r5
	@DEBUG_VALUE: HAL_I2C_Master_Receive:hi2c <- $r4
	@DEBUG_VALUE: HAL_I2C_Master_Receive:Timeout <- [DW_OP_plus_uconst 32] [$sp+0]
	@DEBUG_VALUE: I2C_WaitOnSTOPFlagUntilTimeout:hi2c <- $r4
	@DEBUG_VALUE: I2C_WaitOnSTOPFlagUntilTimeout:Timeout <- $r6
	@DEBUG_VALUE: I2C_WaitOnSTOPFlagUntilTimeout:Tickstart <- $r5
	.loc	7 6290 3                        @ c:/Keil_v5\ARM\PACK\Keil\STM32L5xx_DFP\1.3.0\Drivers\STM32L5xx_HAL_Driver\Src\stm32l5xx_hal_i2c.c:6290:3
	cbz	r6, .LBB7_39
.Ltmp227:
	.p2align	2
.LBB7_35:                               @ =>This Inner Loop Header: Depth=1
	@DEBUG_VALUE: I2C_WaitOnSTOPFlagUntilTimeout:Timeout <- $r6
	@DEBUG_VALUE: I2C_WaitOnSTOPFlagUntilTimeout:Tickstart <- $r5
	@DEBUG_VALUE: HAL_I2C_Master_Receive:tickstart <- $r5
	@DEBUG_VALUE: I2C_WaitOnSTOPFlagUntilTimeout:hi2c <- $r4
	@DEBUG_VALUE: HAL_I2C_Master_Receive:hi2c <- $r4
	@DEBUG_VALUE: HAL_I2C_Master_Receive:Timeout <- [DW_OP_plus_uconst 32] [$sp+0]
	.loc	7 6290 10 is_stmt 0             @ c:/Keil_v5\ARM\PACK\Keil\STM32L5xx_DFP\1.3.0\Drivers\STM32L5xx_HAL_Driver\Src\stm32l5xx_hal_i2c.c:6290:10
	ldr	r0, [r4]
	ldr	r1, [r0, #24]
	.loc	7 6290 3                        @ c:/Keil_v5\ARM\PACK\Keil\STM32L5xx_DFP\1.3.0\Drivers\STM32L5xx_HAL_Driver\Src\stm32l5xx_hal_i2c.c:6290:3
	lsls	r1, r1, #26
	bmi	.LBB7_44
.Ltmp228:
@ %bb.36:                               @   in Loop: Header=BB7_35 Depth=1
	@DEBUG_VALUE: I2C_WaitOnSTOPFlagUntilTimeout:Timeout <- $r6
	@DEBUG_VALUE: I2C_WaitOnSTOPFlagUntilTimeout:Tickstart <- $r5
	@DEBUG_VALUE: HAL_I2C_Master_Receive:tickstart <- $r5
	@DEBUG_VALUE: I2C_WaitOnSTOPFlagUntilTimeout:hi2c <- $r4
	@DEBUG_VALUE: HAL_I2C_Master_Receive:hi2c <- $r4
	@DEBUG_VALUE: HAL_I2C_Master_Receive:Timeout <- [DW_OP_plus_uconst 32] [$sp+0]
	.loc	7 6293 9 is_stmt 1              @ c:/Keil_v5\ARM\PACK\Keil\STM32L5xx_DFP\1.3.0\Drivers\STM32L5xx_HAL_Driver\Src\stm32l5xx_hal_i2c.c:6293:9
	mov	r0, r4
	mov	r1, r6
	mov	r2, r5
	bl	I2C_IsAcknowledgeFailed
.Ltmp229:
	.loc	7 6293 9 is_stmt 0              @ c:/Keil_v5\ARM\PACK\Keil\STM32L5xx_DFP\1.3.0\Drivers\STM32L5xx_HAL_Driver\Src\stm32l5xx_hal_i2c.c:6293:9
	cbnz	r0, .LBB7_38
.Ltmp230:
@ %bb.37:                               @   in Loop: Header=BB7_35 Depth=1
	@DEBUG_VALUE: I2C_WaitOnSTOPFlagUntilTimeout:Timeout <- $r6
	@DEBUG_VALUE: I2C_WaitOnSTOPFlagUntilTimeout:Tickstart <- $r5
	@DEBUG_VALUE: HAL_I2C_Master_Receive:tickstart <- $r5
	@DEBUG_VALUE: I2C_WaitOnSTOPFlagUntilTimeout:hi2c <- $r4
	@DEBUG_VALUE: HAL_I2C_Master_Receive:hi2c <- $r4
	@DEBUG_VALUE: HAL_I2C_Master_Receive:Timeout <- [DW_OP_plus_uconst 32] [$sp+0]
	.loc	7 6299 11 is_stmt 1             @ c:/Keil_v5\ARM\PACK\Keil\STM32L5xx_DFP\1.3.0\Drivers\STM32L5xx_HAL_Driver\Src\stm32l5xx_hal_i2c.c:6299:11
	bl	HAL_GetTick
	.loc	7 6299 25 is_stmt 0             @ c:/Keil_v5\ARM\PACK\Keil\STM32L5xx_DFP\1.3.0\Drivers\STM32L5xx_HAL_Driver\Src\stm32l5xx_hal_i2c.c:6299:25
	subs	r0, r0, r5
	.loc	7 6299 49                       @ c:/Keil_v5\ARM\PACK\Keil\STM32L5xx_DFP\1.3.0\Drivers\STM32L5xx_HAL_Driver\Src\stm32l5xx_hal_i2c.c:6299:49
	cmp	r0, r6
	bls	.LBB7_35
	b	.LBB7_42
.Ltmp231:
	.p2align	2
.LBB7_38:
	@DEBUG_VALUE: HAL_I2C_Master_Receive:tickstart <- $r5
	@DEBUG_VALUE: HAL_I2C_Master_Receive:hi2c <- $r4
	@DEBUG_VALUE: HAL_I2C_Master_Receive:Timeout <- [DW_OP_plus_uconst 32] [$sp+0]
	.loc	7 0 49                          @ c:/Keil_v5\ARM\PACK\Keil\STM32L5xx_DFP\1.3.0\Drivers\STM32L5xx_HAL_Driver\Src\stm32l5xx_hal_i2c.c:0:49
	movs	r0, #1
	.loc	7 1286 1 is_stmt 1              @ c:/Keil_v5\ARM\PACK\Keil\STM32L5xx_DFP\1.3.0\Drivers\STM32L5xx_HAL_Driver\Src\stm32l5xx_hal_i2c.c:1286:1
	pop.w	{r4, r5, r6, r7, r8, r9, r10, pc}
.Ltmp232:
	.p2align	2
.LBB7_39:
	@DEBUG_VALUE: I2C_WaitOnSTOPFlagUntilTimeout:Timeout <- $r6
	@DEBUG_VALUE: I2C_WaitOnSTOPFlagUntilTimeout:Tickstart <- $r5
	@DEBUG_VALUE: HAL_I2C_Master_Receive:tickstart <- $r5
	@DEBUG_VALUE: I2C_WaitOnSTOPFlagUntilTimeout:hi2c <- $r4
	@DEBUG_VALUE: HAL_I2C_Master_Receive:hi2c <- $r4
	@DEBUG_VALUE: HAL_I2C_Master_Receive:Timeout <- [DW_OP_plus_uconst 32] [$sp+0]
	.loc	7 6290 10                       @ c:/Keil_v5\ARM\PACK\Keil\STM32L5xx_DFP\1.3.0\Drivers\STM32L5xx_HAL_Driver\Src\stm32l5xx_hal_i2c.c:6290:10
	ldr	r0, [r4]
	ldr	r1, [r0, #24]
	.loc	7 6290 3 is_stmt 0              @ c:/Keil_v5\ARM\PACK\Keil\STM32L5xx_DFP\1.3.0\Drivers\STM32L5xx_HAL_Driver\Src\stm32l5xx_hal_i2c.c:6290:3
	lsls	r1, r1, #26
	bmi	.LBB7_44
.Ltmp233:
@ %bb.40:
	@DEBUG_VALUE: I2C_WaitOnSTOPFlagUntilTimeout:Timeout <- $r6
	@DEBUG_VALUE: I2C_WaitOnSTOPFlagUntilTimeout:Tickstart <- $r5
	@DEBUG_VALUE: HAL_I2C_Master_Receive:tickstart <- $r5
	@DEBUG_VALUE: I2C_WaitOnSTOPFlagUntilTimeout:hi2c <- $r4
	@DEBUG_VALUE: HAL_I2C_Master_Receive:hi2c <- $r4
	@DEBUG_VALUE: HAL_I2C_Master_Receive:Timeout <- [DW_OP_plus_uconst 32] [$sp+0]
	@DEBUG_VALUE: I2C_IsAcknowledgeFailed:hi2c <- $r4
	@DEBUG_VALUE: I2C_IsAcknowledgeFailed:Timeout <- 0
	@DEBUG_VALUE: I2C_IsAcknowledgeFailed:Tickstart <- undef
	.loc	7 6387 7 is_stmt 1              @ c:/Keil_v5\ARM\PACK\Keil\STM32L5xx_DFP\1.3.0\Drivers\STM32L5xx_HAL_Driver\Src\stm32l5xx_hal_i2c.c:6387:7
	ldr	r1, [r0, #24]
.Ltmp234:
	.loc	7 6387 7 is_stmt 0              @ c:/Keil_v5\ARM\PACK\Keil\STM32L5xx_DFP\1.3.0\Drivers\STM32L5xx_HAL_Driver\Src\stm32l5xx_hal_i2c.c:6387:7
	lsls	r1, r1, #27
.Ltmp235:
	.loc	7 6391 12 is_stmt 1             @ c:/Keil_v5\ARM\PACK\Keil\STM32L5xx_DFP\1.3.0\Drivers\STM32L5xx_HAL_Driver\Src\stm32l5xx_hal_i2c.c:6391:12
	itt	mi
	ldrmi	r1, [r0, #24]
	.loc	7 6391 5 is_stmt 0              @ c:/Keil_v5\ARM\PACK\Keil\STM32L5xx_DFP\1.3.0\Drivers\STM32L5xx_HAL_Driver\Src\stm32l5xx_hal_i2c.c:6391:5
	lslsmi.w	r1, r1, #26
	bmi	.LBB7_45
.Ltmp236:
.LBB7_41:
	@DEBUG_VALUE: HAL_I2C_Master_Receive:tickstart <- $r5
	@DEBUG_VALUE: HAL_I2C_Master_Receive:hi2c <- $r4
	@DEBUG_VALUE: HAL_I2C_Master_Receive:Timeout <- [DW_OP_plus_uconst 32] [$sp+0]
	.loc	7 0 0                           @ c:/Keil_v5\ARM\PACK\Keil\STM32L5xx_DFP\1.3.0\Drivers\STM32L5xx_HAL_Driver\Src\stm32l5xx_hal_i2c.c:0:0
	bl	HAL_GetTick
.Ltmp237:
.LBB7_42:
	@DEBUG_VALUE: HAL_I2C_Master_Receive:tickstart <- $r5
	@DEBUG_VALUE: HAL_I2C_Master_Receive:hi2c <- $r4
	@DEBUG_VALUE: HAL_I2C_Master_Receive:Timeout <- [DW_OP_plus_uconst 32] [$sp+0]
	ldr	r0, [r4, #68]
	orr	r0, r0, #32
.Ltmp238:
.LBB7_43:
	@DEBUG_VALUE: HAL_I2C_Master_Receive:tickstart <- $r5
	@DEBUG_VALUE: HAL_I2C_Master_Receive:hi2c <- $r4
	@DEBUG_VALUE: HAL_I2C_Master_Receive:Timeout <- [DW_OP_plus_uconst 32] [$sp+0]
	str	r0, [r4, #68]
	movs	r0, #32
	strb.w	r0, [r4, #65]
	movs	r0, #0
	strb.w	r0, [r4, #66]
	strb.w	r0, [r4, #64]
	movs	r0, #1
.Ltmp239:
	.loc	7 1286 1 is_stmt 1              @ c:/Keil_v5\ARM\PACK\Keil\STM32L5xx_DFP\1.3.0\Drivers\STM32L5xx_HAL_Driver\Src\stm32l5xx_hal_i2c.c:1286:1
	pop.w	{r4, r5, r6, r7, r8, r9, r10, pc}
.Ltmp240:
	.p2align	2
.LBB7_44:
	@DEBUG_VALUE: HAL_I2C_Master_Receive:tickstart <- $r5
	@DEBUG_VALUE: HAL_I2C_Master_Receive:hi2c <- $r4
	@DEBUG_VALUE: HAL_I2C_Master_Receive:Timeout <- [DW_OP_plus_uconst 32] [$sp+0]
	.loc	7 0 1 is_stmt 0                 @ c:/Keil_v5\ARM\PACK\Keil\STM32L5xx_DFP\1.3.0\Drivers\STM32L5xx_HAL_Driver\Src\stm32l5xx_hal_i2c.c:0:1
	movs	r1, #32
.Ltmp241:
	.loc	7 1269 5 is_stmt 1              @ c:/Keil_v5\ARM\PACK\Keil\STM32L5xx_DFP\1.3.0\Drivers\STM32L5xx_HAL_Driver\Src\stm32l5xx_hal_i2c.c:1269:5
	str	r1, [r0, #28]
	.loc	7 1272 5                        @ c:/Keil_v5\ARM\PACK\Keil\STM32L5xx_DFP\1.3.0\Drivers\STM32L5xx_HAL_Driver\Src\stm32l5xx_hal_i2c.c:1272:5
	ldr	r2, [r0, #4]
	movw	r3, #59392
	movt	r3, #65024
	ands	r2, r3
	str	r2, [r0, #4]
	movs	r0, #0
	.loc	7 1274 17                       @ c:/Keil_v5\ARM\PACK\Keil\STM32L5xx_DFP\1.3.0\Drivers\STM32L5xx_HAL_Driver\Src\stm32l5xx_hal_i2c.c:1274:17
	strb.w	r1, [r4, #65]
	.loc	7 1275 17                       @ c:/Keil_v5\ARM\PACK\Keil\STM32L5xx_DFP\1.3.0\Drivers\STM32L5xx_HAL_Driver\Src\stm32l5xx_hal_i2c.c:1275:17
	strb.w	r0, [r4, #66]
.Ltmp242:
	.loc	7 1278 5                        @ c:/Keil_v5\ARM\PACK\Keil\STM32L5xx_DFP\1.3.0\Drivers\STM32L5xx_HAL_Driver\Src\stm32l5xx_hal_i2c.c:1278:5
	strb.w	r0, [r4, #64]
.Ltmp243:
	.loc	7 1286 1                        @ c:/Keil_v5\ARM\PACK\Keil\STM32L5xx_DFP\1.3.0\Drivers\STM32L5xx_HAL_Driver\Src\stm32l5xx_hal_i2c.c:1286:1
	pop.w	{r4, r5, r6, r7, r8, r9, r10, pc}
.Ltmp244:
	.p2align	2
.LBB7_45:
	@DEBUG_VALUE: I2C_WaitOnSTOPFlagUntilTimeout:Timeout <- $r6
	@DEBUG_VALUE: I2C_WaitOnSTOPFlagUntilTimeout:Tickstart <- $r5
	@DEBUG_VALUE: HAL_I2C_Master_Receive:tickstart <- $r5
	@DEBUG_VALUE: I2C_IsAcknowledgeFailed:hi2c <- $r4
	@DEBUG_VALUE: I2C_WaitOnSTOPFlagUntilTimeout:hi2c <- $r4
	@DEBUG_VALUE: HAL_I2C_Master_Receive:hi2c <- $r4
	@DEBUG_VALUE: HAL_I2C_Master_Receive:Timeout <- [DW_OP_plus_uconst 32] [$sp+0]
	@DEBUG_VALUE: I2C_IsAcknowledgeFailed:Timeout <- 0
	.loc	7 0 1 is_stmt 0                 @ c:/Keil_v5\ARM\PACK\Keil\STM32L5xx_DFP\1.3.0\Drivers\STM32L5xx_HAL_Driver\Src\stm32l5xx_hal_i2c.c:0:1
	movs	r1, #16
.Ltmp245:
	.loc	7 6411 5 is_stmt 1              @ c:/Keil_v5\ARM\PACK\Keil\STM32L5xx_DFP\1.3.0\Drivers\STM32L5xx_HAL_Driver\Src\stm32l5xx_hal_i2c.c:6411:5
	str	r1, [r0, #28]
	movs	r1, #32
	.loc	7 6414 5                        @ c:/Keil_v5\ARM\PACK\Keil\STM32L5xx_DFP\1.3.0\Drivers\STM32L5xx_HAL_Driver\Src\stm32l5xx_hal_i2c.c:6414:5
	str	r1, [r0, #28]
.Ltmp246:
	@DEBUG_VALUE: I2C_Flush_TXDR:hi2c <- undef
	.loc	7 6009 7                        @ c:/Keil_v5\ARM\PACK\Keil\STM32L5xx_DFP\1.3.0\Drivers\STM32L5xx_HAL_Driver\Src\stm32l5xx_hal_i2c.c:6009:7
	ldr	r1, [r0, #24]
.Ltmp247:
	.loc	7 6009 7 is_stmt 0              @ c:/Keil_v5\ARM\PACK\Keil\STM32L5xx_DFP\1.3.0\Drivers\STM32L5xx_HAL_Driver\Src\stm32l5xx_hal_i2c.c:6009:7
	lsls	r1, r1, #30
	itt	mi
	movmi	r1, #0
.Ltmp248:
	.loc	7 6011 26 is_stmt 1             @ c:/Keil_v5\ARM\PACK\Keil\STM32L5xx_DFP\1.3.0\Drivers\STM32L5xx_HAL_Driver\Src\stm32l5xx_hal_i2c.c:6011:26
	strmi	r1, [r0, #40]
.Ltmp249:
	.loc	7 6015 7                        @ c:/Keil_v5\ARM\PACK\Keil\STM32L5xx_DFP\1.3.0\Drivers\STM32L5xx_HAL_Driver\Src\stm32l5xx_hal_i2c.c:6015:7
	ldr	r1, [r0, #24]
.Ltmp250:
	.loc	7 6015 7 is_stmt 0              @ c:/Keil_v5\ARM\PACK\Keil\STM32L5xx_DFP\1.3.0\Drivers\STM32L5xx_HAL_Driver\Src\stm32l5xx_hal_i2c.c:6015:7
	lsls	r1, r1, #31
	bne	.LBB7_47
.Ltmp251:
@ %bb.46:
	@DEBUG_VALUE: I2C_WaitOnSTOPFlagUntilTimeout:Timeout <- $r6
	@DEBUG_VALUE: I2C_WaitOnSTOPFlagUntilTimeout:Tickstart <- $r5
	@DEBUG_VALUE: HAL_I2C_Master_Receive:tickstart <- $r5
	@DEBUG_VALUE: I2C_IsAcknowledgeFailed:hi2c <- $r4
	@DEBUG_VALUE: I2C_WaitOnSTOPFlagUntilTimeout:hi2c <- $r4
	@DEBUG_VALUE: HAL_I2C_Master_Receive:hi2c <- $r4
	@DEBUG_VALUE: HAL_I2C_Master_Receive:Timeout <- [DW_OP_plus_uconst 32] [$sp+0]
	@DEBUG_VALUE: I2C_IsAcknowledgeFailed:Timeout <- 0
	.loc	7 6017 5 is_stmt 1              @ c:/Keil_v5\ARM\PACK\Keil\STM32L5xx_DFP\1.3.0\Drivers\STM32L5xx_HAL_Driver\Src\stm32l5xx_hal_i2c.c:6017:5
	ldr	r1, [r0, #24]
	orr	r1, r1, #1
	str	r1, [r0, #24]
.Ltmp252:
.LBB7_47:
	@DEBUG_VALUE: I2C_WaitOnSTOPFlagUntilTimeout:Timeout <- $r6
	@DEBUG_VALUE: I2C_WaitOnSTOPFlagUntilTimeout:Tickstart <- $r5
	@DEBUG_VALUE: HAL_I2C_Master_Receive:tickstart <- $r5
	@DEBUG_VALUE: I2C_IsAcknowledgeFailed:hi2c <- $r4
	@DEBUG_VALUE: I2C_WaitOnSTOPFlagUntilTimeout:hi2c <- $r4
	@DEBUG_VALUE: HAL_I2C_Master_Receive:hi2c <- $r4
	@DEBUG_VALUE: HAL_I2C_Master_Receive:Timeout <- [DW_OP_plus_uconst 32] [$sp+0]
	@DEBUG_VALUE: I2C_IsAcknowledgeFailed:Timeout <- 0
	.loc	7 6420 5                        @ c:/Keil_v5\ARM\PACK\Keil\STM32L5xx_DFP\1.3.0\Drivers\STM32L5xx_HAL_Driver\Src\stm32l5xx_hal_i2c.c:6420:5
	ldr	r1, [r0, #4]
	movw	r2, #59392
	movt	r2, #65024
	ands	r1, r2
	str	r1, [r0, #4]
	.loc	7 6422 21                       @ c:/Keil_v5\ARM\PACK\Keil\STM32L5xx_DFP\1.3.0\Drivers\STM32L5xx_HAL_Driver\Src\stm32l5xx_hal_i2c.c:6422:21
	ldr	r0, [r4, #68]
	orr	r0, r0, #4
	b	.LBB7_43
.Ltmp253:
.Lfunc_end7:
	.size	HAL_I2C_Master_Receive, .Lfunc_end7-HAL_I2C_Master_Receive
	.cfi_endproc
	.cantunwind
	.fnend
                                        @ -- End function
	.section	.text.I2C_WaitOnRXNEFlagUntilTimeout,"ax",%progbits
	.p2align	2                               @ -- Begin function I2C_WaitOnRXNEFlagUntilTimeout
	.type	I2C_WaitOnRXNEFlagUntilTimeout,%function
	.code	16                              @ @I2C_WaitOnRXNEFlagUntilTimeout
	.thumb_func
I2C_WaitOnRXNEFlagUntilTimeout:
.Lfunc_begin8:
	.loc	7 6323 0                        @ c:/Keil_v5\ARM\PACK\Keil\STM32L5xx_DFP\1.3.0\Drivers\STM32L5xx_HAL_Driver\Src\stm32l5xx_hal_i2c.c:6323:0
	.fnstart
	.cfi_startproc
@ %bb.0:
	@DEBUG_VALUE: I2C_WaitOnRXNEFlagUntilTimeout:hi2c <- $r0
	@DEBUG_VALUE: I2C_WaitOnRXNEFlagUntilTimeout:Timeout <- $r1
	@DEBUG_VALUE: I2C_WaitOnRXNEFlagUntilTimeout:Tickstart <- $r2
	.save	{r4, r5, r6, lr}
	push	{r4, r5, r6, lr}
	.cfi_def_cfa_offset 16
	.cfi_offset lr, -4
	.cfi_offset r6, -8
	.cfi_offset r5, -12
	.cfi_offset r4, -16
	mov	r5, r2
.Ltmp254:
	@DEBUG_VALUE: I2C_WaitOnRXNEFlagUntilTimeout:Tickstart <- $r5
	@DEBUG_VALUE: I2C_WaitOnRXNEFlagUntilTimeout:Tickstart <- $r5
	@DEBUG_VALUE: I2C_WaitOnRXNEFlagUntilTimeout:Timeout <- $r1
	mov	r4, r0
.Ltmp255:
	@DEBUG_VALUE: I2C_WaitOnRXNEFlagUntilTimeout:hi2c <- $r4
	@DEBUG_VALUE: I2C_WaitOnRXNEFlagUntilTimeout:hi2c <- $r4
	.loc	7 6324 3 prologue_end           @ c:/Keil_v5\ARM\PACK\Keil\STM32L5xx_DFP\1.3.0\Drivers\STM32L5xx_HAL_Driver\Src\stm32l5xx_hal_i2c.c:6324:3
	cbz	r1, .LBB8_6
.Ltmp256:
@ %bb.1:
	@DEBUG_VALUE: I2C_WaitOnRXNEFlagUntilTimeout:Tickstart <- $r5
	@DEBUG_VALUE: I2C_WaitOnRXNEFlagUntilTimeout:hi2c <- $r4
	@DEBUG_VALUE: I2C_WaitOnRXNEFlagUntilTimeout:Timeout <- $r1
	.loc	7 0 3 is_stmt 0                 @ c:/Keil_v5\ARM\PACK\Keil\STM32L5xx_DFP\1.3.0\Drivers\STM32L5xx_HAL_Driver\Src\stm32l5xx_hal_i2c.c:0:3
	mov	r6, r1
.Ltmp257:
	@DEBUG_VALUE: I2C_WaitOnRXNEFlagUntilTimeout:Timeout <- $r6
	@DEBUG_VALUE: I2C_WaitOnRXNEFlagUntilTimeout:Timeout <- $r6
	.p2align	2
.LBB8_2:                                @ =>This Inner Loop Header: Depth=1
	.loc	7 6324 10                       @ c:/Keil_v5\ARM\PACK\Keil\STM32L5xx_DFP\1.3.0\Drivers\STM32L5xx_HAL_Driver\Src\stm32l5xx_hal_i2c.c:6324:10
	ldr	r0, [r4]
	ldr	r0, [r0, #24]
	.loc	7 6324 3                        @ c:/Keil_v5\ARM\PACK\Keil\STM32L5xx_DFP\1.3.0\Drivers\STM32L5xx_HAL_Driver\Src\stm32l5xx_hal_i2c.c:6324:3
	lsls	r0, r0, #29
	itt	mi
	movmi	r0, #0
	.loc	7 6375 1 is_stmt 1              @ c:/Keil_v5\ARM\PACK\Keil\STM32L5xx_DFP\1.3.0\Drivers\STM32L5xx_HAL_Driver\Src\stm32l5xx_hal_i2c.c:6375:1
	popmi	{r4, r5, r6, pc}
.LBB8_3:                                @   in Loop: Header=BB8_2 Depth=1
.Ltmp258:
	.loc	7 6327 9                        @ c:/Keil_v5\ARM\PACK\Keil\STM32L5xx_DFP\1.3.0\Drivers\STM32L5xx_HAL_Driver\Src\stm32l5xx_hal_i2c.c:6327:9
	mov	r0, r4
	mov	r1, r6
	mov	r2, r5
	bl	I2C_IsAcknowledgeFailed
.Ltmp259:
	.loc	7 6327 9 is_stmt 0              @ c:/Keil_v5\ARM\PACK\Keil\STM32L5xx_DFP\1.3.0\Drivers\STM32L5xx_HAL_Driver\Src\stm32l5xx_hal_i2c.c:6327:9
	cbnz	r0, .LBB8_8
@ %bb.4:                                @   in Loop: Header=BB8_2 Depth=1
.Ltmp260:
	.loc	7 6333 9 is_stmt 1              @ c:/Keil_v5\ARM\PACK\Keil\STM32L5xx_DFP\1.3.0\Drivers\STM32L5xx_HAL_Driver\Src\stm32l5xx_hal_i2c.c:6333:9
	ldr	r0, [r4]
	ldr	r1, [r0, #24]
.Ltmp261:
	.loc	7 6333 9 is_stmt 0              @ c:/Keil_v5\ARM\PACK\Keil\STM32L5xx_DFP\1.3.0\Drivers\STM32L5xx_HAL_Driver\Src\stm32l5xx_hal_i2c.c:6333:9
	lsls	r1, r1, #26
	bmi	.LBB8_12
@ %bb.5:                                @   in Loop: Header=BB8_2 Depth=1
.Ltmp262:
	.loc	7 6363 11 is_stmt 1             @ c:/Keil_v5\ARM\PACK\Keil\STM32L5xx_DFP\1.3.0\Drivers\STM32L5xx_HAL_Driver\Src\stm32l5xx_hal_i2c.c:6363:11
	bl	HAL_GetTick
	.loc	7 6363 25 is_stmt 0             @ c:/Keil_v5\ARM\PACK\Keil\STM32L5xx_DFP\1.3.0\Drivers\STM32L5xx_HAL_Driver\Src\stm32l5xx_hal_i2c.c:6363:25
	subs	r0, r0, r5
	.loc	7 6363 49                       @ c:/Keil_v5\ARM\PACK\Keil\STM32L5xx_DFP\1.3.0\Drivers\STM32L5xx_HAL_Driver\Src\stm32l5xx_hal_i2c.c:6363:49
	cmp	r0, r6
	bls	.LBB8_2
	b	.LBB8_11
.Ltmp263:
	.p2align	2
.LBB8_6:
	@DEBUG_VALUE: I2C_WaitOnRXNEFlagUntilTimeout:Tickstart <- $r5
	@DEBUG_VALUE: I2C_WaitOnRXNEFlagUntilTimeout:hi2c <- $r4
	@DEBUG_VALUE: I2C_WaitOnRXNEFlagUntilTimeout:Timeout <- $r1
	.loc	7 6324 10 is_stmt 1             @ c:/Keil_v5\ARM\PACK\Keil\STM32L5xx_DFP\1.3.0\Drivers\STM32L5xx_HAL_Driver\Src\stm32l5xx_hal_i2c.c:6324:10
	ldr	r0, [r4]
	ldr	r0, [r0, #24]
	.loc	7 6324 3 is_stmt 0              @ c:/Keil_v5\ARM\PACK\Keil\STM32L5xx_DFP\1.3.0\Drivers\STM32L5xx_HAL_Driver\Src\stm32l5xx_hal_i2c.c:6324:3
	lsls	r0, r0, #29
	itt	mi
	movmi	r0, #0
	.loc	7 6375 1 is_stmt 1              @ c:/Keil_v5\ARM\PACK\Keil\STM32L5xx_DFP\1.3.0\Drivers\STM32L5xx_HAL_Driver\Src\stm32l5xx_hal_i2c.c:6375:1
	popmi	{r4, r5, r6, pc}
.Ltmp264:
.LBB8_7:
	@DEBUG_VALUE: I2C_WaitOnRXNEFlagUntilTimeout:Timeout <- $r1
	.loc	7 6327 9                        @ c:/Keil_v5\ARM\PACK\Keil\STM32L5xx_DFP\1.3.0\Drivers\STM32L5xx_HAL_Driver\Src\stm32l5xx_hal_i2c.c:6327:9
	mov	r0, r4
	movs	r1, #0
.Ltmp265:
	@DEBUG_VALUE: I2C_WaitOnRXNEFlagUntilTimeout:Timeout <- [DW_OP_LLVM_entry_value 1] $r1
	mov	r2, r5
	bl	I2C_IsAcknowledgeFailed
.Ltmp266:
	.loc	7 6327 9 is_stmt 0              @ c:/Keil_v5\ARM\PACK\Keil\STM32L5xx_DFP\1.3.0\Drivers\STM32L5xx_HAL_Driver\Src\stm32l5xx_hal_i2c.c:6327:9
	cbz	r0, .LBB8_9
.Ltmp267:
.LBB8_8:
	.loc	7 0 9                           @ c:/Keil_v5\ARM\PACK\Keil\STM32L5xx_DFP\1.3.0\Drivers\STM32L5xx_HAL_Driver\Src\stm32l5xx_hal_i2c.c:0:9
	movs	r0, #1
	.loc	7 6375 1 is_stmt 1              @ c:/Keil_v5\ARM\PACK\Keil\STM32L5xx_DFP\1.3.0\Drivers\STM32L5xx_HAL_Driver\Src\stm32l5xx_hal_i2c.c:6375:1
	pop	{r4, r5, r6, pc}
	.p2align	2
.LBB8_9:
.Ltmp268:
	@DEBUG_VALUE: I2C_WaitOnRXNEFlagUntilTimeout:Timeout <- [DW_OP_LLVM_entry_value 1] $r1
	.loc	7 6333 9                        @ c:/Keil_v5\ARM\PACK\Keil\STM32L5xx_DFP\1.3.0\Drivers\STM32L5xx_HAL_Driver\Src\stm32l5xx_hal_i2c.c:6333:9
	ldr	r0, [r4]
	ldr	r1, [r0, #24]
.Ltmp269:
	.loc	7 6333 9 is_stmt 0              @ c:/Keil_v5\ARM\PACK\Keil\STM32L5xx_DFP\1.3.0\Drivers\STM32L5xx_HAL_Driver\Src\stm32l5xx_hal_i2c.c:6333:9
	lsls	r1, r1, #26
	bmi	.LBB8_12
.Ltmp270:
@ %bb.10:
	@DEBUG_VALUE: I2C_WaitOnRXNEFlagUntilTimeout:Timeout <- [DW_OP_LLVM_entry_value 1] $r1
	.loc	7 6363 11 is_stmt 1             @ c:/Keil_v5\ARM\PACK\Keil\STM32L5xx_DFP\1.3.0\Drivers\STM32L5xx_HAL_Driver\Src\stm32l5xx_hal_i2c.c:6363:11
	bl	HAL_GetTick
.Ltmp271:
.LBB8_11:
	.loc	7 6365 23                       @ c:/Keil_v5\ARM\PACK\Keil\STM32L5xx_DFP\1.3.0\Drivers\STM32L5xx_HAL_Driver\Src\stm32l5xx_hal_i2c.c:6365:23
	ldr	r0, [r4, #68]
	orr	r0, r0, #32
	str	r0, [r4, #68]
	movs	r0, #32
	.loc	7 6366 19                       @ c:/Keil_v5\ARM\PACK\Keil\STM32L5xx_DFP\1.3.0\Drivers\STM32L5xx_HAL_Driver\Src\stm32l5xx_hal_i2c.c:6366:19
	strb.w	r0, [r4, #65]
	movs	r0, #0
.Ltmp272:
	.loc	7 0 0 is_stmt 0                 @ c:/Keil_v5\ARM\PACK\Keil\STM32L5xx_DFP\1.3.0\Drivers\STM32L5xx_HAL_Driver\Src\stm32l5xx_hal_i2c.c:0:0
	strb.w	r0, [r4, #64]
	movs	r0, #1
.Ltmp273:
	.loc	7 6375 1 is_stmt 1              @ c:/Keil_v5\ARM\PACK\Keil\STM32L5xx_DFP\1.3.0\Drivers\STM32L5xx_HAL_Driver\Src\stm32l5xx_hal_i2c.c:6375:1
	pop	{r4, r5, r6, pc}
	.p2align	2
.LBB8_12:
.Ltmp274:
	.loc	7 6337 12                       @ c:/Keil_v5\ARM\PACK\Keil\STM32L5xx_DFP\1.3.0\Drivers\STM32L5xx_HAL_Driver\Src\stm32l5xx_hal_i2c.c:6337:12
	ldr	r1, [r0, #24]
	.loc	7 6337 60 is_stmt 0             @ c:/Keil_v5\ARM\PACK\Keil\STM32L5xx_DFP\1.3.0\Drivers\STM32L5xx_HAL_Driver\Src\stm32l5xx_hal_i2c.c:6337:60
	lsls	r1, r1, #29
	bpl	.LBB8_14
@ %bb.13:
	.loc	7 6337 70                       @ c:/Keil_v5\ARM\PACK\Keil\STM32L5xx_DFP\1.3.0\Drivers\STM32L5xx_HAL_Driver\Src\stm32l5xx_hal_i2c.c:6337:70
	ldrh	r1, [r4, #40]
.Ltmp275:
	.loc	7 6337 11                       @ c:/Keil_v5\ARM\PACK\Keil\STM32L5xx_DFP\1.3.0\Drivers\STM32L5xx_HAL_Driver\Src\stm32l5xx_hal_i2c.c:6337:11
	cmp	r1, #0
	itt	ne
	movne	r0, #0
.Ltmp276:
	.loc	7 6375 1 is_stmt 1              @ c:/Keil_v5\ARM\PACK\Keil\STM32L5xx_DFP\1.3.0\Drivers\STM32L5xx_HAL_Driver\Src\stm32l5xx_hal_i2c.c:6375:1
	popne	{r4, r5, r6, pc}
.LBB8_14:
	.loc	7 0 1 is_stmt 0                 @ c:/Keil_v5\ARM\PACK\Keil\STM32L5xx_DFP\1.3.0\Drivers\STM32L5xx_HAL_Driver\Src\stm32l5xx_hal_i2c.c:0:1
	movs	r1, #32
.Ltmp277:
	.loc	7 6346 9 is_stmt 1              @ c:/Keil_v5\ARM\PACK\Keil\STM32L5xx_DFP\1.3.0\Drivers\STM32L5xx_HAL_Driver\Src\stm32l5xx_hal_i2c.c:6346:9
	str	r1, [r0, #28]
	.loc	7 6349 9                        @ c:/Keil_v5\ARM\PACK\Keil\STM32L5xx_DFP\1.3.0\Drivers\STM32L5xx_HAL_Driver\Src\stm32l5xx_hal_i2c.c:6349:9
	ldr	r2, [r0, #4]
	movw	r3, #59392
	movt	r3, #65024
	ands	r2, r3
	str	r2, [r0, #4]
	movs	r0, #0
	.loc	7 6351 25                       @ c:/Keil_v5\ARM\PACK\Keil\STM32L5xx_DFP\1.3.0\Drivers\STM32L5xx_HAL_Driver\Src\stm32l5xx_hal_i2c.c:6351:25
	str	r0, [r4, #68]
	.loc	7 6352 21                       @ c:/Keil_v5\ARM\PACK\Keil\STM32L5xx_DFP\1.3.0\Drivers\STM32L5xx_HAL_Driver\Src\stm32l5xx_hal_i2c.c:6352:21
	strb.w	r1, [r4, #65]
	.loc	7 6353 20                       @ c:/Keil_v5\ARM\PACK\Keil\STM32L5xx_DFP\1.3.0\Drivers\STM32L5xx_HAL_Driver\Src\stm32l5xx_hal_i2c.c:6353:20
	strb.w	r0, [r4, #66]
.Ltmp278:
	.loc	7 0 0 is_stmt 0                 @ c:/Keil_v5\ARM\PACK\Keil\STM32L5xx_DFP\1.3.0\Drivers\STM32L5xx_HAL_Driver\Src\stm32l5xx_hal_i2c.c:0:0
	strb.w	r0, [r4, #64]
	movs	r0, #1
.Ltmp279:
	.loc	7 6375 1 is_stmt 1              @ c:/Keil_v5\ARM\PACK\Keil\STM32L5xx_DFP\1.3.0\Drivers\STM32L5xx_HAL_Driver\Src\stm32l5xx_hal_i2c.c:6375:1
	pop	{r4, r5, r6, pc}
.Ltmp280:
.Lfunc_end8:
	.size	I2C_WaitOnRXNEFlagUntilTimeout, .Lfunc_end8-I2C_WaitOnRXNEFlagUntilTimeout
	.cfi_endproc
	.cantunwind
	.fnend
                                        @ -- End function
	.section	.text.HAL_I2C_Slave_Transmit,"ax",%progbits
	.hidden	HAL_I2C_Slave_Transmit          @ -- Begin function HAL_I2C_Slave_Transmit
	.globl	HAL_I2C_Slave_Transmit
	.p2align	2
	.type	HAL_I2C_Slave_Transmit,%function
	.code	16                              @ @HAL_I2C_Slave_Transmit
	.thumb_func
HAL_I2C_Slave_Transmit:
.Lfunc_begin9:
	.loc	7 1298 0                        @ c:/Keil_v5\ARM\PACK\Keil\STM32L5xx_DFP\1.3.0\Drivers\STM32L5xx_HAL_Driver\Src\stm32l5xx_hal_i2c.c:1298:0
	.fnstart
	.cfi_startproc
@ %bb.0:
	@DEBUG_VALUE: HAL_I2C_Slave_Transmit:hi2c <- $r0
	@DEBUG_VALUE: HAL_I2C_Slave_Transmit:pData <- $r1
	@DEBUG_VALUE: HAL_I2C_Slave_Transmit:Size <- $r2
	@DEBUG_VALUE: HAL_I2C_Slave_Transmit:Timeout <- $r3
	.save	{r4, r5, r6, r7, lr}
	push	{r4, r5, r6, r7, lr}
	.cfi_def_cfa_offset 20
	.cfi_offset lr, -4
	.cfi_offset r7, -8
	.cfi_offset r6, -12
	.cfi_offset r5, -16
	.cfi_offset r4, -20
	.pad	#4
	sub	sp, #4
	.cfi_def_cfa_offset 24
	mov	r4, r0
	@DEBUG_VALUE: HAL_I2C_Slave_Transmit:Timeout <- $r3
.Ltmp281:
	@DEBUG_VALUE: HAL_I2C_Slave_Transmit:Size <- undef
	@DEBUG_VALUE: HAL_I2C_Slave_Transmit:hi2c <- $r4
	.loc	7 1301 13 prologue_end          @ c:/Keil_v5\ARM\PACK\Keil\STM32L5xx_DFP\1.3.0\Drivers\STM32L5xx_HAL_Driver\Src\stm32l5xx_hal_i2c.c:1301:13
	ldrb.w	r0, [r0, #65]
.Ltmp282:
	@DEBUG_VALUE: HAL_I2C_Slave_Transmit:Size <- $r2
	.loc	7 1301 7 is_stmt 0              @ c:/Keil_v5\ARM\PACK\Keil\STM32L5xx_DFP\1.3.0\Drivers\STM32L5xx_HAL_Driver\Src\stm32l5xx_hal_i2c.c:1301:7
	cmp	r0, #32
	@DEBUG_VALUE: HAL_I2C_Slave_Transmit:pData <- $r1
	bne	.LBB9_5
.Ltmp283:
@ %bb.1:
	@DEBUG_VALUE: HAL_I2C_Slave_Transmit:hi2c <- $r4
	@DEBUG_VALUE: HAL_I2C_Slave_Transmit:Timeout <- $r3
	@DEBUG_VALUE: HAL_I2C_Slave_Transmit:Size <- $r2
	@DEBUG_VALUE: HAL_I2C_Slave_Transmit:pData <- $r1
	@DEBUG_VALUE: HAL_I2C_Slave_Transmit:Timeout <- $r3
	@DEBUG_VALUE: HAL_I2C_Slave_Transmit:Size <- $r2
	.loc	7 0 7                           @ c:/Keil_v5\ARM\PACK\Keil\STM32L5xx_DFP\1.3.0\Drivers\STM32L5xx_HAL_Driver\Src\stm32l5xx_hal_i2c.c:0:7
	mov	r7, r1
.Ltmp284:
	@DEBUG_VALUE: HAL_I2C_Slave_Transmit:pData <- $r7
	@DEBUG_VALUE: HAL_I2C_Slave_Transmit:Size <- $r2
	.loc	7 1303 25 is_stmt 1             @ c:/Keil_v5\ARM\PACK\Keil\STM32L5xx_DFP\1.3.0\Drivers\STM32L5xx_HAL_Driver\Src\stm32l5xx_hal_i2c.c:1303:25
	cmp	r1, #0
	@DEBUG_VALUE: HAL_I2C_Slave_Transmit:Timeout <- $r3
	itt	ne
	movne	r6, r2
.Ltmp285:
	@DEBUG_VALUE: HAL_I2C_Slave_Transmit:Size <- $r6
	@DEBUG_VALUE: HAL_I2C_Slave_Transmit:Size <- $r6
	@DEBUG_VALUE: HAL_I2C_Slave_Transmit:Size <- $r6
	cmpne	r2, #0
	bne	.LBB9_4
.Ltmp286:
@ %bb.2:
	@DEBUG_VALUE: HAL_I2C_Slave_Transmit:pData <- $r7
	@DEBUG_VALUE: HAL_I2C_Slave_Transmit:Size <- $r6
	@DEBUG_VALUE: HAL_I2C_Slave_Transmit:hi2c <- $r4
	@DEBUG_VALUE: HAL_I2C_Slave_Transmit:Timeout <- $r3
	.loc	7 0 25 is_stmt 0                @ c:/Keil_v5\ARM\PACK\Keil\STM32L5xx_DFP\1.3.0\Drivers\STM32L5xx_HAL_Driver\Src\stm32l5xx_hal_i2c.c:0:25
	mov.w	r0, #512
.Ltmp287:
	.loc	7 1305 23 is_stmt 1             @ c:/Keil_v5\ARM\PACK\Keil\STM32L5xx_DFP\1.3.0\Drivers\STM32L5xx_HAL_Driver\Src\stm32l5xx_hal_i2c.c:1305:23
	str	r0, [r4, #68]
.Ltmp288:
.LBB9_3:
	@DEBUG_VALUE: HAL_I2C_Slave_Transmit:pData <- $r7
	@DEBUG_VALUE: HAL_I2C_Slave_Transmit:hi2c <- $r4
	.loc	7 0 23 is_stmt 0                @ c:/Keil_v5\ARM\PACK\Keil\STM32L5xx_DFP\1.3.0\Drivers\STM32L5xx_HAL_Driver\Src\stm32l5xx_hal_i2c.c:0:23
	movs	r0, #1
	.loc	7 1423 1 is_stmt 1              @ c:/Keil_v5\ARM\PACK\Keil\STM32L5xx_DFP\1.3.0\Drivers\STM32L5xx_HAL_Driver\Src\stm32l5xx_hal_i2c.c:1423:1
	add	sp, #4
	pop	{r4, r5, r6, r7, pc}
.Ltmp289:
	.p2align	2
.LBB9_4:
	@DEBUG_VALUE: HAL_I2C_Slave_Transmit:pData <- $r7
	@DEBUG_VALUE: HAL_I2C_Slave_Transmit:Size <- $r6
	@DEBUG_VALUE: HAL_I2C_Slave_Transmit:hi2c <- $r4
	@DEBUG_VALUE: HAL_I2C_Slave_Transmit:Timeout <- $r3
	@DEBUG_VALUE: HAL_I2C_Slave_Transmit:Timeout <- $r3
	@DEBUG_VALUE: HAL_I2C_Slave_Transmit:Size <- $r6
	.loc	7 1309 5                        @ c:/Keil_v5\ARM\PACK\Keil\STM32L5xx_DFP\1.3.0\Drivers\STM32L5xx_HAL_Driver\Src\stm32l5xx_hal_i2c.c:1309:5
	ldrb.w	r0, [r4, #64]
.Ltmp290:
	.loc	7 1309 5 is_stmt 0              @ c:/Keil_v5\ARM\PACK\Keil\STM32L5xx_DFP\1.3.0\Drivers\STM32L5xx_HAL_Driver\Src\stm32l5xx_hal_i2c.c:1309:5
	cmp	r0, #1
	bne	.LBB9_6
.Ltmp291:
.LBB9_5:
	@DEBUG_VALUE: HAL_I2C_Slave_Transmit:hi2c <- $r4
	@DEBUG_VALUE: HAL_I2C_Slave_Transmit:Timeout <- $r3
	.loc	7 0 5                           @ c:/Keil_v5\ARM\PACK\Keil\STM32L5xx_DFP\1.3.0\Drivers\STM32L5xx_HAL_Driver\Src\stm32l5xx_hal_i2c.c:0:5
	movs	r0, #2
	.loc	7 1423 1 is_stmt 1              @ c:/Keil_v5\ARM\PACK\Keil\STM32L5xx_DFP\1.3.0\Drivers\STM32L5xx_HAL_Driver\Src\stm32l5xx_hal_i2c.c:1423:1
	add	sp, #4
	pop	{r4, r5, r6, r7, pc}
.Ltmp292:
	.p2align	2
.LBB9_6:
	@DEBUG_VALUE: HAL_I2C_Slave_Transmit:pData <- $r7
	@DEBUG_VALUE: HAL_I2C_Slave_Transmit:Size <- $r6
	@DEBUG_VALUE: HAL_I2C_Slave_Transmit:hi2c <- $r4
	@DEBUG_VALUE: HAL_I2C_Slave_Transmit:Timeout <- $r3
	.loc	7 0 1 is_stmt 0                 @ c:/Keil_v5\ARM\PACK\Keil\STM32L5xx_DFP\1.3.0\Drivers\STM32L5xx_HAL_Driver\Src\stm32l5xx_hal_i2c.c:0:1
	movs	r0, #1
	mov	r5, r3
.Ltmp293:
	@DEBUG_VALUE: HAL_I2C_Slave_Transmit:Timeout <- $r5
	@DEBUG_VALUE: HAL_I2C_Slave_Transmit:Timeout <- $r5
	@DEBUG_VALUE: HAL_I2C_Slave_Transmit:Size <- $r6
	.loc	7 1309 5 is_stmt 1              @ c:/Keil_v5\ARM\PACK\Keil\STM32L5xx_DFP\1.3.0\Drivers\STM32L5xx_HAL_Driver\Src\stm32l5xx_hal_i2c.c:1309:5
	strb.w	r0, [r4, #64]
.Ltmp294:
	.loc	7 1312 17                       @ c:/Keil_v5\ARM\PACK\Keil\STM32L5xx_DFP\1.3.0\Drivers\STM32L5xx_HAL_Driver\Src\stm32l5xx_hal_i2c.c:1312:17
	bl	HAL_GetTick
	movs	r1, #33
	.loc	7 1314 21                       @ c:/Keil_v5\ARM\PACK\Keil\STM32L5xx_DFP\1.3.0\Drivers\STM32L5xx_HAL_Driver\Src\stm32l5xx_hal_i2c.c:1314:21
	strb.w	r1, [r4, #65]
	movs	r1, #32
	movs	r2, #0
	.loc	7 1315 21                       @ c:/Keil_v5\ARM\PACK\Keil\STM32L5xx_DFP\1.3.0\Drivers\STM32L5xx_HAL_Driver\Src\stm32l5xx_hal_i2c.c:1315:21
	strb.w	r1, [r4, #66]
	.loc	7 1316 21                       @ c:/Keil_v5\ARM\PACK\Keil\STM32L5xx_DFP\1.3.0\Drivers\STM32L5xx_HAL_Driver\Src\stm32l5xx_hal_i2c.c:1316:21
	str	r2, [r4, #68]
	.loc	7 1319 21                       @ c:/Keil_v5\ARM\PACK\Keil\STM32L5xx_DFP\1.3.0\Drivers\STM32L5xx_HAL_Driver\Src\stm32l5xx_hal_i2c.c:1319:21
	str	r7, [r4, #36]
	.loc	7 1320 21                       @ c:/Keil_v5\ARM\PACK\Keil\STM32L5xx_DFP\1.3.0\Drivers\STM32L5xx_HAL_Driver\Src\stm32l5xx_hal_i2c.c:1320:21
	strh	r6, [r4, #42]
	.loc	7 1324 11                       @ c:/Keil_v5\ARM\PACK\Keil\STM32L5xx_DFP\1.3.0\Drivers\STM32L5xx_HAL_Driver\Src\stm32l5xx_hal_i2c.c:1324:11
	ldr	r1, [r4]
	.loc	7 1321 21                       @ c:/Keil_v5\ARM\PACK\Keil\STM32L5xx_DFP\1.3.0\Drivers\STM32L5xx_HAL_Driver\Src\stm32l5xx_hal_i2c.c:1321:21
	str	r2, [r4, #52]
	.loc	7 1324 25                       @ c:/Keil_v5\ARM\PACK\Keil\STM32L5xx_DFP\1.3.0\Drivers\STM32L5xx_HAL_Driver\Src\stm32l5xx_hal_i2c.c:1324:25
	ldr	r2, [r1, #4]
	.loc	7 1312 17                       @ c:/Keil_v5\ARM\PACK\Keil\STM32L5xx_DFP\1.3.0\Drivers\STM32L5xx_HAL_Driver\Src\stm32l5xx_hal_i2c.c:1312:17
	mov	r6, r0
.Ltmp295:
	@DEBUG_VALUE: I2C_WaitOnFlagUntilTimeout:Tickstart <- $r6
	@DEBUG_VALUE: HAL_I2C_Slave_Transmit:tickstart <- $r6
	@DEBUG_VALUE: I2C_WaitOnFlagUntilTimeout:hi2c <- $r4
	@DEBUG_VALUE: I2C_WaitOnFlagUntilTimeout:Flag <- 8
	@DEBUG_VALUE: I2C_WaitOnFlagUntilTimeout:Status <- 0
	@DEBUG_VALUE: I2C_WaitOnFlagUntilTimeout:Timeout <- $r5
	.loc	7 1324 25                       @ c:/Keil_v5\ARM\PACK\Keil\STM32L5xx_DFP\1.3.0\Drivers\STM32L5xx_HAL_Driver\Src\stm32l5xx_hal_i2c.c:1324:25
	bic	r2, r2, #32768
	str	r2, [r1, #4]
	@DEBUG_VALUE: I2C_WaitOnFlagUntilTimeout:Timeout <- $r5
	@DEBUG_VALUE: I2C_WaitOnFlagUntilTimeout:Status <- 0
	@DEBUG_VALUE: I2C_WaitOnFlagUntilTimeout:Flag <- 8
	@DEBUG_VALUE: I2C_WaitOnFlagUntilTimeout:hi2c <- $r4
.Ltmp296:
	.loc	7 6223 10                       @ c:/Keil_v5\ARM\PACK\Keil\STM32L5xx_DFP\1.3.0\Drivers\STM32L5xx_HAL_Driver\Src\stm32l5xx_hal_i2c.c:6223:10
	ldr	r2, [r1, #24]
	.loc	7 6223 3 is_stmt 0              @ c:/Keil_v5\ARM\PACK\Keil\STM32L5xx_DFP\1.3.0\Drivers\STM32L5xx_HAL_Driver\Src\stm32l5xx_hal_i2c.c:6223:3
	lsls	r2, r2, #28
	bmi	.LBB9_12
.Ltmp297:
@ %bb.7:
	@DEBUG_VALUE: HAL_I2C_Slave_Transmit:pData <- $r7
	@DEBUG_VALUE: HAL_I2C_Slave_Transmit:tickstart <- $r6
	@DEBUG_VALUE: I2C_WaitOnFlagUntilTimeout:Tickstart <- $r6
	@DEBUG_VALUE: I2C_WaitOnFlagUntilTimeout:Timeout <- $r5
	@DEBUG_VALUE: HAL_I2C_Slave_Transmit:Timeout <- $r5
	@DEBUG_VALUE: I2C_WaitOnFlagUntilTimeout:hi2c <- $r4
	@DEBUG_VALUE: HAL_I2C_Slave_Transmit:hi2c <- $r4
	@DEBUG_VALUE: I2C_WaitOnFlagUntilTimeout:Status <- 0
	@DEBUG_VALUE: I2C_WaitOnFlagUntilTimeout:Flag <- 8
	cmp	r5, #0
	beq.w	.LBB9_57
.Ltmp298:
@ %bb.8:
	@DEBUG_VALUE: HAL_I2C_Slave_Transmit:pData <- $r7
	@DEBUG_VALUE: HAL_I2C_Slave_Transmit:tickstart <- $r6
	@DEBUG_VALUE: I2C_WaitOnFlagUntilTimeout:Tickstart <- $r6
	@DEBUG_VALUE: I2C_WaitOnFlagUntilTimeout:Timeout <- $r5
	@DEBUG_VALUE: HAL_I2C_Slave_Transmit:Timeout <- $r5
	@DEBUG_VALUE: I2C_WaitOnFlagUntilTimeout:hi2c <- $r4
	@DEBUG_VALUE: HAL_I2C_Slave_Transmit:hi2c <- $r4
	@DEBUG_VALUE: I2C_WaitOnFlagUntilTimeout:Status <- 0
	@DEBUG_VALUE: I2C_WaitOnFlagUntilTimeout:Flag <- 8
	adds	r0, r5, #1
	bne	.LBB9_27
.Ltmp299:
.LBB9_9:                                @ =>This Inner Loop Header: Depth=1
	@DEBUG_VALUE: HAL_I2C_Slave_Transmit:pData <- $r7
	@DEBUG_VALUE: HAL_I2C_Slave_Transmit:tickstart <- $r6
	@DEBUG_VALUE: I2C_WaitOnFlagUntilTimeout:Tickstart <- $r6
	@DEBUG_VALUE: I2C_WaitOnFlagUntilTimeout:Timeout <- $r5
	@DEBUG_VALUE: HAL_I2C_Slave_Transmit:Timeout <- $r5
	@DEBUG_VALUE: I2C_WaitOnFlagUntilTimeout:hi2c <- $r4
	@DEBUG_VALUE: HAL_I2C_Slave_Transmit:hi2c <- $r4
	@DEBUG_VALUE: I2C_WaitOnFlagUntilTimeout:Status <- 0
	@DEBUG_VALUE: I2C_WaitOnFlagUntilTimeout:Flag <- 8
	.loc	7 6223 10                       @ c:/Keil_v5\ARM\PACK\Keil\STM32L5xx_DFP\1.3.0\Drivers\STM32L5xx_HAL_Driver\Src\stm32l5xx_hal_i2c.c:6223:10
	ldr	r0, [r1, #24]
	.loc	7 6223 3                        @ c:/Keil_v5\ARM\PACK\Keil\STM32L5xx_DFP\1.3.0\Drivers\STM32L5xx_HAL_Driver\Src\stm32l5xx_hal_i2c.c:6223:3
	lsls	r0, r0, #28
	bmi	.LBB9_12
.Ltmp300:
@ %bb.10:                               @   in Loop: Header=BB9_9 Depth=1
	@DEBUG_VALUE: HAL_I2C_Slave_Transmit:pData <- $r7
	@DEBUG_VALUE: HAL_I2C_Slave_Transmit:tickstart <- $r6
	@DEBUG_VALUE: I2C_WaitOnFlagUntilTimeout:Tickstart <- $r6
	@DEBUG_VALUE: I2C_WaitOnFlagUntilTimeout:Timeout <- $r5
	@DEBUG_VALUE: HAL_I2C_Slave_Transmit:Timeout <- $r5
	@DEBUG_VALUE: I2C_WaitOnFlagUntilTimeout:hi2c <- $r4
	@DEBUG_VALUE: HAL_I2C_Slave_Transmit:hi2c <- $r4
	@DEBUG_VALUE: I2C_WaitOnFlagUntilTimeout:Status <- 0
	@DEBUG_VALUE: I2C_WaitOnFlagUntilTimeout:Flag <- 8
	.loc	7 6223 10                       @ c:/Keil_v5\ARM\PACK\Keil\STM32L5xx_DFP\1.3.0\Drivers\STM32L5xx_HAL_Driver\Src\stm32l5xx_hal_i2c.c:6223:10
	ldr	r0, [r1, #24]
	.loc	7 6223 3                        @ c:/Keil_v5\ARM\PACK\Keil\STM32L5xx_DFP\1.3.0\Drivers\STM32L5xx_HAL_Driver\Src\stm32l5xx_hal_i2c.c:6223:3
	lsls	r0, r0, #28
	.loc	7 6223 10                       @ c:/Keil_v5\ARM\PACK\Keil\STM32L5xx_DFP\1.3.0\Drivers\STM32L5xx_HAL_Driver\Src\stm32l5xx_hal_i2c.c:6223:10
	itt	pl
	ldrpl	r0, [r1, #24]
	.loc	7 6223 3                        @ c:/Keil_v5\ARM\PACK\Keil\STM32L5xx_DFP\1.3.0\Drivers\STM32L5xx_HAL_Driver\Src\stm32l5xx_hal_i2c.c:6223:3
	lslspl.w	r0, r0, #28
	bmi	.LBB9_12
.Ltmp301:
@ %bb.11:                               @   in Loop: Header=BB9_9 Depth=1
	@DEBUG_VALUE: HAL_I2C_Slave_Transmit:pData <- $r7
	@DEBUG_VALUE: HAL_I2C_Slave_Transmit:tickstart <- $r6
	@DEBUG_VALUE: I2C_WaitOnFlagUntilTimeout:Tickstart <- $r6
	@DEBUG_VALUE: I2C_WaitOnFlagUntilTimeout:Timeout <- $r5
	@DEBUG_VALUE: HAL_I2C_Slave_Transmit:Timeout <- $r5
	@DEBUG_VALUE: I2C_WaitOnFlagUntilTimeout:hi2c <- $r4
	@DEBUG_VALUE: HAL_I2C_Slave_Transmit:hi2c <- $r4
	@DEBUG_VALUE: I2C_WaitOnFlagUntilTimeout:Status <- 0
	@DEBUG_VALUE: I2C_WaitOnFlagUntilTimeout:Flag <- 8
	.loc	7 6223 10                       @ c:/Keil_v5\ARM\PACK\Keil\STM32L5xx_DFP\1.3.0\Drivers\STM32L5xx_HAL_Driver\Src\stm32l5xx_hal_i2c.c:6223:10
	ldr	r0, [r1, #24]
	.loc	7 6223 3                        @ c:/Keil_v5\ARM\PACK\Keil\STM32L5xx_DFP\1.3.0\Drivers\STM32L5xx_HAL_Driver\Src\stm32l5xx_hal_i2c.c:6223:3
	lsls	r0, r0, #28
	bpl	.LBB9_9
.Ltmp302:
.LBB9_12:
	@DEBUG_VALUE: HAL_I2C_Slave_Transmit:pData <- $r7
	@DEBUG_VALUE: HAL_I2C_Slave_Transmit:tickstart <- $r6
	@DEBUG_VALUE: HAL_I2C_Slave_Transmit:Timeout <- $r5
	@DEBUG_VALUE: HAL_I2C_Slave_Transmit:hi2c <- $r4
	.loc	7 0 3                           @ c:/Keil_v5\ARM\PACK\Keil\STM32L5xx_DFP\1.3.0\Drivers\STM32L5xx_HAL_Driver\Src\stm32l5xx_hal_i2c.c:0:3
	movs	r0, #8
	.loc	7 1335 5 is_stmt 1              @ c:/Keil_v5\ARM\PACK\Keil\STM32L5xx_DFP\1.3.0\Drivers\STM32L5xx_HAL_Driver\Src\stm32l5xx_hal_i2c.c:1335:5
	str	r0, [r1, #28]
.Ltmp303:
	.loc	7 1338 20                       @ c:/Keil_v5\ARM\PACK\Keil\STM32L5xx_DFP\1.3.0\Drivers\STM32L5xx_HAL_Driver\Src\stm32l5xx_hal_i2c.c:1338:20
	ldr	r0, [r4, #12]
.Ltmp304:
	.loc	7 1338 9 is_stmt 0              @ c:/Keil_v5\ARM\PACK\Keil\STM32L5xx_DFP\1.3.0\Drivers\STM32L5xx_HAL_Driver\Src\stm32l5xx_hal_i2c.c:1338:9
	cmp	r0, #2
	bne	.LBB9_20
.Ltmp305:
@ %bb.13:
	@DEBUG_VALUE: HAL_I2C_Slave_Transmit:pData <- $r7
	@DEBUG_VALUE: HAL_I2C_Slave_Transmit:tickstart <- $r6
	@DEBUG_VALUE: HAL_I2C_Slave_Transmit:Timeout <- $r5
	@DEBUG_VALUE: HAL_I2C_Slave_Transmit:hi2c <- $r4
	@DEBUG_VALUE: I2C_WaitOnFlagUntilTimeout:hi2c <- $r4
	@DEBUG_VALUE: I2C_WaitOnFlagUntilTimeout:Flag <- 8
	@DEBUG_VALUE: I2C_WaitOnFlagUntilTimeout:Status <- 0
	@DEBUG_VALUE: I2C_WaitOnFlagUntilTimeout:Timeout <- $r5
	@DEBUG_VALUE: I2C_WaitOnFlagUntilTimeout:Tickstart <- $r6
	.loc	7 6223 10 is_stmt 1             @ c:/Keil_v5\ARM\PACK\Keil\STM32L5xx_DFP\1.3.0\Drivers\STM32L5xx_HAL_Driver\Src\stm32l5xx_hal_i2c.c:6223:10
	ldr	r0, [r1, #24]
	.loc	7 6223 3 is_stmt 0              @ c:/Keil_v5\ARM\PACK\Keil\STM32L5xx_DFP\1.3.0\Drivers\STM32L5xx_HAL_Driver\Src\stm32l5xx_hal_i2c.c:6223:3
	lsls	r0, r0, #28
	bmi	.LBB9_19
.Ltmp306:
@ %bb.14:
	@DEBUG_VALUE: HAL_I2C_Slave_Transmit:pData <- $r7
	@DEBUG_VALUE: I2C_WaitOnFlagUntilTimeout:Tickstart <- $r6
	@DEBUG_VALUE: HAL_I2C_Slave_Transmit:tickstart <- $r6
	@DEBUG_VALUE: I2C_WaitOnFlagUntilTimeout:Timeout <- $r5
	@DEBUG_VALUE: HAL_I2C_Slave_Transmit:Timeout <- $r5
	@DEBUG_VALUE: I2C_WaitOnFlagUntilTimeout:hi2c <- $r4
	@DEBUG_VALUE: HAL_I2C_Slave_Transmit:hi2c <- $r4
	@DEBUG_VALUE: I2C_WaitOnFlagUntilTimeout:Status <- 0
	@DEBUG_VALUE: I2C_WaitOnFlagUntilTimeout:Flag <- 8
	cmp	r5, #0
	beq.w	.LBB9_57
.Ltmp307:
@ %bb.15:
	@DEBUG_VALUE: HAL_I2C_Slave_Transmit:pData <- $r7
	@DEBUG_VALUE: I2C_WaitOnFlagUntilTimeout:Tickstart <- $r6
	@DEBUG_VALUE: HAL_I2C_Slave_Transmit:tickstart <- $r6
	@DEBUG_VALUE: I2C_WaitOnFlagUntilTimeout:Timeout <- $r5
	@DEBUG_VALUE: HAL_I2C_Slave_Transmit:Timeout <- $r5
	@DEBUG_VALUE: I2C_WaitOnFlagUntilTimeout:hi2c <- $r4
	@DEBUG_VALUE: HAL_I2C_Slave_Transmit:hi2c <- $r4
	@DEBUG_VALUE: I2C_WaitOnFlagUntilTimeout:Status <- 0
	@DEBUG_VALUE: I2C_WaitOnFlagUntilTimeout:Flag <- 8
	adds	r0, r5, #1
	bne	.LBB9_39
.Ltmp308:
.LBB9_16:                               @ =>This Inner Loop Header: Depth=1
	@DEBUG_VALUE: HAL_I2C_Slave_Transmit:pData <- $r7
	@DEBUG_VALUE: I2C_WaitOnFlagUntilTimeout:Tickstart <- $r6
	@DEBUG_VALUE: HAL_I2C_Slave_Transmit:tickstart <- $r6
	@DEBUG_VALUE: I2C_WaitOnFlagUntilTimeout:Timeout <- $r5
	@DEBUG_VALUE: HAL_I2C_Slave_Transmit:Timeout <- $r5
	@DEBUG_VALUE: I2C_WaitOnFlagUntilTimeout:hi2c <- $r4
	@DEBUG_VALUE: HAL_I2C_Slave_Transmit:hi2c <- $r4
	@DEBUG_VALUE: I2C_WaitOnFlagUntilTimeout:Status <- 0
	@DEBUG_VALUE: I2C_WaitOnFlagUntilTimeout:Flag <- 8
	.loc	7 6223 10                       @ c:/Keil_v5\ARM\PACK\Keil\STM32L5xx_DFP\1.3.0\Drivers\STM32L5xx_HAL_Driver\Src\stm32l5xx_hal_i2c.c:6223:10
	ldr	r0, [r1, #24]
	.loc	7 6223 3                        @ c:/Keil_v5\ARM\PACK\Keil\STM32L5xx_DFP\1.3.0\Drivers\STM32L5xx_HAL_Driver\Src\stm32l5xx_hal_i2c.c:6223:3
	lsls	r0, r0, #28
	bmi	.LBB9_19
.Ltmp309:
@ %bb.17:                               @   in Loop: Header=BB9_16 Depth=1
	@DEBUG_VALUE: HAL_I2C_Slave_Transmit:pData <- $r7
	@DEBUG_VALUE: I2C_WaitOnFlagUntilTimeout:Tickstart <- $r6
	@DEBUG_VALUE: HAL_I2C_Slave_Transmit:tickstart <- $r6
	@DEBUG_VALUE: I2C_WaitOnFlagUntilTimeout:Timeout <- $r5
	@DEBUG_VALUE: HAL_I2C_Slave_Transmit:Timeout <- $r5
	@DEBUG_VALUE: I2C_WaitOnFlagUntilTimeout:hi2c <- $r4
	@DEBUG_VALUE: HAL_I2C_Slave_Transmit:hi2c <- $r4
	@DEBUG_VALUE: I2C_WaitOnFlagUntilTimeout:Status <- 0
	@DEBUG_VALUE: I2C_WaitOnFlagUntilTimeout:Flag <- 8
	.loc	7 6223 10                       @ c:/Keil_v5\ARM\PACK\Keil\STM32L5xx_DFP\1.3.0\Drivers\STM32L5xx_HAL_Driver\Src\stm32l5xx_hal_i2c.c:6223:10
	ldr	r0, [r1, #24]
	.loc	7 6223 3                        @ c:/Keil_v5\ARM\PACK\Keil\STM32L5xx_DFP\1.3.0\Drivers\STM32L5xx_HAL_Driver\Src\stm32l5xx_hal_i2c.c:6223:3
	lsls	r0, r0, #28
	.loc	7 6223 10                       @ c:/Keil_v5\ARM\PACK\Keil\STM32L5xx_DFP\1.3.0\Drivers\STM32L5xx_HAL_Driver\Src\stm32l5xx_hal_i2c.c:6223:10
	itt	pl
	ldrpl	r0, [r1, #24]
	.loc	7 6223 3                        @ c:/Keil_v5\ARM\PACK\Keil\STM32L5xx_DFP\1.3.0\Drivers\STM32L5xx_HAL_Driver\Src\stm32l5xx_hal_i2c.c:6223:3
	lslspl.w	r0, r0, #28
	bmi	.LBB9_19
.Ltmp310:
@ %bb.18:                               @   in Loop: Header=BB9_16 Depth=1
	@DEBUG_VALUE: HAL_I2C_Slave_Transmit:pData <- $r7
	@DEBUG_VALUE: I2C_WaitOnFlagUntilTimeout:Tickstart <- $r6
	@DEBUG_VALUE: HAL_I2C_Slave_Transmit:tickstart <- $r6
	@DEBUG_VALUE: I2C_WaitOnFlagUntilTimeout:Timeout <- $r5
	@DEBUG_VALUE: HAL_I2C_Slave_Transmit:Timeout <- $r5
	@DEBUG_VALUE: I2C_WaitOnFlagUntilTimeout:hi2c <- $r4
	@DEBUG_VALUE: HAL_I2C_Slave_Transmit:hi2c <- $r4
	@DEBUG_VALUE: I2C_WaitOnFlagUntilTimeout:Status <- 0
	@DEBUG_VALUE: I2C_WaitOnFlagUntilTimeout:Flag <- 8
	.loc	7 6223 10                       @ c:/Keil_v5\ARM\PACK\Keil\STM32L5xx_DFP\1.3.0\Drivers\STM32L5xx_HAL_Driver\Src\stm32l5xx_hal_i2c.c:6223:10
	ldr	r0, [r1, #24]
	.loc	7 6223 3                        @ c:/Keil_v5\ARM\PACK\Keil\STM32L5xx_DFP\1.3.0\Drivers\STM32L5xx_HAL_Driver\Src\stm32l5xx_hal_i2c.c:6223:3
	lsls	r0, r0, #28
	bpl	.LBB9_16
.Ltmp311:
.LBB9_19:
	@DEBUG_VALUE: HAL_I2C_Slave_Transmit:pData <- $r7
	@DEBUG_VALUE: HAL_I2C_Slave_Transmit:tickstart <- $r6
	@DEBUG_VALUE: HAL_I2C_Slave_Transmit:Timeout <- $r5
	@DEBUG_VALUE: HAL_I2C_Slave_Transmit:hi2c <- $r4
	.loc	7 0 3                           @ c:/Keil_v5\ARM\PACK\Keil\STM32L5xx_DFP\1.3.0\Drivers\STM32L5xx_HAL_Driver\Src\stm32l5xx_hal_i2c.c:0:3
	movs	r0, #8
	.loc	7 1349 7 is_stmt 1              @ c:/Keil_v5\ARM\PACK\Keil\STM32L5xx_DFP\1.3.0\Drivers\STM32L5xx_HAL_Driver\Src\stm32l5xx_hal_i2c.c:1349:7
	str	r0, [r1, #28]
.Ltmp312:
.LBB9_20:
	@DEBUG_VALUE: HAL_I2C_Slave_Transmit:pData <- $r7
	@DEBUG_VALUE: HAL_I2C_Slave_Transmit:tickstart <- $r6
	@DEBUG_VALUE: HAL_I2C_Slave_Transmit:Timeout <- $r5
	@DEBUG_VALUE: HAL_I2C_Slave_Transmit:hi2c <- $r4
	@DEBUG_VALUE: I2C_WaitOnFlagUntilTimeout:hi2c <- $r4
	@DEBUG_VALUE: I2C_WaitOnFlagUntilTimeout:Flag <- 65536
	@DEBUG_VALUE: I2C_WaitOnFlagUntilTimeout:Status <- 0
	@DEBUG_VALUE: I2C_WaitOnFlagUntilTimeout:Timeout <- $r5
	@DEBUG_VALUE: I2C_WaitOnFlagUntilTimeout:Tickstart <- $r6
	.loc	7 6223 10                       @ c:/Keil_v5\ARM\PACK\Keil\STM32L5xx_DFP\1.3.0\Drivers\STM32L5xx_HAL_Driver\Src\stm32l5xx_hal_i2c.c:6223:10
	ldr	r0, [r1, #24]
	.loc	7 6223 3 is_stmt 0              @ c:/Keil_v5\ARM\PACK\Keil\STM32L5xx_DFP\1.3.0\Drivers\STM32L5xx_HAL_Driver\Src\stm32l5xx_hal_i2c.c:6223:3
	lsls	r0, r0, #15
	bmi	.LBB9_32
.Ltmp313:
@ %bb.21:
	@DEBUG_VALUE: HAL_I2C_Slave_Transmit:pData <- $r7
	@DEBUG_VALUE: I2C_WaitOnFlagUntilTimeout:Tickstart <- $r6
	@DEBUG_VALUE: HAL_I2C_Slave_Transmit:tickstart <- $r6
	@DEBUG_VALUE: I2C_WaitOnFlagUntilTimeout:Timeout <- $r5
	@DEBUG_VALUE: HAL_I2C_Slave_Transmit:Timeout <- $r5
	@DEBUG_VALUE: I2C_WaitOnFlagUntilTimeout:hi2c <- $r4
	@DEBUG_VALUE: HAL_I2C_Slave_Transmit:hi2c <- $r4
	@DEBUG_VALUE: I2C_WaitOnFlagUntilTimeout:Status <- 0
	@DEBUG_VALUE: I2C_WaitOnFlagUntilTimeout:Flag <- 65536
	cmp	r5, #0
	beq.w	.LBB9_57
.Ltmp314:
@ %bb.22:
	@DEBUG_VALUE: HAL_I2C_Slave_Transmit:pData <- $r7
	@DEBUG_VALUE: I2C_WaitOnFlagUntilTimeout:Tickstart <- $r6
	@DEBUG_VALUE: HAL_I2C_Slave_Transmit:tickstart <- $r6
	@DEBUG_VALUE: I2C_WaitOnFlagUntilTimeout:Timeout <- $r5
	@DEBUG_VALUE: HAL_I2C_Slave_Transmit:Timeout <- $r5
	@DEBUG_VALUE: I2C_WaitOnFlagUntilTimeout:hi2c <- $r4
	@DEBUG_VALUE: HAL_I2C_Slave_Transmit:hi2c <- $r4
	@DEBUG_VALUE: I2C_WaitOnFlagUntilTimeout:Status <- 0
	@DEBUG_VALUE: I2C_WaitOnFlagUntilTimeout:Flag <- 65536
	adds	r0, r5, #1
	bne	.LBB9_28
.Ltmp315:
.LBB9_23:                               @ =>This Inner Loop Header: Depth=1
	@DEBUG_VALUE: HAL_I2C_Slave_Transmit:pData <- $r7
	@DEBUG_VALUE: I2C_WaitOnFlagUntilTimeout:Tickstart <- $r6
	@DEBUG_VALUE: HAL_I2C_Slave_Transmit:tickstart <- $r6
	@DEBUG_VALUE: I2C_WaitOnFlagUntilTimeout:Timeout <- $r5
	@DEBUG_VALUE: HAL_I2C_Slave_Transmit:Timeout <- $r5
	@DEBUG_VALUE: I2C_WaitOnFlagUntilTimeout:hi2c <- $r4
	@DEBUG_VALUE: HAL_I2C_Slave_Transmit:hi2c <- $r4
	@DEBUG_VALUE: I2C_WaitOnFlagUntilTimeout:Status <- 0
	@DEBUG_VALUE: I2C_WaitOnFlagUntilTimeout:Flag <- 65536
	.loc	7 6223 10                       @ c:/Keil_v5\ARM\PACK\Keil\STM32L5xx_DFP\1.3.0\Drivers\STM32L5xx_HAL_Driver\Src\stm32l5xx_hal_i2c.c:6223:10
	ldr	r0, [r1, #24]
	.loc	7 6223 3                        @ c:/Keil_v5\ARM\PACK\Keil\STM32L5xx_DFP\1.3.0\Drivers\STM32L5xx_HAL_Driver\Src\stm32l5xx_hal_i2c.c:6223:3
	lsls	r0, r0, #15
	bmi	.LBB9_32
.Ltmp316:
@ %bb.24:                               @   in Loop: Header=BB9_23 Depth=1
	@DEBUG_VALUE: HAL_I2C_Slave_Transmit:pData <- $r7
	@DEBUG_VALUE: I2C_WaitOnFlagUntilTimeout:Tickstart <- $r6
	@DEBUG_VALUE: HAL_I2C_Slave_Transmit:tickstart <- $r6
	@DEBUG_VALUE: I2C_WaitOnFlagUntilTimeout:Timeout <- $r5
	@DEBUG_VALUE: HAL_I2C_Slave_Transmit:Timeout <- $r5
	@DEBUG_VALUE: I2C_WaitOnFlagUntilTimeout:hi2c <- $r4
	@DEBUG_VALUE: HAL_I2C_Slave_Transmit:hi2c <- $r4
	@DEBUG_VALUE: I2C_WaitOnFlagUntilTimeout:Status <- 0
	@DEBUG_VALUE: I2C_WaitOnFlagUntilTimeout:Flag <- 65536
	.loc	7 6223 10                       @ c:/Keil_v5\ARM\PACK\Keil\STM32L5xx_DFP\1.3.0\Drivers\STM32L5xx_HAL_Driver\Src\stm32l5xx_hal_i2c.c:6223:10
	ldr	r0, [r1, #24]
	.loc	7 6223 3                        @ c:/Keil_v5\ARM\PACK\Keil\STM32L5xx_DFP\1.3.0\Drivers\STM32L5xx_HAL_Driver\Src\stm32l5xx_hal_i2c.c:6223:3
	lsls	r0, r0, #15
	.loc	7 6223 10                       @ c:/Keil_v5\ARM\PACK\Keil\STM32L5xx_DFP\1.3.0\Drivers\STM32L5xx_HAL_Driver\Src\stm32l5xx_hal_i2c.c:6223:10
	itt	pl
	ldrpl	r0, [r1, #24]
	.loc	7 6223 3                        @ c:/Keil_v5\ARM\PACK\Keil\STM32L5xx_DFP\1.3.0\Drivers\STM32L5xx_HAL_Driver\Src\stm32l5xx_hal_i2c.c:6223:3
	lslspl.w	r0, r0, #15
	bmi	.LBB9_32
.Ltmp317:
@ %bb.25:                               @   in Loop: Header=BB9_23 Depth=1
	@DEBUG_VALUE: HAL_I2C_Slave_Transmit:pData <- $r7
	@DEBUG_VALUE: I2C_WaitOnFlagUntilTimeout:Tickstart <- $r6
	@DEBUG_VALUE: HAL_I2C_Slave_Transmit:tickstart <- $r6
	@DEBUG_VALUE: I2C_WaitOnFlagUntilTimeout:Timeout <- $r5
	@DEBUG_VALUE: HAL_I2C_Slave_Transmit:Timeout <- $r5
	@DEBUG_VALUE: I2C_WaitOnFlagUntilTimeout:hi2c <- $r4
	@DEBUG_VALUE: HAL_I2C_Slave_Transmit:hi2c <- $r4
	@DEBUG_VALUE: I2C_WaitOnFlagUntilTimeout:Status <- 0
	@DEBUG_VALUE: I2C_WaitOnFlagUntilTimeout:Flag <- 65536
	.loc	7 6223 10                       @ c:/Keil_v5\ARM\PACK\Keil\STM32L5xx_DFP\1.3.0\Drivers\STM32L5xx_HAL_Driver\Src\stm32l5xx_hal_i2c.c:6223:10
	ldr	r0, [r1, #24]
	.loc	7 6223 3                        @ c:/Keil_v5\ARM\PACK\Keil\STM32L5xx_DFP\1.3.0\Drivers\STM32L5xx_HAL_Driver\Src\stm32l5xx_hal_i2c.c:6223:3
	lsls	r0, r0, #15
	bpl	.LBB9_23
	b	.LBB9_32
.Ltmp318:
	.p2align	2
.LBB9_26:                               @   in Loop: Header=BB9_27 Depth=1
	@DEBUG_VALUE: HAL_I2C_Slave_Transmit:pData <- $r7
	@DEBUG_VALUE: HAL_I2C_Slave_Transmit:tickstart <- $r6
	@DEBUG_VALUE: I2C_WaitOnFlagUntilTimeout:Tickstart <- $r6
	@DEBUG_VALUE: I2C_WaitOnFlagUntilTimeout:Timeout <- $r5
	@DEBUG_VALUE: HAL_I2C_Slave_Transmit:Timeout <- $r5
	@DEBUG_VALUE: I2C_WaitOnFlagUntilTimeout:hi2c <- $r4
	@DEBUG_VALUE: HAL_I2C_Slave_Transmit:hi2c <- $r4
	@DEBUG_VALUE: I2C_WaitOnFlagUntilTimeout:Status <- 0
	@DEBUG_VALUE: I2C_WaitOnFlagUntilTimeout:Flag <- 8
	.loc	7 6223 10                       @ c:/Keil_v5\ARM\PACK\Keil\STM32L5xx_DFP\1.3.0\Drivers\STM32L5xx_HAL_Driver\Src\stm32l5xx_hal_i2c.c:6223:10
	ldr	r1, [r4]
	ldr	r0, [r1, #24]
	.loc	7 6223 3                        @ c:/Keil_v5\ARM\PACK\Keil\STM32L5xx_DFP\1.3.0\Drivers\STM32L5xx_HAL_Driver\Src\stm32l5xx_hal_i2c.c:6223:3
	lsls	r0, r0, #28
	bmi	.LBB9_12
.Ltmp319:
.LBB9_27:                               @ =>This Inner Loop Header: Depth=1
	@DEBUG_VALUE: HAL_I2C_Slave_Transmit:pData <- $r7
	@DEBUG_VALUE: HAL_I2C_Slave_Transmit:tickstart <- $r6
	@DEBUG_VALUE: I2C_WaitOnFlagUntilTimeout:Tickstart <- $r6
	@DEBUG_VALUE: I2C_WaitOnFlagUntilTimeout:Timeout <- $r5
	@DEBUG_VALUE: HAL_I2C_Slave_Transmit:Timeout <- $r5
	@DEBUG_VALUE: I2C_WaitOnFlagUntilTimeout:hi2c <- $r4
	@DEBUG_VALUE: HAL_I2C_Slave_Transmit:hi2c <- $r4
	@DEBUG_VALUE: I2C_WaitOnFlagUntilTimeout:Status <- 0
	@DEBUG_VALUE: I2C_WaitOnFlagUntilTimeout:Flag <- 8
	.loc	7 6228 13 is_stmt 1             @ c:/Keil_v5\ARM\PACK\Keil\STM32L5xx_DFP\1.3.0\Drivers\STM32L5xx_HAL_Driver\Src\stm32l5xx_hal_i2c.c:6228:13
	bl	HAL_GetTick
	.loc	7 6228 27 is_stmt 0             @ c:/Keil_v5\ARM\PACK\Keil\STM32L5xx_DFP\1.3.0\Drivers\STM32L5xx_HAL_Driver\Src\stm32l5xx_hal_i2c.c:6228:27
	subs	r0, r0, r6
	.loc	7 6228 51                       @ c:/Keil_v5\ARM\PACK\Keil\STM32L5xx_DFP\1.3.0\Drivers\STM32L5xx_HAL_Driver\Src\stm32l5xx_hal_i2c.c:6228:51
	cmp	r0, r5
	bls	.LBB9_26
	b	.LBB9_58
.Ltmp320:
	.p2align	2
.LBB9_28:                               @ =>This Inner Loop Header: Depth=1
	@DEBUG_VALUE: HAL_I2C_Slave_Transmit:pData <- $r7
	@DEBUG_VALUE: I2C_WaitOnFlagUntilTimeout:Tickstart <- $r6
	@DEBUG_VALUE: HAL_I2C_Slave_Transmit:tickstart <- $r6
	@DEBUG_VALUE: I2C_WaitOnFlagUntilTimeout:Timeout <- $r5
	@DEBUG_VALUE: HAL_I2C_Slave_Transmit:Timeout <- $r5
	@DEBUG_VALUE: I2C_WaitOnFlagUntilTimeout:hi2c <- $r4
	@DEBUG_VALUE: HAL_I2C_Slave_Transmit:hi2c <- $r4
	@DEBUG_VALUE: I2C_WaitOnFlagUntilTimeout:Status <- 0
	@DEBUG_VALUE: I2C_WaitOnFlagUntilTimeout:Flag <- 65536
	.loc	7 6228 13                       @ c:/Keil_v5\ARM\PACK\Keil\STM32L5xx_DFP\1.3.0\Drivers\STM32L5xx_HAL_Driver\Src\stm32l5xx_hal_i2c.c:6228:13
	bl	HAL_GetTick
	.loc	7 6228 27                       @ c:/Keil_v5\ARM\PACK\Keil\STM32L5xx_DFP\1.3.0\Drivers\STM32L5xx_HAL_Driver\Src\stm32l5xx_hal_i2c.c:6228:27
	subs	r0, r0, r6
	.loc	7 6228 51                       @ c:/Keil_v5\ARM\PACK\Keil\STM32L5xx_DFP\1.3.0\Drivers\STM32L5xx_HAL_Driver\Src\stm32l5xx_hal_i2c.c:6228:51
	cmp	r0, r5
	bhi.w	.LBB9_58
.Ltmp321:
@ %bb.29:                               @   in Loop: Header=BB9_28 Depth=1
	@DEBUG_VALUE: HAL_I2C_Slave_Transmit:pData <- $r7
	@DEBUG_VALUE: I2C_WaitOnFlagUntilTimeout:Tickstart <- $r6
	@DEBUG_VALUE: HAL_I2C_Slave_Transmit:tickstart <- $r6
	@DEBUG_VALUE: I2C_WaitOnFlagUntilTimeout:Timeout <- $r5
	@DEBUG_VALUE: HAL_I2C_Slave_Transmit:Timeout <- $r5
	@DEBUG_VALUE: I2C_WaitOnFlagUntilTimeout:hi2c <- $r4
	@DEBUG_VALUE: HAL_I2C_Slave_Transmit:hi2c <- $r4
	@DEBUG_VALUE: I2C_WaitOnFlagUntilTimeout:Status <- 0
	@DEBUG_VALUE: I2C_WaitOnFlagUntilTimeout:Flag <- 65536
	.loc	7 6223 10 is_stmt 1             @ c:/Keil_v5\ARM\PACK\Keil\STM32L5xx_DFP\1.3.0\Drivers\STM32L5xx_HAL_Driver\Src\stm32l5xx_hal_i2c.c:6223:10
	ldr	r1, [r4]
	ldr	r0, [r1, #24]
	.loc	7 6223 3 is_stmt 0              @ c:/Keil_v5\ARM\PACK\Keil\STM32L5xx_DFP\1.3.0\Drivers\STM32L5xx_HAL_Driver\Src\stm32l5xx_hal_i2c.c:6223:3
	lsls	r0, r0, #15
	bpl	.LBB9_28
	b	.LBB9_32
.Ltmp322:
	.p2align	2
.LBB9_30:                               @   in Loop: Header=BB9_32 Depth=1
	@DEBUG_VALUE: HAL_I2C_Slave_Transmit:pData <- $r7
	@DEBUG_VALUE: HAL_I2C_Slave_Transmit:tickstart <- $r6
	@DEBUG_VALUE: HAL_I2C_Slave_Transmit:Timeout <- $r5
	@DEBUG_VALUE: HAL_I2C_Slave_Transmit:hi2c <- $r4
	.loc	7 1363 11 is_stmt 1             @ c:/Keil_v5\ARM\PACK\Keil\STM32L5xx_DFP\1.3.0\Drivers\STM32L5xx_HAL_Driver\Src\stm32l5xx_hal_i2c.c:1363:11
	mov	r0, r4
	mov	r1, r5
	mov	r2, r6
	bl	I2C_WaitOnTXISFlagUntilTimeout
	cbnz	r0, .LBB9_40
.Ltmp323:
@ %bb.31:                               @   in Loop: Header=BB9_32 Depth=1
	@DEBUG_VALUE: HAL_I2C_Slave_Transmit:pData <- $r7
	@DEBUG_VALUE: HAL_I2C_Slave_Transmit:tickstart <- $r6
	@DEBUG_VALUE: HAL_I2C_Slave_Transmit:Timeout <- $r5
	@DEBUG_VALUE: HAL_I2C_Slave_Transmit:hi2c <- $r4
	.loc	7 1371 37                       @ c:/Keil_v5\ARM\PACK\Keil\STM32L5xx_DFP\1.3.0\Drivers\STM32L5xx_HAL_Driver\Src\stm32l5xx_hal_i2c.c:1371:37
	ldr	r0, [r4, #36]
	.loc	7 1371 13 is_stmt 0             @ c:/Keil_v5\ARM\PACK\Keil\STM32L5xx_DFP\1.3.0\Drivers\STM32L5xx_HAL_Driver\Src\stm32l5xx_hal_i2c.c:1371:13
	ldr	r1, [r4]
	.loc	7 1371 30                       @ c:/Keil_v5\ARM\PACK\Keil\STM32L5xx_DFP\1.3.0\Drivers\STM32L5xx_HAL_Driver\Src\stm32l5xx_hal_i2c.c:1371:30
	ldrb	r2, [r0], #1
	.loc	7 1371 28                       @ c:/Keil_v5\ARM\PACK\Keil\STM32L5xx_DFP\1.3.0\Drivers\STM32L5xx_HAL_Driver\Src\stm32l5xx_hal_i2c.c:1371:28
	str	r2, [r1, #40]
	.loc	7 1374 21 is_stmt 1             @ c:/Keil_v5\ARM\PACK\Keil\STM32L5xx_DFP\1.3.0\Drivers\STM32L5xx_HAL_Driver\Src\stm32l5xx_hal_i2c.c:1374:21
	str	r0, [r4, #36]
	.loc	7 1376 22                       @ c:/Keil_v5\ARM\PACK\Keil\STM32L5xx_DFP\1.3.0\Drivers\STM32L5xx_HAL_Driver\Src\stm32l5xx_hal_i2c.c:1376:22
	ldrh	r0, [r4, #42]
	subs	r0, #1
	strh	r0, [r4, #42]
.Ltmp324:
.LBB9_32:                               @ =>This Inner Loop Header: Depth=1
	@DEBUG_VALUE: HAL_I2C_Slave_Transmit:pData <- $r7
	@DEBUG_VALUE: HAL_I2C_Slave_Transmit:tickstart <- $r6
	@DEBUG_VALUE: HAL_I2C_Slave_Transmit:Timeout <- $r5
	@DEBUG_VALUE: HAL_I2C_Slave_Transmit:hi2c <- $r4
	@DEBUG_VALUE: I2C_WaitOnFlagUntilTimeout:Tickstart <- $r6
	.loc	7 1360 18                       @ c:/Keil_v5\ARM\PACK\Keil\STM32L5xx_DFP\1.3.0\Drivers\STM32L5xx_HAL_Driver\Src\stm32l5xx_hal_i2c.c:1360:18
	ldrh	r0, [r4, #42]
	.loc	7 1360 5 is_stmt 0              @ c:/Keil_v5\ARM\PACK\Keil\STM32L5xx_DFP\1.3.0\Drivers\STM32L5xx_HAL_Driver\Src\stm32l5xx_hal_i2c.c:1360:5
	cmp	r0, #0
	bne	.LBB9_30
.Ltmp325:
@ %bb.33:
	@DEBUG_VALUE: HAL_I2C_Slave_Transmit:pData <- $r7
	@DEBUG_VALUE: HAL_I2C_Slave_Transmit:tickstart <- $r6
	@DEBUG_VALUE: HAL_I2C_Slave_Transmit:Timeout <- $r5
	@DEBUG_VALUE: HAL_I2C_Slave_Transmit:hi2c <- $r4
	@DEBUG_VALUE: I2C_WaitOnSTOPFlagUntilTimeout:hi2c <- $r4
	@DEBUG_VALUE: I2C_WaitOnSTOPFlagUntilTimeout:Timeout <- $r5
	@DEBUG_VALUE: I2C_WaitOnSTOPFlagUntilTimeout:Tickstart <- $r6
	.loc	7 6290 10 is_stmt 1             @ c:/Keil_v5\ARM\PACK\Keil\STM32L5xx_DFP\1.3.0\Drivers\STM32L5xx_HAL_Driver\Src\stm32l5xx_hal_i2c.c:6290:10
	ldr	r0, [r1, #24]
	.loc	7 6290 51 is_stmt 0             @ c:/Keil_v5\ARM\PACK\Keil\STM32L5xx_DFP\1.3.0\Drivers\STM32L5xx_HAL_Driver\Src\stm32l5xx_hal_i2c.c:6290:51
	and	r0, r0, #32
	.loc	7 6290 3                        @ c:/Keil_v5\ARM\PACK\Keil\STM32L5xx_DFP\1.3.0\Drivers\STM32L5xx_HAL_Driver\Src\stm32l5xx_hal_i2c.c:6290:3
	cbz	r5, .LBB9_41
.Ltmp326:
@ %bb.34:
	@DEBUG_VALUE: HAL_I2C_Slave_Transmit:pData <- $r7
	@DEBUG_VALUE: I2C_WaitOnSTOPFlagUntilTimeout:Tickstart <- $r6
	@DEBUG_VALUE: HAL_I2C_Slave_Transmit:tickstart <- $r6
	@DEBUG_VALUE: I2C_WaitOnSTOPFlagUntilTimeout:Timeout <- $r5
	@DEBUG_VALUE: HAL_I2C_Slave_Transmit:Timeout <- $r5
	@DEBUG_VALUE: I2C_WaitOnSTOPFlagUntilTimeout:hi2c <- $r4
	@DEBUG_VALUE: HAL_I2C_Slave_Transmit:hi2c <- $r4
	cmp	r0, #0
	bne	.LBB9_48
.Ltmp327:
.LBB9_35:                               @ =>This Inner Loop Header: Depth=1
	@DEBUG_VALUE: HAL_I2C_Slave_Transmit:pData <- $r7
	@DEBUG_VALUE: I2C_WaitOnSTOPFlagUntilTimeout:Tickstart <- $r6
	@DEBUG_VALUE: HAL_I2C_Slave_Transmit:tickstart <- $r6
	@DEBUG_VALUE: I2C_WaitOnSTOPFlagUntilTimeout:Timeout <- $r5
	@DEBUG_VALUE: HAL_I2C_Slave_Transmit:Timeout <- $r5
	@DEBUG_VALUE: I2C_WaitOnSTOPFlagUntilTimeout:hi2c <- $r4
	@DEBUG_VALUE: HAL_I2C_Slave_Transmit:hi2c <- $r4
	.loc	7 6293 9 is_stmt 1              @ c:/Keil_v5\ARM\PACK\Keil\STM32L5xx_DFP\1.3.0\Drivers\STM32L5xx_HAL_Driver\Src\stm32l5xx_hal_i2c.c:6293:9
	mov	r0, r4
	mov	r1, r5
	mov	r2, r6
	bl	I2C_IsAcknowledgeFailed
	cbnz	r0, .LBB9_46
.Ltmp328:
@ %bb.36:                               @   in Loop: Header=BB9_35 Depth=1
	@DEBUG_VALUE: HAL_I2C_Slave_Transmit:pData <- $r7
	@DEBUG_VALUE: I2C_WaitOnSTOPFlagUntilTimeout:Tickstart <- $r6
	@DEBUG_VALUE: HAL_I2C_Slave_Transmit:tickstart <- $r6
	@DEBUG_VALUE: I2C_WaitOnSTOPFlagUntilTimeout:Timeout <- $r5
	@DEBUG_VALUE: HAL_I2C_Slave_Transmit:Timeout <- $r5
	@DEBUG_VALUE: I2C_WaitOnSTOPFlagUntilTimeout:hi2c <- $r4
	@DEBUG_VALUE: HAL_I2C_Slave_Transmit:hi2c <- $r4
	.loc	7 6299 11                       @ c:/Keil_v5\ARM\PACK\Keil\STM32L5xx_DFP\1.3.0\Drivers\STM32L5xx_HAL_Driver\Src\stm32l5xx_hal_i2c.c:6299:11
	bl	HAL_GetTick
	.loc	7 6299 25 is_stmt 0             @ c:/Keil_v5\ARM\PACK\Keil\STM32L5xx_DFP\1.3.0\Drivers\STM32L5xx_HAL_Driver\Src\stm32l5xx_hal_i2c.c:6299:25
	subs	r0, r0, r6
	.loc	7 6299 49                       @ c:/Keil_v5\ARM\PACK\Keil\STM32L5xx_DFP\1.3.0\Drivers\STM32L5xx_HAL_Driver\Src\stm32l5xx_hal_i2c.c:6299:49
	cmp	r0, r5
	bhi	.LBB9_44
.Ltmp329:
@ %bb.37:                               @   in Loop: Header=BB9_35 Depth=1
	@DEBUG_VALUE: HAL_I2C_Slave_Transmit:pData <- $r7
	@DEBUG_VALUE: I2C_WaitOnSTOPFlagUntilTimeout:Tickstart <- $r6
	@DEBUG_VALUE: HAL_I2C_Slave_Transmit:tickstart <- $r6
	@DEBUG_VALUE: I2C_WaitOnSTOPFlagUntilTimeout:Timeout <- $r5
	@DEBUG_VALUE: HAL_I2C_Slave_Transmit:Timeout <- $r5
	@DEBUG_VALUE: I2C_WaitOnSTOPFlagUntilTimeout:hi2c <- $r4
	@DEBUG_VALUE: HAL_I2C_Slave_Transmit:hi2c <- $r4
	.loc	7 6290 10 is_stmt 1             @ c:/Keil_v5\ARM\PACK\Keil\STM32L5xx_DFP\1.3.0\Drivers\STM32L5xx_HAL_Driver\Src\stm32l5xx_hal_i2c.c:6290:10
	ldr	r1, [r4]
	ldr	r0, [r1, #24]
	.loc	7 6290 3 is_stmt 0              @ c:/Keil_v5\ARM\PACK\Keil\STM32L5xx_DFP\1.3.0\Drivers\STM32L5xx_HAL_Driver\Src\stm32l5xx_hal_i2c.c:6290:3
	lsls	r0, r0, #26
	bpl	.LBB9_35
	b	.LBB9_48
.Ltmp330:
	.p2align	2
.LBB9_38:                               @   in Loop: Header=BB9_39 Depth=1
	@DEBUG_VALUE: HAL_I2C_Slave_Transmit:pData <- $r7
	@DEBUG_VALUE: I2C_WaitOnFlagUntilTimeout:Tickstart <- $r6
	@DEBUG_VALUE: HAL_I2C_Slave_Transmit:tickstart <- $r6
	@DEBUG_VALUE: I2C_WaitOnFlagUntilTimeout:Timeout <- $r5
	@DEBUG_VALUE: HAL_I2C_Slave_Transmit:Timeout <- $r5
	@DEBUG_VALUE: I2C_WaitOnFlagUntilTimeout:hi2c <- $r4
	@DEBUG_VALUE: HAL_I2C_Slave_Transmit:hi2c <- $r4
	@DEBUG_VALUE: I2C_WaitOnFlagUntilTimeout:Status <- 0
	@DEBUG_VALUE: I2C_WaitOnFlagUntilTimeout:Flag <- 8
	.loc	7 6223 10 is_stmt 1             @ c:/Keil_v5\ARM\PACK\Keil\STM32L5xx_DFP\1.3.0\Drivers\STM32L5xx_HAL_Driver\Src\stm32l5xx_hal_i2c.c:6223:10
	ldr	r1, [r4]
	ldr	r0, [r1, #24]
	.loc	7 6223 3 is_stmt 0              @ c:/Keil_v5\ARM\PACK\Keil\STM32L5xx_DFP\1.3.0\Drivers\STM32L5xx_HAL_Driver\Src\stm32l5xx_hal_i2c.c:6223:3
	lsls	r0, r0, #28
	bmi	.LBB9_19
.Ltmp331:
.LBB9_39:                               @ =>This Inner Loop Header: Depth=1
	@DEBUG_VALUE: HAL_I2C_Slave_Transmit:pData <- $r7
	@DEBUG_VALUE: I2C_WaitOnFlagUntilTimeout:Tickstart <- $r6
	@DEBUG_VALUE: HAL_I2C_Slave_Transmit:tickstart <- $r6
	@DEBUG_VALUE: I2C_WaitOnFlagUntilTimeout:Timeout <- $r5
	@DEBUG_VALUE: HAL_I2C_Slave_Transmit:Timeout <- $r5
	@DEBUG_VALUE: I2C_WaitOnFlagUntilTimeout:hi2c <- $r4
	@DEBUG_VALUE: HAL_I2C_Slave_Transmit:hi2c <- $r4
	@DEBUG_VALUE: I2C_WaitOnFlagUntilTimeout:Status <- 0
	@DEBUG_VALUE: I2C_WaitOnFlagUntilTimeout:Flag <- 8
	.loc	7 6228 13 is_stmt 1             @ c:/Keil_v5\ARM\PACK\Keil\STM32L5xx_DFP\1.3.0\Drivers\STM32L5xx_HAL_Driver\Src\stm32l5xx_hal_i2c.c:6228:13
	bl	HAL_GetTick
	.loc	7 6228 27 is_stmt 0             @ c:/Keil_v5\ARM\PACK\Keil\STM32L5xx_DFP\1.3.0\Drivers\STM32L5xx_HAL_Driver\Src\stm32l5xx_hal_i2c.c:6228:27
	subs	r0, r0, r6
	.loc	7 6228 51                       @ c:/Keil_v5\ARM\PACK\Keil\STM32L5xx_DFP\1.3.0\Drivers\STM32L5xx_HAL_Driver\Src\stm32l5xx_hal_i2c.c:6228:51
	cmp	r0, r5
	bls	.LBB9_38
	b	.LBB9_58
.Ltmp332:
	.p2align	2
.LBB9_40:
	@DEBUG_VALUE: HAL_I2C_Slave_Transmit:pData <- $r7
	@DEBUG_VALUE: HAL_I2C_Slave_Transmit:tickstart <- $r6
	@DEBUG_VALUE: HAL_I2C_Slave_Transmit:Timeout <- $r5
	@DEBUG_VALUE: HAL_I2C_Slave_Transmit:hi2c <- $r4
	.loc	7 1366 15 is_stmt 1             @ c:/Keil_v5\ARM\PACK\Keil\STM32L5xx_DFP\1.3.0\Drivers\STM32L5xx_HAL_Driver\Src\stm32l5xx_hal_i2c.c:1366:15
	ldr	r0, [r4]
	b	.LBB9_59
.Ltmp333:
	.p2align	2
.LBB9_41:
	@DEBUG_VALUE: HAL_I2C_Slave_Transmit:pData <- $r7
	@DEBUG_VALUE: I2C_WaitOnSTOPFlagUntilTimeout:Tickstart <- $r6
	@DEBUG_VALUE: HAL_I2C_Slave_Transmit:tickstart <- $r6
	@DEBUG_VALUE: I2C_WaitOnSTOPFlagUntilTimeout:Timeout <- $r5
	@DEBUG_VALUE: HAL_I2C_Slave_Transmit:Timeout <- $r5
	@DEBUG_VALUE: I2C_WaitOnSTOPFlagUntilTimeout:hi2c <- $r4
	@DEBUG_VALUE: HAL_I2C_Slave_Transmit:hi2c <- $r4
	.loc	7 6290 3                        @ c:/Keil_v5\ARM\PACK\Keil\STM32L5xx_DFP\1.3.0\Drivers\STM32L5xx_HAL_Driver\Src\stm32l5xx_hal_i2c.c:6290:3
	cbnz	r0, .LBB9_48
.Ltmp334:
@ %bb.42:
	@DEBUG_VALUE: HAL_I2C_Slave_Transmit:pData <- $r7
	@DEBUG_VALUE: I2C_WaitOnSTOPFlagUntilTimeout:Tickstart <- $r6
	@DEBUG_VALUE: HAL_I2C_Slave_Transmit:tickstart <- $r6
	@DEBUG_VALUE: I2C_WaitOnSTOPFlagUntilTimeout:Timeout <- $r5
	@DEBUG_VALUE: HAL_I2C_Slave_Transmit:Timeout <- $r5
	@DEBUG_VALUE: I2C_WaitOnSTOPFlagUntilTimeout:hi2c <- $r4
	@DEBUG_VALUE: HAL_I2C_Slave_Transmit:hi2c <- $r4
	@DEBUG_VALUE: I2C_IsAcknowledgeFailed:hi2c <- $r4
	@DEBUG_VALUE: I2C_IsAcknowledgeFailed:Timeout <- 0
	@DEBUG_VALUE: I2C_IsAcknowledgeFailed:Tickstart <- $r6
	.loc	7 6387 7                        @ c:/Keil_v5\ARM\PACK\Keil\STM32L5xx_DFP\1.3.0\Drivers\STM32L5xx_HAL_Driver\Src\stm32l5xx_hal_i2c.c:6387:7
	ldr	r0, [r1, #24]
.Ltmp335:
	.loc	7 6387 7 is_stmt 0              @ c:/Keil_v5\ARM\PACK\Keil\STM32L5xx_DFP\1.3.0\Drivers\STM32L5xx_HAL_Driver\Src\stm32l5xx_hal_i2c.c:6387:7
	lsls	r0, r0, #27
.Ltmp336:
	.loc	7 6391 12 is_stmt 1             @ c:/Keil_v5\ARM\PACK\Keil\STM32L5xx_DFP\1.3.0\Drivers\STM32L5xx_HAL_Driver\Src\stm32l5xx_hal_i2c.c:6391:12
	itt	mi
	ldrmi	r0, [r1, #24]
	.loc	7 6391 5 is_stmt 0              @ c:/Keil_v5\ARM\PACK\Keil\STM32L5xx_DFP\1.3.0\Drivers\STM32L5xx_HAL_Driver\Src\stm32l5xx_hal_i2c.c:6391:5
	lslsmi.w	r0, r0, #26
	bmi	.LBB9_60
.Ltmp337:
@ %bb.43:
	@DEBUG_VALUE: HAL_I2C_Slave_Transmit:pData <- $r7
	@DEBUG_VALUE: I2C_IsAcknowledgeFailed:Tickstart <- $r6
	@DEBUG_VALUE: I2C_WaitOnSTOPFlagUntilTimeout:Tickstart <- $r6
	@DEBUG_VALUE: HAL_I2C_Slave_Transmit:tickstart <- $r6
	@DEBUG_VALUE: I2C_WaitOnSTOPFlagUntilTimeout:Timeout <- $r5
	@DEBUG_VALUE: HAL_I2C_Slave_Transmit:Timeout <- $r5
	@DEBUG_VALUE: I2C_IsAcknowledgeFailed:hi2c <- $r4
	@DEBUG_VALUE: I2C_WaitOnSTOPFlagUntilTimeout:hi2c <- $r4
	@DEBUG_VALUE: HAL_I2C_Slave_Transmit:hi2c <- $r4
	@DEBUG_VALUE: I2C_IsAcknowledgeFailed:Timeout <- 0
	.loc	7 0 0                           @ c:/Keil_v5\ARM\PACK\Keil\STM32L5xx_DFP\1.3.0\Drivers\STM32L5xx_HAL_Driver\Src\stm32l5xx_hal_i2c.c:0:0
	bl	HAL_GetTick
.Ltmp338:
.LBB9_44:
	@DEBUG_VALUE: HAL_I2C_Slave_Transmit:pData <- $r7
	@DEBUG_VALUE: I2C_WaitOnSTOPFlagUntilTimeout:Tickstart <- $r6
	@DEBUG_VALUE: HAL_I2C_Slave_Transmit:tickstart <- $r6
	@DEBUG_VALUE: I2C_WaitOnSTOPFlagUntilTimeout:Timeout <- $r5
	@DEBUG_VALUE: HAL_I2C_Slave_Transmit:Timeout <- $r5
	@DEBUG_VALUE: I2C_WaitOnSTOPFlagUntilTimeout:hi2c <- $r4
	@DEBUG_VALUE: HAL_I2C_Slave_Transmit:hi2c <- $r4
	movs	r0, #32
.Ltmp339:
.LBB9_45:
	@DEBUG_VALUE: HAL_I2C_Slave_Transmit:pData <- $r7
	@DEBUG_VALUE: I2C_WaitOnSTOPFlagUntilTimeout:Tickstart <- $r6
	@DEBUG_VALUE: HAL_I2C_Slave_Transmit:tickstart <- $r6
	@DEBUG_VALUE: I2C_WaitOnSTOPFlagUntilTimeout:Timeout <- $r5
	@DEBUG_VALUE: HAL_I2C_Slave_Transmit:Timeout <- $r5
	@DEBUG_VALUE: I2C_WaitOnSTOPFlagUntilTimeout:hi2c <- $r4
	@DEBUG_VALUE: HAL_I2C_Slave_Transmit:hi2c <- $r4
	ldr	r1, [r4, #68]
	orrs	r0, r1
	str	r0, [r4, #68]
	movs	r0, #32
	strb.w	r0, [r4, #65]
	movs	r0, #0
	strb.w	r0, [r4, #66]
	strb.w	r0, [r4, #64]
.Ltmp340:
.LBB9_46:
	@DEBUG_VALUE: HAL_I2C_Slave_Transmit:pData <- $r7
	@DEBUG_VALUE: HAL_I2C_Slave_Transmit:tickstart <- $r6
	@DEBUG_VALUE: HAL_I2C_Slave_Transmit:Timeout <- $r5
	@DEBUG_VALUE: HAL_I2C_Slave_Transmit:hi2c <- $r4
	.loc	7 1383 13 is_stmt 1             @ c:/Keil_v5\ARM\PACK\Keil\STM32L5xx_DFP\1.3.0\Drivers\STM32L5xx_HAL_Driver\Src\stm32l5xx_hal_i2c.c:1383:13
	ldr	r1, [r4]
	.loc	7 1383 27 is_stmt 0             @ c:/Keil_v5\ARM\PACK\Keil\STM32L5xx_DFP\1.3.0\Drivers\STM32L5xx_HAL_Driver\Src\stm32l5xx_hal_i2c.c:1383:27
	ldr	r0, [r1, #4]
	orr	r0, r0, #32768
	str	r0, [r1, #4]
.Ltmp341:
	.loc	7 1385 17 is_stmt 1             @ c:/Keil_v5\ARM\PACK\Keil\STM32L5xx_DFP\1.3.0\Drivers\STM32L5xx_HAL_Driver\Src\stm32l5xx_hal_i2c.c:1385:17
	ldr	r0, [r4, #68]
.Ltmp342:
	.loc	7 1385 11 is_stmt 0             @ c:/Keil_v5\ARM\PACK\Keil\STM32L5xx_DFP\1.3.0\Drivers\STM32L5xx_HAL_Driver\Src\stm32l5xx_hal_i2c.c:1385:11
	cmp	r0, #4
	bne.w	.LBB9_3
.Ltmp343:
@ %bb.47:
	@DEBUG_VALUE: HAL_I2C_Slave_Transmit:pData <- $r7
	@DEBUG_VALUE: HAL_I2C_Slave_Transmit:tickstart <- $r6
	@DEBUG_VALUE: HAL_I2C_Slave_Transmit:Timeout <- $r5
	@DEBUG_VALUE: HAL_I2C_Slave_Transmit:hi2c <- $r4
	.loc	7 0 11                          @ c:/Keil_v5\ARM\PACK\Keil\STM32L5xx_DFP\1.3.0\Drivers\STM32L5xx_HAL_Driver\Src\stm32l5xx_hal_i2c.c:0:11
	movs	r0, #0
.Ltmp344:
	.loc	7 1389 25 is_stmt 1             @ c:/Keil_v5\ARM\PACK\Keil\STM32L5xx_DFP\1.3.0\Drivers\STM32L5xx_HAL_Driver\Src\stm32l5xx_hal_i2c.c:1389:25
	str	r0, [r4, #68]
.Ltmp345:
.LBB9_48:
	@DEBUG_VALUE: HAL_I2C_Slave_Transmit:pData <- $r7
	@DEBUG_VALUE: HAL_I2C_Slave_Transmit:tickstart <- $r6
	@DEBUG_VALUE: HAL_I2C_Slave_Transmit:Timeout <- $r5
	@DEBUG_VALUE: HAL_I2C_Slave_Transmit:hi2c <- $r4
	.loc	7 0 25 is_stmt 0                @ c:/Keil_v5\ARM\PACK\Keil\STM32L5xx_DFP\1.3.0\Drivers\STM32L5xx_HAL_Driver\Src\stm32l5xx_hal_i2c.c:0:25
	movs	r7, #32
.Ltmp346:
	@DEBUG_VALUE: HAL_I2C_Slave_Transmit:pData <- [DW_OP_LLVM_entry_value 1] $r1
	.loc	7 1398 5 is_stmt 1              @ c:/Keil_v5\ARM\PACK\Keil\STM32L5xx_DFP\1.3.0\Drivers\STM32L5xx_HAL_Driver\Src\stm32l5xx_hal_i2c.c:1398:5
	str	r7, [r1, #28]
.Ltmp347:
	@DEBUG_VALUE: I2C_WaitOnFlagUntilTimeout:Tickstart <- undef
	@DEBUG_VALUE: I2C_WaitOnFlagUntilTimeout:Timeout <- $r5
	@DEBUG_VALUE: I2C_WaitOnFlagUntilTimeout:Status <- 1
	@DEBUG_VALUE: I2C_WaitOnFlagUntilTimeout:Flag <- 32768
	@DEBUG_VALUE: I2C_WaitOnFlagUntilTimeout:hi2c <- $r4
	.loc	7 6223 10                       @ c:/Keil_v5\ARM\PACK\Keil\STM32L5xx_DFP\1.3.0\Drivers\STM32L5xx_HAL_Driver\Src\stm32l5xx_hal_i2c.c:6223:10
	ldr	r0, [r1, #24]
	.loc	7 6223 3 is_stmt 0              @ c:/Keil_v5\ARM\PACK\Keil\STM32L5xx_DFP\1.3.0\Drivers\STM32L5xx_HAL_Driver\Src\stm32l5xx_hal_i2c.c:6223:3
	lsls	r0, r0, #16
	bmi	.LBB9_50
.Ltmp348:
.LBB9_49:
	@DEBUG_VALUE: HAL_I2C_Slave_Transmit:tickstart <- $r6
	@DEBUG_VALUE: HAL_I2C_Slave_Transmit:Timeout <- $r5
	@DEBUG_VALUE: HAL_I2C_Slave_Transmit:hi2c <- $r4
	@DEBUG_VALUE: HAL_I2C_Slave_Transmit:pData <- [DW_OP_LLVM_entry_value 1] $r1
	.loc	7 1409 25 is_stmt 1             @ c:/Keil_v5\ARM\PACK\Keil\STM32L5xx_DFP\1.3.0\Drivers\STM32L5xx_HAL_Driver\Src\stm32l5xx_hal_i2c.c:1409:25
	ldr	r0, [r1, #4]
	orr	r0, r0, #32768
	str	r0, [r1, #4]
	movs	r0, #0
	.loc	7 1411 17                       @ c:/Keil_v5\ARM\PACK\Keil\STM32L5xx_DFP\1.3.0\Drivers\STM32L5xx_HAL_Driver\Src\stm32l5xx_hal_i2c.c:1411:17
	strb.w	r7, [r4, #65]
	.loc	7 1412 17                       @ c:/Keil_v5\ARM\PACK\Keil\STM32L5xx_DFP\1.3.0\Drivers\STM32L5xx_HAL_Driver\Src\stm32l5xx_hal_i2c.c:1412:17
	strb.w	r0, [r4, #66]
.Ltmp349:
	.loc	7 1415 5                        @ c:/Keil_v5\ARM\PACK\Keil\STM32L5xx_DFP\1.3.0\Drivers\STM32L5xx_HAL_Driver\Src\stm32l5xx_hal_i2c.c:1415:5
	strb.w	r0, [r4, #64]
.Ltmp350:
	.loc	7 1423 1                        @ c:/Keil_v5\ARM\PACK\Keil\STM32L5xx_DFP\1.3.0\Drivers\STM32L5xx_HAL_Driver\Src\stm32l5xx_hal_i2c.c:1423:1
	add	sp, #4
	pop	{r4, r5, r6, r7, pc}
.Ltmp351:
	.p2align	2
.LBB9_50:
	@DEBUG_VALUE: HAL_I2C_Slave_Transmit:tickstart <- $r6
	@DEBUG_VALUE: I2C_WaitOnFlagUntilTimeout:Timeout <- $r5
	@DEBUG_VALUE: HAL_I2C_Slave_Transmit:Timeout <- $r5
	@DEBUG_VALUE: I2C_WaitOnFlagUntilTimeout:hi2c <- $r4
	@DEBUG_VALUE: HAL_I2C_Slave_Transmit:hi2c <- $r4
	@DEBUG_VALUE: I2C_WaitOnFlagUntilTimeout:Flag <- 32768
	@DEBUG_VALUE: I2C_WaitOnFlagUntilTimeout:Status <- 1
	@DEBUG_VALUE: HAL_I2C_Slave_Transmit:pData <- [DW_OP_LLVM_entry_value 1] $r1
	.loc	7 6223 3                        @ c:/Keil_v5\ARM\PACK\Keil\STM32L5xx_DFP\1.3.0\Drivers\STM32L5xx_HAL_Driver\Src\stm32l5xx_hal_i2c.c:6223:3
	cbz	r5, .LBB9_57
.Ltmp352:
@ %bb.51:
	@DEBUG_VALUE: HAL_I2C_Slave_Transmit:tickstart <- $r6
	@DEBUG_VALUE: I2C_WaitOnFlagUntilTimeout:Timeout <- $r5
	@DEBUG_VALUE: HAL_I2C_Slave_Transmit:Timeout <- $r5
	@DEBUG_VALUE: I2C_WaitOnFlagUntilTimeout:hi2c <- $r4
	@DEBUG_VALUE: HAL_I2C_Slave_Transmit:hi2c <- $r4
	@DEBUG_VALUE: I2C_WaitOnFlagUntilTimeout:Flag <- 32768
	@DEBUG_VALUE: I2C_WaitOnFlagUntilTimeout:Status <- 1
	@DEBUG_VALUE: HAL_I2C_Slave_Transmit:pData <- [DW_OP_LLVM_entry_value 1] $r1
	adds	r0, r5, #1
	bne	.LBB9_56
.Ltmp353:
.LBB9_52:                               @ =>This Inner Loop Header: Depth=1
	@DEBUG_VALUE: HAL_I2C_Slave_Transmit:tickstart <- $r6
	@DEBUG_VALUE: I2C_WaitOnFlagUntilTimeout:Timeout <- $r5
	@DEBUG_VALUE: HAL_I2C_Slave_Transmit:Timeout <- $r5
	@DEBUG_VALUE: I2C_WaitOnFlagUntilTimeout:hi2c <- $r4
	@DEBUG_VALUE: HAL_I2C_Slave_Transmit:hi2c <- $r4
	@DEBUG_VALUE: I2C_WaitOnFlagUntilTimeout:Flag <- 32768
	@DEBUG_VALUE: I2C_WaitOnFlagUntilTimeout:Status <- 1
	@DEBUG_VALUE: HAL_I2C_Slave_Transmit:pData <- [DW_OP_LLVM_entry_value 1] $r1
	.loc	7 6223 10 is_stmt 0             @ c:/Keil_v5\ARM\PACK\Keil\STM32L5xx_DFP\1.3.0\Drivers\STM32L5xx_HAL_Driver\Src\stm32l5xx_hal_i2c.c:6223:10
	ldr	r0, [r1, #24]
	.loc	7 6223 3                        @ c:/Keil_v5\ARM\PACK\Keil\STM32L5xx_DFP\1.3.0\Drivers\STM32L5xx_HAL_Driver\Src\stm32l5xx_hal_i2c.c:6223:3
	lsls	r0, r0, #16
	bpl	.LBB9_49
.Ltmp354:
@ %bb.53:                               @   in Loop: Header=BB9_52 Depth=1
	@DEBUG_VALUE: HAL_I2C_Slave_Transmit:tickstart <- $r6
	@DEBUG_VALUE: I2C_WaitOnFlagUntilTimeout:Timeout <- $r5
	@DEBUG_VALUE: HAL_I2C_Slave_Transmit:Timeout <- $r5
	@DEBUG_VALUE: I2C_WaitOnFlagUntilTimeout:hi2c <- $r4
	@DEBUG_VALUE: HAL_I2C_Slave_Transmit:hi2c <- $r4
	@DEBUG_VALUE: I2C_WaitOnFlagUntilTimeout:Flag <- 32768
	@DEBUG_VALUE: I2C_WaitOnFlagUntilTimeout:Status <- 1
	@DEBUG_VALUE: HAL_I2C_Slave_Transmit:pData <- [DW_OP_LLVM_entry_value 1] $r1
	.loc	7 6223 10                       @ c:/Keil_v5\ARM\PACK\Keil\STM32L5xx_DFP\1.3.0\Drivers\STM32L5xx_HAL_Driver\Src\stm32l5xx_hal_i2c.c:6223:10
	ldr	r0, [r1, #24]
	.loc	7 6223 3                        @ c:/Keil_v5\ARM\PACK\Keil\STM32L5xx_DFP\1.3.0\Drivers\STM32L5xx_HAL_Driver\Src\stm32l5xx_hal_i2c.c:6223:3
	lsls	r0, r0, #16
	.loc	7 6223 10                       @ c:/Keil_v5\ARM\PACK\Keil\STM32L5xx_DFP\1.3.0\Drivers\STM32L5xx_HAL_Driver\Src\stm32l5xx_hal_i2c.c:6223:10
	itt	mi
	ldrmi	r0, [r1, #24]
	.loc	7 6223 3                        @ c:/Keil_v5\ARM\PACK\Keil\STM32L5xx_DFP\1.3.0\Drivers\STM32L5xx_HAL_Driver\Src\stm32l5xx_hal_i2c.c:6223:3
	lslsmi.w	r0, r0, #16
	bpl	.LBB9_49
.Ltmp355:
@ %bb.54:                               @   in Loop: Header=BB9_52 Depth=1
	@DEBUG_VALUE: HAL_I2C_Slave_Transmit:tickstart <- $r6
	@DEBUG_VALUE: I2C_WaitOnFlagUntilTimeout:Timeout <- $r5
	@DEBUG_VALUE: HAL_I2C_Slave_Transmit:Timeout <- $r5
	@DEBUG_VALUE: I2C_WaitOnFlagUntilTimeout:hi2c <- $r4
	@DEBUG_VALUE: HAL_I2C_Slave_Transmit:hi2c <- $r4
	@DEBUG_VALUE: I2C_WaitOnFlagUntilTimeout:Flag <- 32768
	@DEBUG_VALUE: I2C_WaitOnFlagUntilTimeout:Status <- 1
	@DEBUG_VALUE: HAL_I2C_Slave_Transmit:pData <- [DW_OP_LLVM_entry_value 1] $r1
	.loc	7 6223 10                       @ c:/Keil_v5\ARM\PACK\Keil\STM32L5xx_DFP\1.3.0\Drivers\STM32L5xx_HAL_Driver\Src\stm32l5xx_hal_i2c.c:6223:10
	ldr	r0, [r1, #24]
	.loc	7 6223 3                        @ c:/Keil_v5\ARM\PACK\Keil\STM32L5xx_DFP\1.3.0\Drivers\STM32L5xx_HAL_Driver\Src\stm32l5xx_hal_i2c.c:6223:3
	lsls	r0, r0, #16
	bmi	.LBB9_52
	b	.LBB9_49
.Ltmp356:
	.p2align	2
.LBB9_55:                               @   in Loop: Header=BB9_56 Depth=1
	@DEBUG_VALUE: HAL_I2C_Slave_Transmit:tickstart <- $r6
	@DEBUG_VALUE: I2C_WaitOnFlagUntilTimeout:Timeout <- $r5
	@DEBUG_VALUE: HAL_I2C_Slave_Transmit:Timeout <- $r5
	@DEBUG_VALUE: I2C_WaitOnFlagUntilTimeout:hi2c <- $r4
	@DEBUG_VALUE: HAL_I2C_Slave_Transmit:hi2c <- $r4
	@DEBUG_VALUE: I2C_WaitOnFlagUntilTimeout:Flag <- 32768
	@DEBUG_VALUE: I2C_WaitOnFlagUntilTimeout:Status <- 1
	@DEBUG_VALUE: HAL_I2C_Slave_Transmit:pData <- [DW_OP_LLVM_entry_value 1] $r1
	.loc	7 6223 10                       @ c:/Keil_v5\ARM\PACK\Keil\STM32L5xx_DFP\1.3.0\Drivers\STM32L5xx_HAL_Driver\Src\stm32l5xx_hal_i2c.c:6223:10
	ldr	r1, [r4]
	ldr	r0, [r1, #24]
	.loc	7 6223 3                        @ c:/Keil_v5\ARM\PACK\Keil\STM32L5xx_DFP\1.3.0\Drivers\STM32L5xx_HAL_Driver\Src\stm32l5xx_hal_i2c.c:6223:3
	lsls	r0, r0, #16
	bpl	.LBB9_49
.Ltmp357:
.LBB9_56:                               @ =>This Inner Loop Header: Depth=1
	@DEBUG_VALUE: HAL_I2C_Slave_Transmit:tickstart <- $r6
	@DEBUG_VALUE: I2C_WaitOnFlagUntilTimeout:Timeout <- $r5
	@DEBUG_VALUE: HAL_I2C_Slave_Transmit:Timeout <- $r5
	@DEBUG_VALUE: I2C_WaitOnFlagUntilTimeout:hi2c <- $r4
	@DEBUG_VALUE: HAL_I2C_Slave_Transmit:hi2c <- $r4
	@DEBUG_VALUE: I2C_WaitOnFlagUntilTimeout:Flag <- 32768
	@DEBUG_VALUE: I2C_WaitOnFlagUntilTimeout:Status <- 1
	@DEBUG_VALUE: HAL_I2C_Slave_Transmit:pData <- [DW_OP_LLVM_entry_value 1] $r1
	.loc	7 6228 13 is_stmt 1             @ c:/Keil_v5\ARM\PACK\Keil\STM32L5xx_DFP\1.3.0\Drivers\STM32L5xx_HAL_Driver\Src\stm32l5xx_hal_i2c.c:6228:13
	bl	HAL_GetTick
	.loc	7 6228 27 is_stmt 0             @ c:/Keil_v5\ARM\PACK\Keil\STM32L5xx_DFP\1.3.0\Drivers\STM32L5xx_HAL_Driver\Src\stm32l5xx_hal_i2c.c:6228:27
	subs	r0, r0, r6
	.loc	7 6228 51                       @ c:/Keil_v5\ARM\PACK\Keil\STM32L5xx_DFP\1.3.0\Drivers\STM32L5xx_HAL_Driver\Src\stm32l5xx_hal_i2c.c:6228:51
	cmp	r0, r5
	bls	.LBB9_55
	b	.LBB9_58
.Ltmp358:
	.p2align	2
.LBB9_57:
	@DEBUG_VALUE: HAL_I2C_Slave_Transmit:tickstart <- $r6
	@DEBUG_VALUE: HAL_I2C_Slave_Transmit:Timeout <- $r5
	@DEBUG_VALUE: HAL_I2C_Slave_Transmit:hi2c <- $r4
	.loc	7 0 0                           @ c:/Keil_v5\ARM\PACK\Keil\STM32L5xx_DFP\1.3.0\Drivers\STM32L5xx_HAL_Driver\Src\stm32l5xx_hal_i2c.c:0:0
	bl	HAL_GetTick
.Ltmp359:
.LBB9_58:
	@DEBUG_VALUE: HAL_I2C_Slave_Transmit:tickstart <- $r6
	@DEBUG_VALUE: HAL_I2C_Slave_Transmit:Timeout <- $r5
	@DEBUG_VALUE: HAL_I2C_Slave_Transmit:hi2c <- $r4
	ldr	r0, [r4]
	ldr	r1, [r4, #68]
	orr	r1, r1, #32
	str	r1, [r4, #68]
	movs	r1, #32
	strb.w	r1, [r4, #65]
	movs	r1, #0
	strb.w	r1, [r4, #66]
	strb.w	r1, [r4, #64]
.Ltmp360:
.LBB9_59:
	@DEBUG_VALUE: HAL_I2C_Slave_Transmit:tickstart <- $r6
	@DEBUG_VALUE: HAL_I2C_Slave_Transmit:Timeout <- $r5
	@DEBUG_VALUE: HAL_I2C_Slave_Transmit:hi2c <- $r4
	ldr	r1, [r0, #4]
	orr	r1, r1, #32768
	str	r1, [r0, #4]
	movs	r0, #1
.Ltmp361:
	.loc	7 1423 1 is_stmt 1              @ c:/Keil_v5\ARM\PACK\Keil\STM32L5xx_DFP\1.3.0\Drivers\STM32L5xx_HAL_Driver\Src\stm32l5xx_hal_i2c.c:1423:1
	add	sp, #4
	pop	{r4, r5, r6, r7, pc}
.Ltmp362:
	.p2align	2
.LBB9_60:
	@DEBUG_VALUE: HAL_I2C_Slave_Transmit:pData <- $r7
	@DEBUG_VALUE: I2C_IsAcknowledgeFailed:Tickstart <- $r6
	@DEBUG_VALUE: I2C_WaitOnSTOPFlagUntilTimeout:Tickstart <- $r6
	@DEBUG_VALUE: HAL_I2C_Slave_Transmit:tickstart <- $r6
	@DEBUG_VALUE: I2C_WaitOnSTOPFlagUntilTimeout:Timeout <- $r5
	@DEBUG_VALUE: HAL_I2C_Slave_Transmit:Timeout <- $r5
	@DEBUG_VALUE: I2C_IsAcknowledgeFailed:hi2c <- $r4
	@DEBUG_VALUE: I2C_WaitOnSTOPFlagUntilTimeout:hi2c <- $r4
	@DEBUG_VALUE: HAL_I2C_Slave_Transmit:hi2c <- $r4
	@DEBUG_VALUE: I2C_IsAcknowledgeFailed:Timeout <- 0
	.loc	7 0 1 is_stmt 0                 @ c:/Keil_v5\ARM\PACK\Keil\STM32L5xx_DFP\1.3.0\Drivers\STM32L5xx_HAL_Driver\Src\stm32l5xx_hal_i2c.c:0:1
	movs	r0, #16
.Ltmp363:
	.loc	7 6411 5 is_stmt 1              @ c:/Keil_v5\ARM\PACK\Keil\STM32L5xx_DFP\1.3.0\Drivers\STM32L5xx_HAL_Driver\Src\stm32l5xx_hal_i2c.c:6411:5
	str	r0, [r1, #28]
	movs	r0, #32
	.loc	7 6414 5                        @ c:/Keil_v5\ARM\PACK\Keil\STM32L5xx_DFP\1.3.0\Drivers\STM32L5xx_HAL_Driver\Src\stm32l5xx_hal_i2c.c:6414:5
	str	r0, [r1, #28]
.Ltmp364:
	@DEBUG_VALUE: I2C_Flush_TXDR:hi2c <- undef
	.loc	7 6009 7                        @ c:/Keil_v5\ARM\PACK\Keil\STM32L5xx_DFP\1.3.0\Drivers\STM32L5xx_HAL_Driver\Src\stm32l5xx_hal_i2c.c:6009:7
	ldr	r0, [r1, #24]
.Ltmp365:
	.loc	7 6009 7 is_stmt 0              @ c:/Keil_v5\ARM\PACK\Keil\STM32L5xx_DFP\1.3.0\Drivers\STM32L5xx_HAL_Driver\Src\stm32l5xx_hal_i2c.c:6009:7
	lsls	r0, r0, #30
	itt	mi
	movmi	r0, #0
.Ltmp366:
	.loc	7 6011 26 is_stmt 1             @ c:/Keil_v5\ARM\PACK\Keil\STM32L5xx_DFP\1.3.0\Drivers\STM32L5xx_HAL_Driver\Src\stm32l5xx_hal_i2c.c:6011:26
	strmi	r0, [r1, #40]
.Ltmp367:
	.loc	7 6015 7                        @ c:/Keil_v5\ARM\PACK\Keil\STM32L5xx_DFP\1.3.0\Drivers\STM32L5xx_HAL_Driver\Src\stm32l5xx_hal_i2c.c:6015:7
	ldr	r0, [r1, #24]
.Ltmp368:
	.loc	7 6015 7 is_stmt 0              @ c:/Keil_v5\ARM\PACK\Keil\STM32L5xx_DFP\1.3.0\Drivers\STM32L5xx_HAL_Driver\Src\stm32l5xx_hal_i2c.c:6015:7
	lsls	r0, r0, #31
	bne	.LBB9_62
.Ltmp369:
@ %bb.61:
	@DEBUG_VALUE: HAL_I2C_Slave_Transmit:pData <- $r7
	@DEBUG_VALUE: I2C_IsAcknowledgeFailed:Tickstart <- $r6
	@DEBUG_VALUE: I2C_WaitOnSTOPFlagUntilTimeout:Tickstart <- $r6
	@DEBUG_VALUE: HAL_I2C_Slave_Transmit:tickstart <- $r6
	@DEBUG_VALUE: I2C_WaitOnSTOPFlagUntilTimeout:Timeout <- $r5
	@DEBUG_VALUE: HAL_I2C_Slave_Transmit:Timeout <- $r5
	@DEBUG_VALUE: I2C_IsAcknowledgeFailed:hi2c <- $r4
	@DEBUG_VALUE: I2C_WaitOnSTOPFlagUntilTimeout:hi2c <- $r4
	@DEBUG_VALUE: HAL_I2C_Slave_Transmit:hi2c <- $r4
	@DEBUG_VALUE: I2C_IsAcknowledgeFailed:Timeout <- 0
	.loc	7 6017 5 is_stmt 1              @ c:/Keil_v5\ARM\PACK\Keil\STM32L5xx_DFP\1.3.0\Drivers\STM32L5xx_HAL_Driver\Src\stm32l5xx_hal_i2c.c:6017:5
	ldr	r0, [r1, #24]
	orr	r0, r0, #1
	str	r0, [r1, #24]
.Ltmp370:
.LBB9_62:
	@DEBUG_VALUE: HAL_I2C_Slave_Transmit:pData <- $r7
	@DEBUG_VALUE: I2C_IsAcknowledgeFailed:Tickstart <- $r6
	@DEBUG_VALUE: I2C_WaitOnSTOPFlagUntilTimeout:Tickstart <- $r6
	@DEBUG_VALUE: HAL_I2C_Slave_Transmit:tickstart <- $r6
	@DEBUG_VALUE: I2C_WaitOnSTOPFlagUntilTimeout:Timeout <- $r5
	@DEBUG_VALUE: HAL_I2C_Slave_Transmit:Timeout <- $r5
	@DEBUG_VALUE: I2C_IsAcknowledgeFailed:hi2c <- $r4
	@DEBUG_VALUE: I2C_WaitOnSTOPFlagUntilTimeout:hi2c <- $r4
	@DEBUG_VALUE: HAL_I2C_Slave_Transmit:hi2c <- $r4
	@DEBUG_VALUE: I2C_IsAcknowledgeFailed:Timeout <- 0
	.loc	7 6420 5                        @ c:/Keil_v5\ARM\PACK\Keil\STM32L5xx_DFP\1.3.0\Drivers\STM32L5xx_HAL_Driver\Src\stm32l5xx_hal_i2c.c:6420:5
	ldr	r0, [r1, #4]
	movw	r2, #59392
	movt	r2, #65024
	ands	r0, r2
	str	r0, [r1, #4]
	movs	r0, #4
	b	.LBB9_45
.Ltmp371:
.Lfunc_end9:
	.size	HAL_I2C_Slave_Transmit, .Lfunc_end9-HAL_I2C_Slave_Transmit
	.cfi_endproc
	.cantunwind
	.fnend
                                        @ -- End function
	.section	.text.HAL_I2C_Slave_Receive,"ax",%progbits
	.hidden	HAL_I2C_Slave_Receive           @ -- Begin function HAL_I2C_Slave_Receive
	.globl	HAL_I2C_Slave_Receive
	.p2align	2
	.type	HAL_I2C_Slave_Receive,%function
	.code	16                              @ @HAL_I2C_Slave_Receive
	.thumb_func
HAL_I2C_Slave_Receive:
.Lfunc_begin10:
	.loc	7 1435 0                        @ c:/Keil_v5\ARM\PACK\Keil\STM32L5xx_DFP\1.3.0\Drivers\STM32L5xx_HAL_Driver\Src\stm32l5xx_hal_i2c.c:1435:0
	.fnstart
	.cfi_startproc
@ %bb.0:
	@DEBUG_VALUE: HAL_I2C_Slave_Receive:hi2c <- $r0
	@DEBUG_VALUE: HAL_I2C_Slave_Receive:pData <- $r1
	@DEBUG_VALUE: HAL_I2C_Slave_Receive:Size <- $r2
	@DEBUG_VALUE: HAL_I2C_Slave_Receive:Timeout <- $r3
	.save	{r4, r5, r6, r7, lr}
	push	{r4, r5, r6, r7, lr}
	.cfi_def_cfa_offset 20
	.cfi_offset lr, -4
	.cfi_offset r7, -8
	.cfi_offset r6, -12
	.cfi_offset r5, -16
	.cfi_offset r4, -20
	.pad	#4
	sub	sp, #4
	.cfi_def_cfa_offset 24
	mov	r4, r0
	@DEBUG_VALUE: HAL_I2C_Slave_Receive:Timeout <- $r3
.Ltmp372:
	@DEBUG_VALUE: HAL_I2C_Slave_Receive:Size <- undef
	@DEBUG_VALUE: HAL_I2C_Slave_Receive:hi2c <- $r4
	.loc	7 1438 13 prologue_end          @ c:/Keil_v5\ARM\PACK\Keil\STM32L5xx_DFP\1.3.0\Drivers\STM32L5xx_HAL_Driver\Src\stm32l5xx_hal_i2c.c:1438:13
	ldrb.w	r0, [r0, #65]
.Ltmp373:
	@DEBUG_VALUE: HAL_I2C_Slave_Receive:Size <- $r2
	.loc	7 1438 7 is_stmt 0              @ c:/Keil_v5\ARM\PACK\Keil\STM32L5xx_DFP\1.3.0\Drivers\STM32L5xx_HAL_Driver\Src\stm32l5xx_hal_i2c.c:1438:7
	cmp	r0, #32
	@DEBUG_VALUE: HAL_I2C_Slave_Receive:pData <- $r1
	bne	.LBB10_5
.Ltmp374:
@ %bb.1:
	@DEBUG_VALUE: HAL_I2C_Slave_Receive:hi2c <- $r4
	@DEBUG_VALUE: HAL_I2C_Slave_Receive:Timeout <- $r3
	@DEBUG_VALUE: HAL_I2C_Slave_Receive:Size <- $r2
	@DEBUG_VALUE: HAL_I2C_Slave_Receive:pData <- $r1
	@DEBUG_VALUE: HAL_I2C_Slave_Receive:Timeout <- $r3
	@DEBUG_VALUE: HAL_I2C_Slave_Receive:Size <- $r2
	.loc	7 0 7                           @ c:/Keil_v5\ARM\PACK\Keil\STM32L5xx_DFP\1.3.0\Drivers\STM32L5xx_HAL_Driver\Src\stm32l5xx_hal_i2c.c:0:7
	mov	r7, r1
.Ltmp375:
	@DEBUG_VALUE: HAL_I2C_Slave_Receive:pData <- $r7
	@DEBUG_VALUE: HAL_I2C_Slave_Receive:Size <- $r2
	.loc	7 1440 25 is_stmt 1             @ c:/Keil_v5\ARM\PACK\Keil\STM32L5xx_DFP\1.3.0\Drivers\STM32L5xx_HAL_Driver\Src\stm32l5xx_hal_i2c.c:1440:25
	cmp	r1, #0
	@DEBUG_VALUE: HAL_I2C_Slave_Receive:Timeout <- $r3
	itt	ne
	movne	r6, r2
.Ltmp376:
	@DEBUG_VALUE: HAL_I2C_Slave_Receive:Size <- $r6
	@DEBUG_VALUE: HAL_I2C_Slave_Receive:Size <- $r6
	@DEBUG_VALUE: HAL_I2C_Slave_Receive:Size <- $r6
	cmpne	r2, #0
	bne	.LBB10_4
.Ltmp377:
@ %bb.2:
	@DEBUG_VALUE: HAL_I2C_Slave_Receive:pData <- $r7
	@DEBUG_VALUE: HAL_I2C_Slave_Receive:Size <- $r6
	@DEBUG_VALUE: HAL_I2C_Slave_Receive:hi2c <- $r4
	@DEBUG_VALUE: HAL_I2C_Slave_Receive:Timeout <- $r3
	.loc	7 0 25 is_stmt 0                @ c:/Keil_v5\ARM\PACK\Keil\STM32L5xx_DFP\1.3.0\Drivers\STM32L5xx_HAL_Driver\Src\stm32l5xx_hal_i2c.c:0:25
	mov.w	r0, #512
.Ltmp378:
	.loc	7 1442 23 is_stmt 1             @ c:/Keil_v5\ARM\PACK\Keil\STM32L5xx_DFP\1.3.0\Drivers\STM32L5xx_HAL_Driver\Src\stm32l5xx_hal_i2c.c:1442:23
	str	r0, [r4, #68]
.Ltmp379:
.LBB10_3:
	@DEBUG_VALUE: HAL_I2C_Slave_Receive:pData <- $r7
	@DEBUG_VALUE: HAL_I2C_Slave_Receive:hi2c <- $r4
	.loc	7 0 23 is_stmt 0                @ c:/Keil_v5\ARM\PACK\Keil\STM32L5xx_DFP\1.3.0\Drivers\STM32L5xx_HAL_Driver\Src\stm32l5xx_hal_i2c.c:0:23
	movs	r0, #1
	.loc	7 1548 1 is_stmt 1              @ c:/Keil_v5\ARM\PACK\Keil\STM32L5xx_DFP\1.3.0\Drivers\STM32L5xx_HAL_Driver\Src\stm32l5xx_hal_i2c.c:1548:1
	add	sp, #4
	pop	{r4, r5, r6, r7, pc}
.Ltmp380:
	.p2align	2
.LBB10_4:
	@DEBUG_VALUE: HAL_I2C_Slave_Receive:pData <- $r7
	@DEBUG_VALUE: HAL_I2C_Slave_Receive:Size <- $r6
	@DEBUG_VALUE: HAL_I2C_Slave_Receive:hi2c <- $r4
	@DEBUG_VALUE: HAL_I2C_Slave_Receive:Timeout <- $r3
	@DEBUG_VALUE: HAL_I2C_Slave_Receive:Timeout <- $r3
	@DEBUG_VALUE: HAL_I2C_Slave_Receive:Size <- $r6
	.loc	7 1446 5                        @ c:/Keil_v5\ARM\PACK\Keil\STM32L5xx_DFP\1.3.0\Drivers\STM32L5xx_HAL_Driver\Src\stm32l5xx_hal_i2c.c:1446:5
	ldrb.w	r0, [r4, #64]
.Ltmp381:
	.loc	7 1446 5 is_stmt 0              @ c:/Keil_v5\ARM\PACK\Keil\STM32L5xx_DFP\1.3.0\Drivers\STM32L5xx_HAL_Driver\Src\stm32l5xx_hal_i2c.c:1446:5
	cmp	r0, #1
	bne	.LBB10_6
.Ltmp382:
.LBB10_5:
	@DEBUG_VALUE: HAL_I2C_Slave_Receive:hi2c <- $r4
	@DEBUG_VALUE: HAL_I2C_Slave_Receive:Timeout <- $r3
	.loc	7 0 5                           @ c:/Keil_v5\ARM\PACK\Keil\STM32L5xx_DFP\1.3.0\Drivers\STM32L5xx_HAL_Driver\Src\stm32l5xx_hal_i2c.c:0:5
	movs	r0, #2
	.loc	7 1548 1 is_stmt 1              @ c:/Keil_v5\ARM\PACK\Keil\STM32L5xx_DFP\1.3.0\Drivers\STM32L5xx_HAL_Driver\Src\stm32l5xx_hal_i2c.c:1548:1
	add	sp, #4
	pop	{r4, r5, r6, r7, pc}
.Ltmp383:
	.p2align	2
.LBB10_6:
	@DEBUG_VALUE: HAL_I2C_Slave_Receive:pData <- $r7
	@DEBUG_VALUE: HAL_I2C_Slave_Receive:Size <- $r6
	@DEBUG_VALUE: HAL_I2C_Slave_Receive:hi2c <- $r4
	@DEBUG_VALUE: HAL_I2C_Slave_Receive:Timeout <- $r3
	.loc	7 0 1 is_stmt 0                 @ c:/Keil_v5\ARM\PACK\Keil\STM32L5xx_DFP\1.3.0\Drivers\STM32L5xx_HAL_Driver\Src\stm32l5xx_hal_i2c.c:0:1
	movs	r0, #1
	mov	r5, r3
.Ltmp384:
	@DEBUG_VALUE: HAL_I2C_Slave_Receive:Timeout <- $r5
	@DEBUG_VALUE: HAL_I2C_Slave_Receive:Timeout <- $r5
	@DEBUG_VALUE: HAL_I2C_Slave_Receive:Size <- $r6
	.loc	7 1446 5 is_stmt 1              @ c:/Keil_v5\ARM\PACK\Keil\STM32L5xx_DFP\1.3.0\Drivers\STM32L5xx_HAL_Driver\Src\stm32l5xx_hal_i2c.c:1446:5
	strb.w	r0, [r4, #64]
.Ltmp385:
	.loc	7 1449 17                       @ c:/Keil_v5\ARM\PACK\Keil\STM32L5xx_DFP\1.3.0\Drivers\STM32L5xx_HAL_Driver\Src\stm32l5xx_hal_i2c.c:1449:17
	bl	HAL_GetTick
	movs	r1, #34
	.loc	7 1451 21                       @ c:/Keil_v5\ARM\PACK\Keil\STM32L5xx_DFP\1.3.0\Drivers\STM32L5xx_HAL_Driver\Src\stm32l5xx_hal_i2c.c:1451:21
	strb.w	r1, [r4, #65]
	movs	r1, #32
	movs	r2, #0
	.loc	7 1452 21                       @ c:/Keil_v5\ARM\PACK\Keil\STM32L5xx_DFP\1.3.0\Drivers\STM32L5xx_HAL_Driver\Src\stm32l5xx_hal_i2c.c:1452:21
	strb.w	r1, [r4, #66]
	.loc	7 1453 21                       @ c:/Keil_v5\ARM\PACK\Keil\STM32L5xx_DFP\1.3.0\Drivers\STM32L5xx_HAL_Driver\Src\stm32l5xx_hal_i2c.c:1453:21
	str	r2, [r4, #68]
	.loc	7 1456 21                       @ c:/Keil_v5\ARM\PACK\Keil\STM32L5xx_DFP\1.3.0\Drivers\STM32L5xx_HAL_Driver\Src\stm32l5xx_hal_i2c.c:1456:21
	str	r7, [r4, #36]
	.loc	7 1457 21                       @ c:/Keil_v5\ARM\PACK\Keil\STM32L5xx_DFP\1.3.0\Drivers\STM32L5xx_HAL_Driver\Src\stm32l5xx_hal_i2c.c:1457:21
	strh	r6, [r4, #42]
	.loc	7 1461 11                       @ c:/Keil_v5\ARM\PACK\Keil\STM32L5xx_DFP\1.3.0\Drivers\STM32L5xx_HAL_Driver\Src\stm32l5xx_hal_i2c.c:1461:11
	ldr	r1, [r4]
	.loc	7 1458 21                       @ c:/Keil_v5\ARM\PACK\Keil\STM32L5xx_DFP\1.3.0\Drivers\STM32L5xx_HAL_Driver\Src\stm32l5xx_hal_i2c.c:1458:21
	str	r2, [r4, #52]
	.loc	7 1461 25                       @ c:/Keil_v5\ARM\PACK\Keil\STM32L5xx_DFP\1.3.0\Drivers\STM32L5xx_HAL_Driver\Src\stm32l5xx_hal_i2c.c:1461:25
	ldr	r2, [r1, #4]
	.loc	7 1449 17                       @ c:/Keil_v5\ARM\PACK\Keil\STM32L5xx_DFP\1.3.0\Drivers\STM32L5xx_HAL_Driver\Src\stm32l5xx_hal_i2c.c:1449:17
	mov	r6, r0
.Ltmp386:
	@DEBUG_VALUE: I2C_WaitOnFlagUntilTimeout:Tickstart <- $r6
	@DEBUG_VALUE: HAL_I2C_Slave_Receive:tickstart <- $r6
	@DEBUG_VALUE: I2C_WaitOnFlagUntilTimeout:hi2c <- $r4
	@DEBUG_VALUE: I2C_WaitOnFlagUntilTimeout:Flag <- 8
	@DEBUG_VALUE: I2C_WaitOnFlagUntilTimeout:Status <- 0
	@DEBUG_VALUE: I2C_WaitOnFlagUntilTimeout:Timeout <- $r5
	.loc	7 1461 25                       @ c:/Keil_v5\ARM\PACK\Keil\STM32L5xx_DFP\1.3.0\Drivers\STM32L5xx_HAL_Driver\Src\stm32l5xx_hal_i2c.c:1461:25
	bic	r2, r2, #32768
	str	r2, [r1, #4]
	@DEBUG_VALUE: I2C_WaitOnFlagUntilTimeout:Timeout <- $r5
	@DEBUG_VALUE: I2C_WaitOnFlagUntilTimeout:Status <- 0
	@DEBUG_VALUE: I2C_WaitOnFlagUntilTimeout:Flag <- 8
	@DEBUG_VALUE: I2C_WaitOnFlagUntilTimeout:hi2c <- $r4
.Ltmp387:
	.loc	7 6223 10                       @ c:/Keil_v5\ARM\PACK\Keil\STM32L5xx_DFP\1.3.0\Drivers\STM32L5xx_HAL_Driver\Src\stm32l5xx_hal_i2c.c:6223:10
	ldr	r2, [r1, #24]
	.loc	7 6223 3 is_stmt 0              @ c:/Keil_v5\ARM\PACK\Keil\STM32L5xx_DFP\1.3.0\Drivers\STM32L5xx_HAL_Driver\Src\stm32l5xx_hal_i2c.c:6223:3
	lsls	r2, r2, #28
	bmi	.LBB10_12
.Ltmp388:
@ %bb.7:
	@DEBUG_VALUE: HAL_I2C_Slave_Receive:pData <- $r7
	@DEBUG_VALUE: HAL_I2C_Slave_Receive:tickstart <- $r6
	@DEBUG_VALUE: I2C_WaitOnFlagUntilTimeout:Tickstart <- $r6
	@DEBUG_VALUE: I2C_WaitOnFlagUntilTimeout:Timeout <- $r5
	@DEBUG_VALUE: HAL_I2C_Slave_Receive:Timeout <- $r5
	@DEBUG_VALUE: I2C_WaitOnFlagUntilTimeout:hi2c <- $r4
	@DEBUG_VALUE: HAL_I2C_Slave_Receive:hi2c <- $r4
	@DEBUG_VALUE: I2C_WaitOnFlagUntilTimeout:Status <- 0
	@DEBUG_VALUE: I2C_WaitOnFlagUntilTimeout:Flag <- 8
	cmp	r5, #0
	beq.w	.LBB10_46
.Ltmp389:
@ %bb.8:
	@DEBUG_VALUE: HAL_I2C_Slave_Receive:pData <- $r7
	@DEBUG_VALUE: HAL_I2C_Slave_Receive:tickstart <- $r6
	@DEBUG_VALUE: I2C_WaitOnFlagUntilTimeout:Tickstart <- $r6
	@DEBUG_VALUE: I2C_WaitOnFlagUntilTimeout:Timeout <- $r5
	@DEBUG_VALUE: HAL_I2C_Slave_Receive:Timeout <- $r5
	@DEBUG_VALUE: I2C_WaitOnFlagUntilTimeout:hi2c <- $r4
	@DEBUG_VALUE: HAL_I2C_Slave_Receive:hi2c <- $r4
	@DEBUG_VALUE: I2C_WaitOnFlagUntilTimeout:Status <- 0
	@DEBUG_VALUE: I2C_WaitOnFlagUntilTimeout:Flag <- 8
	adds	r0, r5, #1
	bne	.LBB10_19
.Ltmp390:
.LBB10_9:                               @ =>This Inner Loop Header: Depth=1
	@DEBUG_VALUE: HAL_I2C_Slave_Receive:pData <- $r7
	@DEBUG_VALUE: HAL_I2C_Slave_Receive:tickstart <- $r6
	@DEBUG_VALUE: I2C_WaitOnFlagUntilTimeout:Tickstart <- $r6
	@DEBUG_VALUE: I2C_WaitOnFlagUntilTimeout:Timeout <- $r5
	@DEBUG_VALUE: HAL_I2C_Slave_Receive:Timeout <- $r5
	@DEBUG_VALUE: I2C_WaitOnFlagUntilTimeout:hi2c <- $r4
	@DEBUG_VALUE: HAL_I2C_Slave_Receive:hi2c <- $r4
	@DEBUG_VALUE: I2C_WaitOnFlagUntilTimeout:Status <- 0
	@DEBUG_VALUE: I2C_WaitOnFlagUntilTimeout:Flag <- 8
	.loc	7 6223 10                       @ c:/Keil_v5\ARM\PACK\Keil\STM32L5xx_DFP\1.3.0\Drivers\STM32L5xx_HAL_Driver\Src\stm32l5xx_hal_i2c.c:6223:10
	ldr	r0, [r1, #24]
	.loc	7 6223 3                        @ c:/Keil_v5\ARM\PACK\Keil\STM32L5xx_DFP\1.3.0\Drivers\STM32L5xx_HAL_Driver\Src\stm32l5xx_hal_i2c.c:6223:3
	lsls	r0, r0, #28
	bmi	.LBB10_12
.Ltmp391:
@ %bb.10:                               @   in Loop: Header=BB10_9 Depth=1
	@DEBUG_VALUE: HAL_I2C_Slave_Receive:pData <- $r7
	@DEBUG_VALUE: HAL_I2C_Slave_Receive:tickstart <- $r6
	@DEBUG_VALUE: I2C_WaitOnFlagUntilTimeout:Tickstart <- $r6
	@DEBUG_VALUE: I2C_WaitOnFlagUntilTimeout:Timeout <- $r5
	@DEBUG_VALUE: HAL_I2C_Slave_Receive:Timeout <- $r5
	@DEBUG_VALUE: I2C_WaitOnFlagUntilTimeout:hi2c <- $r4
	@DEBUG_VALUE: HAL_I2C_Slave_Receive:hi2c <- $r4
	@DEBUG_VALUE: I2C_WaitOnFlagUntilTimeout:Status <- 0
	@DEBUG_VALUE: I2C_WaitOnFlagUntilTimeout:Flag <- 8
	.loc	7 6223 10                       @ c:/Keil_v5\ARM\PACK\Keil\STM32L5xx_DFP\1.3.0\Drivers\STM32L5xx_HAL_Driver\Src\stm32l5xx_hal_i2c.c:6223:10
	ldr	r0, [r1, #24]
	.loc	7 6223 3                        @ c:/Keil_v5\ARM\PACK\Keil\STM32L5xx_DFP\1.3.0\Drivers\STM32L5xx_HAL_Driver\Src\stm32l5xx_hal_i2c.c:6223:3
	lsls	r0, r0, #28
	.loc	7 6223 10                       @ c:/Keil_v5\ARM\PACK\Keil\STM32L5xx_DFP\1.3.0\Drivers\STM32L5xx_HAL_Driver\Src\stm32l5xx_hal_i2c.c:6223:10
	itt	pl
	ldrpl	r0, [r1, #24]
	.loc	7 6223 3                        @ c:/Keil_v5\ARM\PACK\Keil\STM32L5xx_DFP\1.3.0\Drivers\STM32L5xx_HAL_Driver\Src\stm32l5xx_hal_i2c.c:6223:3
	lslspl.w	r0, r0, #28
	bmi	.LBB10_12
.Ltmp392:
@ %bb.11:                               @   in Loop: Header=BB10_9 Depth=1
	@DEBUG_VALUE: HAL_I2C_Slave_Receive:pData <- $r7
	@DEBUG_VALUE: HAL_I2C_Slave_Receive:tickstart <- $r6
	@DEBUG_VALUE: I2C_WaitOnFlagUntilTimeout:Tickstart <- $r6
	@DEBUG_VALUE: I2C_WaitOnFlagUntilTimeout:Timeout <- $r5
	@DEBUG_VALUE: HAL_I2C_Slave_Receive:Timeout <- $r5
	@DEBUG_VALUE: I2C_WaitOnFlagUntilTimeout:hi2c <- $r4
	@DEBUG_VALUE: HAL_I2C_Slave_Receive:hi2c <- $r4
	@DEBUG_VALUE: I2C_WaitOnFlagUntilTimeout:Status <- 0
	@DEBUG_VALUE: I2C_WaitOnFlagUntilTimeout:Flag <- 8
	.loc	7 6223 10                       @ c:/Keil_v5\ARM\PACK\Keil\STM32L5xx_DFP\1.3.0\Drivers\STM32L5xx_HAL_Driver\Src\stm32l5xx_hal_i2c.c:6223:10
	ldr	r0, [r1, #24]
	.loc	7 6223 3                        @ c:/Keil_v5\ARM\PACK\Keil\STM32L5xx_DFP\1.3.0\Drivers\STM32L5xx_HAL_Driver\Src\stm32l5xx_hal_i2c.c:6223:3
	lsls	r0, r0, #28
	bpl	.LBB10_9
.Ltmp393:
.LBB10_12:
	@DEBUG_VALUE: HAL_I2C_Slave_Receive:pData <- $r7
	@DEBUG_VALUE: HAL_I2C_Slave_Receive:tickstart <- $r6
	@DEBUG_VALUE: HAL_I2C_Slave_Receive:Timeout <- $r5
	@DEBUG_VALUE: HAL_I2C_Slave_Receive:hi2c <- $r4
	.loc	7 0 3                           @ c:/Keil_v5\ARM\PACK\Keil\STM32L5xx_DFP\1.3.0\Drivers\STM32L5xx_HAL_Driver\Src\stm32l5xx_hal_i2c.c:0:3
	movs	r0, #8
	.loc	7 1472 5 is_stmt 1              @ c:/Keil_v5\ARM\PACK\Keil\STM32L5xx_DFP\1.3.0\Drivers\STM32L5xx_HAL_Driver\Src\stm32l5xx_hal_i2c.c:1472:5
	str	r0, [r1, #28]
.Ltmp394:
	@DEBUG_VALUE: I2C_WaitOnFlagUntilTimeout:Tickstart <- $r6
	@DEBUG_VALUE: I2C_WaitOnFlagUntilTimeout:Timeout <- $r5
	@DEBUG_VALUE: I2C_WaitOnFlagUntilTimeout:Status <- 1
	@DEBUG_VALUE: I2C_WaitOnFlagUntilTimeout:Flag <- 65536
	@DEBUG_VALUE: I2C_WaitOnFlagUntilTimeout:hi2c <- $r4
	.loc	7 6223 10                       @ c:/Keil_v5\ARM\PACK\Keil\STM32L5xx_DFP\1.3.0\Drivers\STM32L5xx_HAL_Driver\Src\stm32l5xx_hal_i2c.c:6223:10
	ldr	r0, [r1, #24]
	.loc	7 6223 3 is_stmt 0              @ c:/Keil_v5\ARM\PACK\Keil\STM32L5xx_DFP\1.3.0\Drivers\STM32L5xx_HAL_Driver\Src\stm32l5xx_hal_i2c.c:6223:3
	lsls	r0, r0, #15
	bpl	.LBB10_24
.Ltmp395:
@ %bb.13:
	@DEBUG_VALUE: HAL_I2C_Slave_Receive:pData <- $r7
	@DEBUG_VALUE: I2C_WaitOnFlagUntilTimeout:Tickstart <- $r6
	@DEBUG_VALUE: HAL_I2C_Slave_Receive:tickstart <- $r6
	@DEBUG_VALUE: I2C_WaitOnFlagUntilTimeout:Timeout <- $r5
	@DEBUG_VALUE: HAL_I2C_Slave_Receive:Timeout <- $r5
	@DEBUG_VALUE: I2C_WaitOnFlagUntilTimeout:hi2c <- $r4
	@DEBUG_VALUE: HAL_I2C_Slave_Receive:hi2c <- $r4
	@DEBUG_VALUE: I2C_WaitOnFlagUntilTimeout:Flag <- 65536
	@DEBUG_VALUE: I2C_WaitOnFlagUntilTimeout:Status <- 1
	cmp	r5, #0
	beq.w	.LBB10_46
.Ltmp396:
@ %bb.14:
	@DEBUG_VALUE: HAL_I2C_Slave_Receive:pData <- $r7
	@DEBUG_VALUE: I2C_WaitOnFlagUntilTimeout:Tickstart <- $r6
	@DEBUG_VALUE: HAL_I2C_Slave_Receive:tickstart <- $r6
	@DEBUG_VALUE: I2C_WaitOnFlagUntilTimeout:Timeout <- $r5
	@DEBUG_VALUE: HAL_I2C_Slave_Receive:Timeout <- $r5
	@DEBUG_VALUE: I2C_WaitOnFlagUntilTimeout:hi2c <- $r4
	@DEBUG_VALUE: HAL_I2C_Slave_Receive:hi2c <- $r4
	@DEBUG_VALUE: I2C_WaitOnFlagUntilTimeout:Flag <- 65536
	@DEBUG_VALUE: I2C_WaitOnFlagUntilTimeout:Status <- 1
	adds	r0, r5, #1
	bne	.LBB10_20
.Ltmp397:
.LBB10_15:                              @ =>This Inner Loop Header: Depth=1
	@DEBUG_VALUE: HAL_I2C_Slave_Receive:pData <- $r7
	@DEBUG_VALUE: I2C_WaitOnFlagUntilTimeout:Tickstart <- $r6
	@DEBUG_VALUE: HAL_I2C_Slave_Receive:tickstart <- $r6
	@DEBUG_VALUE: I2C_WaitOnFlagUntilTimeout:Timeout <- $r5
	@DEBUG_VALUE: HAL_I2C_Slave_Receive:Timeout <- $r5
	@DEBUG_VALUE: I2C_WaitOnFlagUntilTimeout:hi2c <- $r4
	@DEBUG_VALUE: HAL_I2C_Slave_Receive:hi2c <- $r4
	@DEBUG_VALUE: I2C_WaitOnFlagUntilTimeout:Flag <- 65536
	@DEBUG_VALUE: I2C_WaitOnFlagUntilTimeout:Status <- 1
	.loc	7 6223 10                       @ c:/Keil_v5\ARM\PACK\Keil\STM32L5xx_DFP\1.3.0\Drivers\STM32L5xx_HAL_Driver\Src\stm32l5xx_hal_i2c.c:6223:10
	ldr	r0, [r1, #24]
	.loc	7 6223 3                        @ c:/Keil_v5\ARM\PACK\Keil\STM32L5xx_DFP\1.3.0\Drivers\STM32L5xx_HAL_Driver\Src\stm32l5xx_hal_i2c.c:6223:3
	lsls	r0, r0, #15
	bpl	.LBB10_24
.Ltmp398:
@ %bb.16:                               @   in Loop: Header=BB10_15 Depth=1
	@DEBUG_VALUE: HAL_I2C_Slave_Receive:pData <- $r7
	@DEBUG_VALUE: I2C_WaitOnFlagUntilTimeout:Tickstart <- $r6
	@DEBUG_VALUE: HAL_I2C_Slave_Receive:tickstart <- $r6
	@DEBUG_VALUE: I2C_WaitOnFlagUntilTimeout:Timeout <- $r5
	@DEBUG_VALUE: HAL_I2C_Slave_Receive:Timeout <- $r5
	@DEBUG_VALUE: I2C_WaitOnFlagUntilTimeout:hi2c <- $r4
	@DEBUG_VALUE: HAL_I2C_Slave_Receive:hi2c <- $r4
	@DEBUG_VALUE: I2C_WaitOnFlagUntilTimeout:Flag <- 65536
	@DEBUG_VALUE: I2C_WaitOnFlagUntilTimeout:Status <- 1
	.loc	7 6223 10                       @ c:/Keil_v5\ARM\PACK\Keil\STM32L5xx_DFP\1.3.0\Drivers\STM32L5xx_HAL_Driver\Src\stm32l5xx_hal_i2c.c:6223:10
	ldr	r0, [r1, #24]
	.loc	7 6223 3                        @ c:/Keil_v5\ARM\PACK\Keil\STM32L5xx_DFP\1.3.0\Drivers\STM32L5xx_HAL_Driver\Src\stm32l5xx_hal_i2c.c:6223:3
	lsls	r0, r0, #15
	.loc	7 6223 10                       @ c:/Keil_v5\ARM\PACK\Keil\STM32L5xx_DFP\1.3.0\Drivers\STM32L5xx_HAL_Driver\Src\stm32l5xx_hal_i2c.c:6223:10
	itt	mi
	ldrmi	r0, [r1, #24]
	.loc	7 6223 3                        @ c:/Keil_v5\ARM\PACK\Keil\STM32L5xx_DFP\1.3.0\Drivers\STM32L5xx_HAL_Driver\Src\stm32l5xx_hal_i2c.c:6223:3
	lslsmi.w	r0, r0, #15
	bpl	.LBB10_24
.Ltmp399:
@ %bb.17:                               @   in Loop: Header=BB10_15 Depth=1
	@DEBUG_VALUE: HAL_I2C_Slave_Receive:pData <- $r7
	@DEBUG_VALUE: I2C_WaitOnFlagUntilTimeout:Tickstart <- $r6
	@DEBUG_VALUE: HAL_I2C_Slave_Receive:tickstart <- $r6
	@DEBUG_VALUE: I2C_WaitOnFlagUntilTimeout:Timeout <- $r5
	@DEBUG_VALUE: HAL_I2C_Slave_Receive:Timeout <- $r5
	@DEBUG_VALUE: I2C_WaitOnFlagUntilTimeout:hi2c <- $r4
	@DEBUG_VALUE: HAL_I2C_Slave_Receive:hi2c <- $r4
	@DEBUG_VALUE: I2C_WaitOnFlagUntilTimeout:Flag <- 65536
	@DEBUG_VALUE: I2C_WaitOnFlagUntilTimeout:Status <- 1
	.loc	7 6223 10                       @ c:/Keil_v5\ARM\PACK\Keil\STM32L5xx_DFP\1.3.0\Drivers\STM32L5xx_HAL_Driver\Src\stm32l5xx_hal_i2c.c:6223:10
	ldr	r0, [r1, #24]
	.loc	7 6223 3                        @ c:/Keil_v5\ARM\PACK\Keil\STM32L5xx_DFP\1.3.0\Drivers\STM32L5xx_HAL_Driver\Src\stm32l5xx_hal_i2c.c:6223:3
	lsls	r0, r0, #15
	bmi	.LBB10_15
	b	.LBB10_24
.Ltmp400:
	.p2align	2
.LBB10_18:                              @   in Loop: Header=BB10_19 Depth=1
	@DEBUG_VALUE: HAL_I2C_Slave_Receive:pData <- $r7
	@DEBUG_VALUE: HAL_I2C_Slave_Receive:tickstart <- $r6
	@DEBUG_VALUE: I2C_WaitOnFlagUntilTimeout:Tickstart <- $r6
	@DEBUG_VALUE: I2C_WaitOnFlagUntilTimeout:Timeout <- $r5
	@DEBUG_VALUE: HAL_I2C_Slave_Receive:Timeout <- $r5
	@DEBUG_VALUE: I2C_WaitOnFlagUntilTimeout:hi2c <- $r4
	@DEBUG_VALUE: HAL_I2C_Slave_Receive:hi2c <- $r4
	@DEBUG_VALUE: I2C_WaitOnFlagUntilTimeout:Status <- 0
	@DEBUG_VALUE: I2C_WaitOnFlagUntilTimeout:Flag <- 8
	.loc	7 6223 10                       @ c:/Keil_v5\ARM\PACK\Keil\STM32L5xx_DFP\1.3.0\Drivers\STM32L5xx_HAL_Driver\Src\stm32l5xx_hal_i2c.c:6223:10
	ldr	r1, [r4]
	ldr	r0, [r1, #24]
	.loc	7 6223 3                        @ c:/Keil_v5\ARM\PACK\Keil\STM32L5xx_DFP\1.3.0\Drivers\STM32L5xx_HAL_Driver\Src\stm32l5xx_hal_i2c.c:6223:3
	lsls	r0, r0, #28
	bmi	.LBB10_12
.Ltmp401:
.LBB10_19:                              @ =>This Inner Loop Header: Depth=1
	@DEBUG_VALUE: HAL_I2C_Slave_Receive:pData <- $r7
	@DEBUG_VALUE: HAL_I2C_Slave_Receive:tickstart <- $r6
	@DEBUG_VALUE: I2C_WaitOnFlagUntilTimeout:Tickstart <- $r6
	@DEBUG_VALUE: I2C_WaitOnFlagUntilTimeout:Timeout <- $r5
	@DEBUG_VALUE: HAL_I2C_Slave_Receive:Timeout <- $r5
	@DEBUG_VALUE: I2C_WaitOnFlagUntilTimeout:hi2c <- $r4
	@DEBUG_VALUE: HAL_I2C_Slave_Receive:hi2c <- $r4
	@DEBUG_VALUE: I2C_WaitOnFlagUntilTimeout:Status <- 0
	@DEBUG_VALUE: I2C_WaitOnFlagUntilTimeout:Flag <- 8
	.loc	7 6228 13 is_stmt 1             @ c:/Keil_v5\ARM\PACK\Keil\STM32L5xx_DFP\1.3.0\Drivers\STM32L5xx_HAL_Driver\Src\stm32l5xx_hal_i2c.c:6228:13
	bl	HAL_GetTick
	.loc	7 6228 27 is_stmt 0             @ c:/Keil_v5\ARM\PACK\Keil\STM32L5xx_DFP\1.3.0\Drivers\STM32L5xx_HAL_Driver\Src\stm32l5xx_hal_i2c.c:6228:27
	subs	r0, r0, r6
	.loc	7 6228 51                       @ c:/Keil_v5\ARM\PACK\Keil\STM32L5xx_DFP\1.3.0\Drivers\STM32L5xx_HAL_Driver\Src\stm32l5xx_hal_i2c.c:6228:51
	cmp	r0, r5
	bls	.LBB10_18
	b	.LBB10_47
.Ltmp402:
	.p2align	2
.LBB10_20:                              @ =>This Inner Loop Header: Depth=1
	@DEBUG_VALUE: HAL_I2C_Slave_Receive:pData <- $r7
	@DEBUG_VALUE: I2C_WaitOnFlagUntilTimeout:Tickstart <- $r6
	@DEBUG_VALUE: HAL_I2C_Slave_Receive:tickstart <- $r6
	@DEBUG_VALUE: I2C_WaitOnFlagUntilTimeout:Timeout <- $r5
	@DEBUG_VALUE: HAL_I2C_Slave_Receive:Timeout <- $r5
	@DEBUG_VALUE: I2C_WaitOnFlagUntilTimeout:hi2c <- $r4
	@DEBUG_VALUE: HAL_I2C_Slave_Receive:hi2c <- $r4
	@DEBUG_VALUE: I2C_WaitOnFlagUntilTimeout:Flag <- 65536
	@DEBUG_VALUE: I2C_WaitOnFlagUntilTimeout:Status <- 1
	.loc	7 6228 13                       @ c:/Keil_v5\ARM\PACK\Keil\STM32L5xx_DFP\1.3.0\Drivers\STM32L5xx_HAL_Driver\Src\stm32l5xx_hal_i2c.c:6228:13
	bl	HAL_GetTick
	.loc	7 6228 27                       @ c:/Keil_v5\ARM\PACK\Keil\STM32L5xx_DFP\1.3.0\Drivers\STM32L5xx_HAL_Driver\Src\stm32l5xx_hal_i2c.c:6228:27
	subs	r0, r0, r6
	.loc	7 6228 51                       @ c:/Keil_v5\ARM\PACK\Keil\STM32L5xx_DFP\1.3.0\Drivers\STM32L5xx_HAL_Driver\Src\stm32l5xx_hal_i2c.c:6228:51
	cmp	r0, r5
	bhi.w	.LBB10_47
.Ltmp403:
@ %bb.21:                               @   in Loop: Header=BB10_20 Depth=1
	@DEBUG_VALUE: HAL_I2C_Slave_Receive:pData <- $r7
	@DEBUG_VALUE: I2C_WaitOnFlagUntilTimeout:Tickstart <- $r6
	@DEBUG_VALUE: HAL_I2C_Slave_Receive:tickstart <- $r6
	@DEBUG_VALUE: I2C_WaitOnFlagUntilTimeout:Timeout <- $r5
	@DEBUG_VALUE: HAL_I2C_Slave_Receive:Timeout <- $r5
	@DEBUG_VALUE: I2C_WaitOnFlagUntilTimeout:hi2c <- $r4
	@DEBUG_VALUE: HAL_I2C_Slave_Receive:hi2c <- $r4
	@DEBUG_VALUE: I2C_WaitOnFlagUntilTimeout:Flag <- 65536
	@DEBUG_VALUE: I2C_WaitOnFlagUntilTimeout:Status <- 1
	.loc	7 6223 10 is_stmt 1             @ c:/Keil_v5\ARM\PACK\Keil\STM32L5xx_DFP\1.3.0\Drivers\STM32L5xx_HAL_Driver\Src\stm32l5xx_hal_i2c.c:6223:10
	ldr	r0, [r4]
	ldr	r0, [r0, #24]
	.loc	7 6223 3 is_stmt 0              @ c:/Keil_v5\ARM\PACK\Keil\STM32L5xx_DFP\1.3.0\Drivers\STM32L5xx_HAL_Driver\Src\stm32l5xx_hal_i2c.c:6223:3
	lsls	r0, r0, #15
	bmi	.LBB10_20
	b	.LBB10_24
.Ltmp404:
	.p2align	2
.LBB10_22:                              @   in Loop: Header=BB10_24 Depth=1
	@DEBUG_VALUE: HAL_I2C_Slave_Receive:pData <- $r7
	@DEBUG_VALUE: HAL_I2C_Slave_Receive:tickstart <- $r6
	@DEBUG_VALUE: HAL_I2C_Slave_Receive:Timeout <- $r5
	@DEBUG_VALUE: HAL_I2C_Slave_Receive:hi2c <- $r4
	.loc	7 1485 11 is_stmt 1             @ c:/Keil_v5\ARM\PACK\Keil\STM32L5xx_DFP\1.3.0\Drivers\STM32L5xx_HAL_Driver\Src\stm32l5xx_hal_i2c.c:1485:11
	mov	r0, r4
	mov	r1, r5
	mov	r2, r6
	bl	I2C_WaitOnRXNEFlagUntilTimeout
.Ltmp405:
	.loc	7 0 0 is_stmt 0                 @ c:/Keil_v5\ARM\PACK\Keil\STM32L5xx_DFP\1.3.0\Drivers\STM32L5xx_HAL_Driver\Src\stm32l5xx_hal_i2c.c:0:0
	ldr	r1, [r4]
	cbnz	r0, .LBB10_29
.Ltmp406:
@ %bb.23:                               @   in Loop: Header=BB10_24 Depth=1
	@DEBUG_VALUE: HAL_I2C_Slave_Receive:pData <- $r7
	@DEBUG_VALUE: HAL_I2C_Slave_Receive:tickstart <- $r6
	@DEBUG_VALUE: HAL_I2C_Slave_Receive:Timeout <- $r5
	@DEBUG_VALUE: HAL_I2C_Slave_Receive:hi2c <- $r4
	.loc	7 1506 50 is_stmt 1             @ c:/Keil_v5\ARM\PACK\Keil\STM32L5xx_DFP\1.3.0\Drivers\STM32L5xx_HAL_Driver\Src\stm32l5xx_hal_i2c.c:1506:50
	ldr	r0, [r1, #36]
	.loc	7 1506 14 is_stmt 0             @ c:/Keil_v5\ARM\PACK\Keil\STM32L5xx_DFP\1.3.0\Drivers\STM32L5xx_HAL_Driver\Src\stm32l5xx_hal_i2c.c:1506:14
	ldr	r1, [r4, #36]
	.loc	7 1506 23                       @ c:/Keil_v5\ARM\PACK\Keil\STM32L5xx_DFP\1.3.0\Drivers\STM32L5xx_HAL_Driver\Src\stm32l5xx_hal_i2c.c:1506:23
	strb	r0, [r1]
	.loc	7 1509 21 is_stmt 1             @ c:/Keil_v5\ARM\PACK\Keil\STM32L5xx_DFP\1.3.0\Drivers\STM32L5xx_HAL_Driver\Src\stm32l5xx_hal_i2c.c:1509:21
	ldr	r0, [r4, #36]
	adds	r0, #1
	str	r0, [r4, #36]
	.loc	7 1511 22                       @ c:/Keil_v5\ARM\PACK\Keil\STM32L5xx_DFP\1.3.0\Drivers\STM32L5xx_HAL_Driver\Src\stm32l5xx_hal_i2c.c:1511:22
	ldrh	r0, [r4, #42]
	subs	r0, #1
	strh	r0, [r4, #42]
.Ltmp407:
.LBB10_24:                              @ =>This Inner Loop Header: Depth=1
	@DEBUG_VALUE: HAL_I2C_Slave_Receive:pData <- $r7
	@DEBUG_VALUE: HAL_I2C_Slave_Receive:tickstart <- $r6
	@DEBUG_VALUE: HAL_I2C_Slave_Receive:Timeout <- $r5
	@DEBUG_VALUE: HAL_I2C_Slave_Receive:hi2c <- $r4
	@DEBUG_VALUE: I2C_WaitOnFlagUntilTimeout:Tickstart <- $r6
	.loc	7 1482 18                       @ c:/Keil_v5\ARM\PACK\Keil\STM32L5xx_DFP\1.3.0\Drivers\STM32L5xx_HAL_Driver\Src\stm32l5xx_hal_i2c.c:1482:18
	ldrh	r0, [r4, #42]
	.loc	7 1482 5 is_stmt 0              @ c:/Keil_v5\ARM\PACK\Keil\STM32L5xx_DFP\1.3.0\Drivers\STM32L5xx_HAL_Driver\Src\stm32l5xx_hal_i2c.c:1482:5
	cmp	r0, #0
	bne	.LBB10_22
.Ltmp408:
@ %bb.25:
	@DEBUG_VALUE: HAL_I2C_Slave_Receive:pData <- $r7
	@DEBUG_VALUE: HAL_I2C_Slave_Receive:tickstart <- $r6
	@DEBUG_VALUE: HAL_I2C_Slave_Receive:Timeout <- $r5
	@DEBUG_VALUE: HAL_I2C_Slave_Receive:hi2c <- $r4
	@DEBUG_VALUE: I2C_WaitOnSTOPFlagUntilTimeout:hi2c <- $r4
	@DEBUG_VALUE: I2C_WaitOnSTOPFlagUntilTimeout:Timeout <- $r5
	@DEBUG_VALUE: I2C_WaitOnSTOPFlagUntilTimeout:Tickstart <- $r6
	.loc	7 6290 3 is_stmt 1              @ c:/Keil_v5\ARM\PACK\Keil\STM32L5xx_DFP\1.3.0\Drivers\STM32L5xx_HAL_Driver\Src\stm32l5xx_hal_i2c.c:6290:3
	cbz	r5, .LBB10_31
.Ltmp409:
	.p2align	2
.LBB10_26:                              @ =>This Inner Loop Header: Depth=1
	@DEBUG_VALUE: HAL_I2C_Slave_Receive:pData <- $r7
	@DEBUG_VALUE: I2C_WaitOnSTOPFlagUntilTimeout:Tickstart <- $r6
	@DEBUG_VALUE: HAL_I2C_Slave_Receive:tickstart <- $r6
	@DEBUG_VALUE: I2C_WaitOnSTOPFlagUntilTimeout:Timeout <- $r5
	@DEBUG_VALUE: HAL_I2C_Slave_Receive:Timeout <- $r5
	@DEBUG_VALUE: I2C_WaitOnSTOPFlagUntilTimeout:hi2c <- $r4
	@DEBUG_VALUE: HAL_I2C_Slave_Receive:hi2c <- $r4
	.loc	7 6290 10 is_stmt 0             @ c:/Keil_v5\ARM\PACK\Keil\STM32L5xx_DFP\1.3.0\Drivers\STM32L5xx_HAL_Driver\Src\stm32l5xx_hal_i2c.c:6290:10
	ldr	r0, [r4]
	ldr	r1, [r0, #24]
	.loc	7 6290 3                        @ c:/Keil_v5\ARM\PACK\Keil\STM32L5xx_DFP\1.3.0\Drivers\STM32L5xx_HAL_Driver\Src\stm32l5xx_hal_i2c.c:6290:3
	lsls	r1, r1, #26
	bmi	.LBB10_37
.Ltmp410:
@ %bb.27:                               @   in Loop: Header=BB10_26 Depth=1
	@DEBUG_VALUE: HAL_I2C_Slave_Receive:pData <- $r7
	@DEBUG_VALUE: I2C_WaitOnSTOPFlagUntilTimeout:Tickstart <- $r6
	@DEBUG_VALUE: HAL_I2C_Slave_Receive:tickstart <- $r6
	@DEBUG_VALUE: I2C_WaitOnSTOPFlagUntilTimeout:Timeout <- $r5
	@DEBUG_VALUE: HAL_I2C_Slave_Receive:Timeout <- $r5
	@DEBUG_VALUE: I2C_WaitOnSTOPFlagUntilTimeout:hi2c <- $r4
	@DEBUG_VALUE: HAL_I2C_Slave_Receive:hi2c <- $r4
	.loc	7 6293 9 is_stmt 1              @ c:/Keil_v5\ARM\PACK\Keil\STM32L5xx_DFP\1.3.0\Drivers\STM32L5xx_HAL_Driver\Src\stm32l5xx_hal_i2c.c:6293:9
	mov	r0, r4
	mov	r1, r5
	mov	r2, r6
	bl	I2C_IsAcknowledgeFailed
.Ltmp411:
	.loc	7 6293 9 is_stmt 0              @ c:/Keil_v5\ARM\PACK\Keil\STM32L5xx_DFP\1.3.0\Drivers\STM32L5xx_HAL_Driver\Src\stm32l5xx_hal_i2c.c:6293:9
	cbnz	r0, .LBB10_36
.Ltmp412:
@ %bb.28:                               @   in Loop: Header=BB10_26 Depth=1
	@DEBUG_VALUE: HAL_I2C_Slave_Receive:pData <- $r7
	@DEBUG_VALUE: I2C_WaitOnSTOPFlagUntilTimeout:Tickstart <- $r6
	@DEBUG_VALUE: HAL_I2C_Slave_Receive:tickstart <- $r6
	@DEBUG_VALUE: I2C_WaitOnSTOPFlagUntilTimeout:Timeout <- $r5
	@DEBUG_VALUE: HAL_I2C_Slave_Receive:Timeout <- $r5
	@DEBUG_VALUE: I2C_WaitOnSTOPFlagUntilTimeout:hi2c <- $r4
	@DEBUG_VALUE: HAL_I2C_Slave_Receive:hi2c <- $r4
	.loc	7 6299 11 is_stmt 1             @ c:/Keil_v5\ARM\PACK\Keil\STM32L5xx_DFP\1.3.0\Drivers\STM32L5xx_HAL_Driver\Src\stm32l5xx_hal_i2c.c:6299:11
	bl	HAL_GetTick
	.loc	7 6299 25 is_stmt 0             @ c:/Keil_v5\ARM\PACK\Keil\STM32L5xx_DFP\1.3.0\Drivers\STM32L5xx_HAL_Driver\Src\stm32l5xx_hal_i2c.c:6299:25
	subs	r0, r0, r6
	.loc	7 6299 49                       @ c:/Keil_v5\ARM\PACK\Keil\STM32L5xx_DFP\1.3.0\Drivers\STM32L5xx_HAL_Driver\Src\stm32l5xx_hal_i2c.c:6299:49
	cmp	r0, r5
	bls	.LBB10_26
	b	.LBB10_34
.Ltmp413:
	.p2align	2
.LBB10_29:
	@DEBUG_VALUE: HAL_I2C_Slave_Receive:pData <- $r7
	@DEBUG_VALUE: HAL_I2C_Slave_Receive:tickstart <- $r6
	@DEBUG_VALUE: HAL_I2C_Slave_Receive:Timeout <- $r5
	@DEBUG_VALUE: HAL_I2C_Slave_Receive:hi2c <- $r4
	.loc	7 1488 29 is_stmt 1             @ c:/Keil_v5\ARM\PACK\Keil\STM32L5xx_DFP\1.3.0\Drivers\STM32L5xx_HAL_Driver\Src\stm32l5xx_hal_i2c.c:1488:29
	ldr	r0, [r1, #4]
	orr	r0, r0, #32768
	str	r0, [r1, #4]
.Ltmp414:
	.loc	7 1491 13                       @ c:/Keil_v5\ARM\PACK\Keil\STM32L5xx_DFP\1.3.0\Drivers\STM32L5xx_HAL_Driver\Src\stm32l5xx_hal_i2c.c:1491:13
	ldr	r0, [r1, #24]
.Ltmp415:
	.loc	7 1491 13 is_stmt 0             @ c:/Keil_v5\ARM\PACK\Keil\STM32L5xx_DFP\1.3.0\Drivers\STM32L5xx_HAL_Driver\Src\stm32l5xx_hal_i2c.c:1491:13
	lsls	r0, r0, #29
	bpl.w	.LBB10_3
.Ltmp416:
@ %bb.30:
	@DEBUG_VALUE: HAL_I2C_Slave_Receive:pData <- $r7
	@DEBUG_VALUE: HAL_I2C_Slave_Receive:tickstart <- $r6
	@DEBUG_VALUE: HAL_I2C_Slave_Receive:Timeout <- $r5
	@DEBUG_VALUE: HAL_I2C_Slave_Receive:hi2c <- $r4
	.loc	7 1494 54 is_stmt 1             @ c:/Keil_v5\ARM\PACK\Keil\STM32L5xx_DFP\1.3.0\Drivers\STM32L5xx_HAL_Driver\Src\stm32l5xx_hal_i2c.c:1494:54
	ldr	r0, [r1, #36]
	.loc	7 1494 18 is_stmt 0             @ c:/Keil_v5\ARM\PACK\Keil\STM32L5xx_DFP\1.3.0\Drivers\STM32L5xx_HAL_Driver\Src\stm32l5xx_hal_i2c.c:1494:18
	ldr	r1, [r4, #36]
	.loc	7 1494 27                       @ c:/Keil_v5\ARM\PACK\Keil\STM32L5xx_DFP\1.3.0\Drivers\STM32L5xx_HAL_Driver\Src\stm32l5xx_hal_i2c.c:1494:27
	strb	r0, [r1]
	.loc	7 1497 25 is_stmt 1             @ c:/Keil_v5\ARM\PACK\Keil\STM32L5xx_DFP\1.3.0\Drivers\STM32L5xx_HAL_Driver\Src\stm32l5xx_hal_i2c.c:1497:25
	ldr	r0, [r4, #36]
	adds	r0, #1
	str	r0, [r4, #36]
	.loc	7 1499 26                       @ c:/Keil_v5\ARM\PACK\Keil\STM32L5xx_DFP\1.3.0\Drivers\STM32L5xx_HAL_Driver\Src\stm32l5xx_hal_i2c.c:1499:26
	ldrh	r0, [r4, #42]
	subs	r0, #1
	strh	r0, [r4, #42]
	movs	r0, #1
.Ltmp417:
	.loc	7 1548 1                        @ c:/Keil_v5\ARM\PACK\Keil\STM32L5xx_DFP\1.3.0\Drivers\STM32L5xx_HAL_Driver\Src\stm32l5xx_hal_i2c.c:1548:1
	add	sp, #4
	pop	{r4, r5, r6, r7, pc}
.Ltmp418:
	.p2align	2
.LBB10_31:
	@DEBUG_VALUE: HAL_I2C_Slave_Receive:pData <- $r7
	@DEBUG_VALUE: I2C_WaitOnSTOPFlagUntilTimeout:Tickstart <- $r6
	@DEBUG_VALUE: HAL_I2C_Slave_Receive:tickstart <- $r6
	@DEBUG_VALUE: I2C_WaitOnSTOPFlagUntilTimeout:Timeout <- $r5
	@DEBUG_VALUE: HAL_I2C_Slave_Receive:Timeout <- $r5
	@DEBUG_VALUE: I2C_WaitOnSTOPFlagUntilTimeout:hi2c <- $r4
	@DEBUG_VALUE: HAL_I2C_Slave_Receive:hi2c <- $r4
	.loc	7 6290 10                       @ c:/Keil_v5\ARM\PACK\Keil\STM32L5xx_DFP\1.3.0\Drivers\STM32L5xx_HAL_Driver\Src\stm32l5xx_hal_i2c.c:6290:10
	ldr	r0, [r4]
	ldr	r1, [r0, #24]
	.loc	7 6290 3 is_stmt 0              @ c:/Keil_v5\ARM\PACK\Keil\STM32L5xx_DFP\1.3.0\Drivers\STM32L5xx_HAL_Driver\Src\stm32l5xx_hal_i2c.c:6290:3
	lsls	r1, r1, #26
	bmi	.LBB10_37
.Ltmp419:
@ %bb.32:
	@DEBUG_VALUE: HAL_I2C_Slave_Receive:pData <- $r7
	@DEBUG_VALUE: I2C_WaitOnSTOPFlagUntilTimeout:Tickstart <- $r6
	@DEBUG_VALUE: HAL_I2C_Slave_Receive:tickstart <- $r6
	@DEBUG_VALUE: I2C_WaitOnSTOPFlagUntilTimeout:Timeout <- $r5
	@DEBUG_VALUE: HAL_I2C_Slave_Receive:Timeout <- $r5
	@DEBUG_VALUE: I2C_WaitOnSTOPFlagUntilTimeout:hi2c <- $r4
	@DEBUG_VALUE: HAL_I2C_Slave_Receive:hi2c <- $r4
	@DEBUG_VALUE: I2C_IsAcknowledgeFailed:hi2c <- $r4
	@DEBUG_VALUE: I2C_IsAcknowledgeFailed:Timeout <- 0
	@DEBUG_VALUE: I2C_IsAcknowledgeFailed:Tickstart <- undef
	.loc	7 6387 7 is_stmt 1              @ c:/Keil_v5\ARM\PACK\Keil\STM32L5xx_DFP\1.3.0\Drivers\STM32L5xx_HAL_Driver\Src\stm32l5xx_hal_i2c.c:6387:7
	ldr	r1, [r0, #24]
.Ltmp420:
	.loc	7 6387 7 is_stmt 0              @ c:/Keil_v5\ARM\PACK\Keil\STM32L5xx_DFP\1.3.0\Drivers\STM32L5xx_HAL_Driver\Src\stm32l5xx_hal_i2c.c:6387:7
	lsls	r1, r1, #27
.Ltmp421:
	.loc	7 6391 12 is_stmt 1             @ c:/Keil_v5\ARM\PACK\Keil\STM32L5xx_DFP\1.3.0\Drivers\STM32L5xx_HAL_Driver\Src\stm32l5xx_hal_i2c.c:6391:12
	itt	mi
	ldrmi	r1, [r0, #24]
	.loc	7 6391 5 is_stmt 0              @ c:/Keil_v5\ARM\PACK\Keil\STM32L5xx_DFP\1.3.0\Drivers\STM32L5xx_HAL_Driver\Src\stm32l5xx_hal_i2c.c:6391:5
	lslsmi.w	r1, r1, #26
	bmi	.LBB10_49
.Ltmp422:
@ %bb.33:
	@DEBUG_VALUE: HAL_I2C_Slave_Receive:pData <- $r7
	@DEBUG_VALUE: I2C_WaitOnSTOPFlagUntilTimeout:Tickstart <- $r6
	@DEBUG_VALUE: HAL_I2C_Slave_Receive:tickstart <- $r6
	@DEBUG_VALUE: I2C_WaitOnSTOPFlagUntilTimeout:Timeout <- $r5
	@DEBUG_VALUE: HAL_I2C_Slave_Receive:Timeout <- $r5
	@DEBUG_VALUE: I2C_IsAcknowledgeFailed:hi2c <- $r4
	@DEBUG_VALUE: I2C_WaitOnSTOPFlagUntilTimeout:hi2c <- $r4
	@DEBUG_VALUE: HAL_I2C_Slave_Receive:hi2c <- $r4
	@DEBUG_VALUE: I2C_IsAcknowledgeFailed:Timeout <- 0
	.loc	7 0 0                           @ c:/Keil_v5\ARM\PACK\Keil\STM32L5xx_DFP\1.3.0\Drivers\STM32L5xx_HAL_Driver\Src\stm32l5xx_hal_i2c.c:0:0
	bl	HAL_GetTick
.Ltmp423:
.LBB10_34:
	@DEBUG_VALUE: HAL_I2C_Slave_Receive:pData <- $r7
	@DEBUG_VALUE: I2C_WaitOnSTOPFlagUntilTimeout:Tickstart <- $r6
	@DEBUG_VALUE: HAL_I2C_Slave_Receive:tickstart <- $r6
	@DEBUG_VALUE: I2C_WaitOnSTOPFlagUntilTimeout:Timeout <- $r5
	@DEBUG_VALUE: HAL_I2C_Slave_Receive:Timeout <- $r5
	@DEBUG_VALUE: I2C_WaitOnSTOPFlagUntilTimeout:hi2c <- $r4
	@DEBUG_VALUE: HAL_I2C_Slave_Receive:hi2c <- $r4
	movs	r0, #32
.Ltmp424:
.LBB10_35:
	@DEBUG_VALUE: HAL_I2C_Slave_Receive:pData <- $r7
	@DEBUG_VALUE: I2C_WaitOnSTOPFlagUntilTimeout:Tickstart <- $r6
	@DEBUG_VALUE: HAL_I2C_Slave_Receive:tickstart <- $r6
	@DEBUG_VALUE: I2C_WaitOnSTOPFlagUntilTimeout:Timeout <- $r5
	@DEBUG_VALUE: HAL_I2C_Slave_Receive:Timeout <- $r5
	@DEBUG_VALUE: I2C_WaitOnSTOPFlagUntilTimeout:hi2c <- $r4
	@DEBUG_VALUE: HAL_I2C_Slave_Receive:hi2c <- $r4
	ldr	r1, [r4, #68]
	orrs	r0, r1
	str	r0, [r4, #68]
	movs	r0, #32
	strb.w	r0, [r4, #65]
	movs	r0, #0
	strb.w	r0, [r4, #66]
	strb.w	r0, [r4, #64]
.Ltmp425:
.LBB10_36:
	@DEBUG_VALUE: HAL_I2C_Slave_Receive:pData <- $r7
	@DEBUG_VALUE: HAL_I2C_Slave_Receive:tickstart <- $r6
	@DEBUG_VALUE: HAL_I2C_Slave_Receive:Timeout <- $r5
	@DEBUG_VALUE: HAL_I2C_Slave_Receive:hi2c <- $r4
	.loc	7 1518 13 is_stmt 1             @ c:/Keil_v5\ARM\PACK\Keil\STM32L5xx_DFP\1.3.0\Drivers\STM32L5xx_HAL_Driver\Src\stm32l5xx_hal_i2c.c:1518:13
	ldr	r0, [r4]
	b	.LBB10_48
.Ltmp426:
	.p2align	2
.LBB10_37:
	@DEBUG_VALUE: HAL_I2C_Slave_Receive:pData <- $r7
	@DEBUG_VALUE: HAL_I2C_Slave_Receive:tickstart <- $r6
	@DEBUG_VALUE: HAL_I2C_Slave_Receive:Timeout <- $r5
	@DEBUG_VALUE: HAL_I2C_Slave_Receive:hi2c <- $r4
	.loc	7 0 13 is_stmt 0                @ c:/Keil_v5\ARM\PACK\Keil\STM32L5xx_DFP\1.3.0\Drivers\STM32L5xx_HAL_Driver\Src\stm32l5xx_hal_i2c.c:0:13
	movs	r7, #32
.Ltmp427:
	@DEBUG_VALUE: HAL_I2C_Slave_Receive:pData <- [DW_OP_LLVM_entry_value 1] $r1
	.loc	7 1523 5 is_stmt 1              @ c:/Keil_v5\ARM\PACK\Keil\STM32L5xx_DFP\1.3.0\Drivers\STM32L5xx_HAL_Driver\Src\stm32l5xx_hal_i2c.c:1523:5
	str	r7, [r0, #28]
.Ltmp428:
	@DEBUG_VALUE: I2C_WaitOnFlagUntilTimeout:Tickstart <- undef
	@DEBUG_VALUE: I2C_WaitOnFlagUntilTimeout:Timeout <- $r5
	@DEBUG_VALUE: I2C_WaitOnFlagUntilTimeout:Status <- 1
	@DEBUG_VALUE: I2C_WaitOnFlagUntilTimeout:Flag <- 32768
	@DEBUG_VALUE: I2C_WaitOnFlagUntilTimeout:hi2c <- $r4
	.loc	7 6223 10                       @ c:/Keil_v5\ARM\PACK\Keil\STM32L5xx_DFP\1.3.0\Drivers\STM32L5xx_HAL_Driver\Src\stm32l5xx_hal_i2c.c:6223:10
	ldr	r1, [r0, #24]
	.loc	7 6223 3 is_stmt 0              @ c:/Keil_v5\ARM\PACK\Keil\STM32L5xx_DFP\1.3.0\Drivers\STM32L5xx_HAL_Driver\Src\stm32l5xx_hal_i2c.c:6223:3
	lsls	r1, r1, #16
	bmi	.LBB10_39
.Ltmp429:
.LBB10_38:
	@DEBUG_VALUE: HAL_I2C_Slave_Receive:tickstart <- $r6
	@DEBUG_VALUE: HAL_I2C_Slave_Receive:Timeout <- $r5
	@DEBUG_VALUE: HAL_I2C_Slave_Receive:hi2c <- $r4
	@DEBUG_VALUE: HAL_I2C_Slave_Receive:pData <- [DW_OP_LLVM_entry_value 1] $r1
	.loc	7 1534 25 is_stmt 1             @ c:/Keil_v5\ARM\PACK\Keil\STM32L5xx_DFP\1.3.0\Drivers\STM32L5xx_HAL_Driver\Src\stm32l5xx_hal_i2c.c:1534:25
	ldr	r1, [r0, #4]
	orr	r1, r1, #32768
	str	r1, [r0, #4]
	movs	r0, #0
	.loc	7 1536 17                       @ c:/Keil_v5\ARM\PACK\Keil\STM32L5xx_DFP\1.3.0\Drivers\STM32L5xx_HAL_Driver\Src\stm32l5xx_hal_i2c.c:1536:17
	strb.w	r7, [r4, #65]
	.loc	7 1537 17                       @ c:/Keil_v5\ARM\PACK\Keil\STM32L5xx_DFP\1.3.0\Drivers\STM32L5xx_HAL_Driver\Src\stm32l5xx_hal_i2c.c:1537:17
	strb.w	r0, [r4, #66]
.Ltmp430:
	.loc	7 1540 5                        @ c:/Keil_v5\ARM\PACK\Keil\STM32L5xx_DFP\1.3.0\Drivers\STM32L5xx_HAL_Driver\Src\stm32l5xx_hal_i2c.c:1540:5
	strb.w	r0, [r4, #64]
.Ltmp431:
	.loc	7 1548 1                        @ c:/Keil_v5\ARM\PACK\Keil\STM32L5xx_DFP\1.3.0\Drivers\STM32L5xx_HAL_Driver\Src\stm32l5xx_hal_i2c.c:1548:1
	add	sp, #4
	pop	{r4, r5, r6, r7, pc}
.Ltmp432:
	.p2align	2
.LBB10_39:
	@DEBUG_VALUE: HAL_I2C_Slave_Receive:tickstart <- $r6
	@DEBUG_VALUE: I2C_WaitOnFlagUntilTimeout:Timeout <- $r5
	@DEBUG_VALUE: HAL_I2C_Slave_Receive:Timeout <- $r5
	@DEBUG_VALUE: I2C_WaitOnFlagUntilTimeout:hi2c <- $r4
	@DEBUG_VALUE: HAL_I2C_Slave_Receive:hi2c <- $r4
	@DEBUG_VALUE: I2C_WaitOnFlagUntilTimeout:Flag <- 32768
	@DEBUG_VALUE: I2C_WaitOnFlagUntilTimeout:Status <- 1
	@DEBUG_VALUE: HAL_I2C_Slave_Receive:pData <- [DW_OP_LLVM_entry_value 1] $r1
	.loc	7 6223 3                        @ c:/Keil_v5\ARM\PACK\Keil\STM32L5xx_DFP\1.3.0\Drivers\STM32L5xx_HAL_Driver\Src\stm32l5xx_hal_i2c.c:6223:3
	cbz	r5, .LBB10_46
.Ltmp433:
@ %bb.40:
	@DEBUG_VALUE: HAL_I2C_Slave_Receive:tickstart <- $r6
	@DEBUG_VALUE: I2C_WaitOnFlagUntilTimeout:Timeout <- $r5
	@DEBUG_VALUE: HAL_I2C_Slave_Receive:Timeout <- $r5
	@DEBUG_VALUE: I2C_WaitOnFlagUntilTimeout:hi2c <- $r4
	@DEBUG_VALUE: HAL_I2C_Slave_Receive:hi2c <- $r4
	@DEBUG_VALUE: I2C_WaitOnFlagUntilTimeout:Flag <- 32768
	@DEBUG_VALUE: I2C_WaitOnFlagUntilTimeout:Status <- 1
	@DEBUG_VALUE: HAL_I2C_Slave_Receive:pData <- [DW_OP_LLVM_entry_value 1] $r1
	adds	r1, r5, #1
	bne	.LBB10_44
.Ltmp434:
.LBB10_41:                              @ =>This Inner Loop Header: Depth=1
	@DEBUG_VALUE: HAL_I2C_Slave_Receive:tickstart <- $r6
	@DEBUG_VALUE: I2C_WaitOnFlagUntilTimeout:Timeout <- $r5
	@DEBUG_VALUE: HAL_I2C_Slave_Receive:Timeout <- $r5
	@DEBUG_VALUE: I2C_WaitOnFlagUntilTimeout:hi2c <- $r4
	@DEBUG_VALUE: HAL_I2C_Slave_Receive:hi2c <- $r4
	@DEBUG_VALUE: I2C_WaitOnFlagUntilTimeout:Flag <- 32768
	@DEBUG_VALUE: I2C_WaitOnFlagUntilTimeout:Status <- 1
	@DEBUG_VALUE: HAL_I2C_Slave_Receive:pData <- [DW_OP_LLVM_entry_value 1] $r1
	.loc	7 6223 10 is_stmt 0             @ c:/Keil_v5\ARM\PACK\Keil\STM32L5xx_DFP\1.3.0\Drivers\STM32L5xx_HAL_Driver\Src\stm32l5xx_hal_i2c.c:6223:10
	ldr	r1, [r0, #24]
	.loc	7 6223 3                        @ c:/Keil_v5\ARM\PACK\Keil\STM32L5xx_DFP\1.3.0\Drivers\STM32L5xx_HAL_Driver\Src\stm32l5xx_hal_i2c.c:6223:3
	lsls	r1, r1, #16
	bpl	.LBB10_38
.Ltmp435:
@ %bb.42:                               @   in Loop: Header=BB10_41 Depth=1
	@DEBUG_VALUE: HAL_I2C_Slave_Receive:tickstart <- $r6
	@DEBUG_VALUE: I2C_WaitOnFlagUntilTimeout:Timeout <- $r5
	@DEBUG_VALUE: HAL_I2C_Slave_Receive:Timeout <- $r5
	@DEBUG_VALUE: I2C_WaitOnFlagUntilTimeout:hi2c <- $r4
	@DEBUG_VALUE: HAL_I2C_Slave_Receive:hi2c <- $r4
	@DEBUG_VALUE: I2C_WaitOnFlagUntilTimeout:Flag <- 32768
	@DEBUG_VALUE: I2C_WaitOnFlagUntilTimeout:Status <- 1
	@DEBUG_VALUE: HAL_I2C_Slave_Receive:pData <- [DW_OP_LLVM_entry_value 1] $r1
	.loc	7 6223 10                       @ c:/Keil_v5\ARM\PACK\Keil\STM32L5xx_DFP\1.3.0\Drivers\STM32L5xx_HAL_Driver\Src\stm32l5xx_hal_i2c.c:6223:10
	ldr	r1, [r0, #24]
	.loc	7 6223 3                        @ c:/Keil_v5\ARM\PACK\Keil\STM32L5xx_DFP\1.3.0\Drivers\STM32L5xx_HAL_Driver\Src\stm32l5xx_hal_i2c.c:6223:3
	lsls	r1, r1, #16
	.loc	7 6223 10                       @ c:/Keil_v5\ARM\PACK\Keil\STM32L5xx_DFP\1.3.0\Drivers\STM32L5xx_HAL_Driver\Src\stm32l5xx_hal_i2c.c:6223:10
	itt	mi
	ldrmi	r1, [r0, #24]
	.loc	7 6223 3                        @ c:/Keil_v5\ARM\PACK\Keil\STM32L5xx_DFP\1.3.0\Drivers\STM32L5xx_HAL_Driver\Src\stm32l5xx_hal_i2c.c:6223:3
	lslsmi.w	r1, r1, #16
	bpl	.LBB10_38
.Ltmp436:
@ %bb.43:                               @   in Loop: Header=BB10_41 Depth=1
	@DEBUG_VALUE: HAL_I2C_Slave_Receive:tickstart <- $r6
	@DEBUG_VALUE: I2C_WaitOnFlagUntilTimeout:Timeout <- $r5
	@DEBUG_VALUE: HAL_I2C_Slave_Receive:Timeout <- $r5
	@DEBUG_VALUE: I2C_WaitOnFlagUntilTimeout:hi2c <- $r4
	@DEBUG_VALUE: HAL_I2C_Slave_Receive:hi2c <- $r4
	@DEBUG_VALUE: I2C_WaitOnFlagUntilTimeout:Flag <- 32768
	@DEBUG_VALUE: I2C_WaitOnFlagUntilTimeout:Status <- 1
	@DEBUG_VALUE: HAL_I2C_Slave_Receive:pData <- [DW_OP_LLVM_entry_value 1] $r1
	.loc	7 6223 10                       @ c:/Keil_v5\ARM\PACK\Keil\STM32L5xx_DFP\1.3.0\Drivers\STM32L5xx_HAL_Driver\Src\stm32l5xx_hal_i2c.c:6223:10
	ldr	r1, [r0, #24]
	.loc	7 6223 3                        @ c:/Keil_v5\ARM\PACK\Keil\STM32L5xx_DFP\1.3.0\Drivers\STM32L5xx_HAL_Driver\Src\stm32l5xx_hal_i2c.c:6223:3
	lsls	r1, r1, #16
	bmi	.LBB10_41
	b	.LBB10_38
.Ltmp437:
	.p2align	2
.LBB10_44:                              @ =>This Inner Loop Header: Depth=1
	@DEBUG_VALUE: HAL_I2C_Slave_Receive:tickstart <- $r6
	@DEBUG_VALUE: I2C_WaitOnFlagUntilTimeout:Timeout <- $r5
	@DEBUG_VALUE: HAL_I2C_Slave_Receive:Timeout <- $r5
	@DEBUG_VALUE: I2C_WaitOnFlagUntilTimeout:hi2c <- $r4
	@DEBUG_VALUE: HAL_I2C_Slave_Receive:hi2c <- $r4
	@DEBUG_VALUE: I2C_WaitOnFlagUntilTimeout:Flag <- 32768
	@DEBUG_VALUE: I2C_WaitOnFlagUntilTimeout:Status <- 1
	@DEBUG_VALUE: HAL_I2C_Slave_Receive:pData <- [DW_OP_LLVM_entry_value 1] $r1
	.loc	7 6228 13 is_stmt 1             @ c:/Keil_v5\ARM\PACK\Keil\STM32L5xx_DFP\1.3.0\Drivers\STM32L5xx_HAL_Driver\Src\stm32l5xx_hal_i2c.c:6228:13
	bl	HAL_GetTick
	.loc	7 6228 27 is_stmt 0             @ c:/Keil_v5\ARM\PACK\Keil\STM32L5xx_DFP\1.3.0\Drivers\STM32L5xx_HAL_Driver\Src\stm32l5xx_hal_i2c.c:6228:27
	subs	r0, r0, r6
	.loc	7 6228 51                       @ c:/Keil_v5\ARM\PACK\Keil\STM32L5xx_DFP\1.3.0\Drivers\STM32L5xx_HAL_Driver\Src\stm32l5xx_hal_i2c.c:6228:51
	cmp	r0, r5
	bhi	.LBB10_47
.Ltmp438:
@ %bb.45:                               @   in Loop: Header=BB10_44 Depth=1
	@DEBUG_VALUE: HAL_I2C_Slave_Receive:tickstart <- $r6
	@DEBUG_VALUE: I2C_WaitOnFlagUntilTimeout:Timeout <- $r5
	@DEBUG_VALUE: HAL_I2C_Slave_Receive:Timeout <- $r5
	@DEBUG_VALUE: I2C_WaitOnFlagUntilTimeout:hi2c <- $r4
	@DEBUG_VALUE: HAL_I2C_Slave_Receive:hi2c <- $r4
	@DEBUG_VALUE: I2C_WaitOnFlagUntilTimeout:Flag <- 32768
	@DEBUG_VALUE: I2C_WaitOnFlagUntilTimeout:Status <- 1
	@DEBUG_VALUE: HAL_I2C_Slave_Receive:pData <- [DW_OP_LLVM_entry_value 1] $r1
	.loc	7 6223 10 is_stmt 1             @ c:/Keil_v5\ARM\PACK\Keil\STM32L5xx_DFP\1.3.0\Drivers\STM32L5xx_HAL_Driver\Src\stm32l5xx_hal_i2c.c:6223:10
	ldr	r0, [r4]
	ldr	r1, [r0, #24]
	.loc	7 6223 3 is_stmt 0              @ c:/Keil_v5\ARM\PACK\Keil\STM32L5xx_DFP\1.3.0\Drivers\STM32L5xx_HAL_Driver\Src\stm32l5xx_hal_i2c.c:6223:3
	lsls	r1, r1, #16
	bmi	.LBB10_44
	b	.LBB10_38
.Ltmp439:
	.p2align	2
.LBB10_46:
	@DEBUG_VALUE: HAL_I2C_Slave_Receive:tickstart <- $r6
	@DEBUG_VALUE: HAL_I2C_Slave_Receive:Timeout <- $r5
	@DEBUG_VALUE: HAL_I2C_Slave_Receive:hi2c <- $r4
	.loc	7 0 0                           @ c:/Keil_v5\ARM\PACK\Keil\STM32L5xx_DFP\1.3.0\Drivers\STM32L5xx_HAL_Driver\Src\stm32l5xx_hal_i2c.c:0:0
	bl	HAL_GetTick
.Ltmp440:
.LBB10_47:
	@DEBUG_VALUE: HAL_I2C_Slave_Receive:tickstart <- $r6
	@DEBUG_VALUE: HAL_I2C_Slave_Receive:Timeout <- $r5
	@DEBUG_VALUE: HAL_I2C_Slave_Receive:hi2c <- $r4
	ldr	r0, [r4]
	ldr	r1, [r4, #68]
	orr	r1, r1, #32
	str	r1, [r4, #68]
	movs	r1, #32
	strb.w	r1, [r4, #65]
	movs	r1, #0
	strb.w	r1, [r4, #66]
	strb.w	r1, [r4, #64]
.Ltmp441:
.LBB10_48:
	@DEBUG_VALUE: HAL_I2C_Slave_Receive:tickstart <- $r6
	@DEBUG_VALUE: HAL_I2C_Slave_Receive:Timeout <- $r5
	@DEBUG_VALUE: HAL_I2C_Slave_Receive:hi2c <- $r4
	ldr	r1, [r0, #4]
	orr	r1, r1, #32768
	str	r1, [r0, #4]
	movs	r0, #1
.Ltmp442:
	.loc	7 1548 1 is_stmt 1              @ c:/Keil_v5\ARM\PACK\Keil\STM32L5xx_DFP\1.3.0\Drivers\STM32L5xx_HAL_Driver\Src\stm32l5xx_hal_i2c.c:1548:1
	add	sp, #4
	pop	{r4, r5, r6, r7, pc}
.Ltmp443:
	.p2align	2
.LBB10_49:
	@DEBUG_VALUE: HAL_I2C_Slave_Receive:pData <- $r7
	@DEBUG_VALUE: I2C_WaitOnSTOPFlagUntilTimeout:Tickstart <- $r6
	@DEBUG_VALUE: HAL_I2C_Slave_Receive:tickstart <- $r6
	@DEBUG_VALUE: I2C_WaitOnSTOPFlagUntilTimeout:Timeout <- $r5
	@DEBUG_VALUE: HAL_I2C_Slave_Receive:Timeout <- $r5
	@DEBUG_VALUE: I2C_IsAcknowledgeFailed:hi2c <- $r4
	@DEBUG_VALUE: I2C_WaitOnSTOPFlagUntilTimeout:hi2c <- $r4
	@DEBUG_VALUE: HAL_I2C_Slave_Receive:hi2c <- $r4
	@DEBUG_VALUE: I2C_IsAcknowledgeFailed:Timeout <- 0
	.loc	7 0 1 is_stmt 0                 @ c:/Keil_v5\ARM\PACK\Keil\STM32L5xx_DFP\1.3.0\Drivers\STM32L5xx_HAL_Driver\Src\stm32l5xx_hal_i2c.c:0:1
	movs	r1, #16
.Ltmp444:
	.loc	7 6411 5 is_stmt 1              @ c:/Keil_v5\ARM\PACK\Keil\STM32L5xx_DFP\1.3.0\Drivers\STM32L5xx_HAL_Driver\Src\stm32l5xx_hal_i2c.c:6411:5
	str	r1, [r0, #28]
	movs	r1, #32
	.loc	7 6414 5                        @ c:/Keil_v5\ARM\PACK\Keil\STM32L5xx_DFP\1.3.0\Drivers\STM32L5xx_HAL_Driver\Src\stm32l5xx_hal_i2c.c:6414:5
	str	r1, [r0, #28]
.Ltmp445:
	@DEBUG_VALUE: I2C_Flush_TXDR:hi2c <- undef
	.loc	7 6009 7                        @ c:/Keil_v5\ARM\PACK\Keil\STM32L5xx_DFP\1.3.0\Drivers\STM32L5xx_HAL_Driver\Src\stm32l5xx_hal_i2c.c:6009:7
	ldr	r1, [r0, #24]
.Ltmp446:
	.loc	7 6009 7 is_stmt 0              @ c:/Keil_v5\ARM\PACK\Keil\STM32L5xx_DFP\1.3.0\Drivers\STM32L5xx_HAL_Driver\Src\stm32l5xx_hal_i2c.c:6009:7
	lsls	r1, r1, #30
	itt	mi
	movmi	r1, #0
.Ltmp447:
	.loc	7 6011 26 is_stmt 1             @ c:/Keil_v5\ARM\PACK\Keil\STM32L5xx_DFP\1.3.0\Drivers\STM32L5xx_HAL_Driver\Src\stm32l5xx_hal_i2c.c:6011:26
	strmi	r1, [r0, #40]
.Ltmp448:
	.loc	7 6015 7                        @ c:/Keil_v5\ARM\PACK\Keil\STM32L5xx_DFP\1.3.0\Drivers\STM32L5xx_HAL_Driver\Src\stm32l5xx_hal_i2c.c:6015:7
	ldr	r1, [r0, #24]
.Ltmp449:
	.loc	7 6015 7 is_stmt 0              @ c:/Keil_v5\ARM\PACK\Keil\STM32L5xx_DFP\1.3.0\Drivers\STM32L5xx_HAL_Driver\Src\stm32l5xx_hal_i2c.c:6015:7
	lsls	r1, r1, #31
	bne	.LBB10_51
.Ltmp450:
@ %bb.50:
	@DEBUG_VALUE: HAL_I2C_Slave_Receive:pData <- $r7
	@DEBUG_VALUE: I2C_WaitOnSTOPFlagUntilTimeout:Tickstart <- $r6
	@DEBUG_VALUE: HAL_I2C_Slave_Receive:tickstart <- $r6
	@DEBUG_VALUE: I2C_WaitOnSTOPFlagUntilTimeout:Timeout <- $r5
	@DEBUG_VALUE: HAL_I2C_Slave_Receive:Timeout <- $r5
	@DEBUG_VALUE: I2C_IsAcknowledgeFailed:hi2c <- $r4
	@DEBUG_VALUE: I2C_WaitOnSTOPFlagUntilTimeout:hi2c <- $r4
	@DEBUG_VALUE: HAL_I2C_Slave_Receive:hi2c <- $r4
	@DEBUG_VALUE: I2C_IsAcknowledgeFailed:Timeout <- 0
	.loc	7 6017 5 is_stmt 1              @ c:/Keil_v5\ARM\PACK\Keil\STM32L5xx_DFP\1.3.0\Drivers\STM32L5xx_HAL_Driver\Src\stm32l5xx_hal_i2c.c:6017:5
	ldr	r1, [r0, #24]
	orr	r1, r1, #1
	str	r1, [r0, #24]
.Ltmp451:
.LBB10_51:
	@DEBUG_VALUE: HAL_I2C_Slave_Receive:pData <- $r7
	@DEBUG_VALUE: I2C_WaitOnSTOPFlagUntilTimeout:Tickstart <- $r6
	@DEBUG_VALUE: HAL_I2C_Slave_Receive:tickstart <- $r6
	@DEBUG_VALUE: I2C_WaitOnSTOPFlagUntilTimeout:Timeout <- $r5
	@DEBUG_VALUE: HAL_I2C_Slave_Receive:Timeout <- $r5
	@DEBUG_VALUE: I2C_IsAcknowledgeFailed:hi2c <- $r4
	@DEBUG_VALUE: I2C_WaitOnSTOPFlagUntilTimeout:hi2c <- $r4
	@DEBUG_VALUE: HAL_I2C_Slave_Receive:hi2c <- $r4
	@DEBUG_VALUE: I2C_IsAcknowledgeFailed:Timeout <- 0
	.loc	7 6420 5                        @ c:/Keil_v5\ARM\PACK\Keil\STM32L5xx_DFP\1.3.0\Drivers\STM32L5xx_HAL_Driver\Src\stm32l5xx_hal_i2c.c:6420:5
	ldr	r1, [r0, #4]
	movw	r2, #59392
	movt	r2, #65024
	ands	r1, r2
	str	r1, [r0, #4]
	movs	r0, #4
	b	.LBB10_35
.Ltmp452:
.Lfunc_end10:
	.size	HAL_I2C_Slave_Receive, .Lfunc_end10-HAL_I2C_Slave_Receive
	.cfi_endproc
	.cantunwind
	.fnend
                                        @ -- End function
	.section	.text.HAL_I2C_Master_Transmit_IT,"ax",%progbits
	.hidden	HAL_I2C_Master_Transmit_IT      @ -- Begin function HAL_I2C_Master_Transmit_IT
	.globl	HAL_I2C_Master_Transmit_IT
	.p2align	2
	.type	HAL_I2C_Master_Transmit_IT,%function
	.code	16                              @ @HAL_I2C_Master_Transmit_IT
	.thumb_func
HAL_I2C_Master_Transmit_IT:
.Lfunc_begin11:
	.loc	7 1562 0                        @ c:/Keil_v5\ARM\PACK\Keil\STM32L5xx_DFP\1.3.0\Drivers\STM32L5xx_HAL_Driver\Src\stm32l5xx_hal_i2c.c:1562:0
	.fnstart
	.cfi_startproc
@ %bb.0:
	@DEBUG_VALUE: HAL_I2C_Master_Transmit_IT:hi2c <- $r0
	@DEBUG_VALUE: HAL_I2C_Master_Transmit_IT:DevAddress <- $r1
	@DEBUG_VALUE: HAL_I2C_Master_Transmit_IT:pData <- $r2
	@DEBUG_VALUE: HAL_I2C_Master_Transmit_IT:Size <- $r3
	.save	{r4, lr}
	push	{r4, lr}
	.cfi_def_cfa_offset 8
	.cfi_offset lr, -4
	.cfi_offset r4, -8
	mov	r12, r0
	@DEBUG_VALUE: HAL_I2C_Master_Transmit_IT:Size <- $r3
.Ltmp453:
	@DEBUG_VALUE: HAL_I2C_Master_Transmit_IT:DevAddress <- undef
	@DEBUG_VALUE: HAL_I2C_Master_Transmit_IT:hi2c <- $r12
	.loc	7 1565 13 prologue_end          @ c:/Keil_v5\ARM\PACK\Keil\STM32L5xx_DFP\1.3.0\Drivers\STM32L5xx_HAL_Driver\Src\stm32l5xx_hal_i2c.c:1565:13
	ldrb.w	r0, [r0, #65]
.Ltmp454:
	@DEBUG_VALUE: HAL_I2C_Master_Transmit_IT:pData <- $r2
	.loc	7 1565 7 is_stmt 0              @ c:/Keil_v5\ARM\PACK\Keil\STM32L5xx_DFP\1.3.0\Drivers\STM32L5xx_HAL_Driver\Src\stm32l5xx_hal_i2c.c:1565:7
	cmp	r0, #32
.Ltmp455:
	@DEBUG_VALUE: HAL_I2C_Master_Transmit_IT:DevAddress <- $r1
	bne	.LBB11_3
.Ltmp456:
@ %bb.1:
	@DEBUG_VALUE: HAL_I2C_Master_Transmit_IT:hi2c <- $r12
	@DEBUG_VALUE: HAL_I2C_Master_Transmit_IT:Size <- $r3
	@DEBUG_VALUE: HAL_I2C_Master_Transmit_IT:pData <- $r2
	@DEBUG_VALUE: HAL_I2C_Master_Transmit_IT:DevAddress <- $r1
	@DEBUG_VALUE: HAL_I2C_Master_Transmit_IT:Size <- $r3
	.loc	7 1567 9 is_stmt 1              @ c:/Keil_v5\ARM\PACK\Keil\STM32L5xx_DFP\1.3.0\Drivers\STM32L5xx_HAL_Driver\Src\stm32l5xx_hal_i2c.c:1567:9
	ldr.w	lr, [r12]
	ldr.w	r0, [lr, #24]
.Ltmp457:
	.loc	7 1567 9 is_stmt 0              @ c:/Keil_v5\ARM\PACK\Keil\STM32L5xx_DFP\1.3.0\Drivers\STM32L5xx_HAL_Driver\Src\stm32l5xx_hal_i2c.c:1567:9
	lsls	r0, r0, #16
	bmi	.LBB11_3
.Ltmp458:
@ %bb.2:
	@DEBUG_VALUE: HAL_I2C_Master_Transmit_IT:hi2c <- $r12
	@DEBUG_VALUE: HAL_I2C_Master_Transmit_IT:Size <- $r3
	@DEBUG_VALUE: HAL_I2C_Master_Transmit_IT:pData <- $r2
	@DEBUG_VALUE: HAL_I2C_Master_Transmit_IT:DevAddress <- $r1
	@DEBUG_VALUE: HAL_I2C_Master_Transmit_IT:Size <- $r3
	.loc	7 1573 5 is_stmt 1              @ c:/Keil_v5\ARM\PACK\Keil\STM32L5xx_DFP\1.3.0\Drivers\STM32L5xx_HAL_Driver\Src\stm32l5xx_hal_i2c.c:1573:5
	ldrb.w	r0, [r12, #64]
.Ltmp459:
	.loc	7 1573 5 is_stmt 0              @ c:/Keil_v5\ARM\PACK\Keil\STM32L5xx_DFP\1.3.0\Drivers\STM32L5xx_HAL_Driver\Src\stm32l5xx_hal_i2c.c:1573:5
	cmp	r0, #1
	bne	.LBB11_4
.Ltmp460:
.LBB11_3:
	@DEBUG_VALUE: HAL_I2C_Master_Transmit_IT:hi2c <- $r12
	@DEBUG_VALUE: HAL_I2C_Master_Transmit_IT:Size <- $r3
	@DEBUG_VALUE: HAL_I2C_Master_Transmit_IT:pData <- $r2
	@DEBUG_VALUE: HAL_I2C_Master_Transmit_IT:DevAddress <- $r1
	.loc	7 0 5                           @ c:/Keil_v5\ARM\PACK\Keil\STM32L5xx_DFP\1.3.0\Drivers\STM32L5xx_HAL_Driver\Src\stm32l5xx_hal_i2c.c:0:5
	movs	r0, #2
	.loc	7 1618 1 is_stmt 1              @ c:/Keil_v5\ARM\PACK\Keil\STM32L5xx_DFP\1.3.0\Drivers\STM32L5xx_HAL_Driver\Src\stm32l5xx_hal_i2c.c:1618:1
	pop	{r4, pc}
.Ltmp461:
	.p2align	2
.LBB11_4:
	@DEBUG_VALUE: HAL_I2C_Master_Transmit_IT:hi2c <- $r12
	@DEBUG_VALUE: HAL_I2C_Master_Transmit_IT:Size <- $r3
	@DEBUG_VALUE: HAL_I2C_Master_Transmit_IT:pData <- $r2
	@DEBUG_VALUE: HAL_I2C_Master_Transmit_IT:DevAddress <- $r1
	@DEBUG_VALUE: HAL_I2C_Master_Transmit_IT:Size <- $r3
	.loc	7 0 1 is_stmt 0                 @ c:/Keil_v5\ARM\PACK\Keil\STM32L5xx_DFP\1.3.0\Drivers\STM32L5xx_HAL_Driver\Src\stm32l5xx_hal_i2c.c:0:1
	movs	r0, #33
.Ltmp462:
	.loc	7 1575 23 is_stmt 1             @ c:/Keil_v5\ARM\PACK\Keil\STM32L5xx_DFP\1.3.0\Drivers\STM32L5xx_HAL_Driver\Src\stm32l5xx_hal_i2c.c:1575:23
	strb.w	r0, [r12, #65]
	movs	r0, #16
	.loc	7 1576 23                       @ c:/Keil_v5\ARM\PACK\Keil\STM32L5xx_DFP\1.3.0\Drivers\STM32L5xx_HAL_Driver\Src\stm32l5xx_hal_i2c.c:1576:23
	strb.w	r0, [r12, #66]
	movs	r0, #0
	.loc	7 1577 23                       @ c:/Keil_v5\ARM\PACK\Keil\STM32L5xx_DFP\1.3.0\Drivers\STM32L5xx_HAL_Driver\Src\stm32l5xx_hal_i2c.c:1577:23
	str.w	r0, [r12, #68]
	.loc	7 1580 23                       @ c:/Keil_v5\ARM\PACK\Keil\STM32L5xx_DFP\1.3.0\Drivers\STM32L5xx_HAL_Driver\Src\stm32l5xx_hal_i2c.c:1580:23
	str.w	r2, [r12, #36]
	movs	r2, #0
.Ltmp463:
	@DEBUG_VALUE: HAL_I2C_Master_Transmit_IT:pData <- [DW_OP_LLVM_entry_value 1] $r2
	.loc	7 0 23 is_stmt 0                @ c:/Keil_v5\ARM\PACK\Keil\STM32L5xx_DFP\1.3.0\Drivers\STM32L5xx_HAL_Driver\Src\stm32l5xx_hal_i2c.c:0:23
	movt	r2, #65535
	.loc	7 1581 23 is_stmt 1             @ c:/Keil_v5\ARM\PACK\Keil\STM32L5xx_DFP\1.3.0\Drivers\STM32L5xx_HAL_Driver\Src\stm32l5xx_hal_i2c.c:1581:23
	strh.w	r3, [r12, #42]
	.loc	7 1582 23                       @ c:/Keil_v5\ARM\PACK\Keil\STM32L5xx_DFP\1.3.0\Drivers\STM32L5xx_HAL_Driver\Src\stm32l5xx_hal_i2c.c:1582:23
	str.w	r2, [r12, #44]
	.loc	7 1583 23                       @ c:/Keil_v5\ARM\PACK\Keil\STM32L5xx_DFP\1.3.0\Drivers\STM32L5xx_HAL_Driver\Src\stm32l5xx_hal_i2c.c:1583:23
	movw	r2, :lower16:I2C_Master_ISR_IT
	movt	r2, :upper16:I2C_Master_ISR_IT
	str.w	r2, [r12, #52]
.Ltmp464:
	.loc	7 1585 15                       @ c:/Keil_v5\ARM\PACK\Keil\STM32L5xx_DFP\1.3.0\Drivers\STM32L5xx_HAL_Driver\Src\stm32l5xx_hal_i2c.c:1585:15
	ldrh.w	r2, [r12, #42]
.Ltmp465:
	.loc	7 6462 3                        @ c:/Keil_v5\ARM\PACK\Keil\STM32L5xx_DFP\1.3.0\Drivers\STM32L5xx_HAL_Driver\Src\stm32l5xx_hal_i2c.c:6462:3
	bfc	r1, #10, #22
.Ltmp466:
	.loc	7 1585 9                        @ c:/Keil_v5\ARM\PACK\Keil\STM32L5xx_DFP\1.3.0\Drivers\STM32L5xx_HAL_Driver\Src\stm32l5xx_hal_i2c.c:1585:9
	cmp	r2, #255
.Ltmp467:
	.loc	7 1592 30                       @ c:/Keil_v5\ARM\PACK\Keil\STM32L5xx_DFP\1.3.0\Drivers\STM32L5xx_HAL_Driver\Src\stm32l5xx_hal_i2c.c:1592:30
	ittee	ls
	ldrhls.w	r3, [r12, #42]
.Ltmp468:
	@DEBUG_VALUE: HAL_I2C_Master_Transmit_IT:Size <- [DW_OP_LLVM_entry_value 1] $r3
	.loc	7 0 30 is_stmt 0                @ c:/Keil_v5\ARM\PACK\Keil\STM32L5xx_DFP\1.3.0\Drivers\STM32L5xx_HAL_Driver\Src\stm32l5xx_hal_i2c.c:0:30
	movls.w	r2, #33554432
	movhi.w	r2, #16777216
	movhi	r3, #255
.Ltmp469:
	.loc	7 1587 22 is_stmt 1             @ c:/Keil_v5\ARM\PACK\Keil\STM32L5xx_DFP\1.3.0\Drivers\STM32L5xx_HAL_Driver\Src\stm32l5xx_hal_i2c.c:1587:22
	strh.w	r3, [r12, #40]
.Ltmp470:
	@DEBUG_VALUE: I2C_TransferConfig:Request <- -2147475456
	@DEBUG_VALUE: I2C_TransferConfig:Mode <- $r2
	@DEBUG_VALUE: I2C_TransferConfig:Size <- [DW_OP_LLVM_convert 16 7, DW_OP_LLVM_convert 8 7, DW_OP_stack_value] $r3
	@DEBUG_VALUE: I2C_TransferConfig:DevAddress <- $r1
	@DEBUG_VALUE: I2C_TransferConfig:hi2c <- undef
	@DEBUG_VALUE: HAL_I2C_Master_Transmit_IT:xfermode <- $r2
	.loc	7 6462 3                        @ c:/Keil_v5\ARM\PACK\Keil\STM32L5xx_DFP\1.3.0\Drivers\STM32L5xx_HAL_Driver\Src\stm32l5xx_hal_i2c.c:6462:3
	ldr.w	r4, [lr, #4]
	uxtb	r3, r3
.Ltmp471:
	orrs	r1, r2
.Ltmp472:
	.loc	7 0 3 is_stmt 0                 @ c:/Keil_v5\ARM\PACK\Keil\STM32L5xx_DFP\1.3.0\Drivers\STM32L5xx_HAL_Driver\Src\stm32l5xx_hal_i2c.c:0:3
	movw	r2, #38912
.Ltmp473:
	movt	r2, #31744
	.loc	7 6462 3                        @ c:/Keil_v5\ARM\PACK\Keil\STM32L5xx_DFP\1.3.0\Drivers\STM32L5xx_HAL_Driver\Src\stm32l5xx_hal_i2c.c:6462:3
	orr.w	r1, r1, r3, lsl #16
	ands	r2, r4
	orrs	r1, r2
	orr	r1, r1, #2147483648
	orr	r1, r1, #8192
	str.w	r1, [lr, #4]
.Ltmp474:
	.loc	7 1601 5 is_stmt 1              @ c:/Keil_v5\ARM\PACK\Keil\STM32L5xx_DFP\1.3.0\Drivers\STM32L5xx_HAL_Driver\Src\stm32l5xx_hal_i2c.c:1601:5
	strb.w	r0, [r12, #64]
.Ltmp475:
	@DEBUG_VALUE: I2C_Enable_IRQ:tmpisr <- 242
	@DEBUG_VALUE: I2C_Enable_IRQ:InterruptRequest <- 1
	@DEBUG_VALUE: I2C_Enable_IRQ:hi2c <- undef
	.loc	7 6537 3                        @ c:/Keil_v5\ARM\PACK\Keil\STM32L5xx_DFP\1.3.0\Drivers\STM32L5xx_HAL_Driver\Src\stm32l5xx_hal_i2c.c:6537:3
	ldr.w	r1, [lr]
	orr	r1, r1, #242
	str.w	r1, [lr]
.Ltmp476:
	.loc	7 1618 1                        @ c:/Keil_v5\ARM\PACK\Keil\STM32L5xx_DFP\1.3.0\Drivers\STM32L5xx_HAL_Driver\Src\stm32l5xx_hal_i2c.c:1618:1
	pop	{r4, pc}
.Ltmp477:
.Lfunc_end11:
	.size	HAL_I2C_Master_Transmit_IT, .Lfunc_end11-HAL_I2C_Master_Transmit_IT
	.cfi_endproc
	.cantunwind
	.fnend
                                        @ -- End function
	.section	.text.I2C_Master_ISR_IT,"ax",%progbits
	.p2align	2                               @ -- Begin function I2C_Master_ISR_IT
	.type	I2C_Master_ISR_IT,%function
	.code	16                              @ @I2C_Master_ISR_IT
	.thumb_func
I2C_Master_ISR_IT:
.Lfunc_begin12:
	.loc	7 4632 0                        @ c:/Keil_v5\ARM\PACK\Keil\STM32L5xx_DFP\1.3.0\Drivers\STM32L5xx_HAL_Driver\Src\stm32l5xx_hal_i2c.c:4632:0
	.fnstart
	.cfi_startproc
@ %bb.0:
	@DEBUG_VALUE: I2C_Master_ISR_IT:hi2c <- $r0
	@DEBUG_VALUE: I2C_Master_ISR_IT:ITFlags <- $r1
	@DEBUG_VALUE: I2C_Master_ISR_IT:ITSources <- $r2
	.save	{r4, r5, r6, lr}
	push	{r4, r5, r6, lr}
	.cfi_def_cfa_offset 16
	.cfi_offset lr, -4
	.cfi_offset r6, -8
	.cfi_offset r5, -12
	.cfi_offset r4, -16
.Ltmp478:
	@DEBUG_VALUE: I2C_Master_ISR_IT:tmpITFlags <- $r1
	mov	r4, r0
.Ltmp479:
	@DEBUG_VALUE: I2C_Master_ISR_IT:hi2c <- $r4
	.loc	7 4637 3 prologue_end           @ c:/Keil_v5\ARM\PACK\Keil\STM32L5xx_DFP\1.3.0\Drivers\STM32L5xx_HAL_Driver\Src\stm32l5xx_hal_i2c.c:4637:3
	ldrb.w	r0, [r0, #64]
.Ltmp480:
	@DEBUG_VALUE: I2C_Master_ISR_IT:ITSources <- $r2
	.loc	7 4637 3 is_stmt 0              @ c:/Keil_v5\ARM\PACK\Keil\STM32L5xx_DFP\1.3.0\Drivers\STM32L5xx_HAL_Driver\Src\stm32l5xx_hal_i2c.c:4637:3
	cmp	r0, #1
	@DEBUG_VALUE: I2C_Master_ISR_IT:tmpITFlags <- $r1
	@DEBUG_VALUE: I2C_Master_ISR_IT:ITFlags <- $r1
	itt	eq
	moveq	r0, #2
.Ltmp481:
	.loc	7 4758 1 is_stmt 1              @ c:/Keil_v5\ARM\PACK\Keil\STM32L5xx_DFP\1.3.0\Drivers\STM32L5xx_HAL_Driver\Src\stm32l5xx_hal_i2c.c:4758:1
	popeq	{r4, r5, r6, pc}
.Ltmp482:
.LBB12_1:
	@DEBUG_VALUE: I2C_Master_ISR_IT:ITSources <- $r2
	@DEBUG_VALUE: I2C_Master_ISR_IT:tmpITFlags <- $r1
	@DEBUG_VALUE: I2C_Master_ISR_IT:ITFlags <- $r1
