	.text
	.syntax unified
	.eabi_attribute	67, "2.09"	@ Tag_conformance
	.cpu	cortex-m33
	.eabi_attribute	6, 17	@ Tag_CPU_arch
	.eabi_attribute	7, 77	@ Tag_CPU_arch_profile
	.eabi_attribute	8, 0	@ Tag_ARM_ISA_use
	.eabi_attribute	9, 3	@ Tag_THUMB_ISA_use
	.fpu	fpv5-sp-d16
	.eabi_attribute	27, 1	@ Tag_ABI_HardFP_use
	.eabi_attribute	36, 1	@ Tag_FP_HP_extension
	.eabi_attribute	46, 1	@ Tag_DSP_extension
	.eabi_attribute	34, 1	@ Tag_CPU_unaligned_access
	.eabi_attribute	17, 1	@ Tag_ABI_PCS_GOT_use
	.eabi_attribute	20, 2	@ Tag_ABI_FP_denormal
	.eabi_attribute	21, 0	@ Tag_ABI_FP_exceptions
	.eabi_attribute	23, 1	@ Tag_ABI_FP_number_model
	.eabi_attribute	24, 1	@ Tag_ABI_align_needed
	.eabi_attribute	25, 1	@ Tag_ABI_align_preserved
	.eabi_attribute	28, 1	@ Tag_ABI_VFP_args
	.eabi_attribute	38, 1	@ Tag_ABI_FP_16bit_format
	.eabi_attribute	18, 2	@ Tag_ABI_PCS_wchar_t
	.eabi_attribute	26, 1	@ Tag_ABI_enum_size
	.eabi_attribute	14, 0	@ Tag_ABI_PCS_R9_use
	.file	"stm32l5xx_hal.c"
	.file	1 "c:\\Keil_v5\\ARM\\ARMCLANG\\Bin\\..\\include" "stdint.h"
	.file	2 "c:/Keil_v5\\ARM\\PACK\\Keil\\STM32L5xx_DFP\\1.3.0\\Drivers\\STM32L5xx_HAL_Driver\\Src" "stm32l5xx_hal.c"
	.file	3 "c:/Keil_v5\\ARM\\PACK\\Keil\\STM32L5xx_DFP\\1.3.0\\Drivers\\STM32L5xx_HAL_Driver\\Inc" "stm32l5xx_hal.h"
	.file	4 "c:/Keil_v5\\ARM\\PACK\\Keil\\STM32L5xx_DFP\\1.3.0\\Drivers\\STM32L5xx_HAL_Driver\\Inc" "stm32l5xx_hal_def.h"
	.file	5 "c:/Keil_v5\\ARM\\PACK\\Keil\\STM32L5xx_DFP\\1.3.0\\Drivers\\CMSIS\\Device\\ST\\STM32L5xx\\Include" "stm32l552xx.h"
	.file	6 "c:/Keil_v5\\ARM\\PACK\\ARM\\CMSIS\\5.8.0\\CMSIS\\Core\\Include" "core_cm33.h"
	.section	.text.HAL_Init,"ax",%progbits
	.hidden	HAL_Init                        @ -- Begin function HAL_Init
	.globl	HAL_Init
	.p2align	2
	.type	HAL_Init,%function
	.code	16                              @ @HAL_Init
	.thumb_func
HAL_Init:
.Lfunc_begin0:
	.loc	2 140 0                         @ c:/Keil_v5\ARM\PACK\Keil\STM32L5xx_DFP\1.3.0\Drivers\STM32L5xx_HAL_Driver\Src\stm32l5xx_hal.c:140:0
	.fnstart
	.cfi_sections .debug_frame
	.cfi_startproc
@ %bb.0:
	.save	{r7, lr}
	push	{r7, lr}
	.cfi_def_cfa_offset 8
	.cfi_offset lr, -4
	.cfi_offset r7, -8
.Ltmp0:
	@DEBUG_VALUE: HAL_Init:status <- 0
	.loc	2 144 3 prologue_end            @ c:/Keil_v5\ARM\PACK\Keil\STM32L5xx_DFP\1.3.0\Drivers\STM32L5xx_HAL_Driver\Src\stm32l5xx_hal.c:144:3
	movs	r0, #4
	bl	HAL_NVIC_SetPriorityGrouping
	.loc	2 147 3                         @ c:/Keil_v5\ARM\PACK\Keil\STM32L5xx_DFP\1.3.0\Drivers\STM32L5xx_HAL_Driver\Src\stm32l5xx_hal.c:147:3
	bl	SystemCoreClockUpdate
.Ltmp1:
	.loc	2 150 7                         @ c:/Keil_v5\ARM\PACK\Keil\STM32L5xx_DFP\1.3.0\Drivers\STM32L5xx_HAL_Driver\Src\stm32l5xx_hal.c:150:7
	movs	r0, #7
	bl	HAL_InitTick
.Ltmp2:
	.loc	2 150 7 is_stmt 0               @ c:/Keil_v5\ARM\PACK\Keil\STM32L5xx_DFP\1.3.0\Drivers\STM32L5xx_HAL_Driver\Src\stm32l5xx_hal.c:150:7
	cmp	r0, #0
	itt	ne
	movne	r0, #1
.Ltmp3:
	@DEBUG_VALUE: HAL_Init:status <- $r0
	.loc	2 161 3 is_stmt 1               @ c:/Keil_v5\ARM\PACK\Keil\STM32L5xx_DFP\1.3.0\Drivers\STM32L5xx_HAL_Driver\Src\stm32l5xx_hal.c:161:3
	popne	{r7, pc}
.Ltmp4:
.LBB0_1:
	@DEBUG_VALUE: HAL_Init:status <- $r0
	.loc	2 157 5                         @ c:/Keil_v5\ARM\PACK\Keil\STM32L5xx_DFP\1.3.0\Drivers\STM32L5xx_HAL_Driver\Src\stm32l5xx_hal.c:157:5
	bl	HAL_MspInit
.Ltmp5:
	.loc	2 0 5 is_stmt 0                 @ c:/Keil_v5\ARM\PACK\Keil\STM32L5xx_DFP\1.3.0\Drivers\STM32L5xx_HAL_Driver\Src\stm32l5xx_hal.c:0:5
	movs	r0, #0
.Ltmp6:
	@DEBUG_VALUE: HAL_Init:status <- $r0
	.loc	2 161 3 is_stmt 1               @ c:/Keil_v5\ARM\PACK\Keil\STM32L5xx_DFP\1.3.0\Drivers\STM32L5xx_HAL_Driver\Src\stm32l5xx_hal.c:161:3
	pop	{r7, pc}
.Ltmp7:
.Lfunc_end0:
	.size	HAL_Init, .Lfunc_end0-HAL_Init
	.cfi_endproc
	.cantunwind
	.fnend
                                        @ -- End function
	.section	.text.HAL_InitTick,"ax",%progbits
	.hidden	HAL_InitTick                    @ -- Begin function HAL_InitTick
	.weak	HAL_InitTick
	.p2align	2
	.type	HAL_InitTick,%function
	.code	16                              @ @HAL_InitTick
	.thumb_func
HAL_InitTick:
.Lfunc_begin1:
	.loc	2 233 0                         @ c:/Keil_v5\ARM\PACK\Keil\STM32L5xx_DFP\1.3.0\Drivers\STM32L5xx_HAL_Driver\Src\stm32l5xx_hal.c:233:0
	.fnstart
	.cfi_startproc
@ %bb.0:
	@DEBUG_VALUE: HAL_InitTick:TickPriority <- $r0
	.save	{r4, r5, r6, lr}
	push	{r4, r5, r6, lr}
	.cfi_def_cfa_offset 16
	.cfi_offset lr, -4
	.cfi_offset r6, -8
	.cfi_offset r5, -12
	.cfi_offset r4, -16
.Ltmp8:
	.loc	2 237 17 prologue_end           @ c:/Keil_v5\ARM\PACK\Keil\STM32L5xx_DFP\1.3.0\Drivers\STM32L5xx_HAL_Driver\Src\stm32l5xx_hal.c:237:17
	movw	r6, :lower16:.L_MergedGlobals
	movt	r6, :upper16:.L_MergedGlobals
	ldrb	r1, [r6]
.Ltmp9:
	@DEBUG_VALUE: HAL_InitTick:status <- 0
	@DEBUG_VALUE: HAL_InitTick:TickPriority <- $r0
	.loc	2 237 7 is_stmt 0               @ c:/Keil_v5\ARM\PACK\Keil\STM32L5xx_DFP\1.3.0\Drivers\STM32L5xx_HAL_Driver\Src\stm32l5xx_hal.c:237:7
	cbz	r1, .LBB1_5
.Ltmp10:
@ %bb.1:
	@DEBUG_VALUE: HAL_InitTick:TickPriority <- $r0
	@DEBUG_VALUE: HAL_InitTick:status <- 0
	.loc	2 0 7                           @ c:/Keil_v5\ARM\PACK\Keil\STM32L5xx_DFP\1.3.0\Drivers\STM32L5xx_HAL_Driver\Src\stm32l5xx_hal.c:0:7
	mov	r4, r0
.Ltmp11:
	@DEBUG_VALUE: HAL_InitTick:TickPriority <- $r4
	@DEBUG_VALUE: HAL_InitTick:TickPriority <- $r4
	.loc	2 240 28 is_stmt 1              @ c:/Keil_v5\ARM\PACK\Keil\STM32L5xx_DFP\1.3.0\Drivers\STM32L5xx_HAL_Driver\Src\stm32l5xx_hal.c:240:28
	movw	r0, :lower16:SystemCoreClock
	movt	r0, :upper16:SystemCoreClock
	mov.w	r2, #1000
	ldr	r0, [r0]
	.loc	2 240 53 is_stmt 0              @ c:/Keil_v5\ARM\PACK\Keil\STM32L5xx_DFP\1.3.0\Drivers\STM32L5xx_HAL_Driver\Src\stm32l5xx_hal.c:240:53
	udiv	r1, r2, r1
	.loc	2 240 44                        @ c:/Keil_v5\ARM\PACK\Keil\STM32L5xx_DFP\1.3.0\Drivers\STM32L5xx_HAL_Driver\Src\stm32l5xx_hal.c:240:44
	udiv	r0, r0, r1
	.loc	2 240 9                         @ c:/Keil_v5\ARM\PACK\Keil\STM32L5xx_DFP\1.3.0\Drivers\STM32L5xx_HAL_Driver\Src\stm32l5xx_hal.c:240:9
	bl	HAL_SYSTICK_Config
.Ltmp12:
	.loc	2 240 9                         @ c:/Keil_v5\ARM\PACK\Keil\STM32L5xx_DFP\1.3.0\Drivers\STM32L5xx_HAL_Driver\Src\stm32l5xx_hal.c:240:9
	cmp	r4, #7
	mov.w	r5, #1
	bhi	.LBB1_4
.Ltmp13:
@ %bb.2:
	@DEBUG_VALUE: HAL_InitTick:TickPriority <- $r4
	@DEBUG_VALUE: HAL_InitTick:status <- 0
	cbnz	r0, .LBB1_4
.Ltmp14:
@ %bb.3:
	@DEBUG_VALUE: HAL_InitTick:TickPriority <- $r4
	@DEBUG_VALUE: HAL_InitTick:status <- 0
	.loc	2 245 9 is_stmt 1               @ c:/Keil_v5\ARM\PACK\Keil\STM32L5xx_DFP\1.3.0\Drivers\STM32L5xx_HAL_Driver\Src\stm32l5xx_hal.c:245:9
	mov.w	r0, #-1
	mov	r1, r4
	movs	r2, #0
	movs	r5, #0
	bl	HAL_NVIC_SetPriority
	.loc	2 246 20                        @ c:/Keil_v5\ARM\PACK\Keil\STM32L5xx_DFP\1.3.0\Drivers\STM32L5xx_HAL_Driver\Src\stm32l5xx_hal.c:246:20
	str	r4, [r6, #4]
.Ltmp15:
.LBB1_4:
	@DEBUG_VALUE: HAL_InitTick:TickPriority <- $r4
	@DEBUG_VALUE: HAL_InitTick:status <- 0
	@DEBUG_VALUE: HAL_InitTick:status <- $r5
	.loc	2 264 3                         @ c:/Keil_v5\ARM\PACK\Keil\STM32L5xx_DFP\1.3.0\Drivers\STM32L5xx_HAL_Driver\Src\stm32l5xx_hal.c:264:3
	mov	r0, r5
	pop	{r4, r5, r6, pc}
.Ltmp16:
	.p2align	2
.LBB1_5:
	@DEBUG_VALUE: HAL_InitTick:TickPriority <- $r0
	@DEBUG_VALUE: HAL_InitTick:status <- 0
	.loc	2 0 3 is_stmt 0                 @ c:/Keil_v5\ARM\PACK\Keil\STM32L5xx_DFP\1.3.0\Drivers\STM32L5xx_HAL_Driver\Src\stm32l5xx_hal.c:0:3
	movs	r5, #1
.Ltmp17:
	@DEBUG_VALUE: HAL_InitTick:status <- $r5
	.loc	2 264 3                         @ c:/Keil_v5\ARM\PACK\Keil\STM32L5xx_DFP\1.3.0\Drivers\STM32L5xx_HAL_Driver\Src\stm32l5xx_hal.c:264:3
	mov	r0, r5
.Ltmp18:
	@DEBUG_VALUE: HAL_InitTick:TickPriority <- [DW_OP_LLVM_entry_value 1] $r0
	pop	{r4, r5, r6, pc}
.Ltmp19:
.Lfunc_end1:
	.size	HAL_InitTick, .Lfunc_end1-HAL_InitTick
	.cfi_endproc
	.cantunwind
	.fnend
                                        @ -- End function
	.section	.text.HAL_MspInit,"ax",%progbits
	.hidden	HAL_MspInit                     @ -- Begin function HAL_MspInit
	.weak	HAL_MspInit
	.p2align	2
	.type	HAL_MspInit,%function
	.code	16                              @ @HAL_MspInit
	.thumb_func
HAL_MspInit:
.Lfunc_begin2:
	.loc	2 199 0 is_stmt 1               @ c:/Keil_v5\ARM\PACK\Keil\STM32L5xx_DFP\1.3.0\Drivers\STM32L5xx_HAL_Driver\Src\stm32l5xx_hal.c:199:0
	.fnstart
	.cfi_startproc
@ %bb.0:
	.loc	2 203 1 prologue_end            @ c:/Keil_v5\ARM\PACK\Keil\STM32L5xx_DFP\1.3.0\Drivers\STM32L5xx_HAL_Driver\Src\stm32l5xx_hal.c:203:1
	bx	lr
.Ltmp20:
.Lfunc_end2:
	.size	HAL_MspInit, .Lfunc_end2-HAL_MspInit
	.cfi_endproc
	.cantunwind
	.fnend
                                        @ -- End function
	.section	.text.HAL_DeInit,"ax",%progbits
	.hidden	HAL_DeInit                      @ -- Begin function HAL_DeInit
	.globl	HAL_DeInit
	.p2align	2
	.type	HAL_DeInit,%function
	.code	16                              @ @HAL_DeInit
	.thumb_func
HAL_DeInit:
.Lfunc_begin3:
	.loc	2 170 0                         @ c:/Keil_v5\ARM\PACK\Keil\STM32L5xx_DFP\1.3.0\Drivers\STM32L5xx_HAL_Driver\Src\stm32l5xx_hal.c:170:0
	.fnstart
	.cfi_startproc
@ %bb.0:
	.save	{r7, lr}
	push	{r7, lr}
	.cfi_def_cfa_offset 8
	.cfi_offset lr, -4
	.cfi_offset r7, -8
	movw	r0, #4136
	movt	r0, #16386
	mov.w	r1, #-1
	movs	r2, #0
.Ltmp21:
	.loc	2 172 3 prologue_end            @ c:/Keil_v5\ARM\PACK\Keil\STM32L5xx_DFP\1.3.0\Drivers\STM32L5xx_HAL_Driver\Src\stm32l5xx_hal.c:172:3
	str	r1, [r0, #16]
	str	r1, [r0, #20]
.Ltmp22:
	.loc	2 173 3                         @ c:/Keil_v5\ARM\PACK\Keil\STM32L5xx_DFP\1.3.0\Drivers\STM32L5xx_HAL_Driver\Src\stm32l5xx_hal.c:173:3
	str	r2, [r0, #16]
	str	r2, [r0, #20]
.Ltmp23:
	.loc	2 175 3                         @ c:/Keil_v5\ARM\PACK\Keil\STM32L5xx_DFP\1.3.0\Drivers\STM32L5xx_HAL_Driver\Src\stm32l5xx_hal.c:175:3
	str	r1, [r0, #24]
	.loc	2 176 3                         @ c:/Keil_v5\ARM\PACK\Keil\STM32L5xx_DFP\1.3.0\Drivers\STM32L5xx_HAL_Driver\Src\stm32l5xx_hal.c:176:3
	str	r2, [r0, #24]
	.loc	2 178 3                         @ c:/Keil_v5\ARM\PACK\Keil\STM32L5xx_DFP\1.3.0\Drivers\STM32L5xx_HAL_Driver\Src\stm32l5xx_hal.c:178:3
	str	r1, [r0]
	.loc	2 179 3                         @ c:/Keil_v5\ARM\PACK\Keil\STM32L5xx_DFP\1.3.0\Drivers\STM32L5xx_HAL_Driver\Src\stm32l5xx_hal.c:179:3
	str	r2, [r0]
	.loc	2 181 3                         @ c:/Keil_v5\ARM\PACK\Keil\STM32L5xx_DFP\1.3.0\Drivers\STM32L5xx_HAL_Driver\Src\stm32l5xx_hal.c:181:3
	str	r1, [r0, #4]
	.loc	2 182 3                         @ c:/Keil_v5\ARM\PACK\Keil\STM32L5xx_DFP\1.3.0\Drivers\STM32L5xx_HAL_Driver\Src\stm32l5xx_hal.c:182:3
	str	r2, [r0, #4]
	.loc	2 184 3                         @ c:/Keil_v5\ARM\PACK\Keil\STM32L5xx_DFP\1.3.0\Drivers\STM32L5xx_HAL_Driver\Src\stm32l5xx_hal.c:184:3
	str	r1, [r0, #8]
	.loc	2 185 3                         @ c:/Keil_v5\ARM\PACK\Keil\STM32L5xx_DFP\1.3.0\Drivers\STM32L5xx_HAL_Driver\Src\stm32l5xx_hal.c:185:3
	str	r2, [r0, #8]
	.loc	2 188 3                         @ c:/Keil_v5\ARM\PACK\Keil\STM32L5xx_DFP\1.3.0\Drivers\STM32L5xx_HAL_Driver\Src\stm32l5xx_hal.c:188:3
	bl	HAL_MspDeInit
	.loc	2 191 3                         @ c:/Keil_v5\ARM\PACK\Keil\STM32L5xx_DFP\1.3.0\Drivers\STM32L5xx_HAL_Driver\Src\stm32l5xx_hal.c:191:3
	movs	r0, #0
	pop	{r7, pc}
.Ltmp24:
.Lfunc_end3:
	.size	HAL_DeInit, .Lfunc_end3-HAL_DeInit
	.cfi_endproc
	.cantunwind
	.fnend
                                        @ -- End function
	.section	.text.HAL_MspDeInit,"ax",%progbits
	.hidden	HAL_MspDeInit                   @ -- Begin function HAL_MspDeInit
	.weak	HAL_MspDeInit
	.p2align	2
	.type	HAL_MspDeInit,%function
	.code	16                              @ @HAL_MspDeInit
	.thumb_func
HAL_MspDeInit:
.Lfunc_begin4:
	.loc	2 210 0                         @ c:/Keil_v5\ARM\PACK\Keil\STM32L5xx_DFP\1.3.0\Drivers\STM32L5xx_HAL_Driver\Src\stm32l5xx_hal.c:210:0
	.fnstart
	.cfi_startproc
@ %bb.0:
	.loc	2 214 1 prologue_end            @ c:/Keil_v5\ARM\PACK\Keil\STM32L5xx_DFP\1.3.0\Drivers\STM32L5xx_HAL_Driver\Src\stm32l5xx_hal.c:214:1
	bx	lr
.Ltmp25:
.Lfunc_end4:
	.size	HAL_MspDeInit, .Lfunc_end4-HAL_MspDeInit
	.cfi_endproc
	.cantunwind
	.fnend
                                        @ -- End function
	.section	.text.HAL_IncTick,"ax",%progbits
	.hidden	HAL_IncTick                     @ -- Begin function HAL_IncTick
	.weak	HAL_IncTick
	.p2align	2
	.type	HAL_IncTick,%function
	.code	16                              @ @HAL_IncTick
	.thumb_func
HAL_IncTick:
.Lfunc_begin5:
	.loc	2 301 0                         @ c:/Keil_v5\ARM\PACK\Keil\STM32L5xx_DFP\1.3.0\Drivers\STM32L5xx_HAL_Driver\Src\stm32l5xx_hal.c:301:0
	.fnstart
	.cfi_startproc
@ %bb.0:
	.loc	2 302 23 prologue_end           @ c:/Keil_v5\ARM\PACK\Keil\STM32L5xx_DFP\1.3.0\Drivers\STM32L5xx_HAL_Driver\Src\stm32l5xx_hal.c:302:23
	movw	r0, :lower16:.L_MergedGlobals
	.loc	2 302 10 is_stmt 0              @ c:/Keil_v5\ARM\PACK\Keil\STM32L5xx_DFP\1.3.0\Drivers\STM32L5xx_HAL_Driver\Src\stm32l5xx_hal.c:302:10
	movw	r1, :lower16:uwTick
	.loc	2 302 23                        @ c:/Keil_v5\ARM\PACK\Keil\STM32L5xx_DFP\1.3.0\Drivers\STM32L5xx_HAL_Driver\Src\stm32l5xx_hal.c:302:23
	movt	r0, :upper16:.L_MergedGlobals
	.loc	2 302 10                        @ c:/Keil_v5\ARM\PACK\Keil\STM32L5xx_DFP\1.3.0\Drivers\STM32L5xx_HAL_Driver\Src\stm32l5xx_hal.c:302:10
	movt	r1, :upper16:uwTick
	.loc	2 302 23                        @ c:/Keil_v5\ARM\PACK\Keil\STM32L5xx_DFP\1.3.0\Drivers\STM32L5xx_HAL_Driver\Src\stm32l5xx_hal.c:302:23
	ldrb	r0, [r0]
	.loc	2 302 10                        @ c:/Keil_v5\ARM\PACK\Keil\STM32L5xx_DFP\1.3.0\Drivers\STM32L5xx_HAL_Driver\Src\stm32l5xx_hal.c:302:10
	ldr	r2, [r1]
	add	r0, r2
	str	r0, [r1]
	.loc	2 303 1 is_stmt 1               @ c:/Keil_v5\ARM\PACK\Keil\STM32L5xx_DFP\1.3.0\Drivers\STM32L5xx_HAL_Driver\Src\stm32l5xx_hal.c:303:1
	bx	lr
.Ltmp26:
.Lfunc_end5:
	.size	HAL_IncTick, .Lfunc_end5-HAL_IncTick
	.cfi_endproc
	.cantunwind
	.fnend
                                        @ -- End function
	.section	.text.HAL_GetTick,"ax",%progbits
	.hidden	HAL_GetTick                     @ -- Begin function HAL_GetTick
	.weak	HAL_GetTick
	.p2align	2
	.type	HAL_GetTick,%function
	.code	16                              @ @HAL_GetTick
	.thumb_func
HAL_GetTick:
.Lfunc_begin6:
	.loc	2 312 0                         @ c:/Keil_v5\ARM\PACK\Keil\STM32L5xx_DFP\1.3.0\Drivers\STM32L5xx_HAL_Driver\Src\stm32l5xx_hal.c:312:0
	.fnstart
	.cfi_startproc
@ %bb.0:
	.loc	2 313 10 prologue_end           @ c:/Keil_v5\ARM\PACK\Keil\STM32L5xx_DFP\1.3.0\Drivers\STM32L5xx_HAL_Driver\Src\stm32l5xx_hal.c:313:10
	movw	r0, :lower16:uwTick
	movt	r0, :upper16:uwTick
	ldr	r0, [r0]
	.loc	2 313 3 is_stmt 0               @ c:/Keil_v5\ARM\PACK\Keil\STM32L5xx_DFP\1.3.0\Drivers\STM32L5xx_HAL_Driver\Src\stm32l5xx_hal.c:313:3
	bx	lr
.Ltmp27:
.Lfunc_end6:
	.size	HAL_GetTick, .Lfunc_end6-HAL_GetTick
	.cfi_endproc
	.cantunwind
	.fnend
                                        @ -- End function
	.section	.text.HAL_GetTickPrio,"ax",%progbits
	.hidden	HAL_GetTickPrio                 @ -- Begin function HAL_GetTickPrio
	.globl	HAL_GetTickPrio
	.p2align	2
	.type	HAL_GetTickPrio,%function
	.code	16                              @ @HAL_GetTickPrio
	.thumb_func
HAL_GetTickPrio:
.Lfunc_begin7:
	.loc	2 321 0 is_stmt 1               @ c:/Keil_v5\ARM\PACK\Keil\STM32L5xx_DFP\1.3.0\Drivers\STM32L5xx_HAL_Driver\Src\stm32l5xx_hal.c:321:0
	.fnstart
	.cfi_startproc
@ %bb.0:
	.loc	2 322 10 prologue_end           @ c:/Keil_v5\ARM\PACK\Keil\STM32L5xx_DFP\1.3.0\Drivers\STM32L5xx_HAL_Driver\Src\stm32l5xx_hal.c:322:10
	movw	r0, :lower16:.L_MergedGlobals
	movt	r0, :upper16:.L_MergedGlobals
	ldr	r0, [r0, #4]
	.loc	2 322 3 is_stmt 0               @ c:/Keil_v5\ARM\PACK\Keil\STM32L5xx_DFP\1.3.0\Drivers\STM32L5xx_HAL_Driver\Src\stm32l5xx_hal.c:322:3
	bx	lr
.Ltmp28:
.Lfunc_end7:
	.size	HAL_GetTickPrio, .Lfunc_end7-HAL_GetTickPrio
	.cfi_endproc
	.cantunwind
	.fnend
                                        @ -- End function
	.section	.text.HAL_SetTickFreq,"ax",%progbits
	.hidden	HAL_SetTickFreq                 @ -- Begin function HAL_SetTickFreq
	.globl	HAL_SetTickFreq
	.p2align	2
	.type	HAL_SetTickFreq,%function
	.code	16                              @ @HAL_SetTickFreq
	.thumb_func
HAL_SetTickFreq:
.Lfunc_begin8:
	.loc	2 331 0 is_stmt 1               @ c:/Keil_v5\ARM\PACK\Keil\STM32L5xx_DFP\1.3.0\Drivers\STM32L5xx_HAL_Driver\Src\stm32l5xx_hal.c:331:0
	.fnstart
	.cfi_startproc
@ %bb.0:
	@DEBUG_VALUE: HAL_SetTickFreq:Freq <- $r0
	.save	{r4, r5, r7, lr}
	push	{r4, r5, r7, lr}
	.cfi_def_cfa_offset 16
	.cfi_offset lr, -4
	.cfi_offset r7, -8
	.cfi_offset r5, -12
	.cfi_offset r4, -16
.Ltmp29:
	.loc	2 335 7 prologue_end            @ c:/Keil_v5\ARM\PACK\Keil\STM32L5xx_DFP\1.3.0\Drivers\STM32L5xx_HAL_Driver\Src\stm32l5xx_hal.c:335:7
	movw	r4, :lower16:.L_MergedGlobals
	movt	r4, :upper16:.L_MergedGlobals
	ldrb	r5, [r4]
.Ltmp30:
	@DEBUG_VALUE: HAL_SetTickFreq:status <- 0
	@DEBUG_VALUE: HAL_SetTickFreq:Freq <- $r0
	.loc	2 335 7 is_stmt 0               @ c:/Keil_v5\ARM\PACK\Keil\STM32L5xx_DFP\1.3.0\Drivers\STM32L5xx_HAL_Driver\Src\stm32l5xx_hal.c:335:7
	cmp	r5, r0
	beq	.LBB8_2
.Ltmp31:
@ %bb.1:
	@DEBUG_VALUE: HAL_SetTickFreq:Freq <- $r0
	@DEBUG_VALUE: HAL_SetTickFreq:status <- 0
	@DEBUG_VALUE: HAL_SetTickFreq:prevTickFreq <- $r5
	.loc	2 344 27 is_stmt 1              @ c:/Keil_v5\ARM\PACK\Keil\STM32L5xx_DFP\1.3.0\Drivers\STM32L5xx_HAL_Driver\Src\stm32l5xx_hal.c:344:27
	ldr	r1, [r4, #4]
	.loc	2 341 16                        @ c:/Keil_v5\ARM\PACK\Keil\STM32L5xx_DFP\1.3.0\Drivers\STM32L5xx_HAL_Driver\Src\stm32l5xx_hal.c:341:16
	strb	r0, [r4]
	.loc	2 344 14                        @ c:/Keil_v5\ARM\PACK\Keil\STM32L5xx_DFP\1.3.0\Drivers\STM32L5xx_HAL_Driver\Src\stm32l5xx_hal.c:344:14
	mov	r0, r1
.Ltmp32:
	@DEBUG_VALUE: HAL_SetTickFreq:Freq <- [DW_OP_LLVM_entry_value 1] $r0
	bl	HAL_InitTick
.Ltmp33:
	@DEBUG_VALUE: HAL_SetTickFreq:status <- $r0
	.loc	2 345 9                         @ c:/Keil_v5\ARM\PACK\Keil\STM32L5xx_DFP\1.3.0\Drivers\STM32L5xx_HAL_Driver\Src\stm32l5xx_hal.c:345:9
	cmp	r0, #0
	@DEBUG_VALUE: HAL_SetTickFreq:prevTickFreq <- $r5
.Ltmp34:
	.loc	2 348 18                        @ c:/Keil_v5\ARM\PACK\Keil\STM32L5xx_DFP\1.3.0\Drivers\STM32L5xx_HAL_Driver\Src\stm32l5xx_hal.c:348:18
	itt	ne
	strbne	r5, [r4]
.Ltmp35:
	@DEBUG_VALUE: HAL_SetTickFreq:status <- $r0
	.loc	2 352 3                         @ c:/Keil_v5\ARM\PACK\Keil\STM32L5xx_DFP\1.3.0\Drivers\STM32L5xx_HAL_Driver\Src\stm32l5xx_hal.c:352:3
	popne	{r4, r5, r7, pc}
.Ltmp36:
.LBB8_2:
	.loc	2 0 3 is_stmt 0                 @ c:/Keil_v5\ARM\PACK\Keil\STM32L5xx_DFP\1.3.0\Drivers\STM32L5xx_HAL_Driver\Src\stm32l5xx_hal.c:0:3
	movs	r0, #0
.Ltmp37:
	@DEBUG_VALUE: HAL_SetTickFreq:status <- $r0
	.loc	2 352 3                         @ c:/Keil_v5\ARM\PACK\Keil\STM32L5xx_DFP\1.3.0\Drivers\STM32L5xx_HAL_Driver\Src\stm32l5xx_hal.c:352:3
	pop	{r4, r5, r7, pc}
.Ltmp38:
.Lfunc_end8:
	.size	HAL_SetTickFreq, .Lfunc_end8-HAL_SetTickFreq
	.cfi_endproc
	.cantunwind
	.fnend
                                        @ -- End function
	.section	.text.HAL_GetTickFreq,"ax",%progbits
	.hidden	HAL_GetTickFreq                 @ -- Begin function HAL_GetTickFreq
	.globl	HAL_GetTickFreq
	.p2align	2
	.type	HAL_GetTickFreq,%function
	.code	16                              @ @HAL_GetTickFreq
	.thumb_func
HAL_GetTickFreq:
.Lfunc_begin9:
	.loc	2 360 0 is_stmt 1               @ c:/Keil_v5\ARM\PACK\Keil\STM32L5xx_DFP\1.3.0\Drivers\STM32L5xx_HAL_Driver\Src\stm32l5xx_hal.c:360:0
	.fnstart
	.cfi_startproc
@ %bb.0:
	.loc	2 361 10 prologue_end           @ c:/Keil_v5\ARM\PACK\Keil\STM32L5xx_DFP\1.3.0\Drivers\STM32L5xx_HAL_Driver\Src\stm32l5xx_hal.c:361:10
	movw	r0, :lower16:.L_MergedGlobals
	movt	r0, :upper16:.L_MergedGlobals
	ldrb	r0, [r0]
	.loc	2 361 3 is_stmt 0               @ c:/Keil_v5\ARM\PACK\Keil\STM32L5xx_DFP\1.3.0\Drivers\STM32L5xx_HAL_Driver\Src\stm32l5xx_hal.c:361:3
	bx	lr
.Ltmp39:
.Lfunc_end9:
	.size	HAL_GetTickFreq, .Lfunc_end9-HAL_GetTickFreq
	.cfi_endproc
	.cantunwind
	.fnend
                                        @ -- End function
	.section	.text.HAL_Delay,"ax",%progbits
	.hidden	HAL_Delay                       @ -- Begin function HAL_Delay
	.weak	HAL_Delay
	.p2align	2
	.type	HAL_Delay,%function
	.code	16                              @ @HAL_Delay
	.thumb_func
HAL_Delay:
.Lfunc_begin10:
	.loc	2 376 0 is_stmt 1               @ c:/Keil_v5\ARM\PACK\Keil\STM32L5xx_DFP\1.3.0\Drivers\STM32L5xx_HAL_Driver\Src\stm32l5xx_hal.c:376:0
	.fnstart
	.cfi_startproc
@ %bb.0:
	@DEBUG_VALUE: HAL_Delay:Delay <- $r0
	.save	{r4, r5, r7, lr}
	push	{r4, r5, r7, lr}
	.cfi_def_cfa_offset 16
	.cfi_offset lr, -4
	.cfi_offset r7, -8
	.cfi_offset r5, -12
	.cfi_offset r4, -16
	mov	r4, r0
.Ltmp40:
	@DEBUG_VALUE: HAL_Delay:Delay <- $r4
	@DEBUG_VALUE: HAL_Delay:Delay <- $r4
	.loc	2 377 24 prologue_end           @ c:/Keil_v5\ARM\PACK\Keil\STM32L5xx_DFP\1.3.0\Drivers\STM32L5xx_HAL_Driver\Src\stm32l5xx_hal.c:377:24
	bl	HAL_GetTick
	mov	r5, r0
.Ltmp41:
	@DEBUG_VALUE: HAL_Delay:wait <- $r4
	@DEBUG_VALUE: HAL_Delay:tickstart <- $r5
	.loc	2 381 7                         @ c:/Keil_v5\ARM\PACK\Keil\STM32L5xx_DFP\1.3.0\Drivers\STM32L5xx_HAL_Driver\Src\stm32l5xx_hal.c:381:7
	movw	r0, :lower16:.L_MergedGlobals
	movt	r0, :upper16:.L_MergedGlobals
	ldrb	r0, [r0]
	adds	r1, r4, #1
	it	ne
	addne	r4, r0
.Ltmp42:
	@DEBUG_VALUE: HAL_Delay:Delay <- [DW_OP_LLVM_entry_value 1] $r0
	.p2align	2
.LBB10_1:                               @ =>This Inner Loop Header: Depth=1
	@DEBUG_VALUE: HAL_Delay:tickstart <- $r5
	@DEBUG_VALUE: HAL_Delay:Delay <- [DW_OP_LLVM_entry_value 1] $r0
	.loc	2 386 11                        @ c:/Keil_v5\ARM\PACK\Keil\STM32L5xx_DFP\1.3.0\Drivers\STM32L5xx_HAL_Driver\Src\stm32l5xx_hal.c:386:11
	bl	HAL_GetTick
	.loc	2 386 25 is_stmt 0              @ c:/Keil_v5\ARM\PACK\Keil\STM32L5xx_DFP\1.3.0\Drivers\STM32L5xx_HAL_Driver\Src\stm32l5xx_hal.c:386:25
	subs	r0, r0, r5
	.loc	2 386 3                         @ c:/Keil_v5\ARM\PACK\Keil\STM32L5xx_DFP\1.3.0\Drivers\STM32L5xx_HAL_Driver\Src\stm32l5xx_hal.c:386:3
	cmp	r0, r4
	blo	.LBB10_1
.Ltmp43:
@ %bb.2:
	@DEBUG_VALUE: HAL_Delay:tickstart <- $r5
	@DEBUG_VALUE: HAL_Delay:Delay <- [DW_OP_LLVM_entry_value 1] $r0
	.loc	2 389 1 is_stmt 1               @ c:/Keil_v5\ARM\PACK\Keil\STM32L5xx_DFP\1.3.0\Drivers\STM32L5xx_HAL_Driver\Src\stm32l5xx_hal.c:389:1
	pop	{r4, r5, r7, pc}
.Ltmp44:
.Lfunc_end10:
	.size	HAL_Delay, .Lfunc_end10-HAL_Delay
	.cfi_endproc
	.cantunwind
	.fnend
                                        @ -- End function
	.section	.text.HAL_SuspendTick,"ax",%progbits
	.hidden	HAL_SuspendTick                 @ -- Begin function HAL_SuspendTick
	.weak	HAL_SuspendTick
	.p2align	2
	.type	HAL_SuspendTick,%function
	.code	16                              @ @HAL_SuspendTick
	.thumb_func
HAL_SuspendTick:
.Lfunc_begin11:
	.loc	2 402 0                         @ c:/Keil_v5\ARM\PACK\Keil\STM32L5xx_DFP\1.3.0\Drivers\STM32L5xx_HAL_Driver\Src\stm32l5xx_hal.c:402:0
	.fnstart
	.cfi_startproc
@ %bb.0:
	movw	r0, #57360
	movt	r0, #57344
.Ltmp45:
	.loc	2 404 17 prologue_end           @ c:/Keil_v5\ARM\PACK\Keil\STM32L5xx_DFP\1.3.0\Drivers\STM32L5xx_HAL_Driver\Src\stm32l5xx_hal.c:404:17
	ldr	r1, [r0]
	bic	r1, r1, #2
	str	r1, [r0]
	.loc	2 405 1                         @ c:/Keil_v5\ARM\PACK\Keil\STM32L5xx_DFP\1.3.0\Drivers\STM32L5xx_HAL_Driver\Src\stm32l5xx_hal.c:405:1
	bx	lr
.Ltmp46:
.Lfunc_end11:
	.size	HAL_SuspendTick, .Lfunc_end11-HAL_SuspendTick
	.cfi_endproc
	.cantunwind
	.fnend
                                        @ -- End function
	.section	.text.HAL_ResumeTick,"ax",%progbits
	.hidden	HAL_ResumeTick                  @ -- Begin function HAL_ResumeTick
	.weak	HAL_ResumeTick
	.p2align	2
	.type	HAL_ResumeTick,%function
	.code	16                              @ @HAL_ResumeTick
	.thumb_func
HAL_ResumeTick:
.Lfunc_begin12:
	.loc	2 418 0                         @ c:/Keil_v5\ARM\PACK\Keil\STM32L5xx_DFP\1.3.0\Drivers\STM32L5xx_HAL_Driver\Src\stm32l5xx_hal.c:418:0
	.fnstart
	.cfi_startproc
@ %bb.0:
	movw	r0, #57360
	movt	r0, #57344
.Ltmp47:
	.loc	2 420 18 prologue_end           @ c:/Keil_v5\ARM\PACK\Keil\STM32L5xx_DFP\1.3.0\Drivers\STM32L5xx_HAL_Driver\Src\stm32l5xx_hal.c:420:18
	ldr	r1, [r0]
	orr	r1, r1, #2
	str	r1, [r0]
	.loc	2 421 1                         @ c:/Keil_v5\ARM\PACK\Keil\STM32L5xx_DFP\1.3.0\Drivers\STM32L5xx_HAL_Driver\Src\stm32l5xx_hal.c:421:1
	bx	lr
.Ltmp48:
.Lfunc_end12:
	.size	HAL_ResumeTick, .Lfunc_end12-HAL_ResumeTick
	.cfi_endproc
	.cantunwind
	.fnend
                                        @ -- End function
	.section	.text.HAL_GetHalVersion,"ax",%progbits
	.hidden	HAL_GetHalVersion               @ -- Begin function HAL_GetHalVersion
	.globl	HAL_GetHalVersion
	.p2align	2
	.type	HAL_GetHalVersion,%function
	.code	16                              @ @HAL_GetHalVersion
	.thumb_func
HAL_GetHalVersion:
.Lfunc_begin13:
	.loc	2 428 0                         @ c:/Keil_v5\ARM\PACK\Keil\STM32L5xx_DFP\1.3.0\Drivers\STM32L5xx_HAL_Driver\Src\stm32l5xx_hal.c:428:0
	.fnstart
	.cfi_startproc
@ %bb.0:
	movw	r0, #768
	movt	r0, #256
.Ltmp49:
	.loc	2 429 3 prologue_end            @ c:/Keil_v5\ARM\PACK\Keil\STM32L5xx_DFP\1.3.0\Drivers\STM32L5xx_HAL_Driver\Src\stm32l5xx_hal.c:429:3
	bx	lr
.Ltmp50:
.Lfunc_end13:
	.size	HAL_GetHalVersion, .Lfunc_end13-HAL_GetHalVersion
	.cfi_endproc
	.cantunwind
	.fnend
                                        @ -- End function
	.section	.text.HAL_GetREVID,"ax",%progbits
	.hidden	HAL_GetREVID                    @ -- Begin function HAL_GetREVID
	.globl	HAL_GetREVID
	.p2align	2
	.type	HAL_GetREVID,%function
	.code	16                              @ @HAL_GetREVID
	.thumb_func
HAL_GetREVID:
.Lfunc_begin14:
	.loc	2 437 0                         @ c:/Keil_v5\ARM\PACK\Keil\STM32L5xx_DFP\1.3.0\Drivers\STM32L5xx_HAL_Driver\Src\stm32l5xx_hal.c:437:0
	.fnstart
	.cfi_startproc
@ %bb.0:
	movw	r0, #16384
	movt	r0, #57348
.Ltmp51:
	.loc	2 438 19 prologue_end           @ c:/Keil_v5\ARM\PACK\Keil\STM32L5xx_DFP\1.3.0\Drivers\STM32L5xx_HAL_Driver\Src\stm32l5xx_hal.c:438:19
	ldr	r0, [r0]
	.loc	2 438 50 is_stmt 0              @ c:/Keil_v5\ARM\PACK\Keil\STM32L5xx_DFP\1.3.0\Drivers\STM32L5xx_HAL_Driver\Src\stm32l5xx_hal.c:438:50
	lsrs	r0, r0, #16
	.loc	2 438 3                         @ c:/Keil_v5\ARM\PACK\Keil\STM32L5xx_DFP\1.3.0\Drivers\STM32L5xx_HAL_Driver\Src\stm32l5xx_hal.c:438:3
	bx	lr
.Ltmp52:
.Lfunc_end14:
	.size	HAL_GetREVID, .Lfunc_end14-HAL_GetREVID
	.cfi_endproc
	.cantunwind
	.fnend
                                        @ -- End function
	.section	.text.HAL_GetDEVID,"ax",%progbits
	.hidden	HAL_GetDEVID                    @ -- Begin function HAL_GetDEVID
	.globl	HAL_GetDEVID
	.p2align	2
	.type	HAL_GetDEVID,%function
	.code	16                              @ @HAL_GetDEVID
	.thumb_func
HAL_GetDEVID:
.Lfunc_begin15:
	.loc	2 446 0 is_stmt 1               @ c:/Keil_v5\ARM\PACK\Keil\STM32L5xx_DFP\1.3.0\Drivers\STM32L5xx_HAL_Driver\Src\stm32l5xx_hal.c:446:0
	.fnstart
	.cfi_startproc
@ %bb.0:
	movw	r0, #16384
	movt	r0, #57348
.Ltmp53:
	.loc	2 447 18 prologue_end           @ c:/Keil_v5\ARM\PACK\Keil\STM32L5xx_DFP\1.3.0\Drivers\STM32L5xx_HAL_Driver\Src\stm32l5xx_hal.c:447:18
	ldr	r0, [r0]
	.loc	2 447 25 is_stmt 0              @ c:/Keil_v5\ARM\PACK\Keil\STM32L5xx_DFP\1.3.0\Drivers\STM32L5xx_HAL_Driver\Src\stm32l5xx_hal.c:447:25
	bfc	r0, #12, #20
	.loc	2 447 3                         @ c:/Keil_v5\ARM\PACK\Keil\STM32L5xx_DFP\1.3.0\Drivers\STM32L5xx_HAL_Driver\Src\stm32l5xx_hal.c:447:3
	bx	lr
.Ltmp54:
.Lfunc_end15:
	.size	HAL_GetDEVID, .Lfunc_end15-HAL_GetDEVID
	.cfi_endproc
	.cantunwind
	.fnend
                                        @ -- End function
	.section	.text.HAL_GetUIDw0,"ax",%progbits
	.hidden	HAL_GetUIDw0                    @ -- Begin function HAL_GetUIDw0
	.globl	HAL_GetUIDw0
	.p2align	2
	.type	HAL_GetUIDw0,%function
	.code	16                              @ @HAL_GetUIDw0
	.thumb_func
HAL_GetUIDw0:
.Lfunc_begin16:
	.loc	2 455 0 is_stmt 1               @ c:/Keil_v5\ARM\PACK\Keil\STM32L5xx_DFP\1.3.0\Drivers\STM32L5xx_HAL_Driver\Src\stm32l5xx_hal.c:455:0
	.fnstart
	.cfi_startproc
@ %bb.0:
	movw	r0, #1424
	movt	r0, #3066
.Ltmp55:
	.loc	2 456 10 prologue_end           @ c:/Keil_v5\ARM\PACK\Keil\STM32L5xx_DFP\1.3.0\Drivers\STM32L5xx_HAL_Driver\Src\stm32l5xx_hal.c:456:10
	ldr	r0, [r0]
	.loc	2 456 3 is_stmt 0               @ c:/Keil_v5\ARM\PACK\Keil\STM32L5xx_DFP\1.3.0\Drivers\STM32L5xx_HAL_Driver\Src\stm32l5xx_hal.c:456:3
	bx	lr
.Ltmp56:
.Lfunc_end16:
	.size	HAL_GetUIDw0, .Lfunc_end16-HAL_GetUIDw0
	.cfi_endproc
	.cantunwind
	.fnend
                                        @ -- End function
	.section	.text.HAL_GetUIDw1,"ax",%progbits
	.hidden	HAL_GetUIDw1                    @ -- Begin function HAL_GetUIDw1
	.globl	HAL_GetUIDw1
	.p2align	2
	.type	HAL_GetUIDw1,%function
	.code	16                              @ @HAL_GetUIDw1
	.thumb_func
HAL_GetUIDw1:
.Lfunc_begin17:
	.loc	2 464 0 is_stmt 1               @ c:/Keil_v5\ARM\PACK\Keil\STM32L5xx_DFP\1.3.0\Drivers\STM32L5xx_HAL_Driver\Src\stm32l5xx_hal.c:464:0
	.fnstart
	.cfi_startproc
@ %bb.0:
	movw	r0, #1428
	movt	r0, #3066
.Ltmp57:
	.loc	2 465 10 prologue_end           @ c:/Keil_v5\ARM\PACK\Keil\STM32L5xx_DFP\1.3.0\Drivers\STM32L5xx_HAL_Driver\Src\stm32l5xx_hal.c:465:10
	ldr	r0, [r0]
	.loc	2 465 3 is_stmt 0               @ c:/Keil_v5\ARM\PACK\Keil\STM32L5xx_DFP\1.3.0\Drivers\STM32L5xx_HAL_Driver\Src\stm32l5xx_hal.c:465:3
	bx	lr
.Ltmp58:
.Lfunc_end17:
	.size	HAL_GetUIDw1, .Lfunc_end17-HAL_GetUIDw1
	.cfi_endproc
	.cantunwind
	.fnend
                                        @ -- End function
	.section	.text.HAL_GetUIDw2,"ax",%progbits
	.hidden	HAL_GetUIDw2                    @ -- Begin function HAL_GetUIDw2
	.globl	HAL_GetUIDw2
	.p2align	2
	.type	HAL_GetUIDw2,%function
	.code	16                              @ @HAL_GetUIDw2
	.thumb_func
HAL_GetUIDw2:
.Lfunc_begin18:
	.loc	2 473 0 is_stmt 1               @ c:/Keil_v5\ARM\PACK\Keil\STM32L5xx_DFP\1.3.0\Drivers\STM32L5xx_HAL_Driver\Src\stm32l5xx_hal.c:473:0
	.fnstart
	.cfi_startproc
@ %bb.0:
	movw	r0, #1432
	movt	r0, #3066
.Ltmp59:
	.loc	2 474 11 prologue_end           @ c:/Keil_v5\ARM\PACK\Keil\STM32L5xx_DFP\1.3.0\Drivers\STM32L5xx_HAL_Driver\Src\stm32l5xx_hal.c:474:11
	ldr	r0, [r0]
	.loc	2 474 4 is_stmt 0               @ c:/Keil_v5\ARM\PACK\Keil\STM32L5xx_DFP\1.3.0\Drivers\STM32L5xx_HAL_Driver\Src\stm32l5xx_hal.c:474:4
	bx	lr
.Ltmp60:
.Lfunc_end18:
	.size	HAL_GetUIDw2, .Lfunc_end18-HAL_GetUIDw2
	.cfi_endproc
	.cantunwind
	.fnend
                                        @ -- End function
	.section	.text.HAL_DBGMCU_EnableDBGStopMode,"ax",%progbits
	.hidden	HAL_DBGMCU_EnableDBGStopMode    @ -- Begin function HAL_DBGMCU_EnableDBGStopMode
	.globl	HAL_DBGMCU_EnableDBGStopMode
	.p2align	2
	.type	HAL_DBGMCU_EnableDBGStopMode,%function
	.code	16                              @ @HAL_DBGMCU_EnableDBGStopMode
	.thumb_func
HAL_DBGMCU_EnableDBGStopMode:
.Lfunc_begin19:
	.loc	2 501 0 is_stmt 1               @ c:/Keil_v5\ARM\PACK\Keil\STM32L5xx_DFP\1.3.0\Drivers\STM32L5xx_HAL_Driver\Src\stm32l5xx_hal.c:501:0
	.fnstart
	.cfi_startproc
@ %bb.0:
	movw	r0, #16388
	movt	r0, #57348
.Ltmp61:
	.loc	2 502 3 prologue_end            @ c:/Keil_v5\ARM\PACK\Keil\STM32L5xx_DFP\1.3.0\Drivers\STM32L5xx_HAL_Driver\Src\stm32l5xx_hal.c:502:3
	ldr	r1, [r0]
	orr	r1, r1, #2
	str	r1, [r0]
	.loc	2 503 1                         @ c:/Keil_v5\ARM\PACK\Keil\STM32L5xx_DFP\1.3.0\Drivers\STM32L5xx_HAL_Driver\Src\stm32l5xx_hal.c:503:1
	bx	lr
.Ltmp62:
.Lfunc_end19:
	.size	HAL_DBGMCU_EnableDBGStopMode, .Lfunc_end19-HAL_DBGMCU_EnableDBGStopMode
	.cfi_endproc
	.cantunwind
	.fnend
                                        @ -- End function
	.section	.text.HAL_DBGMCU_DisableDBGStopMode,"ax",%progbits
	.hidden	HAL_DBGMCU_DisableDBGStopMode   @ -- Begin function HAL_DBGMCU_DisableDBGStopMode
	.globl	HAL_DBGMCU_DisableDBGStopMode
	.p2align	2
	.type	HAL_DBGMCU_DisableDBGStopMode,%function
	.code	16                              @ @HAL_DBGMCU_DisableDBGStopMode
	.thumb_func
HAL_DBGMCU_DisableDBGStopMode:
.Lfunc_begin20:
	.loc	2 510 0                         @ c:/Keil_v5\ARM\PACK\Keil\STM32L5xx_DFP\1.3.0\Drivers\STM32L5xx_HAL_Driver\Src\stm32l5xx_hal.c:510:0
	.fnstart
	.cfi_startproc
@ %bb.0:
	movw	r0, #16388
	movt	r0, #57348
.Ltmp63:
	.loc	2 511 3 prologue_end            @ c:/Keil_v5\ARM\PACK\Keil\STM32L5xx_DFP\1.3.0\Drivers\STM32L5xx_HAL_Driver\Src\stm32l5xx_hal.c:511:3
	ldr	r1, [r0]
	bic	r1, r1, #2
	str	r1, [r0]
	.loc	2 512 1                         @ c:/Keil_v5\ARM\PACK\Keil\STM32L5xx_DFP\1.3.0\Drivers\STM32L5xx_HAL_Driver\Src\stm32l5xx_hal.c:512:1
	bx	lr
.Ltmp64:
.Lfunc_end20:
	.size	HAL_DBGMCU_DisableDBGStopMode, .Lfunc_end20-HAL_DBGMCU_DisableDBGStopMode
	.cfi_endproc
	.cantunwind
	.fnend
                                        @ -- End function
	.section	.text.HAL_DBGMCU_EnableDBGStandbyMode,"ax",%progbits
	.hidden	HAL_DBGMCU_EnableDBGStandbyMode @ -- Begin function HAL_DBGMCU_EnableDBGStandbyMode
	.globl	HAL_DBGMCU_EnableDBGStandbyMode
	.p2align	2
	.type	HAL_DBGMCU_EnableDBGStandbyMode,%function
	.code	16                              @ @HAL_DBGMCU_EnableDBGStandbyMode
	.thumb_func
HAL_DBGMCU_EnableDBGStandbyMode:
.Lfunc_begin21:
	.loc	2 519 0                         @ c:/Keil_v5\ARM\PACK\Keil\STM32L5xx_DFP\1.3.0\Drivers\STM32L5xx_HAL_Driver\Src\stm32l5xx_hal.c:519:0
	.fnstart
	.cfi_startproc
@ %bb.0:
	movw	r0, #16388
	movt	r0, #57348
.Ltmp65:
	.loc	2 520 3 prologue_end            @ c:/Keil_v5\ARM\PACK\Keil\STM32L5xx_DFP\1.3.0\Drivers\STM32L5xx_HAL_Driver\Src\stm32l5xx_hal.c:520:3
	ldr	r1, [r0]
	orr	r1, r1, #4
	str	r1, [r0]
	.loc	2 521 1                         @ c:/Keil_v5\ARM\PACK\Keil\STM32L5xx_DFP\1.3.0\Drivers\STM32L5xx_HAL_Driver\Src\stm32l5xx_hal.c:521:1
	bx	lr
.Ltmp66:
.Lfunc_end21:
	.size	HAL_DBGMCU_EnableDBGStandbyMode, .Lfunc_end21-HAL_DBGMCU_EnableDBGStandbyMode
	.cfi_endproc
	.cantunwind
	.fnend
                                        @ -- End function
	.section	.text.HAL_DBGMCU_DisableDBGStandbyMode,"ax",%progbits
	.hidden	HAL_DBGMCU_DisableDBGStandbyMode @ -- Begin function HAL_DBGMCU_DisableDBGStandbyMode
	.globl	HAL_DBGMCU_DisableDBGStandbyMode
	.p2align	2
	.type	HAL_DBGMCU_DisableDBGStandbyMode,%function
	.code	16                              @ @HAL_DBGMCU_DisableDBGStandbyMode
	.thumb_func
HAL_DBGMCU_DisableDBGStandbyMode:
.Lfunc_begin22:
	.loc	2 528 0                         @ c:/Keil_v5\ARM\PACK\Keil\STM32L5xx_DFP\1.3.0\Drivers\STM32L5xx_HAL_Driver\Src\stm32l5xx_hal.c:528:0
	.fnstart
	.cfi_startproc
@ %bb.0:
	movw	r0, #16388
	movt	r0, #57348
.Ltmp67:
	.loc	2 529 3 prologue_end            @ c:/Keil_v5\ARM\PACK\Keil\STM32L5xx_DFP\1.3.0\Drivers\STM32L5xx_HAL_Driver\Src\stm32l5xx_hal.c:529:3
	ldr	r1, [r0]
	bic	r1, r1, #4
	str	r1, [r0]
	.loc	2 530 1                         @ c:/Keil_v5\ARM\PACK\Keil\STM32L5xx_DFP\1.3.0\Drivers\STM32L5xx_HAL_Driver\Src\stm32l5xx_hal.c:530:1
	bx	lr
.Ltmp68:
.Lfunc_end22:
	.size	HAL_DBGMCU_DisableDBGStandbyMode, .Lfunc_end22-HAL_DBGMCU_DisableDBGStandbyMode
	.cfi_endproc
	.cantunwind
	.fnend
                                        @ -- End function
	.section	.text.HAL_SYSCFG_SRAM2Erase,"ax",%progbits
	.hidden	HAL_SYSCFG_SRAM2Erase           @ -- Begin function HAL_SYSCFG_SRAM2Erase
	.globl	HAL_SYSCFG_SRAM2Erase
	.p2align	2
	.type	HAL_SYSCFG_SRAM2Erase,%function
	.code	16                              @ @HAL_SYSCFG_SRAM2Erase
	.thumb_func
HAL_SYSCFG_SRAM2Erase:
.Lfunc_begin23:
	.loc	2 561 0                         @ c:/Keil_v5\ARM\PACK\Keil\STM32L5xx_DFP\1.3.0\Drivers\STM32L5xx_HAL_Driver\Src\stm32l5xx_hal.c:561:0
	.fnstart
	.cfi_startproc
@ %bb.0:
	movs	r0, #24
	movt	r0, #16385
	movs	r1, #202
.Ltmp69:
	.loc	2 563 15 prologue_end           @ c:/Keil_v5\ARM\PACK\Keil\STM32L5xx_DFP\1.3.0\Drivers\STM32L5xx_HAL_Driver\Src\stm32l5xx_hal.c:563:15
	str	r1, [r0, #4]
	movs	r1, #83
	.loc	2 564 15                        @ c:/Keil_v5\ARM\PACK\Keil\STM32L5xx_DFP\1.3.0\Drivers\STM32L5xx_HAL_Driver\Src\stm32l5xx_hal.c:564:15
	str	r1, [r0, #4]
	.loc	2 567 3                         @ c:/Keil_v5\ARM\PACK\Keil\STM32L5xx_DFP\1.3.0\Drivers\STM32L5xx_HAL_Driver\Src\stm32l5xx_hal.c:567:3
	ldr	r1, [r0]
	orr	r1, r1, #1
	str	r1, [r0]
	.loc	2 568 1                         @ c:/Keil_v5\ARM\PACK\Keil\STM32L5xx_DFP\1.3.0\Drivers\STM32L5xx_HAL_Driver\Src\stm32l5xx_hal.c:568:1
	bx	lr
.Ltmp70:
.Lfunc_end23:
	.size	HAL_SYSCFG_SRAM2Erase, .Lfunc_end23-HAL_SYSCFG_SRAM2Erase
	.cfi_endproc
	.cantunwind
	.fnend
                                        @ -- End function
	.section	.text.HAL_SYSCFG_VREFBUF_VoltageScalingConfig,"ax",%progbits
	.hidden	HAL_SYSCFG_VREFBUF_VoltageScalingConfig @ -- Begin function HAL_SYSCFG_VREFBUF_VoltageScalingConfig
	.globl	HAL_SYSCFG_VREFBUF_VoltageScalingConfig
	.p2align	2
	.type	HAL_SYSCFG_VREFBUF_VoltageScalingConfig,%function
	.code	16                              @ @HAL_SYSCFG_VREFBUF_VoltageScalingConfig
	.thumb_func
HAL_SYSCFG_VREFBUF_VoltageScalingConfig:
.Lfunc_begin24:
	.loc	2 583 0                         @ c:/Keil_v5\ARM\PACK\Keil\STM32L5xx_DFP\1.3.0\Drivers\STM32L5xx_HAL_Driver\Src\stm32l5xx_hal.c:583:0
	.fnstart
	.cfi_startproc
@ %bb.0:
	@DEBUG_VALUE: HAL_SYSCFG_VREFBUF_VoltageScalingConfig:VoltageScaling <- $r0
	movw	r1, #256
	movt	r1, #16385
.Ltmp71:
	.loc	2 589 3 prologue_end            @ c:/Keil_v5\ARM\PACK\Keil\STM32L5xx_DFP\1.3.0\Drivers\STM32L5xx_HAL_Driver\Src\stm32l5xx_hal.c:589:3
	ldr	r2, [r1]
	@DEBUG_VALUE: HAL_SYSCFG_VREFBUF_VoltageScalingConfig:VoltageScaling <- $r0
	.loc	2 592 7                         @ c:/Keil_v5\ARM\PACK\Keil\STM32L5xx_DFP\1.3.0\Drivers\STM32L5xx_HAL_Driver\Src\stm32l5xx_hal.c:592:7
	cmp	r0, #0
	.loc	2 589 3                         @ c:/Keil_v5\ARM\PACK\Keil\STM32L5xx_DFP\1.3.0\Drivers\STM32L5xx_HAL_Driver\Src\stm32l5xx_hal.c:589:3
	bic	r2, r2, #4
	orr.w	r2, r2, r0
	str	r2, [r1]
	movw	r2, #1328
	movt	r2, #3066
	.loc	2 592 7                         @ c:/Keil_v5\ARM\PACK\Keil\STM32L5xx_DFP\1.3.0\Drivers\STM32L5xx_HAL_Driver\Src\stm32l5xx_hal.c:592:7
	it	eq
	addeq	r2, #73
.Ltmp72:
	.loc	2 0 0 is_stmt 0                 @ c:/Keil_v5\ARM\PACK\Keil\STM32L5xx_DFP\1.3.0\Drivers\STM32L5xx_HAL_Driver\Src\stm32l5xx_hal.c:0:0
	ldrb	r0, [r2]
.Ltmp73:
	@DEBUG_VALUE: HAL_SYSCFG_VREFBUF_VoltageScalingConfig:VoltageScaling <- [DW_OP_LLVM_entry_value 1] $r0
	@DEBUG_VALUE: HAL_SYSCFG_VREFBUF_TrimmingConfig:TrimmingValue <- undef
	@DEBUG_VALUE: HAL_SYSCFG_VREFBUF_VoltageScalingConfig:TrimmingValue <- undef
	.loc	2 630 3 is_stmt 1               @ c:/Keil_v5\ARM\PACK\Keil\STM32L5xx_DFP\1.3.0\Drivers\STM32L5xx_HAL_Driver\Src\stm32l5xx_hal.c:630:3
	ldr	r2, [r1, #4]
	bfi	r2, r0, #0, #6
	str	r2, [r1, #4]
.Ltmp74:
	.loc	2 603 1                         @ c:/Keil_v5\ARM\PACK\Keil\STM32L5xx_DFP\1.3.0\Drivers\STM32L5xx_HAL_Driver\Src\stm32l5xx_hal.c:603:1
	bx	lr
.Ltmp75:
.Lfunc_end24:
	.size	HAL_SYSCFG_VREFBUF_VoltageScalingConfig, .Lfunc_end24-HAL_SYSCFG_VREFBUF_VoltageScalingConfig
	.cfi_endproc
	.cantunwind
	.fnend
                                        @ -- End function
	.section	.text.HAL_SYSCFG_VREFBUF_TrimmingConfig,"ax",%progbits
	.hidden	HAL_SYSCFG_VREFBUF_TrimmingConfig @ -- Begin function HAL_SYSCFG_VREFBUF_TrimmingConfig
	.globl	HAL_SYSCFG_VREFBUF_TrimmingConfig
	.p2align	2
	.type	HAL_SYSCFG_VREFBUF_TrimmingConfig,%function
	.code	16                              @ @HAL_SYSCFG_VREFBUF_TrimmingConfig
	.thumb_func
HAL_SYSCFG_VREFBUF_TrimmingConfig:
.Lfunc_begin25:
	.loc	2 626 0                         @ c:/Keil_v5\ARM\PACK\Keil\STM32L5xx_DFP\1.3.0\Drivers\STM32L5xx_HAL_Driver\Src\stm32l5xx_hal.c:626:0
	.fnstart
	.cfi_startproc
@ %bb.0:
	@DEBUG_VALUE: HAL_SYSCFG_VREFBUF_TrimmingConfig:TrimmingValue <- $r0
	movw	r1, #260
	movt	r1, #16385
.Ltmp76:
	.loc	2 630 3 prologue_end            @ c:/Keil_v5\ARM\PACK\Keil\STM32L5xx_DFP\1.3.0\Drivers\STM32L5xx_HAL_Driver\Src\stm32l5xx_hal.c:630:3
	ldr	r2, [r1]
	@DEBUG_VALUE: HAL_SYSCFG_VREFBUF_TrimmingConfig:TrimmingValue <- $r0
	bic	r2, r2, #63
	orrs	r0, r2
.Ltmp77:
	@DEBUG_VALUE: HAL_SYSCFG_VREFBUF_TrimmingConfig:TrimmingValue <- [DW_OP_LLVM_entry_value 1] $r0
	str	r0, [r1]
	.loc	2 631 1                         @ c:/Keil_v5\ARM\PACK\Keil\STM32L5xx_DFP\1.3.0\Drivers\STM32L5xx_HAL_Driver\Src\stm32l5xx_hal.c:631:1
	bx	lr
.Ltmp78:
.Lfunc_end25:
	.size	HAL_SYSCFG_VREFBUF_TrimmingConfig, .Lfunc_end25-HAL_SYSCFG_VREFBUF_TrimmingConfig
	.cfi_endproc
	.cantunwind
	.fnend
                                        @ -- End function
	.section	.text.HAL_SYSCFG_VREFBUF_HighImpedanceConfig,"ax",%progbits
	.hidden	HAL_SYSCFG_VREFBUF_HighImpedanceConfig @ -- Begin function HAL_SYSCFG_VREFBUF_HighImpedanceConfig
	.globl	HAL_SYSCFG_VREFBUF_HighImpedanceConfig
	.p2align	2
	.type	HAL_SYSCFG_VREFBUF_HighImpedanceConfig,%function
	.code	16                              @ @HAL_SYSCFG_VREFBUF_HighImpedanceConfig
	.thumb_func
HAL_SYSCFG_VREFBUF_HighImpedanceConfig:
.Lfunc_begin26:
	.loc	2 614 0                         @ c:/Keil_v5\ARM\PACK\Keil\STM32L5xx_DFP\1.3.0\Drivers\STM32L5xx_HAL_Driver\Src\stm32l5xx_hal.c:614:0
	.fnstart
	.cfi_startproc
@ %bb.0:
	@DEBUG_VALUE: HAL_SYSCFG_VREFBUF_HighImpedanceConfig:Mode <- $r0
	movw	r1, #256
	movt	r1, #16385
.Ltmp79:
	.loc	2 618 3 prologue_end            @ c:/Keil_v5\ARM\PACK\Keil\STM32L5xx_DFP\1.3.0\Drivers\STM32L5xx_HAL_Driver\Src\stm32l5xx_hal.c:618:3
	ldr	r2, [r1]
	@DEBUG_VALUE: HAL_SYSCFG_VREFBUF_HighImpedanceConfig:Mode <- $r0
	bic	r2, r2, #2
	orrs	r0, r2
.Ltmp80:
	@DEBUG_VALUE: HAL_SYSCFG_VREFBUF_HighImpedanceConfig:Mode <- [DW_OP_LLVM_entry_value 1] $r0
	str	r0, [r1]
	.loc	2 619 1                         @ c:/Keil_v5\ARM\PACK\Keil\STM32L5xx_DFP\1.3.0\Drivers\STM32L5xx_HAL_Driver\Src\stm32l5xx_hal.c:619:1
	bx	lr
.Ltmp81:
.Lfunc_end26:
	.size	HAL_SYSCFG_VREFBUF_HighImpedanceConfig, .Lfunc_end26-HAL_SYSCFG_VREFBUF_HighImpedanceConfig
	.cfi_endproc
	.cantunwind
	.fnend
                                        @ -- End function
	.section	.text.HAL_SYSCFG_EnableVREFBUF,"ax",%progbits
	.hidden	HAL_SYSCFG_EnableVREFBUF        @ -- Begin function HAL_SYSCFG_EnableVREFBUF
	.globl	HAL_SYSCFG_EnableVREFBUF
	.p2align	2
	.type	HAL_SYSCFG_EnableVREFBUF,%function
	.code	16                              @ @HAL_SYSCFG_EnableVREFBUF
	.thumb_func
HAL_SYSCFG_EnableVREFBUF:
.Lfunc_begin27:
	.loc	2 638 0                         @ c:/Keil_v5\ARM\PACK\Keil\STM32L5xx_DFP\1.3.0\Drivers\STM32L5xx_HAL_Driver\Src\stm32l5xx_hal.c:638:0
	.fnstart
	.cfi_startproc
@ %bb.0:
	.save	{r4, r5, r7, lr}
	push	{r4, r5, r7, lr}
	.cfi_def_cfa_offset 16
	.cfi_offset lr, -4
	.cfi_offset r7, -8
	.cfi_offset r5, -12
	.cfi_offset r4, -16
	movw	r5, #256
	movt	r5, #16385
.Ltmp82:
	.loc	2 641 3 prologue_end            @ c:/Keil_v5\ARM\PACK\Keil\STM32L5xx_DFP\1.3.0\Drivers\STM32L5xx_HAL_Driver\Src\stm32l5xx_hal.c:641:3
	ldr	r0, [r5]
	orr	r0, r0, #1
	str	r0, [r5]
	.loc	2 644 15                        @ c:/Keil_v5\ARM\PACK\Keil\STM32L5xx_DFP\1.3.0\Drivers\STM32L5xx_HAL_Driver\Src\stm32l5xx_hal.c:644:15
	bl	HAL_GetTick
	mov	r4, r0
.Ltmp83:
	@DEBUG_VALUE: HAL_SYSCFG_EnableVREFBUF:tickstart <- $r4
	.p2align	2
.LBB27_1:                               @ =>This Inner Loop Header: Depth=1
	.loc	2 647 9                         @ c:/Keil_v5\ARM\PACK\Keil\STM32L5xx_DFP\1.3.0\Drivers\STM32L5xx_HAL_Driver\Src\stm32l5xx_hal.c:647:9
	ldr	r0, [r5]
	.loc	2 647 3 is_stmt 0               @ c:/Keil_v5\ARM\PACK\Keil\STM32L5xx_DFP\1.3.0\Drivers\STM32L5xx_HAL_Driver\Src\stm32l5xx_hal.c:647:3
	lsls	r0, r0, #28
	itt	mi
	movmi	r0, #0
	.loc	2 656 1 is_stmt 1               @ c:/Keil_v5\ARM\PACK\Keil\STM32L5xx_DFP\1.3.0\Drivers\STM32L5xx_HAL_Driver\Src\stm32l5xx_hal.c:656:1
	popmi	{r4, r5, r7, pc}
.LBB27_2:                               @   in Loop: Header=BB27_1 Depth=1
.Ltmp84:
	.loc	2 649 9                         @ c:/Keil_v5\ARM\PACK\Keil\STM32L5xx_DFP\1.3.0\Drivers\STM32L5xx_HAL_Driver\Src\stm32l5xx_hal.c:649:9
	bl	HAL_GetTick
	.loc	2 649 23 is_stmt 0              @ c:/Keil_v5\ARM\PACK\Keil\STM32L5xx_DFP\1.3.0\Drivers\STM32L5xx_HAL_Driver\Src\stm32l5xx_hal.c:649:23
	subs	r0, r0, r4
.Ltmp85:
	.loc	2 649 8                         @ c:/Keil_v5\ARM\PACK\Keil\STM32L5xx_DFP\1.3.0\Drivers\STM32L5xx_HAL_Driver\Src\stm32l5xx_hal.c:649:8
	cmp	r0, #11
	itt	hs
	movhs	r0, #3
.Ltmp86:
	.loc	2 656 1 is_stmt 1               @ c:/Keil_v5\ARM\PACK\Keil\STM32L5xx_DFP\1.3.0\Drivers\STM32L5xx_HAL_Driver\Src\stm32l5xx_hal.c:656:1
	pophs	{r4, r5, r7, pc}
	b	.LBB27_1
.Ltmp87:
.Lfunc_end27:
	.size	HAL_SYSCFG_EnableVREFBUF, .Lfunc_end27-HAL_SYSCFG_EnableVREFBUF
	.cfi_endproc
	.cantunwind
	.fnend
                                        @ -- End function
	.section	.text.HAL_SYSCFG_DisableVREFBUF,"ax",%progbits
	.hidden	HAL_SYSCFG_DisableVREFBUF       @ -- Begin function HAL_SYSCFG_DisableVREFBUF
	.globl	HAL_SYSCFG_DisableVREFBUF
	.p2align	2
	.type	HAL_SYSCFG_DisableVREFBUF,%function
	.code	16                              @ @HAL_SYSCFG_DisableVREFBUF
	.thumb_func
HAL_SYSCFG_DisableVREFBUF:
.Lfunc_begin28:
	.loc	2 664 0                         @ c:/Keil_v5\ARM\PACK\Keil\STM32L5xx_DFP\1.3.0\Drivers\STM32L5xx_HAL_Driver\Src\stm32l5xx_hal.c:664:0
	.fnstart
	.cfi_startproc
@ %bb.0:
	movw	r0, #256
	movt	r0, #16385
.Ltmp88:
	.loc	2 665 3 prologue_end            @ c:/Keil_v5\ARM\PACK\Keil\STM32L5xx_DFP\1.3.0\Drivers\STM32L5xx_HAL_Driver\Src\stm32l5xx_hal.c:665:3
	ldr	r1, [r0]
	bic	r1, r1, #1
	str	r1, [r0]
	.loc	2 666 1                         @ c:/Keil_v5\ARM\PACK\Keil\STM32L5xx_DFP\1.3.0\Drivers\STM32L5xx_HAL_Driver\Src\stm32l5xx_hal.c:666:1
	bx	lr
.Ltmp89:
.Lfunc_end28:
	.size	HAL_SYSCFG_DisableVREFBUF, .Lfunc_end28-HAL_SYSCFG_DisableVREFBUF
	.cfi_endproc
	.cantunwind
	.fnend
                                        @ -- End function
	.section	.text.HAL_SYSCFG_EnableIOAnalogBooster,"ax",%progbits
	.hidden	HAL_SYSCFG_EnableIOAnalogBooster @ -- Begin function HAL_SYSCFG_EnableIOAnalogBooster
	.globl	HAL_SYSCFG_EnableIOAnalogBooster
	.p2align	2
	.type	HAL_SYSCFG_EnableIOAnalogBooster,%function
	.code	16                              @ @HAL_SYSCFG_EnableIOAnalogBooster
	.thumb_func
HAL_SYSCFG_EnableIOAnalogBooster:
.Lfunc_begin29:
	.loc	2 674 0                         @ c:/Keil_v5\ARM\PACK\Keil\STM32L5xx_DFP\1.3.0\Drivers\STM32L5xx_HAL_Driver\Src\stm32l5xx_hal.c:674:0
	.fnstart
	.cfi_startproc
@ %bb.0:
	movs	r0, #4
	movt	r0, #16385
.Ltmp90:
	.loc	2 675 3 prologue_end            @ c:/Keil_v5\ARM\PACK\Keil\STM32L5xx_DFP\1.3.0\Drivers\STM32L5xx_HAL_Driver\Src\stm32l5xx_hal.c:675:3
	ldr	r1, [r0]
	movs	r2, #1
	bfi	r1, r2, #8, #2
	str	r1, [r0]
	.loc	2 676 1                         @ c:/Keil_v5\ARM\PACK\Keil\STM32L5xx_DFP\1.3.0\Drivers\STM32L5xx_HAL_Driver\Src\stm32l5xx_hal.c:676:1
	bx	lr
.Ltmp91:
.Lfunc_end29:
	.size	HAL_SYSCFG_EnableIOAnalogBooster, .Lfunc_end29-HAL_SYSCFG_EnableIOAnalogBooster
	.cfi_endproc
	.cantunwind
	.fnend
                                        @ -- End function
	.section	.text.HAL_SYSCFG_DisableIOAnalogBooster,"ax",%progbits
	.hidden	HAL_SYSCFG_DisableIOAnalogBooster @ -- Begin function HAL_SYSCFG_DisableIOAnalogBooster
	.globl	HAL_SYSCFG_DisableIOAnalogBooster
	.p2align	2
	.type	HAL_SYSCFG_DisableIOAnalogBooster,%function
	.code	16                              @ @HAL_SYSCFG_DisableIOAnalogBooster
	.thumb_func
HAL_SYSCFG_DisableIOAnalogBooster:
.Lfunc_begin30:
	.loc	2 684 0                         @ c:/Keil_v5\ARM\PACK\Keil\STM32L5xx_DFP\1.3.0\Drivers\STM32L5xx_HAL_Driver\Src\stm32l5xx_hal.c:684:0
	.fnstart
	.cfi_startproc
@ %bb.0:
	movs	r0, #4
	movt	r0, #16385
.Ltmp92:
	.loc	2 685 3 prologue_end            @ c:/Keil_v5\ARM\PACK\Keil\STM32L5xx_DFP\1.3.0\Drivers\STM32L5xx_HAL_Driver\Src\stm32l5xx_hal.c:685:3
	ldr	r1, [r0]
	bic	r1, r1, #256
	str	r1, [r0]
	.loc	2 686 1                         @ c:/Keil_v5\ARM\PACK\Keil\STM32L5xx_DFP\1.3.0\Drivers\STM32L5xx_HAL_Driver\Src\stm32l5xx_hal.c:686:1
	bx	lr
.Ltmp93:
.Lfunc_end30:
	.size	HAL_SYSCFG_DisableIOAnalogBooster, .Lfunc_end30-HAL_SYSCFG_DisableIOAnalogBooster
	.cfi_endproc
	.cantunwind
	.fnend
                                        @ -- End function
	.section	.text.HAL_SYSCFG_EnableIOAnalogSwitchVdd,"ax",%progbits
	.hidden	HAL_SYSCFG_EnableIOAnalogSwitchVdd @ -- Begin function HAL_SYSCFG_EnableIOAnalogSwitchVdd
	.globl	HAL_SYSCFG_EnableIOAnalogSwitchVdd
	.p2align	2
	.type	HAL_SYSCFG_EnableIOAnalogSwitchVdd,%function
	.code	16                              @ @HAL_SYSCFG_EnableIOAnalogSwitchVdd
	.thumb_func
HAL_SYSCFG_EnableIOAnalogSwitchVdd:
.Lfunc_begin31:
	.loc	2 694 0                         @ c:/Keil_v5\ARM\PACK\Keil\STM32L5xx_DFP\1.3.0\Drivers\STM32L5xx_HAL_Driver\Src\stm32l5xx_hal.c:694:0
	.fnstart
	.cfi_startproc
@ %bb.0:
	movs	r0, #4
	movt	r0, #16385
.Ltmp94:
	.loc	2 695 3 prologue_end            @ c:/Keil_v5\ARM\PACK\Keil\STM32L5xx_DFP\1.3.0\Drivers\STM32L5xx_HAL_Driver\Src\stm32l5xx_hal.c:695:3
	ldr	r1, [r0]
	movs	r2, #2
	bfi	r1, r2, #8, #2
	str	r1, [r0]
	.loc	2 696 1                         @ c:/Keil_v5\ARM\PACK\Keil\STM32L5xx_DFP\1.3.0\Drivers\STM32L5xx_HAL_Driver\Src\stm32l5xx_hal.c:696:1
	bx	lr
.Ltmp95:
.Lfunc_end31:
	.size	HAL_SYSCFG_EnableIOAnalogSwitchVdd, .Lfunc_end31-HAL_SYSCFG_EnableIOAnalogSwitchVdd
	.cfi_endproc
	.cantunwind
	.fnend
                                        @ -- End function
	.section	.text.HAL_SYSCFG_DisableIOAnalogSwitchVdd,"ax",%progbits
	.hidden	HAL_SYSCFG_DisableIOAnalogSwitchVdd @ -- Begin function HAL_SYSCFG_DisableIOAnalogSwitchVdd
	.globl	HAL_SYSCFG_DisableIOAnalogSwitchVdd
	.p2align	2
	.type	HAL_SYSCFG_DisableIOAnalogSwitchVdd,%function
	.code	16                              @ @HAL_SYSCFG_DisableIOAnalogSwitchVdd
	.thumb_func
HAL_SYSCFG_DisableIOAnalogSwitchVdd:
.Lfunc_begin32:
	.loc	2 704 0                         @ c:/Keil_v5\ARM\PACK\Keil\STM32L5xx_DFP\1.3.0\Drivers\STM32L5xx_HAL_Driver\Src\stm32l5xx_hal.c:704:0
	.fnstart
	.cfi_startproc
@ %bb.0:
	movs	r0, #4
	movt	r0, #16385
.Ltmp96:
	.loc	2 705 3 prologue_end            @ c:/Keil_v5\ARM\PACK\Keil\STM32L5xx_DFP\1.3.0\Drivers\STM32L5xx_HAL_Driver\Src\stm32l5xx_hal.c:705:3
	ldr	r1, [r0]
	bic	r1, r1, #512
	str	r1, [r0]
	.loc	2 706 1                         @ c:/Keil_v5\ARM\PACK\Keil\STM32L5xx_DFP\1.3.0\Drivers\STM32L5xx_HAL_Driver\Src\stm32l5xx_hal.c:706:1
	bx	lr
.Ltmp97:
.Lfunc_end32:
	.size	HAL_SYSCFG_DisableIOAnalogSwitchVdd, .Lfunc_end32-HAL_SYSCFG_DisableIOAnalogSwitchVdd
	.cfi_endproc
	.cantunwind
	.fnend
                                        @ -- End function
	.section	.text.HAL_SYSCFG_Lock,"ax",%progbits
	.hidden	HAL_SYSCFG_Lock                 @ -- Begin function HAL_SYSCFG_Lock
	.globl	HAL_SYSCFG_Lock
	.p2align	2
	.type	HAL_SYSCFG_Lock,%function
	.code	16                              @ @HAL_SYSCFG_Lock
	.thumb_func
HAL_SYSCFG_Lock:
.Lfunc_begin33:
	.loc	2 733 0                         @ c:/Keil_v5\ARM\PACK\Keil\STM32L5xx_DFP\1.3.0\Drivers\STM32L5xx_HAL_Driver\Src\stm32l5xx_hal.c:733:0
	.fnstart
	.cfi_startproc
@ %bb.0:
	@DEBUG_VALUE: HAL_SYSCFG_Lock:Item <- $r0
	@DEBUG_VALUE: HAL_SYSCFG_Lock:Item <- $r0
	.loc	2 738 30 prologue_end           @ c:/Keil_v5\ARM\PACK\Keil\STM32L5xx_DFP\1.3.0\Drivers\STM32L5xx_HAL_Driver\Src\stm32l5xx_hal.c:738:30
	uxth	r0, r0
.Ltmp98:
	@DEBUG_VALUE: HAL_SYSCFG_Lock:Item <- [DW_OP_LLVM_entry_value 1] $r0
	.loc	2 0 30 is_stmt 0                @ c:/Keil_v5\ARM\PACK\Keil\STM32L5xx_DFP\1.3.0\Drivers\STM32L5xx_HAL_Driver\Src\stm32l5xx_hal.c:0:30
	movs	r1, #12
	movt	r1, #16385
	.loc	2 738 19                        @ c:/Keil_v5\ARM\PACK\Keil\STM32L5xx_DFP\1.3.0\Drivers\STM32L5xx_HAL_Driver\Src\stm32l5xx_hal.c:738:19
	str	r0, [r1]
	.loc	2 744 1 is_stmt 1               @ c:/Keil_v5\ARM\PACK\Keil\STM32L5xx_DFP\1.3.0\Drivers\STM32L5xx_HAL_Driver\Src\stm32l5xx_hal.c:744:1
	bx	lr
.Ltmp99:
.Lfunc_end33:
	.size	HAL_SYSCFG_Lock, .Lfunc_end33-HAL_SYSCFG_Lock
	.cfi_endproc
	.cantunwind
	.fnend
                                        @ -- End function
	.section	.text.HAL_SYSCFG_GetLock,"ax",%progbits
	.hidden	HAL_SYSCFG_GetLock              @ -- Begin function HAL_SYSCFG_GetLock
	.globl	HAL_SYSCFG_GetLock
	.p2align	2
	.type	HAL_SYSCFG_GetLock,%function
	.code	16                              @ @HAL_SYSCFG_GetLock
	.thumb_func
HAL_SYSCFG_GetLock:
.Lfunc_begin34:
	.loc	2 754 0                         @ c:/Keil_v5\ARM\PACK\Keil\STM32L5xx_DFP\1.3.0\Drivers\STM32L5xx_HAL_Driver\Src\stm32l5xx_hal.c:754:0
	.fnstart
	.cfi_startproc
@ %bb.0:
	@DEBUG_VALUE: HAL_SYSCFG_GetLock:pItem <- $r0
	@DEBUG_VALUE: HAL_SYSCFG_GetLock:pItem <- $r0
	.loc	2 758 6 prologue_end            @ c:/Keil_v5\ARM\PACK\Keil\STM32L5xx_DFP\1.3.0\Drivers\STM32L5xx_HAL_Driver\Src\stm32l5xx_hal.c:758:6
	cmp	r0, #0
	itt	eq
	moveq	r0, #1
.Ltmp100:
	@DEBUG_VALUE: HAL_SYSCFG_GetLock:pItem <- [DW_OP_LLVM_entry_value 1] $r0
	.loc	2 775 1                         @ c:/Keil_v5\ARM\PACK\Keil\STM32L5xx_DFP\1.3.0\Drivers\STM32L5xx_HAL_Driver\Src\stm32l5xx_hal.c:775:1
	bxeq	lr
.Ltmp101:
.LBB34_1:
	@DEBUG_VALUE: HAL_SYSCFG_GetLock:pItem <- [DW_OP_LLVM_entry_value 1] $r0
	.loc	2 0 1 is_stmt 0                 @ c:/Keil_v5\ARM\PACK\Keil\STM32L5xx_DFP\1.3.0\Drivers\STM32L5xx_HAL_Driver\Src\stm32l5xx_hal.c:0:1
	movs	r1, #12
	movt	r1, #16385
	.loc	2 764 22 is_stmt 1              @ c:/Keil_v5\ARM\PACK\Keil\STM32L5xx_DFP\1.3.0\Drivers\STM32L5xx_HAL_Driver\Src\stm32l5xx_hal.c:764:22
	ldr	r1, [r1]
.Ltmp102:
	@DEBUG_VALUE: HAL_SYSCFG_GetLock:tmp_lock <- $r1
	.loc	2 772 10                        @ c:/Keil_v5\ARM\PACK\Keil\STM32L5xx_DFP\1.3.0\Drivers\STM32L5xx_HAL_Driver\Src\stm32l5xx_hal.c:772:10
	str	r1, [r0]
	movs	r0, #0
	.loc	2 775 1                         @ c:/Keil_v5\ARM\PACK\Keil\STM32L5xx_DFP\1.3.0\Drivers\STM32L5xx_HAL_Driver\Src\stm32l5xx_hal.c:775:1
	bx	lr
.Ltmp103:
.Lfunc_end34:
	.size	HAL_SYSCFG_GetLock, .Lfunc_end34-HAL_SYSCFG_GetLock
	.cfi_endproc
	.cantunwind
	.fnend
                                        @ -- End function
	.hidden	uwTick                          @ @uwTick
	.type	uwTick,%object
	.section	.bss.uwTick,"aw",%nobits
	.globl	uwTick
	.p2align	2
uwTick:
	.long	0                               @ 0x0
	.size	uwTick, 4

	.type	.L_MergedGlobals,%object        @ @_MergedGlobals
	.section	.data..L_MergedGlobals,"aw",%progbits
	.p2align	2
.L_MergedGlobals:
	.byte	1                               @ 0x1
	.zero	3
	.long	8                               @ 0x8
	.size	.L_MergedGlobals, 8

	.section	".note.GNU-stack","",%progbits
	.eabi_attribute	30, 2	@ Tag_ABI_optimization_goals
	.ARM_attribute	16, 1	@ Tag_AV_eba