	.text
	.syntax unified
	.eabi_attribute	67, "2.09"	@ Tag_conformance
	.cpu	cortex-m33
	.eabi_attribute	6, 17	@ Tag_CPU_arch
	.eabi_attribute	7, 77	@ Tag_CPU_arch_profile
	.eabi_attribute	8, 0	@ Tag_ARM_ISA_use
	.eabi_attribute	9, 3	@ Tag_THUMB_ISA_use
	.fpu	fpv5-sp-d16
	.eabi_attribute	27, 1	@ Tag_ABI_HardFP_use
	.eabi_attribute	36, 1	@ Tag_FP_HP_extension
	.eabi_attribute	46, 1	@ Tag_DSP_extension
	.eabi_attribute	34, 1	@ Tag_CPU_unaligned_access
	.eabi_attribute	17, 1	@ Tag_ABI_PCS_GOT_use
	.eabi_attribute	20, 2	@ Tag_ABI_FP_denormal
	.eabi_attribute	21, 0	@ Tag_ABI_FP_exceptions
	.eabi_attribute	23, 1	@ Tag_ABI_FP_number_model
	.eabi_attribute	24, 1	@ Tag_ABI_align_needed
	.eabi_attribute	25, 1	@ Tag_ABI_align_preserved
	.eabi_attribute	28, 1	@ Tag_ABI_VFP_args
	.eabi_attribute	38, 1	@ Tag_ABI_FP_16bit_format
	.eabi_attribute	18, 2	@ Tag_ABI_PCS_wchar_t
	.eabi_attribute	26, 1	@ Tag_ABI_enum_size
	.eabi_attribute	14, 0	@ Tag_ABI_PCS_R9_use
	.file	"stm32l5xx_hal_gpio.c"
	.file	1 "c:/Keil_v5\\ARM\\PACK\\Keil\\STM32L5xx_DFP\\1.3.0\\Drivers\\STM32L5xx_HAL_Driver\\Inc" "stm32l5xx_hal_gpio.h"
	.file	2 "c:/Keil_v5\\ARM\\PACK\\Keil\\STM32L5xx_DFP\\1.3.0\\Drivers\\STM32L5xx_HAL_Driver\\Inc" "stm32l5xx_hal_def.h"
	.file	3 "c:\\Keil_v5\\ARM\\ARMCLANG\\Bin\\..\\include" "stdint.h"
	.file	4 "c:/Keil_v5\\ARM\\PACK\\Keil\\STM32L5xx_DFP\\1.3.0\\Drivers\\CMSIS\\Device\\ST\\STM32L5xx\\Include" "stm32l552xx.h"
	.section	.text.HAL_GPIO_Init,"ax",%progbits
	.hidden	HAL_GPIO_Init                   @ -- Begin function HAL_GPIO_Init
	.globl	HAL_GPIO_Init
	.p2align	2
	.type	HAL_GPIO_Init,%function
	.code	16                              @ @HAL_GPIO_Init
	.thumb_func
HAL_GPIO_Init:
.Lfunc_begin0:
	.file	5 "c:/Keil_v5\\ARM\\PACK\\Keil\\STM32L5xx_DFP\\1.3.0\\Drivers\\STM32L5xx_HAL_Driver\\Src" "stm32l5xx_hal_gpio.c"
	.loc	5 168 0                         @ c:/Keil_v5\ARM\PACK\Keil\STM32L5xx_DFP\1.3.0\Drivers\STM32L5xx_HAL_Driver\Src\stm32l5xx_hal_gpio.c:168:0
	.fnstart
	.cfi_sections .debug_frame
	.cfi_startproc
@ %bb.0:
	@DEBUG_VALUE: HAL_GPIO_Init:GPIOx <- $r0
	@DEBUG_VALUE: HAL_GPIO_Init:GPIO_Init <- $r1
	@DEBUG_VALUE: HAL_GPIO_Init:GPIO_Init <- $r1
	.save	{r4, r5, r6, r7, r8, r9, r10, r11, lr}
	push.w	{r4, r5, r6, r7, r8, r9, r10, r11, lr}
	.cfi_def_cfa_offset 36
	.cfi_offset lr, -4
	.cfi_offset r11, -8
	.cfi_offset r10, -12
	.cfi_offset r9, -16
	.cfi_offset r8, -20
	.cfi_offset r7, -24
	.cfi_offset r6, -28
	.cfi_offset r5, -32
	.cfi_offset r4, -36
	.pad	#16
	sub	sp, #16
	.cfi_def_cfa_offset 52
.Ltmp0:
	.loc	5 180 23 prologue_end           @ c:/Keil_v5\ARM\PACK\Keil\STM32L5xx_DFP\1.3.0\Drivers\STM32L5xx_HAL_Driver\Src\stm32l5xx_hal_gpio.c:180:23
	ldr	r5, [r1]
	.loc	5 180 3 is_stmt 0               @ c:/Keil_v5\ARM\PACK\Keil\STM32L5xx_DFP\1.3.0\Drivers\STM32L5xx_HAL_Driver\Src\stm32l5xx_hal_gpio.c:180:3
	cmp	r5, #0
.Ltmp1:
	@DEBUG_VALUE: HAL_GPIO_Init:position <- 0
	@DEBUG_VALUE: HAL_GPIO_Init:GPIOx <- $r0
	beq.w	.LBB0_12
.Ltmp2:
@ %bb.1:
	@DEBUG_VALUE: HAL_GPIO_Init:GPIO_Init <- $r1
	@DEBUG_VALUE: HAL_GPIO_Init:GPIOx <- $r0
	@DEBUG_VALUE: HAL_GPIO_Init:position <- 0
	.loc	5 0 3                           @ c:/Keil_v5\ARM\PACK\Keil\STM32L5xx_DFP\1.3.0\Drivers\STM32L5xx_HAL_Driver\Src\stm32l5xx_hal_gpio.c:0:3
	add.w	r2, r0, #3154116608
	movw	r7, #6144
	add.w	r2, r2, #33423360
	movt	r7, #16898
	mov	r9, r1
.Ltmp3:
	@DEBUG_VALUE: HAL_GPIO_Init:GPIO_Init <- $r9
	@DEBUG_VALUE: HAL_GPIO_Init:GPIO_Init <- $r9
	ror.w	r3, r2, #10
	movs	r1, #7
	cmp	r0, r7
	it	eq
	moveq	r1, #6
	cmp	r3, #6
	it	lo
	rorlo.w	r1, r2, #10
	mov.w	r11, #0
	mov.w	r8, #0
	movs	r7, #1
	movs	r4, #0
	movs	r3, #0
	str	r1, [sp]                        @ 4-byte Spill
	str.w	r9, [sp, #12]                   @ 4-byte Spill
	b	.LBB0_3
.Ltmp4:
	.p2align	2
.LBB0_2:                                @   in Loop: Header=BB0_3 Depth=1
	@DEBUG_VALUE: HAL_GPIO_Init:position <- $r3
	@DEBUG_VALUE: HAL_GPIO_Init:GPIOx <- $r0
	@DEBUG_VALUE: HAL_GPIO_Init:iocurrent <- [DW_OP_plus_uconst 8] [$sp+0]
	.loc	5 180 23                        @ c:/Keil_v5\ARM\PACK\Keil\STM32L5xx_DFP\1.3.0\Drivers\STM32L5xx_HAL_Driver\Src\stm32l5xx_hal_gpio.c:180:23
	ldr.w	r5, [r9]
.Ltmp5:
	.loc	5 278 13 is_stmt 1              @ c:/Keil_v5\ARM\PACK\Keil\STM32L5xx_DFP\1.3.0\Drivers\STM32L5xx_HAL_Driver\Src\stm32l5xx_hal_gpio.c:278:13
	adds	r3, #1
.Ltmp6:
	@DEBUG_VALUE: HAL_GPIO_Init:position <- $r3
	.loc	5 180 28                        @ c:/Keil_v5\ARM\PACK\Keil\STM32L5xx_DFP\1.3.0\Drivers\STM32L5xx_HAL_Driver\Src\stm32l5xx_hal_gpio.c:180:28
	lsrs.w	r1, r5, r7
	.loc	5 180 3 is_stmt 0               @ c:/Keil_v5\ARM\PACK\Keil\STM32L5xx_DFP\1.3.0\Drivers\STM32L5xx_HAL_Driver\Src\stm32l5xx_hal_gpio.c:180:3
	add.w	r4, r4, #2
	add.w	r7, r7, #1
	add.w	r8, r8, #8
	add.w	r11, r11, #4
	beq.w	.LBB0_12
.Ltmp7:
.LBB0_3:                                @ =>This Inner Loop Header: Depth=1
	@DEBUG_VALUE: HAL_GPIO_Init:GPIOx <- $r0
	@DEBUG_VALUE: HAL_GPIO_Init:position <- $r3
	.loc	5 183 41 is_stmt 1              @ c:/Keil_v5\ARM\PACK\Keil\STM32L5xx_DFP\1.3.0\Drivers\STM32L5xx_HAL_Driver\Src\stm32l5xx_hal_gpio.c:183:41
	subs	r6, r7, #1
	movs	r1, #1
	lsl.w	r10, r1, r6
	.loc	5 183 34 is_stmt 0              @ c:/Keil_v5\ARM\PACK\Keil\STM32L5xx_DFP\1.3.0\Drivers\STM32L5xx_HAL_Driver\Src\stm32l5xx_hal_gpio.c:183:34
	ands.w	r1, r5, r10
.Ltmp8:
	@DEBUG_VALUE: HAL_GPIO_Init:iocurrent <- $r1
	.loc	5 185 8 is_stmt 1               @ c:/Keil_v5\ARM\PACK\Keil\STM32L5xx_DFP\1.3.0\Drivers\STM32L5xx_HAL_Driver\Src\stm32l5xx_hal_gpio.c:185:8
	str	r1, [sp, #8]                    @ 4-byte Spill
.Ltmp9:
	@DEBUG_VALUE: HAL_GPIO_Init:iocurrent <- [DW_OP_plus_uconst 8] [$sp+0]
	@DEBUG_VALUE: HAL_GPIO_Init:iocurrent <- [DW_OP_plus_uconst 8] [$sp+0]
	@DEBUG_VALUE: HAL_GPIO_Init:iocurrent <- [DW_OP_plus_uconst 8] [$sp+0]
	beq	.LBB0_2
.Ltmp10:
@ %bb.4:                                @   in Loop: Header=BB0_3 Depth=1
	@DEBUG_VALUE: HAL_GPIO_Init:position <- $r3
	@DEBUG_VALUE: HAL_GPIO_Init:GPIOx <- $r0
	@DEBUG_VALUE: HAL_GPIO_Init:iocurrent <- [DW_OP_plus_uconst 8] [$sp+0]
	.loc	5 189 22                        @ c:/Keil_v5\ARM\PACK\Keil\STM32L5xx_DFP\1.3.0\Drivers\STM32L5xx_HAL_Driver\Src\stm32l5xx_hal_gpio.c:189:22
	ldr.w	lr, [r9, #4]
	.loc	5 189 51 is_stmt 0              @ c:/Keil_v5\ARM\PACK\Keil\STM32L5xx_DFP\1.3.0\Drivers\STM32L5xx_HAL_Driver\Src\stm32l5xx_hal_gpio.c:189:51
	cmp.w	lr, #18
	bhi.w	.LBB0_11
.Ltmp11:
@ %bb.5:                                @   in Loop: Header=BB0_3 Depth=1
	@DEBUG_VALUE: HAL_GPIO_Init:position <- $r3
	@DEBUG_VALUE: HAL_GPIO_Init:GPIOx <- $r0
	@DEBUG_VALUE: HAL_GPIO_Init:iocurrent <- [DW_OP_plus_uconst 8] [$sp+0]
	.loc	5 0 51                          @ c:/Keil_v5\ARM\PACK\Keil\STM32L5xx_DFP\1.3.0\Drivers\STM32L5xx_HAL_Driver\Src\stm32l5xx_hal_gpio.c:0:51
	movs	r1, #1
	lsl.w	r5, r1, lr
	tst.w	r5, #393222
	beq.w	.LBB0_11
.Ltmp12:
@ %bb.6:                                @   in Loop: Header=BB0_3 Depth=1
	@DEBUG_VALUE: HAL_GPIO_Init:position <- $r3
	@DEBUG_VALUE: HAL_GPIO_Init:GPIOx <- $r0
	@DEBUG_VALUE: HAL_GPIO_Init:iocurrent <- [DW_OP_plus_uconst 8] [$sp+0]
	.loc	5 196 53 is_stmt 1              @ c:/Keil_v5\ARM\PACK\Keil\STM32L5xx_DFP\1.3.0\Drivers\STM32L5xx_HAL_Driver\Src\stm32l5xx_hal_gpio.c:196:53
	lsls	r1, r3, #1
	.loc	5 195 23                        @ c:/Keil_v5\ARM\PACK\Keil\STM32L5xx_DFP\1.3.0\Drivers\STM32L5xx_HAL_Driver\Src\stm32l5xx_hal_gpio.c:195:23
	ldr.w	r12, [r0, #8]
.Ltmp13:
	@DEBUG_VALUE: HAL_GPIO_Init:temp <- $r12
	.loc	5 196 40                        @ c:/Keil_v5\ARM\PACK\Keil\STM32L5xx_DFP\1.3.0\Drivers\STM32L5xx_HAL_Driver\Src\stm32l5xx_hal_gpio.c:196:40
	str	r1, [sp, #4]                    @ 4-byte Spill
	movs	r1, #3
	lsl.w	r5, r1, r4
	.loc	5 197 29                        @ c:/Keil_v5\ARM\PACK\Keil\STM32L5xx_DFP\1.3.0\Drivers\STM32L5xx_HAL_Driver\Src\stm32l5xx_hal_gpio.c:197:29
	ldr	r1, [sp, #12]                   @ 4-byte Reload
	ldr.w	r9, [r1, #12]
.Ltmp14:
	@DEBUG_VALUE: HAL_GPIO_Init:GPIO_Init <- [DW_OP_LLVM_entry_value 1] $r1
	.loc	5 196 14                        @ c:/Keil_v5\ARM\PACK\Keil\STM32L5xx_DFP\1.3.0\Drivers\STM32L5xx_HAL_Driver\Src\stm32l5xx_hal_gpio.c:196:14
	bic.w	r1, r12, r5
.Ltmp15:
	@DEBUG_VALUE: HAL_GPIO_Init:temp <- $r1
	.loc	5 197 35                        @ c:/Keil_v5\ARM\PACK\Keil\STM32L5xx_DFP\1.3.0\Drivers\STM32L5xx_HAL_Driver\Src\stm32l5xx_hal_gpio.c:197:35
	lsl.w	r2, r9, r4
	.loc	5 197 14 is_stmt 0              @ c:/Keil_v5\ARM\PACK\Keil\STM32L5xx_DFP\1.3.0\Drivers\STM32L5xx_HAL_Driver\Src\stm32l5xx_hal_gpio.c:197:14
	orrs	r1, r2
.Ltmp16:
	@DEBUG_VALUE: HAL_GPIO_Init:temp <- $r1
	.loc	5 0 14                          @ c:/Keil_v5\ARM\PACK\Keil\STM32L5xx_DFP\1.3.0\Drivers\STM32L5xx_HAL_Driver\Src\stm32l5xx_hal_gpio.c:0:14
	ldr.w	r9, [sp, #12]                   @ 4-byte Reload
	.loc	5 198 24 is_stmt 1              @ c:/Keil_v5\ARM\PACK\Keil\STM32L5xx_DFP\1.3.0\Drivers\STM32L5xx_HAL_Driver\Src\stm32l5xx_hal_gpio.c:198:24
	str	r1, [r0, #8]
	.loc	5 201 23                        @ c:/Keil_v5\ARM\PACK\Keil\STM32L5xx_DFP\1.3.0\Drivers\STM32L5xx_HAL_Driver\Src\stm32l5xx_hal_gpio.c:201:23
	ldr	r1, [r0, #4]
.Ltmp17:
	@DEBUG_VALUE: HAL_GPIO_Init:temp <- $r1
	.loc	5 203 56                        @ c:/Keil_v5\ARM\PACK\Keil\STM32L5xx_DFP\1.3.0\Drivers\STM32L5xx_HAL_Driver\Src\stm32l5xx_hal_gpio.c:203:56
	lsr.w	r2, lr, #4
	.loc	5 202 14                        @ c:/Keil_v5\ARM\PACK\Keil\STM32L5xx_DFP\1.3.0\Drivers\STM32L5xx_HAL_Driver\Src\stm32l5xx_hal_gpio.c:202:14
	bic.w	r1, r1, r10
.Ltmp18:
	@DEBUG_VALUE: HAL_GPIO_Init:temp <- $r1
	.loc	5 0 14 is_stmt 0                @ c:/Keil_v5\ARM\PACK\Keil\STM32L5xx_DFP\1.3.0\Drivers\STM32L5xx_HAL_Driver\Src\stm32l5xx_hal_gpio.c:0:14
	ldr.w	r10, [sp, #4]                   @ 4-byte Reload
	.loc	5 203 62 is_stmt 1              @ c:/Keil_v5\ARM\PACK\Keil\STM32L5xx_DFP\1.3.0\Drivers\STM32L5xx_HAL_Driver\Src\stm32l5xx_hal_gpio.c:203:62
	lsls	r2, r6
	.loc	5 196 17                        @ c:/Keil_v5\ARM\PACK\Keil\STM32L5xx_DFP\1.3.0\Drivers\STM32L5xx_HAL_Driver\Src\stm32l5xx_hal_gpio.c:196:17
	mvn.w	r12, r5
	.loc	5 203 14                        @ c:/Keil_v5\ARM\PACK\Keil\STM32L5xx_DFP\1.3.0\Drivers\STM32L5xx_HAL_Driver\Src\stm32l5xx_hal_gpio.c:203:14
	orrs	r1, r2
.Ltmp19:
	@DEBUG_VALUE: HAL_GPIO_Init:temp <- $r1
	.loc	5 204 23                        @ c:/Keil_v5\ARM\PACK\Keil\STM32L5xx_DFP\1.3.0\Drivers\STM32L5xx_HAL_Driver\Src\stm32l5xx_hal_gpio.c:204:23
	str	r1, [r0, #4]
.Ltmp20:
.LBB0_7:                                @   in Loop: Header=BB0_3 Depth=1
	@DEBUG_VALUE: HAL_GPIO_Init:position <- $r3
	@DEBUG_VALUE: HAL_GPIO_Init:GPIOx <- $r0
	@DEBUG_VALUE: HAL_GPIO_Init:iocurrent <- [DW_OP_plus_uconst 8] [$sp+0]
	.loc	5 208 21                        @ c:/Keil_v5\ARM\PACK\Keil\STM32L5xx_DFP\1.3.0\Drivers\STM32L5xx_HAL_Driver\Src\stm32l5xx_hal_gpio.c:208:21
	ldr	r1, [r0, #12]
.Ltmp21:
	@DEBUG_VALUE: HAL_GPIO_Init:temp <- $r1
	.loc	5 210 28                        @ c:/Keil_v5\ARM\PACK\Keil\STM32L5xx_DFP\1.3.0\Drivers\STM32L5xx_HAL_Driver\Src\stm32l5xx_hal_gpio.c:210:28
	ldr.w	r2, [r9, #8]
	.loc	5 209 12                        @ c:/Keil_v5\ARM\PACK\Keil\STM32L5xx_DFP\1.3.0\Drivers\STM32L5xx_HAL_Driver\Src\stm32l5xx_hal_gpio.c:209:12
	and.w	r1, r1, r12
.Ltmp22:
	@DEBUG_VALUE: HAL_GPIO_Init:temp <- $r1
	.loc	5 210 34                        @ c:/Keil_v5\ARM\PACK\Keil\STM32L5xx_DFP\1.3.0\Drivers\STM32L5xx_HAL_Driver\Src\stm32l5xx_hal_gpio.c:210:34
	lsl.w	r2, r2, r10
	.loc	5 210 12 is_stmt 0              @ c:/Keil_v5\ARM\PACK\Keil\STM32L5xx_DFP\1.3.0\Drivers\STM32L5xx_HAL_Driver\Src\stm32l5xx_hal_gpio.c:210:12
	orrs	r1, r2
.Ltmp23:
	@DEBUG_VALUE: HAL_GPIO_Init:temp <- $r1
	.loc	5 214 47 is_stmt 1              @ c:/Keil_v5\ARM\PACK\Keil\STM32L5xx_DFP\1.3.0\Drivers\STM32L5xx_HAL_Driver\Src\stm32l5xx_hal_gpio.c:214:47
	orr	r2, lr, #16
	cmp	r2, #18
.Ltmp24:
	.loc	5 211 20                        @ c:/Keil_v5\ARM\PACK\Keil\STM32L5xx_DFP\1.3.0\Drivers\STM32L5xx_HAL_Driver\Src\stm32l5xx_hal_gpio.c:211:20
	str	r1, [r0, #12]
.Ltmp25:
	.loc	5 214 47                        @ c:/Keil_v5\ARM\PACK\Keil\STM32L5xx_DFP\1.3.0\Drivers\STM32L5xx_HAL_Driver\Src\stm32l5xx_hal_gpio.c:214:47
	bne	.LBB0_9
.Ltmp26:
@ %bb.8:                                @   in Loop: Header=BB0_3 Depth=1
	@DEBUG_VALUE: HAL_GPIO_Init:position <- $r3
	@DEBUG_VALUE: HAL_GPIO_Init:temp <- $r1
	@DEBUG_VALUE: HAL_GPIO_Init:GPIOx <- $r0
	@DEBUG_VALUE: HAL_GPIO_Init:iocurrent <- [DW_OP_plus_uconst 8] [$sp+0]
	.loc	5 221 36                        @ c:/Keil_v5\ARM\PACK\Keil\STM32L5xx_DFP\1.3.0\Drivers\STM32L5xx_HAL_Driver\Src\stm32l5xx_hal_gpio.c:221:36
	mvn	r1, #3
.Ltmp27:
	and.w	r1, r1, r6, lsr #1
	.loc	5 222 49                        @ c:/Keil_v5\ARM\PACK\Keil\STM32L5xx_DFP\1.3.0\Drivers\STM32L5xx_HAL_Driver\Src\stm32l5xx_hal_gpio.c:222:49
	and	r5, r11, #28
	.loc	5 221 16                        @ c:/Keil_v5\ARM\PACK\Keil\STM32L5xx_DFP\1.3.0\Drivers\STM32L5xx_HAL_Driver\Src\stm32l5xx_hal_gpio.c:221:16
	add	r1, r0
	.loc	5 222 26                        @ c:/Keil_v5\ARM\PACK\Keil\STM32L5xx_DFP\1.3.0\Drivers\STM32L5xx_HAL_Driver\Src\stm32l5xx_hal_gpio.c:222:26
	movs	r2, #15
	.loc	5 221 16                        @ c:/Keil_v5\ARM\PACK\Keil\STM32L5xx_DFP\1.3.0\Drivers\STM32L5xx_HAL_Driver\Src\stm32l5xx_hal_gpio.c:221:16
	ldr.w	lr, [r1, #32]
.Ltmp28:
	@DEBUG_VALUE: HAL_GPIO_Init:temp <- $lr
	.loc	5 222 26                        @ c:/Keil_v5\ARM\PACK\Keil\STM32L5xx_DFP\1.3.0\Drivers\STM32L5xx_HAL_Driver\Src\stm32l5xx_hal_gpio.c:222:26
	lsl.w	r9, r2, r5
	.loc	5 223 30                        @ c:/Keil_v5\ARM\PACK\Keil\STM32L5xx_DFP\1.3.0\Drivers\STM32L5xx_HAL_Driver\Src\stm32l5xx_hal_gpio.c:223:30
	ldr	r2, [sp, #12]                   @ 4-byte Reload
	.loc	5 222 14                        @ c:/Keil_v5\ARM\PACK\Keil\STM32L5xx_DFP\1.3.0\Drivers\STM32L5xx_HAL_Driver\Src\stm32l5xx_hal_gpio.c:222:14
	bic.w	lr, lr, r9
.Ltmp29:
	@DEBUG_VALUE: HAL_GPIO_Init:temp <- $lr
	.loc	5 223 30                        @ c:/Keil_v5\ARM\PACK\Keil\STM32L5xx_DFP\1.3.0\Drivers\STM32L5xx_HAL_Driver\Src\stm32l5xx_hal_gpio.c:223:30
	ldr	r2, [r2, #16]
	ldr.w	r9, [sp, #12]                   @ 4-byte Reload
	.loc	5 223 41 is_stmt 0              @ c:/Keil_v5\ARM\PACK\Keil\STM32L5xx_DFP\1.3.0\Drivers\STM32L5xx_HAL_Driver\Src\stm32l5xx_hal_gpio.c:223:41
	lsls	r2, r5
	.loc	5 223 14                        @ c:/Keil_v5\ARM\PACK\Keil\STM32L5xx_DFP\1.3.0\Drivers\STM32L5xx_HAL_Driver\Src\stm32l5xx_hal_gpio.c:223:14
	orr.w	r2, r2, lr
.Ltmp30:
	@DEBUG_VALUE: HAL_GPIO_Init:temp <- $r2
	.loc	5 224 36 is_stmt 1              @ c:/Keil_v5\ARM\PACK\Keil\STM32L5xx_DFP\1.3.0\Drivers\STM32L5xx_HAL_Driver\Src\stm32l5xx_hal_gpio.c:224:36
	str	r2, [r1, #32]
.Ltmp31:
	.loc	5 230 28                        @ c:/Keil_v5\ARM\PACK\Keil\STM32L5xx_DFP\1.3.0\Drivers\STM32L5xx_HAL_Driver\Src\stm32l5xx_hal_gpio.c:230:28
	ldr.w	lr, [r9, #4]
.Ltmp32:
.LBB0_9:                                @   in Loop: Header=BB0_3 Depth=1
	@DEBUG_VALUE: HAL_GPIO_Init:position <- $r3
	@DEBUG_VALUE: HAL_GPIO_Init:GPIOx <- $r0
	@DEBUG_VALUE: HAL_GPIO_Init:iocurrent <- [DW_OP_plus_uconst 8] [$sp+0]
	.loc	5 228 21                        @ c:/Keil_v5\ARM\PACK\Keil\STM32L5xx_DFP\1.3.0\Drivers\STM32L5xx_HAL_Driver\Src\stm32l5xx_hal_gpio.c:228:21
	ldr	r1, [r0]
.Ltmp33:
	@DEBUG_VALUE: HAL_GPIO_Init:temp <- $r1
	.loc	5 230 33                        @ c:/Keil_v5\ARM\PACK\Keil\STM32L5xx_DFP\1.3.0\Drivers\STM32L5xx_HAL_Driver\Src\stm32l5xx_hal_gpio.c:230:33
	and	r2, lr, #3
	.loc	5 229 12                        @ c:/Keil_v5\ARM\PACK\Keil\STM32L5xx_DFP\1.3.0\Drivers\STM32L5xx_HAL_Driver\Src\stm32l5xx_hal_gpio.c:229:12
	and.w	r1, r1, r12
.Ltmp34:
	@DEBUG_VALUE: HAL_GPIO_Init:temp <- $r1
	.loc	5 230 46                        @ c:/Keil_v5\ARM\PACK\Keil\STM32L5xx_DFP\1.3.0\Drivers\STM32L5xx_HAL_Driver\Src\stm32l5xx_hal_gpio.c:230:46
	lsl.w	r2, r2, r10
	.loc	5 230 12 is_stmt 0              @ c:/Keil_v5\ARM\PACK\Keil\STM32L5xx_DFP\1.3.0\Drivers\STM32L5xx_HAL_Driver\Src\stm32l5xx_hal_gpio.c:230:12
	orrs	r1, r2
.Ltmp35:
	@DEBUG_VALUE: HAL_GPIO_Init:temp <- $r1
	.loc	5 235 10 is_stmt 1              @ c:/Keil_v5\ARM\PACK\Keil\STM32L5xx_DFP\1.3.0\Drivers\STM32L5xx_HAL_Driver\Src\stm32l5xx_hal_gpio.c:235:10
	lsls.w	r2, lr, #3
	.loc	5 231 20                        @ c:/Keil_v5\ARM\PACK\Keil\STM32L5xx_DFP\1.3.0\Drivers\STM32L5xx_HAL_Driver\Src\stm32l5xx_hal_gpio.c:231:20
	str	r1, [r0]
	.loc	5 235 10                        @ c:/Keil_v5\ARM\PACK\Keil\STM32L5xx_DFP\1.3.0\Drivers\STM32L5xx_HAL_Driver\Src\stm32l5xx_hal_gpio.c:235:10
	bpl	.LBB0_2
.Ltmp36:
@ %bb.10:                               @   in Loop: Header=BB0_3 Depth=1
	@DEBUG_VALUE: HAL_GPIO_Init:position <- $r3
	@DEBUG_VALUE: HAL_GPIO_Init:temp <- $r1
	@DEBUG_VALUE: HAL_GPIO_Init:GPIOx <- $r0
	@DEBUG_VALUE: HAL_GPIO_Init:iocurrent <- [DW_OP_plus_uconst 8] [$sp+0]
	.loc	5 0 10 is_stmt 0                @ c:/Keil_v5\ARM\PACK\Keil\STM32L5xx_DFP\1.3.0\Drivers\STM32L5xx_HAL_Driver\Src\stm32l5xx_hal_gpio.c:0:10
	movw	lr, #62464
.Ltmp37:
	.loc	5 237 38 is_stmt 1              @ c:/Keil_v5\ARM\PACK\Keil\STM32L5xx_DFP\1.3.0\Drivers\STM32L5xx_HAL_Driver\Src\stm32l5xx_hal_gpio.c:237:38
	bic	r1, r6, #3
.Ltmp38:
	.loc	5 0 38 is_stmt 0                @ c:/Keil_v5\ARM\PACK\Keil\STM32L5xx_DFP\1.3.0\Drivers\STM32L5xx_HAL_Driver\Src\stm32l5xx_hal_gpio.c:0:38
	movt	lr, #16386
	.loc	5 237 16                        @ c:/Keil_v5\ARM\PACK\Keil\STM32L5xx_DFP\1.3.0\Drivers\STM32L5xx_HAL_Driver\Src\stm32l5xx_hal_gpio.c:237:16
	add	r1, lr
	ldr.w	r12, [r1, #96]
.Ltmp39:
	@DEBUG_VALUE: HAL_GPIO_Init:temp <- $r12
	.loc	5 238 34 is_stmt 1              @ c:/Keil_v5\ARM\PACK\Keil\STM32L5xx_DFP\1.3.0\Drivers\STM32L5xx_HAL_Driver\Src\stm32l5xx_hal_gpio.c:238:34
	and	r5, r8, #24
	.loc	5 238 27 is_stmt 0              @ c:/Keil_v5\ARM\PACK\Keil\STM32L5xx_DFP\1.3.0\Drivers\STM32L5xx_HAL_Driver\Src\stm32l5xx_hal_gpio.c:238:27
	movs	r2, #15
	lsls	r2, r5
	.loc	5 238 14                        @ c:/Keil_v5\ARM\PACK\Keil\STM32L5xx_DFP\1.3.0\Drivers\STM32L5xx_HAL_Driver\Src\stm32l5xx_hal_gpio.c:238:14
	bic.w	r12, r12, r2
.Ltmp40:
	@DEBUG_VALUE: HAL_GPIO_Init:temp <- $r12
	.loc	5 239 40 is_stmt 1              @ c:/Keil_v5\ARM\PACK\Keil\STM32L5xx_DFP\1.3.0\Drivers\STM32L5xx_HAL_Driver\Src\stm32l5xx_hal_gpio.c:239:40
	ldr	r2, [sp]                        @ 4-byte Reload
	lsl.w	r5, r2, r5
	.loc	5 239 14 is_stmt 0              @ c:/Keil_v5\ARM\PACK\Keil\STM32L5xx_DFP\1.3.0\Drivers\STM32L5xx_HAL_Driver\Src\stm32l5xx_hal_gpio.c:239:14
	orr.w	r2, r5, r12
.Ltmp41:
	@DEBUG_VALUE: HAL_GPIO_Init:temp <- $r2
	.loc	5 240 38 is_stmt 1              @ c:/Keil_v5\ARM\PACK\Keil\STM32L5xx_DFP\1.3.0\Drivers\STM32L5xx_HAL_Driver\Src\stm32l5xx_hal_gpio.c:240:38
	str	r2, [r1, #96]
	.loc	5 243 22                        @ c:/Keil_v5\ARM\PACK\Keil\STM32L5xx_DFP\1.3.0\Drivers\STM32L5xx_HAL_Driver\Src\stm32l5xx_hal_gpio.c:243:22
	ldr.w	r12, [lr, #128]
.Ltmp42:
	@DEBUG_VALUE: HAL_GPIO_Init:temp <- undef
	.loc	5 0 22 is_stmt 0                @ c:/Keil_v5\ARM\PACK\Keil\STM32L5xx_DFP\1.3.0\Drivers\STM32L5xx_HAL_Driver\Src\stm32l5xx_hal_gpio.c:0:22
	ldr	r6, [sp, #8]                    @ 4-byte Reload
.Ltmp43:
	.loc	5 245 24 is_stmt 1              @ c:/Keil_v5\ARM\PACK\Keil\STM32L5xx_DFP\1.3.0\Drivers\STM32L5xx_HAL_Driver\Src\stm32l5xx_hal_gpio.c:245:24
	ldr.w	r2, [r9, #4]
	orr.w	r5, r12, r6
.Ltmp44:
	.loc	5 245 12 is_stmt 0              @ c:/Keil_v5\ARM\PACK\Keil\STM32L5xx_DFP\1.3.0\Drivers\STM32L5xx_HAL_Driver\Src\stm32l5xx_hal_gpio.c:245:12
	lsls	r1, r2, #15
	it	pl
	bicpl.w	r5, r12, r6
.Ltmp45:
	@DEBUG_VALUE: HAL_GPIO_Init:temp <- $r5
	.loc	5 249 20 is_stmt 1              @ c:/Keil_v5\ARM\PACK\Keil\STM32L5xx_DFP\1.3.0\Drivers\STM32L5xx_HAL_Driver\Src\stm32l5xx_hal_gpio.c:249:20
	str.w	r5, [lr, #128]
	.loc	5 251 22                        @ c:/Keil_v5\ARM\PACK\Keil\STM32L5xx_DFP\1.3.0\Drivers\STM32L5xx_HAL_Driver\Src\stm32l5xx_hal_gpio.c:251:22
	ldr.w	r12, [lr, #132]
.Ltmp46:
	@DEBUG_VALUE: HAL_GPIO_Init:temp <- undef
	.loc	5 253 12                        @ c:/Keil_v5\ARM\PACK\Keil\STM32L5xx_DFP\1.3.0\Drivers\STM32L5xx_HAL_Driver\Src\stm32l5xx_hal_gpio.c:253:12
	lsls	r1, r2, #14
	orr.w	r5, r12, r6
	it	pl
	bicpl.w	r5, r12, r6
.Ltmp47:
	@DEBUG_VALUE: HAL_GPIO_Init:temp <- $r5
	.loc	5 257 20                        @ c:/Keil_v5\ARM\PACK\Keil\STM32L5xx_DFP\1.3.0\Drivers\STM32L5xx_HAL_Driver\Src\stm32l5xx_hal_gpio.c:257:20
	str.w	r5, [lr, #132]
	.loc	5 260 22                        @ c:/Keil_v5\ARM\PACK\Keil\STM32L5xx_DFP\1.3.0\Drivers\STM32L5xx_HAL_Driver\Src\stm32l5xx_hal_gpio.c:260:22
	ldr.w	r12, [lr]
.Ltmp48:
	@DEBUG_VALUE: HAL_GPIO_Init:temp <- undef
	.loc	5 262 12                        @ c:/Keil_v5\ARM\PACK\Keil\STM32L5xx_DFP\1.3.0\Drivers\STM32L5xx_HAL_Driver\Src\stm32l5xx_hal_gpio.c:262:12
	lsls	r1, r2, #11
	orr.w	r5, r12, r6
	it	pl
	bicpl.w	r5, r12, r6
.Ltmp49:
	@DEBUG_VALUE: HAL_GPIO_Init:temp <- $r5
	.loc	5 266 21                        @ c:/Keil_v5\ARM\PACK\Keil\STM32L5xx_DFP\1.3.0\Drivers\STM32L5xx_HAL_Driver\Src\stm32l5xx_hal_gpio.c:266:21
	str.w	r5, [lr]
	.loc	5 268 22                        @ c:/Keil_v5\ARM\PACK\Keil\STM32L5xx_DFP\1.3.0\Drivers\STM32L5xx_HAL_Driver\Src\stm32l5xx_hal_gpio.c:268:22
	ldr.w	r1, [lr, #4]
.Ltmp50:
	@DEBUG_VALUE: HAL_GPIO_Init:temp <- undef
	.loc	5 270 12                        @ c:/Keil_v5\ARM\PACK\Keil\STM32L5xx_DFP\1.3.0\Drivers\STM32L5xx_HAL_Driver\Src\stm32l5xx_hal_gpio.c:270:12
	lsls	r2, r2, #10
	orr.w	r5, r1, r6
	it	pl
	bicpl.w	r5, r1, r6
.Ltmp51:
	@DEBUG_VALUE: HAL_GPIO_Init:temp <- $r5
	.loc	5 274 21                        @ c:/Keil_v5\ARM\PACK\Keil\STM32L5xx_DFP\1.3.0\Drivers\STM32L5xx_HAL_Driver\Src\stm32l5xx_hal_gpio.c:274:21
	str.w	r5, [lr, #4]
	b	.LBB0_2
.Ltmp52:
	.p2align	2
.LBB0_11:                               @   in Loop: Header=BB0_3 Depth=1
	@DEBUG_VALUE: HAL_GPIO_Init:position <- $r3
	@DEBUG_VALUE: HAL_GPIO_Init:GPIOx <- $r0
	@DEBUG_VALUE: HAL_GPIO_Init:iocurrent <- [DW_OP_plus_uconst 8] [$sp+0]
	.loc	5 209 34                        @ c:/Keil_v5\ARM\PACK\Keil\STM32L5xx_DFP\1.3.0\Drivers\STM32L5xx_HAL_Driver\Src\stm32l5xx_hal_gpio.c:209:34
	movs	r1, #3
	lsl.w	r5, r1, r4
	.loc	5 209 15 is_stmt 0              @ c:/Keil_v5\ARM\PACK\Keil\STM32L5xx_DFP\1.3.0\Drivers\STM32L5xx_HAL_Driver\Src\stm32l5xx_hal_gpio.c:209:15
	mvn.w	r12, r5
	.loc	5 209 47                        @ c:/Keil_v5\ARM\PACK\Keil\STM32L5xx_DFP\1.3.0\Drivers\STM32L5xx_HAL_Driver\Src\stm32l5xx_hal_gpio.c:209:47
	mov	r10, r4
	b	.LBB0_7
.Ltmp53:
	.p2align	2
.LBB0_12:
	@DEBUG_VALUE: HAL_GPIO_Init:GPIOx <- $r0
	.loc	5 280 1 is_stmt 1               @ c:/Keil_v5\ARM\PACK\Keil\STM32L5xx_DFP\1.3.0\Drivers\STM32L5xx_HAL_Driver\Src\stm32l5xx_hal_gpio.c:280:1
	add	sp, #16
	pop.w	{r4, r5, r6, r7, r8, r9, r10, r11, pc}
.Ltmp54:
.Lfunc_end0:
	.size	HAL_GPIO_Init, .Lfunc_end0-HAL_GPIO_Init
	.cfi_endproc
	.cantunwind
	.fnend
                                        @ -- End function
	.section	.text.HAL_GPIO_DeInit,"ax",%progbits
	.hidden	HAL_GPIO_DeInit                 @ -- Begin function HAL_GPIO_DeInit
	.globl	HAL_GPIO_DeInit
	.p2align	2
	.type	HAL_GPIO_DeInit,%function
	.code	16                              @ @HAL_GPIO_DeInit
	.thumb_func
HAL_GPIO_DeInit:
.Lfunc_begin1:
	.loc	5 290 0                         @ c:/Keil_v5\ARM\PACK\Keil\STM32L5xx_DFP\1.3.0\Drivers\STM32L5xx_HAL_Driver\Src\stm32l5xx_hal_gpio.c:290:0
	.fnstart
	.cfi_startproc
@ %bb.0:
	@DEBUG_VALUE: HAL_GPIO_DeInit:GPIOx <- $r0
	@DEBUG_VALUE: HAL_GPIO_DeInit:GPIO_Pin <- $r1
	@DEBUG_VALUE: HAL_GPIO_DeInit:GPIO_Pin <- $r1
	.save	{r4, r5, r6, r7, r8, r9, r10, r11, lr}
	push.w	{r4, r5, r6, r7, r8, r9, r10, r11, lr}
	.cfi_def_cfa_offset 36
	.cfi_offset lr, -4
	.cfi_offset r11, -8
	.cfi_offset r10, -12
	.cfi_offset r9, -16
	.cfi_offset r8, -20
	.cfi_offset r7, -24
	.cfi_offset r6, -28
	.cfi_offset r5, -32
	.cfi_offset r4, -36
	.pad	#12
	sub	sp, #12
	.cfi_def_cfa_offset 48
.Ltmp55:
	.loc	5 300 3 prologue_end            @ c:/Keil_v5\ARM\PACK\Keil\STM32L5xx_DFP\1.3.0\Drivers\STM32L5xx_HAL_Driver\Src\stm32l5xx_hal_gpio.c:300:3
	cmp	r1, #0
.Ltmp56:
	@DEBUG_VALUE: HAL_GPIO_DeInit:position <- 0
	@DEBUG_VALUE: HAL_GPIO_DeInit:GPIOx <- $r0
	beq.w	.LBB1_14
.Ltmp57:
@ %bb.1:
	@DEBUG_VALUE: HAL_GPIO_DeInit:GPIO_Pin <- $r1
	@DEBUG_VALUE: HAL_GPIO_DeInit:GPIOx <- $r0
	@DEBUG_VALUE: HAL_GPIO_DeInit:position <- 0
	.loc	5 0 3 is_stmt 0                 @ c:/Keil_v5\ARM\PACK\Keil\STM32L5xx_DFP\1.3.0\Drivers\STM32L5xx_HAL_Driver\Src\stm32l5xx_hal_gpio.c:0:3
	movw	r3, #6144
	add.w	r2, r0, #3154116608
	movt	r3, #16898
	add.w	r2, r2, #33423360
	movs	r7, #7
	cmp	r0, r3
	it	eq
	moveq	r7, #6
	movs	r3, #0
	.loc	5 300 3                         @ c:/Keil_v5\ARM\PACK\Keil\STM32L5xx_DFP\1.3.0\Drivers\STM32L5xx_HAL_Driver\Src\stm32l5xx_hal_gpio.c:300:3
	cmp.w	r3, r2, ror #10
	str	r1, [sp, #8]                    @ 4-byte Spill
	beq	.LBB1_8
.Ltmp58:
@ %bb.2:
	@DEBUG_VALUE: HAL_GPIO_DeInit:GPIO_Pin <- $r1
	@DEBUG_VALUE: HAL_GPIO_DeInit:GPIOx <- $r0
	@DEBUG_VALUE: HAL_GPIO_DeInit:position <- 0
	.loc	5 0 3                           @ c:/Keil_v5\ARM\PACK\Keil\STM32L5xx_DFP\1.3.0\Drivers\STM32L5xx_HAL_Driver\Src\stm32l5xx_hal_gpio.c:0:3
	ror.w	r2, r2, #10
	subs	r3, r2, #1
	cmp	r3, #5
	it	lo
	movlo	r7, r2
	str	r7, [sp]                        @ 4-byte Spill
	movs	r3, #0
	mov.w	r10, #15
	movs	r7, #0
	movs	r5, #0
	movs	r6, #1
	b	.LBB1_5
.Ltmp59:
	.p2align	2
.LBB1_3:                                @   in Loop: Header=BB1_5 Depth=1
	@DEBUG_VALUE: HAL_GPIO_DeInit:iocurrent <- $r9
	@DEBUG_VALUE: HAL_GPIO_DeInit:position <- [DW_OP_constu 1, DW_OP_minus, DW_OP_stack_value] $r6
	@DEBUG_VALUE: HAL_GPIO_DeInit:GPIOx <- $r0
	.loc	5 328 20 is_stmt 1              @ c:/Keil_v5\ARM\PACK\Keil\STM32L5xx_DFP\1.3.0\Drivers\STM32L5xx_HAL_Driver\Src\stm32l5xx_hal_gpio.c:328:20
	ldr	r1, [r0]
	.loc	5 328 41 is_stmt 0              @ c:/Keil_v5\ARM\PACK\Keil\STM32L5xx_DFP\1.3.0\Drivers\STM32L5xx_HAL_Driver\Src\stm32l5xx_hal_gpio.c:328:41
	movs	r4, #3
	lsls	r4, r7
	.loc	5 328 20                        @ c:/Keil_v5\ARM\PACK\Keil\STM32L5xx_DFP\1.3.0\Drivers\STM32L5xx_HAL_Driver\Src\stm32l5xx_hal_gpio.c:328:20
	orrs	r1, r4
	str	r1, [r0]
	.loc	5 331 27 is_stmt 1              @ c:/Keil_v5\ARM\PACK\Keil\STM32L5xx_DFP\1.3.0\Drivers\STM32L5xx_HAL_Driver\Src\stm32l5xx_hal_gpio.c:331:27
	mvn	r1, #3
	and.w	r1, r1, r2, lsr #1
	.loc	5 331 69 is_stmt 0              @ c:/Keil_v5\ARM\PACK\Keil\STM32L5xx_DFP\1.3.0\Drivers\STM32L5xx_HAL_Driver\Src\stm32l5xx_hal_gpio.c:331:69
	and	r12, r3, #28
	.loc	5 331 7                         @ c:/Keil_v5\ARM\PACK\Keil\STM32L5xx_DFP\1.3.0\Drivers\STM32L5xx_HAL_Driver\Src\stm32l5xx_hal_gpio.c:331:7
	add	r1, r0
	.loc	5 331 34                        @ c:/Keil_v5\ARM\PACK\Keil\STM32L5xx_DFP\1.3.0\Drivers\STM32L5xx_HAL_Driver\Src\stm32l5xx_hal_gpio.c:331:34
	ldr.w	lr, [r1, #32]
	mov.w	r10, #15
	.loc	5 331 46                        @ c:/Keil_v5\ARM\PACK\Keil\STM32L5xx_DFP\1.3.0\Drivers\STM32L5xx_HAL_Driver\Src\stm32l5xx_hal_gpio.c:331:46
	lsl.w	r2, r10, r12
	.loc	5 331 34                        @ c:/Keil_v5\ARM\PACK\Keil\STM32L5xx_DFP\1.3.0\Drivers\STM32L5xx_HAL_Driver\Src\stm32l5xx_hal_gpio.c:331:34
	bic.w	r2, lr, r2
	str	r2, [r1, #32]
	.loc	5 334 22 is_stmt 1              @ c:/Keil_v5\ARM\PACK\Keil\STM32L5xx_DFP\1.3.0\Drivers\STM32L5xx_HAL_Driver\Src\stm32l5xx_hal_gpio.c:334:22
	ldr	r1, [r0, #8]
	bics	r1, r4
	str	r1, [r0, #8]
	.loc	5 337 22                        @ c:/Keil_v5\ARM\PACK\Keil\STM32L5xx_DFP\1.3.0\Drivers\STM32L5xx_HAL_Driver\Src\stm32l5xx_hal_gpio.c:337:22
	ldr	r1, [r0, #4]
	bic.w	r1, r1, r11
	str	r1, [r0, #4]
	.loc	5 340 20                        @ c:/Keil_v5\ARM\PACK\Keil\STM32L5xx_DFP\1.3.0\Drivers\STM32L5xx_HAL_Driver\Src\stm32l5xx_hal_gpio.c:340:20
	ldr	r1, [r0, #12]
	bics	r1, r4
	str	r1, [r0, #12]
	ldr	r1, [sp, #8]                    @ 4-byte Reload
.Ltmp60:
.LBB1_4:                                @   in Loop: Header=BB1_5 Depth=1
	@DEBUG_VALUE: HAL_GPIO_DeInit:iocurrent <- $r9
	@DEBUG_VALUE: HAL_GPIO_DeInit:position <- [DW_OP_constu 1, DW_OP_minus, DW_OP_stack_value] $r6
	@DEBUG_VALUE: HAL_GPIO_DeInit:GPIOx <- $r0
	@DEBUG_VALUE: HAL_GPIO_DeInit:position <- $r6
	.loc	5 300 20                        @ c:/Keil_v5\ARM\PACK\Keil\STM32L5xx_DFP\1.3.0\Drivers\STM32L5xx_HAL_Driver\Src\stm32l5xx_hal_gpio.c:300:20
	lsrs.w	r2, r1, r6
	.loc	5 300 3 is_stmt 0               @ c:/Keil_v5\ARM\PACK\Keil\STM32L5xx_DFP\1.3.0\Drivers\STM32L5xx_HAL_Driver\Src\stm32l5xx_hal_gpio.c:300:3
	add.w	r6, r6, #1
.Ltmp61:
	add.w	r5, r5, #8
	add.w	r7, r7, #2
	add.w	r3, r3, #4
	beq.w	.LBB1_14
.Ltmp62:
.LBB1_5:                                @ =>This Inner Loop Header: Depth=1
	@DEBUG_VALUE: HAL_GPIO_DeInit:GPIOx <- $r0
	@DEBUG_VALUE: HAL_GPIO_DeInit:position <- [DW_OP_constu 1, DW_OP_minus, DW_OP_stack_value] $r6
	.loc	5 303 35 is_stmt 1              @ c:/Keil_v5\ARM\PACK\Keil\STM32L5xx_DFP\1.3.0\Drivers\STM32L5xx_HAL_Driver\Src\stm32l5xx_hal_gpio.c:303:35
	subs	r2, r6, #1
	movs	r4, #1
	lsl.w	r11, r4, r2
	.loc	5 303 28 is_stmt 0              @ c:/Keil_v5\ARM\PACK\Keil\STM32L5xx_DFP\1.3.0\Drivers\STM32L5xx_HAL_Driver\Src\stm32l5xx_hal_gpio.c:303:28
	ands.w	r9, r11, r1
.Ltmp63:
	@DEBUG_VALUE: HAL_GPIO_DeInit:iocurrent <- $r9
	.loc	5 305 9 is_stmt 1               @ c:/Keil_v5\ARM\PACK\Keil\STM32L5xx_DFP\1.3.0\Drivers\STM32L5xx_HAL_Driver\Src\stm32l5xx_hal_gpio.c:305:9
	beq	.LBB1_4
.Ltmp64:
@ %bb.6:                                @   in Loop: Header=BB1_5 Depth=1
	@DEBUG_VALUE: HAL_GPIO_DeInit:iocurrent <- $r9
	@DEBUG_VALUE: HAL_GPIO_DeInit:position <- [DW_OP_constu 1, DW_OP_minus, DW_OP_stack_value] $r6
	@DEBUG_VALUE: HAL_GPIO_DeInit:GPIOx <- $r0
	.loc	5 310 14                        @ c:/Keil_v5\ARM\PACK\Keil\STM32L5xx_DFP\1.3.0\Drivers\STM32L5xx_HAL_Driver\Src\stm32l5xx_hal_gpio.c:310:14
	movw	r1, #62464
.Ltmp65:
	@DEBUG_VALUE: HAL_GPIO_DeInit:GPIO_Pin <- [DW_OP_LLVM_entry_value 1] $r1
	movt	r1, #16386
	.loc	5 310 36 is_stmt 0              @ c:/Keil_v5\ARM\PACK\Keil\STM32L5xx_DFP\1.3.0\Drivers\STM32L5xx_HAL_Driver\Src\stm32l5xx_hal_gpio.c:310:36
	lsr.w	r8, r2, #2
	.loc	5 310 14                        @ c:/Keil_v5\ARM\PACK\Keil\STM32L5xx_DFP\1.3.0\Drivers\STM32L5xx_HAL_Driver\Src\stm32l5xx_hal_gpio.c:310:14
	add.w	r12, r1, #96
	ldr.w	r4, [r12, r8, lsl #2]
.Ltmp66:
	@DEBUG_VALUE: HAL_GPIO_DeInit:temp <- $r4
	.loc	5 311 32 is_stmt 1              @ c:/Keil_v5\ARM\PACK\Keil\STM32L5xx_DFP\1.3.0\Drivers\STM32L5xx_HAL_Driver\Src\stm32l5xx_hal_gpio.c:311:32
	and	lr, r5, #24
	.loc	5 311 25 is_stmt 0              @ c:/Keil_v5\ARM\PACK\Keil\STM32L5xx_DFP\1.3.0\Drivers\STM32L5xx_HAL_Driver\Src\stm32l5xx_hal_gpio.c:311:25
	lsl.w	r1, r10, lr
	str	r1, [sp, #4]                    @ 4-byte Spill
	.loc	5 311 12                        @ c:/Keil_v5\ARM\PACK\Keil\STM32L5xx_DFP\1.3.0\Drivers\STM32L5xx_HAL_Driver\Src\stm32l5xx_hal_gpio.c:311:12
	and.w	r10, r4, r1
.Ltmp67:
	@DEBUG_VALUE: HAL_GPIO_DeInit:temp <- $r10
	.loc	5 312 41 is_stmt 1              @ c:/Keil_v5\ARM\PACK\Keil\STM32L5xx_DFP\1.3.0\Drivers\STM32L5xx_HAL_Driver\Src\stm32l5xx_hal_gpio.c:312:41
	ldr	r1, [sp]                        @ 4-byte Reload
	lsl.w	r4, r1, lr
.Ltmp68:
	.loc	5 312 10 is_stmt 0              @ c:/Keil_v5\ARM\PACK\Keil\STM32L5xx_DFP\1.3.0\Drivers\STM32L5xx_HAL_Driver\Src\stm32l5xx_hal_gpio.c:312:10
	cmp	r10, r4
	bne	.LBB1_3
.Ltmp69:
@ %bb.7:                                @   in Loop: Header=BB1_5 Depth=1
	@DEBUG_VALUE: HAL_GPIO_DeInit:temp <- $r10
	@DEBUG_VALUE: HAL_GPIO_DeInit:iocurrent <- $r9
	@DEBUG_VALUE: HAL_GPIO_DeInit:position <- [DW_OP_constu 1, DW_OP_minus, DW_OP_stack_value] $r6
	@DEBUG_VALUE: HAL_GPIO_DeInit:GPIOx <- $r0
	.loc	5 0 10                          @ c:/Keil_v5\ARM\PACK\Keil\STM32L5xx_DFP\1.3.0\Drivers\STM32L5xx_HAL_Driver\Src\stm32l5xx_hal_gpio.c:0:10
	movw	r1, #62464
	movt	r1, #16386
.Ltmp70:
	.loc	5 315 20 is_stmt 1              @ c:/Keil_v5\ARM\PACK\Keil\STM32L5xx_DFP\1.3.0\Drivers\STM32L5xx_HAL_Driver\Src\stm32l5xx_hal_gpio.c:315:20
	ldr.w	r4, [r1, #128]
	bic.w	r4, r4, r9
	str.w	r4, [r1, #128]
	.loc	5 316 20                        @ c:/Keil_v5\ARM\PACK\Keil\STM32L5xx_DFP\1.3.0\Drivers\STM32L5xx_HAL_Driver\Src\stm32l5xx_hal_gpio.c:316:20
	ldr.w	r4, [r1, #132]
	bic.w	r4, r4, r9
	str.w	r4, [r1, #132]
	.loc	5 319 21                        @ c:/Keil_v5\ARM\PACK\Keil\STM32L5xx_DFP\1.3.0\Drivers\STM32L5xx_HAL_Driver\Src\stm32l5xx_hal_gpio.c:319:21
	ldr	r4, [r1]
	bic.w	r4, r4, r9
	str	r4, [r1]
	.loc	5 320 21                        @ c:/Keil_v5\ARM\PACK\Keil\STM32L5xx_DFP\1.3.0\Drivers\STM32L5xx_HAL_Driver\Src\stm32l5xx_hal_gpio.c:320:21
	ldr	r4, [r1, #4]
	bic.w	r4, r4, r9
	str	r4, [r1, #4]
.Ltmp71:
	@DEBUG_VALUE: HAL_GPIO_DeInit:temp <- [DW_OP_plus_uconst 4] [$sp+0]
	.loc	5 323 38                        @ c:/Keil_v5\ARM\PACK\Keil\STM32L5xx_DFP\1.3.0\Drivers\STM32L5xx_HAL_Driver\Src\stm32l5xx_hal_gpio.c:323:38
	ldr.w	r4, [r12, r8, lsl #2]
	ldr	r1, [sp, #4]                    @ 4-byte Reload
.Ltmp72:
	@DEBUG_VALUE: HAL_GPIO_DeInit:temp <- $r1
	bic.w	r1, r4, r1
.Ltmp73:
	str.w	r1, [r12, r8, lsl #2]
	b	.LBB1_3
.Ltmp74:
	.p2align	2
.LBB1_8:
	@DEBUG_VALUE: HAL_GPIO_DeInit:GPIO_Pin <- $r1
	@DEBUG_VALUE: HAL_GPIO_DeInit:GPIOx <- $r0
	@DEBUG_VALUE: HAL_GPIO_DeInit:position <- 0
	.loc	5 0 38 is_stmt 0                @ c:/Keil_v5\ARM\PACK\Keil\STM32L5xx_DFP\1.3.0\Drivers\STM32L5xx_HAL_Driver\Src\stm32l5xx_hal_gpio.c:0:38
	movs	r4, #0
	movs	r7, #0
	movs	r5, #0
	movs	r3, #1
	b	.LBB1_11
.Ltmp75:
	.p2align	2
.LBB1_9:                                @   in Loop: Header=BB1_11 Depth=1
	@DEBUG_VALUE: HAL_GPIO_DeInit:iocurrent <- $r12
	@DEBUG_VALUE: HAL_GPIO_DeInit:position <- [DW_OP_constu 1, DW_OP_minus, DW_OP_stack_value] $r3
	@DEBUG_VALUE: HAL_GPIO_DeInit:GPIOx <- $r0
	.loc	5 328 20 is_stmt 1              @ c:/Keil_v5\ARM\PACK\Keil\STM32L5xx_DFP\1.3.0\Drivers\STM32L5xx_HAL_Driver\Src\stm32l5xx_hal_gpio.c:328:20
	ldr.w	r12, [r0]
.Ltmp76:
	.loc	5 328 41 is_stmt 0              @ c:/Keil_v5\ARM\PACK\Keil\STM32L5xx_DFP\1.3.0\Drivers\STM32L5xx_HAL_Driver\Src\stm32l5xx_hal_gpio.c:328:41
	movs	r2, #3
	lsl.w	r9, r2, r7
	.loc	5 328 20                        @ c:/Keil_v5\ARM\PACK\Keil\STM32L5xx_DFP\1.3.0\Drivers\STM32L5xx_HAL_Driver\Src\stm32l5xx_hal_gpio.c:328:20
	orr.w	r2, r12, r9
	str	r2, [r0]
	.loc	5 331 27 is_stmt 1              @ c:/Keil_v5\ARM\PACK\Keil\STM32L5xx_DFP\1.3.0\Drivers\STM32L5xx_HAL_Driver\Src\stm32l5xx_hal_gpio.c:331:27
	mvn	r2, #3
	and.w	r2, r2, r8, lsr #1
	.loc	5 331 69 is_stmt 0              @ c:/Keil_v5\ARM\PACK\Keil\STM32L5xx_DFP\1.3.0\Drivers\STM32L5xx_HAL_Driver\Src\stm32l5xx_hal_gpio.c:331:69
	and	r12, r5, #28
	.loc	5 331 7                         @ c:/Keil_v5\ARM\PACK\Keil\STM32L5xx_DFP\1.3.0\Drivers\STM32L5xx_HAL_Driver\Src\stm32l5xx_hal_gpio.c:331:7
	add	r2, r0
	.loc	5 331 34                        @ c:/Keil_v5\ARM\PACK\Keil\STM32L5xx_DFP\1.3.0\Drivers\STM32L5xx_HAL_Driver\Src\stm32l5xx_hal_gpio.c:331:34
	ldr.w	lr, [r2, #32]
	.loc	5 331 46                        @ c:/Keil_v5\ARM\PACK\Keil\STM32L5xx_DFP\1.3.0\Drivers\STM32L5xx_HAL_Driver\Src\stm32l5xx_hal_gpio.c:331:46
	lsl.w	r6, r1, r12
	.loc	5 331 34                        @ c:/Keil_v5\ARM\PACK\Keil\STM32L5xx_DFP\1.3.0\Drivers\STM32L5xx_HAL_Driver\Src\stm32l5xx_hal_gpio.c:331:34
	bic.w	r6, lr, r6
	str	r6, [r2, #32]
	.loc	5 334 22 is_stmt 1              @ c:/Keil_v5\ARM\PACK\Keil\STM32L5xx_DFP\1.3.0\Drivers\STM32L5xx_HAL_Driver\Src\stm32l5xx_hal_gpio.c:334:22
	ldr	r2, [r0, #8]
	bic.w	r2, r2, r9
	str	r2, [r0, #8]
	.loc	5 337 22                        @ c:/Keil_v5\ARM\PACK\Keil\STM32L5xx_DFP\1.3.0\Drivers\STM32L5xx_HAL_Driver\Src\stm32l5xx_hal_gpio.c:337:22
	ldr	r2, [r0, #4]
	bic.w	r2, r2, r11
	str	r2, [r0, #4]
	.loc	5 340 20                        @ c:/Keil_v5\ARM\PACK\Keil\STM32L5xx_DFP\1.3.0\Drivers\STM32L5xx_HAL_Driver\Src\stm32l5xx_hal_gpio.c:340:20
	ldr	r2, [r0, #12]
	bic.w	r2, r2, r9
	str	r2, [r0, #12]
	ldr	r1, [sp, #8]                    @ 4-byte Reload
.Ltmp77:
.LBB1_10:                               @   in Loop: Header=BB1_11 Depth=1
	@DEBUG_VALUE: HAL_GPIO_DeInit:position <- [DW_OP_constu 1, DW_OP_minus, DW_OP_stack_value] $r3
	@DEBUG_VALUE: HAL_GPIO_DeInit:GPIOx <- $r0
	@DEBUG_VALUE: HAL_GPIO_DeInit:position <- $r3
	.loc	5 300 20                        @ c:/Keil_v5\ARM\PACK\Keil\STM32L5xx_DFP\1.3.0\Drivers\STM32L5xx_HAL_Driver\Src\stm32l5xx_hal_gpio.c:300:20
	lsrs.w	r2, r1, r3
	.loc	5 300 3 is_stmt 0               @ c:/Keil_v5\ARM\PACK\Keil\STM32L5xx_DFP\1.3.0\Drivers\STM32L5xx_HAL_Driver\Src\stm32l5xx_hal_gpio.c:300:3
	add.w	r3, r3, #1
.Ltmp78:
	add.w	r5, r5, #4
	add.w	r7, r7, #2
	add.w	r4, r4, #8
	beq	.LBB1_14
.Ltmp79:
.LBB1_11:                               @ =>This Inner Loop Header: Depth=1
	@DEBUG_VALUE: HAL_GPIO_DeInit:GPIOx <- $r0
	@DEBUG_VALUE: HAL_GPIO_DeInit:position <- [DW_OP_constu 1, DW_OP_minus, DW_OP_stack_value] $r3
	.loc	5 303 35 is_stmt 1              @ c:/Keil_v5\ARM\PACK\Keil\STM32L5xx_DFP\1.3.0\Drivers\STM32L5xx_HAL_Driver\Src\stm32l5xx_hal_gpio.c:303:35
	sub.w	r8, r3, #1
	movs	r2, #1
	lsl.w	r11, r2, r8
	.loc	5 303 28 is_stmt 0              @ c:/Keil_v5\ARM\PACK\Keil\STM32L5xx_DFP\1.3.0\Drivers\STM32L5xx_HAL_Driver\Src\stm32l5xx_hal_gpio.c:303:28
	ands.w	r12, r11, r1
.Ltmp80:
	@DEBUG_VALUE: HAL_GPIO_DeInit:iocurrent <- $r12
	.loc	5 305 9 is_stmt 1               @ c:/Keil_v5\ARM\PACK\Keil\STM32L5xx_DFP\1.3.0\Drivers\STM32L5xx_HAL_Driver\Src\stm32l5xx_hal_gpio.c:305:9
	beq	.LBB1_10
.Ltmp81:
@ %bb.12:                               @   in Loop: Header=BB1_11 Depth=1
	@DEBUG_VALUE: HAL_GPIO_DeInit:iocurrent <- $r12
	@DEBUG_VALUE: HAL_GPIO_DeInit:position <- [DW_OP_constu 1, DW_OP_minus, DW_OP_stack_value] $r3
	@DEBUG_VALUE: HAL_GPIO_DeInit:GPIOx <- $r0
	.loc	5 310 14                        @ c:/Keil_v5\ARM\PACK\Keil\STM32L5xx_DFP\1.3.0\Drivers\STM32L5xx_HAL_Driver\Src\stm32l5xx_hal_gpio.c:310:14
	movw	r1, #62464
.Ltmp82:
	@DEBUG_VALUE: HAL_GPIO_DeInit:GPIO_Pin <- [DW_OP_LLVM_entry_value 1] $r1
	movt	r1, #16386
	.loc	5 310 36 is_stmt 0              @ c:/Keil_v5\ARM\PACK\Keil\STM32L5xx_DFP\1.3.0\Drivers\STM32L5xx_HAL_Driver\Src\stm32l5xx_hal_gpio.c:310:36
	lsr.w	r10, r8, #2
	.loc	5 310 14                        @ c:/Keil_v5\ARM\PACK\Keil\STM32L5xx_DFP\1.3.0\Drivers\STM32L5xx_HAL_Driver\Src\stm32l5xx_hal_gpio.c:310:14
	add.w	lr, r1, #96
	ldr.w	r9, [lr, r10, lsl #2]
.Ltmp83:
	@DEBUG_VALUE: HAL_GPIO_DeInit:temp <- $r9
	.loc	5 311 32 is_stmt 1              @ c:/Keil_v5\ARM\PACK\Keil\STM32L5xx_DFP\1.3.0\Drivers\STM32L5xx_HAL_Driver\Src\stm32l5xx_hal_gpio.c:311:32
	and	r6, r4, #24
	movs	r1, #15
	.loc	5 311 25 is_stmt 0              @ c:/Keil_v5\ARM\PACK\Keil\STM32L5xx_DFP\1.3.0\Drivers\STM32L5xx_HAL_Driver\Src\stm32l5xx_hal_gpio.c:311:25
	lsl.w	r2, r1, r6
.Ltmp84:
	@DEBUG_VALUE: HAL_GPIO_DeInit:temp <- undef
	.loc	5 312 10 is_stmt 1              @ c:/Keil_v5\ARM\PACK\Keil\STM32L5xx_DFP\1.3.0\Drivers\STM32L5xx_HAL_Driver\Src\stm32l5xx_hal_gpio.c:312:10
	tst.w	r9, r2
	bne	.LBB1_9
.Ltmp85:
@ %bb.13:                               @   in Loop: Header=BB1_11 Depth=1
	@DEBUG_VALUE: HAL_GPIO_DeInit:iocurrent <- $r12
	@DEBUG_VALUE: HAL_GPIO_DeInit:position <- [DW_OP_constu 1, DW_OP_minus, DW_OP_stack_value] $r3
	@DEBUG_VALUE: HAL_GPIO_DeInit:GPIOx <- $r0
	.loc	5 0 10 is_stmt 0                @ c:/Keil_v5\ARM\PACK\Keil\STM32L5xx_DFP\1.3.0\Drivers\STM32L5xx_HAL_Driver\Src\stm32l5xx_hal_gpio.c:0:10
	movw	r1, #62464
	movt	r1, #16386
.Ltmp86:
	.loc	5 315 20 is_stmt 1              @ c:/Keil_v5\ARM\PACK\Keil\STM32L5xx_DFP\1.3.0\Drivers\STM32L5xx_HAL_Driver\Src\stm32l5xx_hal_gpio.c:315:20
	ldr.w	r6, [r1, #128]
	bic.w	r6, r6, r12
	str.w	r6, [r1, #128]
	.loc	5 316 20                        @ c:/Keil_v5\ARM\PACK\Keil\STM32L5xx_DFP\1.3.0\Drivers\STM32L5xx_HAL_Driver\Src\stm32l5xx_hal_gpio.c:316:20
	ldr.w	r6, [r1, #132]
	bic.w	r6, r6, r12
	str.w	r6, [r1, #132]
	.loc	5 319 21                        @ c:/Keil_v5\ARM\PACK\Keil\STM32L5xx_DFP\1.3.0\Drivers\STM32L5xx_HAL_Driver\Src\stm32l5xx_hal_gpio.c:319:21
	ldr	r6, [r1]
	bic.w	r6, r6, r12
	str	r6, [r1]
	.loc	5 320 21                        @ c:/Keil_v5\ARM\PACK\Keil\STM32L5xx_DFP\1.3.0\Drivers\STM32L5xx_HAL_Driver\Src\stm32l5xx_hal_gpio.c:320:21
	ldr	r6, [r1, #4]
	bic.w	r6, r6, r12
	str	r6, [r1, #4]
.Ltmp87:
	@DEBUG_VALUE: HAL_GPIO_DeInit:temp <- $r2
	.loc	5 323 38                        @ c:/Keil_v5\ARM\PACK\Keil\STM32L5xx_DFP\1.3.0\Drivers\STM32L5xx_HAL_Driver\Src\stm32l5xx_hal_gpio.c:323:38
	ldr.w	r6, [lr, r10, lsl #2]
	movs	r1, #15
	bics	r6, r2
	str.w	r6, [lr, r10, lsl #2]
	b	.LBB1_9
.Ltmp88:
	.p2align	2
.LBB1_14:
	@DEBUG_VALUE: HAL_GPIO_DeInit:GPIOx <- $r0
	.loc	5 345 1                         @ c:/Keil_v5\ARM\PACK\Keil\STM32L5xx_DFP\1.3.0\Drivers\STM32L5xx_HAL_Driver\Src\stm32l5xx_hal_gpio.c:345:1
	add	sp, #12
	pop.w	{r4, r5, r6, r7, r8, r9, r10, r11, pc}
.Ltmp89:
.Lfunc_end1:
	.size	HAL_GPIO_DeInit, .Lfunc_end1-HAL_GPIO_DeInit
	.cfi_endproc
	.cantunwind
	.fnend
                                        @ -- End function
	.section	.text.HAL_GPIO_ReadPin,"ax",%progbits
	.hidden	HAL_GPIO_ReadPin                @ -- Begin function HAL_GPIO_ReadPin
	.globl	HAL_GPIO_ReadPin
	.p2align	2
	.type	HAL_GPIO_ReadPin,%function
	.code	16                              @ @HAL_GPIO_ReadPin
	.thumb_func
HAL_GPIO_ReadPin:
.Lfunc_begin2:
	.loc	5 371 0                         @ c:/Keil_v5\ARM\PACK\Keil\STM32L5xx_DFP\1.3.0\Drivers\STM32L5xx_HAL_Driver\Src\stm32l5xx_hal_gpio.c:371:0
	.fnstart
	.cfi_startproc
@ %bb.0:
	@DEBUG_VALUE: HAL_GPIO_ReadPin:GPIOx <- $r0
	@DEBUG_VALUE: HAL_GPIO_ReadPin:GPIOx <- $r0
	@DEBUG_VALUE: HAL_GPIO_ReadPin:GPIO_Pin <- $r1
	.loc	5 377 14 prologue_end           @ c:/Keil_v5\ARM\PACK\Keil\STM32L5xx_DFP\1.3.0\Drivers\STM32L5xx_HAL_Driver\Src\stm32l5xx_hal_gpio.c:377:14
	ldr	r0, [r0, #16]
.Ltmp90:
	@DEBUG_VALUE: HAL_GPIO_ReadPin:GPIOx <- [DW_OP_LLVM_entry_value 1] $r0
	@DEBUG_VALUE: HAL_GPIO_ReadPin:GPIO_Pin <- $r1
	.loc	5 377 18 is_stmt 0              @ c:/Keil_v5\ARM\PACK\Keil\STM32L5xx_DFP\1.3.0\Drivers\STM32L5xx_HAL_Driver\Src\stm32l5xx_hal_gpio.c:377:18
	ands	r0, r1
	.loc	5 377 30                        @ c:/Keil_v5\ARM\PACK\Keil\STM32L5xx_DFP\1.3.0\Drivers\STM32L5xx_HAL_Driver\Src\stm32l5xx_hal_gpio.c:377:30
	it	ne
	movne	r0, #1
.Ltmp91:
	@DEBUG_VALUE: HAL_GPIO_ReadPin:bitstatus <- undef
	.loc	5 385 3 is_stmt 1               @ c:/Keil_v5\ARM\PACK\Keil\STM32L5xx_DFP\1.3.0\Drivers\STM32L5xx_HAL_Driver\Src\stm32l5xx_hal_gpio.c:385:3
	bx	lr
.Ltmp92:
.Lfunc_end2:
	.size	HAL_GPIO_ReadPin, .Lfunc_end2-HAL_GPIO_ReadPin
	.cfi_endproc
	.cantunwind
	.fnend
                                        @ -- End function
	.section	.text.HAL_GPIO_WritePin,"ax",%progbits
	.hidden	HAL_GPIO_WritePin               @ -- Begin function HAL_GPIO_WritePin
	.globl	HAL_GPIO_WritePin
	.p2align	2
	.type	HAL_GPIO_WritePin,%function
	.code	16                              @ @HAL_GPIO_WritePin
	.thumb_func
HAL_GPIO_WritePin:
.Lfunc_begin3:
	.loc	5 405 0                         @ c:/Keil_v5\ARM\PACK\Keil\STM32L5xx_DFP\1.3.0\Drivers\STM32L5xx_HAL_Driver\Src\stm32l5xx_hal_gpio.c:405:0
	.fnstart
	.cfi_startproc
@ %bb.0:
	@DEBUG_VALUE: HAL_GPIO_WritePin:GPIOx <- $r0
	@DEBUG_VALUE: HAL_GPIO_WritePin:GPIO_Pin <- $r1
	@DEBUG_VALUE: HAL_GPIO_WritePin:PinState <- $r2
	movs	r3, #24
	@DEBUG_VALUE: HAL_GPIO_WritePin:PinState <- $r2
	@DEBUG_VALUE: HAL_GPIO_WritePin:GPIO_Pin <- $r1
	@DEBUG_VALUE: HAL_GPIO_WritePin:GPIOx <- $r0
.Ltmp93:
	.loc	5 410 7 prologue_end            @ c:/Keil_v5\ARM\PACK\Keil\STM32L5xx_DFP\1.3.0\Drivers\STM32L5xx_HAL_Driver\Src\stm32l5xx_hal_gpio.c:410:7
	cmp	r2, #0
	it	eq
	moveq	r3, #40
.Ltmp94:
	.loc	5 0 0 is_stmt 0                 @ c:/Keil_v5\ARM\PACK\Keil\STM32L5xx_DFP\1.3.0\Drivers\STM32L5xx_HAL_Driver\Src\stm32l5xx_hal_gpio.c:0:0
	str	r1, [r0, r3]
.Ltmp95:
	.loc	5 418 1 is_stmt 1               @ c:/Keil_v5\ARM\PACK\Keil\STM32L5xx_DFP\1.3.0\Drivers\STM32L5xx_HAL_Driver\Src\stm32l5xx_hal_gpio.c:418:1
	bx	lr
.Ltmp96:
.Lfunc_end3:
	.size	HAL_GPIO_WritePin, .Lfunc_end3-HAL_GPIO_WritePin
	.cfi_endproc
	.cantunwind
	.fnend
                                        @ -- End function
	.section	.text.HAL_GPIO_TogglePin,"ax",%progbits
	.hidden	HAL_GPIO_TogglePin              @ -- Begin function HAL_GPIO_TogglePin
	.globl	HAL_GPIO_TogglePin
	.p2align	2
	.type	HAL_GPIO_TogglePin,%function
	.code	16                              @ @HAL_GPIO_TogglePin
	.thumb_func
HAL_GPIO_TogglePin:
.Lfunc_begin4:
	.loc	5 428 0                         @ c:/Keil_v5\ARM\PACK\Keil\STM32L5xx_DFP\1.3.0\Drivers\STM32L5xx_HAL_Driver\Src\stm32l5xx_hal_gpio.c:428:0
	.fnstart
	.cfi_startproc
@ %bb.0:
	@DEBUG_VALUE: HAL_GPIO_TogglePin:GPIOx <- $r0
	@DEBUG_VALUE: HAL_GPIO_TogglePin:GPIOx <- $r0
	@DEBUG_VALUE: HAL_GPIO_TogglePin:GPIO_Pin <- $r1
	.loc	5 435 16 prologue_end           @ c:/Keil_v5\ARM\PACK\Keil\STM32L5xx_DFP\1.3.0\Drivers\STM32L5xx_HAL_Driver\Src\stm32l5xx_hal_gpio.c:435:16
	ldr	r2, [r0, #20]
.Ltmp97:
	@DEBUG_VALUE: HAL_GPIO_TogglePin:odr <- $r2
	@DEBUG_VALUE: HAL_GPIO_TogglePin:GPIO_Pin <- $r1
	.loc	5 438 23                        @ c:/Keil_v5\ARM\PACK\Keil\STM32L5xx_DFP\1.3.0\Drivers\STM32L5xx_HAL_Driver\Src\stm32l5xx_hal_gpio.c:438:23
	and.w	r3, r2, r1
	.loc	5 438 59 is_stmt 0              @ c:/Keil_v5\ARM\PACK\Keil\STM32L5xx_DFP\1.3.0\Drivers\STM32L5xx_HAL_Driver\Src\stm32l5xx_hal_gpio.c:438:59
	bics	r1, r2
.Ltmp98:
	@DEBUG_VALUE: HAL_GPIO_TogglePin:GPIO_Pin <- [DW_OP_LLVM_entry_value 1] $r1
	.loc	5 438 51                        @ c:/Keil_v5\ARM\PACK\Keil\STM32L5xx_DFP\1.3.0\Drivers\STM32L5xx_HAL_Driver\Src\stm32l5xx_hal_gpio.c:438:51
	orr.w	r1, r1, r3, lsl #16
	.loc	5 438 15                        @ c:/Keil_v5\ARM\PACK\Keil\STM32L5xx_DFP\1.3.0\Drivers\STM32L5xx_HAL_Driver\Src\stm32l5xx_hal_gpio.c:438:15
	str	r1, [r0, #24]
	.loc	5 439 1 is_stmt 1               @ c:/Keil_v5\ARM\PACK\Keil\STM32L5xx_DFP\1.3.0\Drivers\STM32L5xx_HAL_Driver\Src\stm32l5xx_hal_gpio.c:439:1
	bx	lr
.Ltmp99:
.Lfunc_end4:
	.size	HAL_GPIO_TogglePin, .Lfunc_end4-HAL_GPIO_TogglePin
	.cfi_endproc
	.cantunwind
	.fnend
                                        @ -- End function
	.section	.text.HAL_GPIO_LockPin,"ax",%progbits
	.hidden	HAL_GPIO_LockPin                @ -- Begin function HAL_GPIO_LockPin
	.globl	HAL_GPIO_LockPin
	.p2align	2
	.type	HAL_GPIO_LockPin,%function
	.code	16                              @ @HAL_GPIO_LockPin
	.thumb_func
HAL_GPIO_LockPin:
.Lfunc_begin5:
	.loc	5 453 0                         @ c:/Keil_v5\ARM\PACK\Keil\STM32L5xx_DFP\1.3.0\Drivers\STM32L5xx_HAL_Driver\Src\stm32l5xx_hal_gpio.c:453:0
	.fnstart
	.cfi_startproc
@ %bb.0:
	@DEBUG_VALUE: HAL_GPIO_LockPin:GPIOx <- $r0
	@DEBUG_VALUE: HAL_GPIO_LockPin:GPIO_Pin <- $r1
	.pad	#4
	sub	sp, #4
	.cfi_def_cfa_offset 4
	mov.w	r2, #65536
.Ltmp100:
	.loc	5 454 17 prologue_end           @ c:/Keil_v5\ARM\PACK\Keil\STM32L5xx_DFP\1.3.0\Drivers\STM32L5xx_HAL_Driver\Src\stm32l5xx_hal_gpio.c:454:17
	str	r2, [sp]
	.loc	5 461 8                         @ c:/Keil_v5\ARM\PACK\Keil\STM32L5xx_DFP\1.3.0\Drivers\STM32L5xx_HAL_Driver\Src\stm32l5xx_hal_gpio.c:461:8
	ldr	r2, [sp]
	@DEBUG_VALUE: HAL_GPIO_LockPin:GPIO_Pin <- $r1
	orrs	r2, r1
	str	r2, [sp]
	.loc	5 463 17                        @ c:/Keil_v5\ARM\PACK\Keil\STM32L5xx_DFP\1.3.0\Drivers\STM32L5xx_HAL_Driver\Src\stm32l5xx_hal_gpio.c:463:17
	ldr	r2, [sp]
	@DEBUG_VALUE: HAL_GPIO_LockPin:GPIOx <- $r0
	.loc	5 463 15 is_stmt 0              @ c:/Keil_v5\ARM\PACK\Keil\STM32L5xx_DFP\1.3.0\Drivers\STM32L5xx_HAL_Driver\Src\stm32l5xx_hal_gpio.c:463:15
	str	r2, [r0, #28]
	.loc	5 465 15 is_stmt 1              @ c:/Keil_v5\ARM\PACK\Keil\STM32L5xx_DFP\1.3.0\Drivers\STM32L5xx_HAL_Driver\Src\stm32l5xx_hal_gpio.c:465:15
	str	r1, [r0, #28]
	.loc	5 467 17                        @ c:/Keil_v5\ARM\PACK\Keil\STM32L5xx_DFP\1.3.0\Drivers\STM32L5xx_HAL_Driver\Src\stm32l5xx_hal_gpio.c:467:17
	ldr	r1, [sp]
.Ltmp101:
	@DEBUG_VALUE: HAL_GPIO_LockPin:GPIO_Pin <- [DW_OP_LLVM_entry_value 1] $r1
	.loc	5 467 15 is_stmt 0              @ c:/Keil_v5\ARM\PACK\Keil\STM32L5xx_DFP\1.3.0\Drivers\STM32L5xx_HAL_Driver\Src\stm32l5xx_hal_gpio.c:467:15
	str	r1, [r0, #28]
	.loc	5 469 17 is_stmt 1              @ c:/Keil_v5\ARM\PACK\Keil\STM32L5xx_DFP\1.3.0\Drivers\STM32L5xx_HAL_Driver\Src\stm32l5xx_hal_gpio.c:469:17
	ldr	r1, [r0, #28]
	.loc	5 469 8 is_stmt 0               @ c:/Keil_v5\ARM\PACK\Keil\STM32L5xx_DFP\1.3.0\Drivers\STM32L5xx_HAL_Driver\Src\stm32l5xx_hal_gpio.c:469:8
	str	r1, [sp]
.Ltmp102:
	.loc	5 472 15 is_stmt 1              @ c:/Keil_v5\ARM\PACK\Keil\STM32L5xx_DFP\1.3.0\Drivers\STM32L5xx_HAL_Driver\Src\stm32l5xx_hal_gpio.c:472:15
	ldr	r0, [r0, #28]
.Ltmp103:
	@DEBUG_VALUE: HAL_GPIO_LockPin:GPIOx <- [DW_OP_LLVM_entry_value 1] $r0
	.loc	5 0 15 is_stmt 0                @ c:/Keil_v5\ARM\PACK\Keil\STM32L5xx_DFP\1.3.0\Drivers\STM32L5xx_HAL_Driver\Src\stm32l5xx_hal_gpio.c:0:15
	movs	r1, #1
.Ltmp104:
	.loc	5 472 7                         @ c:/Keil_v5\ARM\PACK\Keil\STM32L5xx_DFP\1.3.0\Drivers\STM32L5xx_HAL_Driver\Src\stm32l5xx_hal_gpio.c:472:7
	bic.w	r0, r1, r0, lsr #16
	.loc	5 480 1 is_stmt 1               @ c:/Keil_v5\ARM\PACK\Keil\STM32L5xx_DFP\1.3.0\Drivers\STM32L5xx_HAL_Driver\Src\stm32l5xx_hal_gpio.c:480:1
	add	sp, #4
	bx	lr
.Ltmp105:
.Lfunc_end5:
	.size	HAL_GPIO_LockPin, .Lfunc_end5-HAL_GPIO_LockPin
	.cfi_endproc
	.cantunwind
	.fnend
                                        @ -- End function
	.section	.text.HAL_GPIO_EXTI_IRQHandler,"ax",%progbits
	.hidden	HAL_GPIO_EXTI_IRQHandler        @ -- Begin function HAL_GPIO_EXTI_IRQHandler
	.globl	HAL_GPIO_EXTI_IRQHandler
	.p2align	2
	.type	HAL_GPIO_EXTI_IRQHandler,%function
	.code	16                              @ @HAL_GPIO_EXTI_IRQHandler
	.thumb_func
HAL_GPIO_EXTI_IRQHandler:
.Lfunc_begin6:
	.loc	5 488 0                         @ c:/Keil_v5\ARM\PACK\Keil\STM32L5xx_DFP\1.3.0\Drivers\STM32L5xx_HAL_Driver\Src\stm32l5xx_hal_gpio.c:488:0
	.fnstart
	.cfi_startproc
@ %bb.0:
	@DEBUG_VALUE: HAL_GPIO_EXTI_IRQHandler:GPIO_Pin <- $r0
	.save	{r4, r5, r7, lr}
	push	{r4, r5, r7, lr}
	.cfi_def_cfa_offset 16
	.cfi_offset lr, -4
	.cfi_offset r7, -8
	.cfi_offset r5, -12
	.cfi_offset r4, -16
	movw	r5, #62476
	movt	r5, #16386
.Ltmp106:
	.loc	5 490 6 prologue_end            @ c:/Keil_v5\ARM\PACK\Keil\STM32L5xx_DFP\1.3.0\Drivers\STM32L5xx_HAL_Driver\Src\stm32l5xx_hal_gpio.c:490:6
	ldr	r1, [r5]
	mov	r4, r0
.Ltmp107:
	@DEBUG_VALUE: HAL_GPIO_EXTI_IRQHandler:GPIO_Pin <- $r4
	.loc	5 490 6 is_stmt 0               @ c:/Keil_v5\ARM\PACK\Keil\STM32L5xx_DFP\1.3.0\Drivers\STM32L5xx_HAL_Driver\Src\stm32l5xx_hal_gpio.c:490:6
	tst	r1, r0
	beq	.LBB6_2
.Ltmp108:
@ %bb.1:
	@DEBUG_VALUE: HAL_GPIO_EXTI_IRQHandler:GPIO_Pin <- $r4
	.loc	5 493 5 is_stmt 1               @ c:/Keil_v5\ARM\PACK\Keil\STM32L5xx_DFP\1.3.0\Drivers\STM32L5xx_HAL_Driver\Src\stm32l5xx_hal_gpio.c:493:5
	mov	r0, r4
	.loc	5 492 5                         @ c:/Keil_v5\ARM\PACK\Keil\STM32L5xx_DFP\1.3.0\Drivers\STM32L5xx_HAL_Driver\Src\stm32l5xx_hal_gpio.c:492:5
	str	r4, [r5]
	.loc	5 493 5                         @ c:/Keil_v5\ARM\PACK\Keil\STM32L5xx_DFP\1.3.0\Drivers\STM32L5xx_HAL_Driver\Src\stm32l5xx_hal_gpio.c:493:5
	bl	HAL_GPIO_EXTI_Rising_Callback
.Ltmp109:
.LBB6_2:
	@DEBUG_VALUE: HAL_GPIO_EXTI_IRQHandler:GPIO_Pin <- $r4
	.loc	5 496 6                         @ c:/Keil_v5\ARM\PACK\Keil\STM32L5xx_DFP\1.3.0\Drivers\STM32L5xx_HAL_Driver\Src\stm32l5xx_hal_gpio.c:496:6
	ldr	r0, [r5, #4]
.Ltmp110:
	.loc	5 496 6 is_stmt 0               @ c:/Keil_v5\ARM\PACK\Keil\STM32L5xx_DFP\1.3.0\Drivers\STM32L5xx_HAL_Driver\Src\stm32l5xx_hal_gpio.c:496:6
	tst	r0, r4
	.loc	5 501 1 is_stmt 1               @ c:/Keil_v5\ARM\PACK\Keil\STM32L5xx_DFP\1.3.0\Drivers\STM32L5xx_HAL_Driver\Src\stm32l5xx_hal_gpio.c:501:1
	it	eq
	popeq	{r4, r5, r7, pc}
.Ltmp111:
.LBB6_3:
	.loc	5 499 5                         @ c:/Keil_v5\ARM\PACK\Keil\STM32L5xx_DFP\1.3.0\Drivers\STM32L5xx_HAL_Driver\Src\stm32l5xx_hal_gpio.c:499:5
	mov	r0, r4
	.loc	5 498 5                         @ c:/Keil_v5\ARM\PACK\Keil\STM32L5xx_DFP\1.3.0\Drivers\STM32L5xx_HAL_Driver\Src\stm32l5xx_hal_gpio.c:498:5
	str	r4, [r5, #4]
	.loc	5 499 5                         @ c:/Keil_v5\ARM\PACK\Keil\STM32L5xx_DFP\1.3.0\Drivers\STM32L5xx_HAL_Driver\Src\stm32l5xx_hal_gpio.c:499:5
	pop.w	{r4, r5, r7, lr}
	b	HAL_GPIO_EXTI_Falling_Callback
.Ltmp112:
.Lfunc_end6:
	.size	HAL_GPIO_EXTI_IRQHandler, .Lfunc_end6-HAL_GPIO_EXTI_IRQHandler
	.cfi_endproc
	.cantunwind
	.fnend
                                        @ -- End function
	.section	.text.HAL_GPIO_EXTI_Rising_Callback,"ax",%progbits
	.hidden	HAL_GPIO_EXTI_Rising_Callback   @ -- Begin function HAL_GPIO_EXTI_Rising_Callback
	.weak	HAL_GPIO_EXTI_Rising_Callback
	.p2align	2
	.type	HAL_GPIO_EXTI_Rising_Callback,%function
	.code	16                              @ @HAL_GPIO_EXTI_Rising_Callback
	.thumb_func
HAL_GPIO_EXTI_Rising_Callback:
.Lfunc_begin7:
	.loc	5 509 0                         @ c:/Keil_v5\ARM\PACK\Keil\STM32L5xx_DFP\1.3.0\Drivers\STM32L5xx_HAL_Driver\Src\stm32l5xx_hal_gpio.c:509:0
	.fnstart
	.cfi_startproc
@ %bb.0:
	@DEBUG_VALUE: HAL_GPIO_EXTI_Rising_Callback:GPIO_Pin <- $r0
	.loc	5 516 1 prologue_end            @ c:/Keil_v5\ARM\PACK\Keil\STM32L5xx_DFP\1.3.0\Drivers\STM32L5xx_HAL_Driver\Src\stm32l5xx_hal_gpio.c:516:1
	bx	lr
.Ltmp113:
.Lfunc_end7:
	.size	HAL_GPIO_EXTI_Rising_Callback, .Lfunc_end7-HAL_GPIO_EXTI_Rising_Callback
	.cfi_endproc
	.cantunwind
	.fnend
                                        @ -- End function
	.section	.text.HAL_GPIO_EXTI_Falling_Callback,"ax",%progbits
	.hidden	HAL_GPIO_EXTI_Falling_Callback  @ -- Begin function HAL_GPIO_EXTI_Falling_Callback
	.weak	HAL_GPIO_EXTI_Falling_Callback
	.p2align	2
	.type	HAL_GPIO_EXTI_Falling_Callback,%function
	.code	16                              @ @HAL_GPIO_EXTI_Falling_Callback
	.thumb_func
HAL_GPIO_EXTI_Falling_Callback:
.Lfunc_begin8:
	.loc	5 524 0                         @ c:/Keil_v5\ARM\PACK\Keil\STM32L5xx_DFP\1.3.0\Drivers\STM32L5xx_HAL_Driver\Src\stm32l5xx_hal_gpio.c:524:0
	.fnstart
	.cfi_startproc
@ %bb.0:
	@DEBUG_VALUE: HAL_GPIO_EXTI_Falling_Callback:GPIO_Pin <- $r0
	.loc	5 531 1 prologue_end            @ c:/Keil_v5\ARM\PACK\Keil\STM32L5xx_DFP\1.3.0\Drivers\STM32L5xx_HAL_Driver\Src\stm32l5xx_hal_gpio.c:531:1
	bx	lr
.Ltmp114:
.Lfunc_end8:
	.size	HAL_GPIO_EXTI_Falling_Callback, .Lfunc_end8-HAL_GPIO_EXTI_Falling_Callback
	.cfi_endproc
	.cantunwind
	.fnend
                                        @ -- End function
	.section	".note.GNU-stack","",%progbits
	.eabi_attribute	30, 2	@ Tag_ABI_optimization_goals
	.ARM_attribute	16, 1	@ Tag_AV_eba