	.text
	.syntax unified
	.eabi_attribute	67, "2.09"	@ Tag_conformance
	.cpu	cortex-m33
	.eabi_attribute	6, 17	@ Tag_CPU_arch
	.eabi_attribute	7, 77	@ Tag_CPU_arch_profile
	.eabi_attribute	8, 0	@ Tag_ARM_ISA_use
	.eabi_attribute	9, 3	@ Tag_THUMB_ISA_use
	.fpu	fpv5-sp-d16
	.eabi_attribute	27, 1	@ Tag_ABI_HardFP_use
	.eabi_attribute	36, 1	@ Tag_FP_HP_extension
	.eabi_attribute	46, 1	@ Tag_DSP_extension
	.eabi_attribute	34, 1	@ Tag_CPU_unaligned_access
	.eabi_attribute	17, 1	@ Tag_ABI_PCS_GOT_use
	.eabi_attribute	20, 2	@ Tag_ABI_FP_denormal
	.eabi_attribute	21, 0	@ Tag_ABI_FP_exceptions
	.eabi_attribute	23, 1	@ Tag_ABI_FP_number_model
	.eabi_attribute	24, 1	@ Tag_ABI_align_needed
	.eabi_attribute	25, 1	@ Tag_ABI_align_preserved
	.eabi_attribute	28, 1	@ Tag_ABI_VFP_args
	.eabi_attribute	38, 1	@ Tag_ABI_FP_16bit_format
	.eabi_attribute	18, 2	@ Tag_ABI_PCS_wchar_t
	.eabi_attribute	26, 1	@ Tag_ABI_enum_size
	.eabi_attribute	14, 0	@ Tag_ABI_PCS_R9_use
	.file	"stm32l5xx_hal_dma_ex.c"
	.file	1 "c:/Keil_v5\\ARM\\PACK\\Keil\\STM32L5xx_DFP\\1.3.0\\Drivers\\STM32L5xx_HAL_Driver\\Inc" "stm32l5xx_hal_def.h"
	.file	2 "c:/Keil_v5\\ARM\\PACK\\Keil\\STM32L5xx_DFP\\1.3.0\\Drivers\\STM32L5xx_HAL_Driver\\Inc" "stm32l5xx_hal_dma.h"
	.file	3 "c:/Keil_v5\\ARM\\PACK\\Keil\\STM32L5xx_DFP\\1.3.0\\Drivers\\STM32L5xx_HAL_Driver\\Inc" "stm32l5xx_hal_dma_ex.h"
	.file	4 "c:/Keil_v5\\ARM\\PACK\\Keil\\STM32L5xx_DFP\\1.3.0\\Drivers\\CMSIS\\Device\\ST\\STM32L5xx\\Include" "stm32l5xx.h"
	.file	5 "c:\\Keil_v5\\ARM\\ARMCLANG\\Bin\\..\\include" "stdint.h"
	.section	.text.HAL_DMAEx_MultiBufferStart,"ax",%progbits
	.hidden	HAL_DMAEx_MultiBufferStart      @ -- Begin function HAL_DMAEx_MultiBufferStart
	.globl	HAL_DMAEx_MultiBufferStart
	.p2align	2
	.type	HAL_DMAEx_MultiBufferStart,%function
	.code	16                              @ @HAL_DMAEx_MultiBufferStart
	.thumb_func
HAL_DMAEx_MultiBufferStart:
.Lfunc_begin0:
	.file	6 "c:/Keil_v5\\ARM\\PACK\\Keil\\STM32L5xx_DFP\\1.3.0\\Drivers\\STM32L5xx_HAL_Driver\\Src" "stm32l5xx_hal_dma_ex.c"
	.loc	6 117 0                         @ c:/Keil_v5\ARM\PACK\Keil\STM32L5xx_DFP\1.3.0\Drivers\STM32L5xx_HAL_Driver\Src\stm32l5xx_hal_dma_ex.c:117:0
	.fnstart
	.cfi_sections .debug_frame
	.cfi_startproc
@ %bb.0:
	@DEBUG_VALUE: HAL_DMAEx_MultiBufferStart:hdma <- $r0
	@DEBUG_VALUE: HAL_DMAEx_MultiBufferStart:hdma <- $r0
	@DEBUG_VALUE: HAL_DMAEx_MultiBufferStart:SrcAddress <- $r1
	@DEBUG_VALUE: HAL_DMAEx_MultiBufferStart:DstAddress <- $r2
	@DEBUG_VALUE: HAL_DMAEx_MultiBufferStart:SecondMemAddress <- $r3
	@DEBUG_VALUE: HAL_DMAEx_MultiBufferStart:SecondMemAddress <- $r3
	.save	{r4, r5, r6, r7, r8, r9, r10, lr}
	push.w	{r4, r5, r6, r7, r8, r9, r10, lr}
	.cfi_def_cfa_offset 32
	.cfi_offset lr, -4
	.cfi_offset r10, -8
	.cfi_offset r9, -12
	.cfi_offset r8, -16
	.cfi_offset r7, -20
	.cfi_offset r6, -24
	.cfi_offset r5, -28
	.cfi_offset r4, -32
.Ltmp0:
	@DEBUG_VALUE: HAL_DMAEx_MultiBufferStart:DataLength <- [DW_OP_plus_uconst 32] [$sp+0]
	@DEBUG_VALUE: HAL_DMAEx_MultiBufferStart:status <- 0
	.loc	6 124 18 prologue_end           @ c:/Keil_v5\ARM\PACK\Keil\STM32L5xx_DFP\1.3.0\Drivers\STM32L5xx_HAL_Driver\Src\stm32l5xx_hal_dma_ex.c:124:18
	ldr.w	lr, [r0, #8]
.Ltmp1:
	@DEBUG_VALUE: HAL_DMAEx_MultiBufferStart:DstAddress <- $r2
	.loc	6 124 7 is_stmt 0               @ c:/Keil_v5\ARM\PACK\Keil\STM32L5xx_DFP\1.3.0\Drivers\STM32L5xx_HAL_Driver\Src\stm32l5xx_hal_dma_ex.c:124:7
	cmp.w	lr, #16384
	@DEBUG_VALUE: HAL_DMAEx_MultiBufferStart:SrcAddress <- $r1
	bne	.LBB0_2
.Ltmp2:
@ %bb.1:
	@DEBUG_VALUE: HAL_DMAEx_MultiBufferStart:SecondMemAddress <- $r3
	@DEBUG_VALUE: HAL_DMAEx_MultiBufferStart:DstAddress <- $r2
	@DEBUG_VALUE: HAL_DMAEx_MultiBufferStart:SrcAddress <- $r1
	@DEBUG_VALUE: HAL_DMAEx_MultiBufferStart:hdma <- $r0
	@DEBUG_VALUE: HAL_DMAEx_MultiBufferStart:DataLength <- [DW_OP_plus_uconst 32] [$sp+0]
	@DEBUG_VALUE: HAL_DMAEx_MultiBufferStart:status <- 0
	.loc	6 0 7                           @ c:/Keil_v5\ARM\PACK\Keil\STM32L5xx_DFP\1.3.0\Drivers\STM32L5xx_HAL_Driver\Src\stm32l5xx_hal_dma_ex.c:0:7
	mov.w	r1, #256
.Ltmp3:
	@DEBUG_VALUE: HAL_DMAEx_MultiBufferStart:SrcAddress <- [DW_OP_LLVM_entry_value 1] $r1
	.loc	6 126 21 is_stmt 1              @ c:/Keil_v5\ARM\PACK\Keil\STM32L5xx_DFP\1.3.0\Drivers\STM32L5xx_HAL_Driver\Src\stm32l5xx_hal_dma_ex.c:126:21
	str	r1, [r0, #68]
	movs	r0, #1
.Ltmp4:
	@DEBUG_VALUE: HAL_DMAEx_MultiBufferStart:hdma <- [DW_OP_LLVM_entry_value 1] $r0
	@DEBUG_VALUE: HAL_DMAEx_MultiBufferStart:status <- 1
	.loc	6 174 1                         @ c:/Keil_v5\ARM\PACK\Keil\STM32L5xx_DFP\1.3.0\Drivers\STM32L5xx_HAL_Driver\Src\stm32l5xx_hal_dma_ex.c:174:1
	pop.w	{r4, r5, r6, r7, r8, r9, r10, pc}
.Ltmp5:
	.p2align	2
.LBB0_2:
	@DEBUG_VALUE: HAL_DMAEx_MultiBufferStart:SecondMemAddress <- $r3
	@DEBUG_VALUE: HAL_DMAEx_MultiBufferStart:DstAddress <- $r2
	@DEBUG_VALUE: HAL_DMAEx_MultiBufferStart:SrcAddress <- $r1
	@DEBUG_VALUE: HAL_DMAEx_MultiBufferStart:hdma <- $r0
	@DEBUG_VALUE: HAL_DMAEx_MultiBufferStart:DataLength <- [DW_OP_plus_uconst 32] [$sp+0]
	@DEBUG_VALUE: HAL_DMAEx_MultiBufferStart:status <- 0
	.loc	6 132 5                         @ c:/Keil_v5\ARM\PACK\Keil\STM32L5xx_DFP\1.3.0\Drivers\STM32L5xx_HAL_Driver\Src\stm32l5xx_hal_dma_ex.c:132:5
	ldrb.w	r4, [r0, #36]
.Ltmp6:
	.loc	6 132 5 is_stmt 0               @ c:/Keil_v5\ARM\PACK\Keil\STM32L5xx_DFP\1.3.0\Drivers\STM32L5xx_HAL_Driver\Src\stm32l5xx_hal_dma_ex.c:132:5
	cmp	r4, #1
	itt	eq
	moveq	r0, #2
.Ltmp7:
	@DEBUG_VALUE: HAL_DMAEx_MultiBufferStart:hdma <- [DW_OP_LLVM_entry_value 1] $r0
	.loc	6 174 1 is_stmt 1               @ c:/Keil_v5\ARM\PACK\Keil\STM32L5xx_DFP\1.3.0\Drivers\STM32L5xx_HAL_Driver\Src\stm32l5xx_hal_dma_ex.c:174:1
	popeq.w	{r4, r5, r6, r7, r8, r9, r10, pc}
.Ltmp8:
.LBB0_3:
	@DEBUG_VALUE: HAL_DMAEx_MultiBufferStart:SecondMemAddress <- $r3
	@DEBUG_VALUE: HAL_DMAEx_MultiBufferStart:DstAddress <- $r2
	@DEBUG_VALUE: HAL_DMAEx_MultiBufferStart:SrcAddress <- $r1
	@DEBUG_VALUE: HAL_DMAEx_MultiBufferStart:hdma <- [DW_OP_LLVM_entry_value 1] $r0
	@DEBUG_VALUE: HAL_DMAEx_MultiBufferStart:status <- 0
	.loc	6 0 1 is_stmt 0                 @ c:/Keil_v5\ARM\PACK\Keil\STM32L5xx_DFP\1.3.0\Drivers\STM32L5xx_HAL_Driver\Src\stm32l5xx_hal_dma_ex.c:0:1
	movs	r5, #1
.Ltmp9:
	.loc	6 132 5 is_stmt 1               @ c:/Keil_v5\ARM\PACK\Keil\STM32L5xx_DFP\1.3.0\Drivers\STM32L5xx_HAL_Driver\Src\stm32l5xx_hal_dma_ex.c:132:5
	strb.w	r5, [r0, #36]
.Ltmp10:
	.loc	6 134 14                        @ c:/Keil_v5\ARM\PACK\Keil\STM32L5xx_DFP\1.3.0\Drivers\STM32L5xx_HAL_Driver\Src\stm32l5xx_hal_dma_ex.c:134:14
	ldrb.w	r4, [r0, #37]
.Ltmp11:
	.loc	6 134 8 is_stmt 0               @ c:/Keil_v5\ARM\PACK\Keil\STM32L5xx_DFP\1.3.0\Drivers\STM32L5xx_HAL_Driver\Src\stm32l5xx_hal_dma_ex.c:134:8
	cmp	r4, #1
	bne	.LBB0_5
.Ltmp12:
@ %bb.4:
	@DEBUG_VALUE: HAL_DMAEx_MultiBufferStart:SecondMemAddress <- $r3
	@DEBUG_VALUE: HAL_DMAEx_MultiBufferStart:DstAddress <- $r2
	@DEBUG_VALUE: HAL_DMAEx_MultiBufferStart:SrcAddress <- $r1
	@DEBUG_VALUE: HAL_DMAEx_MultiBufferStart:hdma <- [DW_OP_LLVM_entry_value 1] $r0
	@DEBUG_VALUE: HAL_DMAEx_MultiBufferStart:status <- 0
	.loc	6 0 8                           @ c:/Keil_v5\ARM\PACK\Keil\STM32L5xx_DFP\1.3.0\Drivers\STM32L5xx_HAL_Driver\Src\stm32l5xx_hal_dma_ex.c:0:8
	movs	r4, #2
.Ltmp13:
	.loc	6 137 19 is_stmt 1              @ c:/Keil_v5\ARM\PACK\Keil\STM32L5xx_DFP\1.3.0\Drivers\STM32L5xx_HAL_Driver\Src\stm32l5xx_hal_dma_ex.c:137:19
	strb.w	r4, [r0, #37]
	movs	r4, #0
	.loc	6 140 23                        @ c:/Keil_v5\ARM\PACK\Keil\STM32L5xx_DFP\1.3.0\Drivers\STM32L5xx_HAL_Driver\Src\stm32l5xx_hal_dma_ex.c:140:23
	str	r4, [r0, #68]
	.loc	6 143 13                        @ c:/Keil_v5\ARM\PACK\Keil\STM32L5xx_DFP\1.3.0\Drivers\STM32L5xx_HAL_Driver\Src\stm32l5xx_hal_dma_ex.c:143:13
	ldr.w	r12, [r0]
	.loc	6 152 13                        @ c:/Keil_v5\ARM\PACK\Keil\STM32L5xx_DFP\1.3.0\Drivers\STM32L5xx_HAL_Driver\Src\stm32l5xx_hal_dma_ex.c:152:13
	ldrd	r9, r7, [r0, #72]
	.loc	6 155 13                        @ c:/Keil_v5\ARM\PACK\Keil\STM32L5xx_DFP\1.3.0\Drivers\STM32L5xx_HAL_Driver\Src\stm32l5xx_hal_dma_ex.c:155:13
	ldr.w	r10, [r0, #84]
	.loc	6 143 27                        @ c:/Keil_v5\ARM\PACK\Keil\STM32L5xx_DFP\1.3.0\Drivers\STM32L5xx_HAL_Driver\Src\stm32l5xx_hal_dma_ex.c:143:27
	ldr.w	r4, [r12]
	movw	r6, #32800
	ldr.w	r8, [sp, #32]
	orrs	r4, r6
	str.w	r4, [r12]
	.loc	6 146 29                        @ c:/Keil_v5\ARM\PACK\Keil\STM32L5xx_DFP\1.3.0\Drivers\STM32L5xx_HAL_Driver\Src\stm32l5xx_hal_dma_ex.c:146:29
	str.w	r3, [r12, #16]
.Ltmp14:
	@DEBUG_VALUE: DMA_MultiBufferSetConfig:DataLength <- $r8
	@DEBUG_VALUE: DMA_MultiBufferSetConfig:DstAddress <- $r2
	@DEBUG_VALUE: DMA_MultiBufferSetConfig:SrcAddress <- $r1
	@DEBUG_VALUE: DMA_MultiBufferSetConfig:hdma <- undef
	.loc	6 526 6                         @ c:/Keil_v5\ARM\PACK\Keil\STM32L5xx_DFP\1.3.0\Drivers\STM32L5xx_HAL_Driver\Src\stm32l5xx_hal_dma_ex.c:526:6
	mov	r3, r1
.Ltmp15:
	@DEBUG_VALUE: HAL_DMAEx_MultiBufferStart:SecondMemAddress <- [DW_OP_LLVM_entry_value 1] $r3
	.loc	6 523 25                        @ c:/Keil_v5\ARM\PACK\Keil\STM32L5xx_DFP\1.3.0\Drivers\STM32L5xx_HAL_Driver\Src\stm32l5xx_hal_dma_ex.c:523:25
	str.w	r8, [r12, #4]
	.loc	6 526 6                         @ c:/Keil_v5\ARM\PACK\Keil\STM32L5xx_DFP\1.3.0\Drivers\STM32L5xx_HAL_Driver\Src\stm32l5xx_hal_dma_ex.c:526:6
	cmp.w	lr, #16
	itt	eq
	moveq	r3, r2
	moveq	r2, r1
.Ltmp16:
	@DEBUG_VALUE: HAL_DMAEx_MultiBufferStart:DstAddress <- [DW_OP_LLVM_entry_value 1] $r2
	.loc	6 152 73                        @ c:/Keil_v5\ARM\PACK\Keil\STM32L5xx_DFP\1.3.0\Drivers\STM32L5xx_HAL_Driver\Src\stm32l5xx_hal_dma_ex.c:152:73
	and	r1, r7, #28
.Ltmp17:
	@DEBUG_VALUE: HAL_DMAEx_MultiBufferStart:SrcAddress <- [DW_OP_LLVM_entry_value 1] $r1
	.loc	6 152 50 is_stmt 0              @ c:/Keil_v5\ARM\PACK\Keil\STM32L5xx_DFP\1.3.0\Drivers\STM32L5xx_HAL_Driver\Src\stm32l5xx_hal_dma_ex.c:152:50
	lsl.w	r1, r5, r1
.Ltmp18:
	.loc	6 0 0                           @ c:/Keil_v5\ARM\PACK\Keil\STM32L5xx_DFP\1.3.0\Drivers\STM32L5xx_HAL_Driver\Src\stm32l5xx_hal_dma_ex.c:0:0
	str.w	r3, [r12, #8]
	str.w	r2, [r12, #12]
.Ltmp19:
	.loc	6 152 34                        @ c:/Keil_v5\ARM\PACK\Keil\STM32L5xx_DFP\1.3.0\Drivers\STM32L5xx_HAL_Driver\Src\stm32l5xx_hal_dma_ex.c:152:34
	str.w	r1, [r9, #4]
	.loc	6 155 46 is_stmt 1              @ c:/Keil_v5\ARM\PACK\Keil\STM32L5xx_DFP\1.3.0\Drivers\STM32L5xx_HAL_Driver\Src\stm32l5xx_hal_dma_ex.c:155:46
	ldr	r1, [r0, #88]
	.loc	6 155 38 is_stmt 0              @ c:/Keil_v5\ARM\PACK\Keil\STM32L5xx_DFP\1.3.0\Drivers\STM32L5xx_HAL_Driver\Src\stm32l5xx_hal_dma_ex.c:155:38
	str.w	r1, [r10, #4]
.Ltmp20:
	.loc	6 157 16 is_stmt 1              @ c:/Keil_v5\ARM\PACK\Keil\STM32L5xx_DFP\1.3.0\Drivers\STM32L5xx_HAL_Driver\Src\stm32l5xx_hal_dma_ex.c:157:16
	ldr	r1, [r0, #92]
.Ltmp21:
	.loc	6 157 10 is_stmt 0              @ c:/Keil_v5\ARM\PACK\Keil\STM32L5xx_DFP\1.3.0\Drivers\STM32L5xx_HAL_Driver\Src\stm32l5xx_hal_dma_ex.c:157:10
	cmp	r1, #0
.Ltmp22:
	.loc	6 160 15 is_stmt 1              @ c:/Keil_v5\ARM\PACK\Keil\STM32L5xx_DFP\1.3.0\Drivers\STM32L5xx_HAL_Driver\Src\stm32l5xx_hal_dma_ex.c:160:15
	itt	ne
	ldrdne	r1, r0, [r0, #96]
	.loc	6 160 45 is_stmt 0              @ c:/Keil_v5\ARM\PACK\Keil\STM32L5xx_DFP\1.3.0\Drivers\STM32L5xx_HAL_Driver\Src\stm32l5xx_hal_dma_ex.c:160:45
	strne	r0, [r1, #4]
.Ltmp23:
	.loc	6 164 7 is_stmt 1               @ c:/Keil_v5\ARM\PACK\Keil\STM32L5xx_DFP\1.3.0\Drivers\STM32L5xx_HAL_Driver\Src\stm32l5xx_hal_dma_ex.c:164:7
	ldr.w	r0, [r12]
	orr	r0, r0, #1
	str.w	r0, [r12]
	movs	r0, #0
.Ltmp24:
	.loc	6 174 1                         @ c:/Keil_v5\ARM\PACK\Keil\STM32L5xx_DFP\1.3.0\Drivers\STM32L5xx_HAL_Driver\Src\stm32l5xx_hal_dma_ex.c:174:1
	pop.w	{r4, r5, r6, r7, r8, r9, r10, pc}
.Ltmp25:
	.p2align	2
.LBB0_5:
	@DEBUG_VALUE: HAL_DMAEx_MultiBufferStart:SecondMemAddress <- $r3
	@DEBUG_VALUE: HAL_DMAEx_MultiBufferStart:DstAddress <- $r2
	@DEBUG_VALUE: HAL_DMAEx_MultiBufferStart:SrcAddress <- $r1
	@DEBUG_VALUE: HAL_DMAEx_MultiBufferStart:hdma <- [DW_OP_LLVM_entry_value 1] $r0
	@DEBUG_VALUE: HAL_DMAEx_MultiBufferStart:status <- 0
	.loc	6 0 1 is_stmt 0                 @ c:/Keil_v5\ARM\PACK\Keil\STM32L5xx_DFP\1.3.0\Drivers\STM32L5xx_HAL_Driver\Src\stm32l5xx_hal_dma_ex.c:0:1
	movs	r1, #0
.Ltmp26:
	@DEBUG_VALUE: HAL_DMAEx_MultiBufferStart:SrcAddress <- [DW_OP_LLVM_entry_value 1] $r1
	.loc	6 169 7 is_stmt 1               @ c:/Keil_v5\ARM\PACK\Keil\STM32L5xx_DFP\1.3.0\Drivers\STM32L5xx_HAL_Driver\Src\stm32l5xx_hal_dma_ex.c:169:7
	strb.w	r1, [r0, #36]
	movs	r0, #2
.Ltmp27:
	@DEBUG_VALUE: HAL_DMAEx_MultiBufferStart:status <- 2
	.loc	6 174 1                         @ c:/Keil_v5\ARM\PACK\Keil\STM32L5xx_DFP\1.3.0\Drivers\STM32L5xx_HAL_Driver\Src\stm32l5xx_hal_dma_ex.c:174:1
	pop.w	{r4, r5, r6, r7, r8, r9, r10, pc}
.Ltmp28:
.Lfunc_end0:
	.size	HAL_DMAEx_MultiBufferStart, .Lfunc_end0-HAL_DMAEx_MultiBufferStart
	.cfi_endproc
	.file	7 "c:/Keil_v5\\ARM\\PACK\\Keil\\STM32L5xx_DFP\\1.3.0\\Drivers\\CMSIS\\Device\\ST\\STM32L5xx\\Include" "stm32l552xx.h"
	.cantunwind
	.fnend
                                        @ -- End function
	.section	.text.HAL_DMAEx_MultiBufferStart_IT,"ax",%progbits
	.hidden	HAL_DMAEx_MultiBufferStart_IT   @ -- Begin function HAL_DMAEx_MultiBufferStart_IT
	.globl	HAL_DMAEx_MultiBufferStart_IT
	.p2align	2
	.type	HAL_DMAEx_MultiBufferStart_IT,%function
	.code	16                              @ @HAL_DMAEx_MultiBufferStart_IT
	.thumb_func
HAL_DMAEx_MultiBufferStart_IT:
.Lfunc_begin1:
	.loc	6 187 0                         @ c:/Keil_v5\ARM\PACK\Keil\STM32L5xx_DFP\1.3.0\Drivers\STM32L5xx_HAL_Driver\Src\stm32l5xx_hal_dma_ex.c:187:0
	.fnstart
	.cfi_startproc
@ %bb.0:
	@DEBUG_VALUE: HAL_DMAEx_MultiBufferStart_IT:hdma <- $r0
	@DEBUG_VALUE: HAL_DMAEx_MultiBufferStart_IT:hdma <- $r0
	@DEBUG_VALUE: HAL_DMAEx_MultiBufferStart_IT:SrcAddress <- $r1
	@DEBUG_VALUE: HAL_DMAEx_MultiBufferStart_IT:DstAddress <- $r2
	@DEBUG_VALUE: HAL_DMAEx_MultiBufferStart_IT:SecondMemAddress <- $r3
	@DEBUG_VALUE: HAL_DMAEx_MultiBufferStart_IT:SecondMemAddress <- $r3
	.save	{r4, r5, r6, r7, r8, r9, r10, lr}
	push.w	{r4, r5, r6, r7, r8, r9, r10, lr}
	.cfi_def_cfa_offset 32
	.cfi_offset lr, -4
	.cfi_offset r10, -8
	.cfi_offset r9, -12
	.cfi_offset r8, -16
	.cfi_offset r7, -20
	.cfi_offset r6, -24
	.cfi_offset r5, -28
	.cfi_offset r4, -32
.Ltmp29:
	@DEBUG_VALUE: HAL_DMAEx_MultiBufferStart_IT:DataLength <- [DW_OP_plus_uconst 32] [$sp+0]
	@DEBUG_VALUE: HAL_DMAEx_MultiBufferStart_IT:status <- 0
	.loc	6 195 17 prologue_end           @ c:/Keil_v5\ARM\PACK\Keil\STM32L5xx_DFP\1.3.0\Drivers\STM32L5xx_HAL_Driver\Src\stm32l5xx_hal_dma_ex.c:195:17
	ldr.w	lr, [r0, #8]
.Ltmp30:
	@DEBUG_VALUE: HAL_DMAEx_MultiBufferStart_IT:DstAddress <- $r2
	.loc	6 195 6 is_stmt 0               @ c:/Keil_v5\ARM\PACK\Keil\STM32L5xx_DFP\1.3.0\Drivers\STM32L5xx_HAL_Driver\Src\stm32l5xx_hal_dma_ex.c:195:6
	cmp.w	lr, #16384
	@DEBUG_VALUE: HAL_DMAEx_MultiBufferStart_IT:SrcAddress <- $r1
	bne	.LBB1_2
.Ltmp31:
@ %bb.1:
	@DEBUG_VALUE: HAL_DMAEx_MultiBufferStart_IT:SecondMemAddress <- $r3
	@DEBUG_VALUE: HAL_DMAEx_MultiBufferStart_IT:DstAddress <- $r2
	@DEBUG_VALUE: HAL_DMAEx_MultiBufferStart_IT:SrcAddress <- $r1
	@DEBUG_VALUE: HAL_DMAEx_MultiBufferStart_IT:hdma <- $r0
	@DEBUG_VALUE: HAL_DMAEx_MultiBufferStart_IT:DataLength <- [DW_OP_plus_uconst 32] [$sp+0]
	@DEBUG_VALUE: HAL_DMAEx_MultiBufferStart_IT:status <- 0
	.loc	6 0 6                           @ c:/Keil_v5\ARM\PACK\Keil\STM32L5xx_DFP\1.3.0\Drivers\STM32L5xx_HAL_Driver\Src\stm32l5xx_hal_dma_ex.c:0:6
	mov.w	r1, #256
.Ltmp32:
	@DEBUG_VALUE: HAL_DMAEx_MultiBufferStart_IT:SrcAddress <- [DW_OP_LLVM_entry_value 1] $r1
	.loc	6 197 21 is_stmt 1              @ c:/Keil_v5\ARM\PACK\Keil\STM32L5xx_DFP\1.3.0\Drivers\STM32L5xx_HAL_Driver\Src\stm32l5xx_hal_dma_ex.c:197:21
	str	r1, [r0, #68]
	movs	r0, #1
.Ltmp33:
	@DEBUG_VALUE: HAL_DMAEx_MultiBufferStart_IT:hdma <- [DW_OP_LLVM_entry_value 1] $r0
	.loc	6 275 1                         @ c:/Keil_v5\ARM\PACK\Keil\STM32L5xx_DFP\1.3.0\Drivers\STM32L5xx_HAL_Driver\Src\stm32l5xx_hal_dma_ex.c:275:1
	pop.w	{r4, r5, r6, r7, r8, r9, r10, pc}
.Ltmp34:
	.p2align	2
.LBB1_2:
	@DEBUG_VALUE: HAL_DMAEx_MultiBufferStart_IT:SecondMemAddress <- $r3
	@DEBUG_VALUE: HAL_DMAEx_MultiBufferStart_IT:DstAddress <- $r2
	@DEBUG_VALUE: HAL_DMAEx_MultiBufferStart_IT:SrcAddress <- $r1
	@DEBUG_VALUE: HAL_DMAEx_MultiBufferStart_IT:hdma <- $r0
	@DEBUG_VALUE: HAL_DMAEx_MultiBufferStart_IT:DataLength <- [DW_OP_plus_uconst 32] [$sp+0]
	@DEBUG_VALUE: HAL_DMAEx_MultiBufferStart_IT:status <- 0
	.loc	6 202 3                         @ c:/Keil_v5\ARM\PACK\Keil\STM32L5xx_DFP\1.3.0\Drivers\STM32L5xx_HAL_Driver\Src\stm32l5xx_hal_dma_ex.c:202:3
	ldrb.w	r4, [r0, #36]
.Ltmp35:
	.loc	6 202 3 is_stmt 0               @ c:/Keil_v5\ARM\PACK\Keil\STM32L5xx_DFP\1.3.0\Drivers\STM32L5xx_HAL_Driver\Src\stm32l5xx_hal_dma_ex.c:202:3
	cmp	r4, #1
	itt	eq
	moveq	r0, #2
.Ltmp36:
	@DEBUG_VALUE: HAL_DMAEx_MultiBufferStart_IT:hdma <- [DW_OP_LLVM_entry_value 1] $r0
	.loc	6 275 1 is_stmt 1               @ c:/Keil_v5\ARM\PACK\Keil\STM32L5xx_DFP\1.3.0\Drivers\STM32L5xx_HAL_Driver\Src\stm32l5xx_hal_dma_ex.c:275:1
	popeq.w	{r4, r5, r6, r7, r8, r9, r10, pc}
.Ltmp37:
.LBB1_3:
	@DEBUG_VALUE: HAL_DMAEx_MultiBufferStart_IT:SecondMemAddress <- $r3
	@DEBUG_VALUE: HAL_DMAEx_MultiBufferStart_IT:DstAddress <- $r2
	@DEBUG_VALUE: HAL_DMAEx_MultiBufferStart_IT:SrcAddress <- $r1
	@DEBUG_VALUE: HAL_DMAEx_MultiBufferStart_IT:hdma <- [DW_OP_LLVM_entry_value 1] $r0
	@DEBUG_VALUE: HAL_DMAEx_MultiBufferStart_IT:status <- 0
	.loc	6 0 1 is_stmt 0                 @ c:/Keil_v5\ARM\PACK\Keil\STM32L5xx_DFP\1.3.0\Drivers\STM32L5xx_HAL_Driver\Src\stm32l5xx_hal_dma_ex.c:0:1
	mov.w	r8, #1
.Ltmp38:
	.loc	6 202 3 is_stmt 1               @ c:/Keil_v5\ARM\PACK\Keil\STM32L5xx_DFP\1.3.0\Drivers\STM32L5xx_HAL_Driver\Src\stm32l5xx_hal_dma_ex.c:202:3
	strb.w	r8, [r0, #36]
.Ltmp39:
	.loc	6 204 12                        @ c:/Keil_v5\ARM\PACK\Keil\STM32L5xx_DFP\1.3.0\Drivers\STM32L5xx_HAL_Driver\Src\stm32l5xx_hal_dma_ex.c:204:12
	ldrb.w	r4, [r0, #37]
.Ltmp40:
	.loc	6 204 6 is_stmt 0               @ c:/Keil_v5\ARM\PACK\Keil\STM32L5xx_DFP\1.3.0\Drivers\STM32L5xx_HAL_Driver\Src\stm32l5xx_hal_dma_ex.c:204:6
	cmp	r4, #1
	bne	.LBB1_6
.Ltmp41:
@ %bb.4:
	@DEBUG_VALUE: HAL_DMAEx_MultiBufferStart_IT:SecondMemAddress <- $r3
	@DEBUG_VALUE: HAL_DMAEx_MultiBufferStart_IT:DstAddress <- $r2
	@DEBUG_VALUE: HAL_DMAEx_MultiBufferStart_IT:SrcAddress <- $r1
	@DEBUG_VALUE: HAL_DMAEx_MultiBufferStart_IT:hdma <- [DW_OP_LLVM_entry_value 1] $r0
	@DEBUG_VALUE: HAL_DMAEx_MultiBufferStart_IT:status <- 0
	.loc	6 0 6                           @ c:/Keil_v5\ARM\PACK\Keil\STM32L5xx_DFP\1.3.0\Drivers\STM32L5xx_HAL_Driver\Src\stm32l5xx_hal_dma_ex.c:0:6
	movs	r4, #2
.Ltmp42:
	.loc	6 207 17 is_stmt 1              @ c:/Keil_v5\ARM\PACK\Keil\STM32L5xx_DFP\1.3.0\Drivers\STM32L5xx_HAL_Driver\Src\stm32l5xx_hal_dma_ex.c:207:17
	strb.w	r4, [r0, #37]
	movs	r4, #0
	.loc	6 210 21                        @ c:/Keil_v5\ARM\PACK\Keil\STM32L5xx_DFP\1.3.0\Drivers\STM32L5xx_HAL_Driver\Src\stm32l5xx_hal_dma_ex.c:210:21
	str	r4, [r0, #68]
	.loc	6 213 5                         @ c:/Keil_v5\ARM\PACK\Keil\STM32L5xx_DFP\1.3.0\Drivers\STM32L5xx_HAL_Driver\Src\stm32l5xx_hal_dma_ex.c:213:5
	ldr.w	r12, [r0]
	.loc	6 226 11                        @ c:/Keil_v5\ARM\PACK\Keil\STM32L5xx_DFP\1.3.0\Drivers\STM32L5xx_HAL_Driver\Src\stm32l5xx_hal_dma_ex.c:226:11
	ldrd	r10, r6, [r0, #72]
	.loc	6 229 11                        @ c:/Keil_v5\ARM\PACK\Keil\STM32L5xx_DFP\1.3.0\Drivers\STM32L5xx_HAL_Driver\Src\stm32l5xx_hal_dma_ex.c:229:11
	ldr	r7, [r0, #84]
	.loc	6 213 5                         @ c:/Keil_v5\ARM\PACK\Keil\STM32L5xx_DFP\1.3.0\Drivers\STM32L5xx_HAL_Driver\Src\stm32l5xx_hal_dma_ex.c:213:5
	ldr.w	r5, [r12]
	movw	r4, #32800
	bic	r5, r5, #1
	str.w	r5, [r12]
	.loc	6 217 25                        @ c:/Keil_v5\ARM\PACK\Keil\STM32L5xx_DFP\1.3.0\Drivers\STM32L5xx_HAL_Driver\Src\stm32l5xx_hal_dma_ex.c:217:25
	ldr.w	r5, [r12]
	ldr.w	r9, [sp, #32]
	orrs	r4, r5
	str.w	r4, [r12]
	.loc	6 220 27                        @ c:/Keil_v5\ARM\PACK\Keil\STM32L5xx_DFP\1.3.0\Drivers\STM32L5xx_HAL_Driver\Src\stm32l5xx_hal_dma_ex.c:220:27
	str.w	r3, [r12, #16]
.Ltmp43:
	@DEBUG_VALUE: DMA_MultiBufferSetConfig:DataLength <- $r9
	@DEBUG_VALUE: DMA_MultiBufferSetConfig:DstAddress <- $r2
	@DEBUG_VALUE: DMA_MultiBufferSetConfig:SrcAddress <- $r1
	@DEBUG_VALUE: DMA_MultiBufferSetConfig:hdma <- undef
	.loc	6 526 6                         @ c:/Keil_v5\ARM\PACK\Keil\STM32L5xx_DFP\1.3.0\Drivers\STM32L5xx_HAL_Driver\Src\stm32l5xx_hal_dma_ex.c:526:6
	mov	r3, r1
.Ltmp44:
	@DEBUG_VALUE: HAL_DMAEx_MultiBufferStart_IT:SecondMemAddress <- [DW_OP_LLVM_entry_value 1] $r3
	.loc	6 523 25                        @ c:/Keil_v5\ARM\PACK\Keil\STM32L5xx_DFP\1.3.0\Drivers\STM32L5xx_HAL_Driver\Src\stm32l5xx_hal_dma_ex.c:523:25
	str.w	r9, [r12, #4]
	.loc	6 526 6                         @ c:/Keil_v5\ARM\PACK\Keil\STM32L5xx_DFP\1.3.0\Drivers\STM32L5xx_HAL_Driver\Src\stm32l5xx_hal_dma_ex.c:526:6
	cmp.w	lr, #16
	itt	eq
	moveq	r3, r2
	moveq	r2, r1
.Ltmp45:
	@DEBUG_VALUE: HAL_DMAEx_MultiBufferStart_IT:DstAddress <- [DW_OP_LLVM_entry_value 1] $r2
	.loc	6 226 71                        @ c:/Keil_v5\ARM\PACK\Keil\STM32L5xx_DFP\1.3.0\Drivers\STM32L5xx_HAL_Driver\Src\stm32l5xx_hal_dma_ex.c:226:71
	and	r1, r6, #28
.Ltmp46:
	@DEBUG_VALUE: HAL_DMAEx_MultiBufferStart_IT:SrcAddress <- [DW_OP_LLVM_entry_value 1] $r1
	.loc	6 226 48 is_stmt 0              @ c:/Keil_v5\ARM\PACK\Keil\STM32L5xx_DFP\1.3.0\Drivers\STM32L5xx_HAL_Driver\Src\stm32l5xx_hal_dma_ex.c:226:48
	lsl.w	r1, r8, r1
.Ltmp47:
	.loc	6 0 0                           @ c:/Keil_v5\ARM\PACK\Keil\STM32L5xx_DFP\1.3.0\Drivers\STM32L5xx_HAL_Driver\Src\stm32l5xx_hal_dma_ex.c:0:0
	str.w	r3, [r12, #8]
	str.w	r2, [r12, #12]
.Ltmp48:
	.loc	6 226 32                        @ c:/Keil_v5\ARM\PACK\Keil\STM32L5xx_DFP\1.3.0\Drivers\STM32L5xx_HAL_Driver\Src\stm32l5xx_hal_dma_ex.c:226:32
	str.w	r1, [r10, #4]
	.loc	6 229 44 is_stmt 1              @ c:/Keil_v5\ARM\PACK\Keil\STM32L5xx_DFP\1.3.0\Drivers\STM32L5xx_HAL_Driver\Src\stm32l5xx_hal_dma_ex.c:229:44
	ldr	r1, [r0, #88]
	.loc	6 229 36 is_stmt 0              @ c:/Keil_v5\ARM\PACK\Keil\STM32L5xx_DFP\1.3.0\Drivers\STM32L5xx_HAL_Driver\Src\stm32l5xx_hal_dma_ex.c:229:36
	str	r1, [r7, #4]
.Ltmp49:
	.loc	6 231 14 is_stmt 1              @ c:/Keil_v5\ARM\PACK\Keil\STM32L5xx_DFP\1.3.0\Drivers\STM32L5xx_HAL_Driver\Src\stm32l5xx_hal_dma_ex.c:231:14
	ldr	r1, [r0, #92]
.Ltmp50:
	.loc	6 231 8 is_stmt 0               @ c:/Keil_v5\ARM\PACK\Keil\STM32L5xx_DFP\1.3.0\Drivers\STM32L5xx_HAL_Driver\Src\stm32l5xx_hal_dma_ex.c:231:8
	cmp	r1, #0
.Ltmp51:
	.loc	6 234 13 is_stmt 1              @ c:/Keil_v5\ARM\PACK\Keil\STM32L5xx_DFP\1.3.0\Drivers\STM32L5xx_HAL_Driver\Src\stm32l5xx_hal_dma_ex.c:234:13
	itt	ne
	ldrdne	r2, r3, [r0, #96]
	.loc	6 234 43 is_stmt 0              @ c:/Keil_v5\ARM\PACK\Keil\STM32L5xx_DFP\1.3.0\Drivers\STM32L5xx_HAL_Driver\Src\stm32l5xx_hal_dma_ex.c:234:43
	strne	r3, [r2, #4]
.Ltmp52:
	.loc	6 238 22 is_stmt 1              @ c:/Keil_v5\ARM\PACK\Keil\STM32L5xx_DFP\1.3.0\Drivers\STM32L5xx_HAL_Driver\Src\stm32l5xx_hal_dma_ex.c:238:22
	ldr	r3, [r0, #48]
	.loc	6 0 0 is_stmt 0                 @ c:/Keil_v5\ARM\PACK\Keil\STM32L5xx_DFP\1.3.0\Drivers\STM32L5xx_HAL_Driver\Src\stm32l5xx_hal_dma_ex.c:0:0
	ldr.w	r2, [r12]
.Ltmp53:
	.loc	6 238 8                         @ c:/Keil_v5\ARM\PACK\Keil\STM32L5xx_DFP\1.3.0\Drivers\STM32L5xx_HAL_Driver\Src\stm32l5xx_hal_dma_ex.c:238:8
	cbz	r3, .LBB1_7
.Ltmp54:
@ %bb.5:
	@DEBUG_VALUE: HAL_DMAEx_MultiBufferStart_IT:DstAddress <- [DW_OP_LLVM_entry_value 1] $r2
	@DEBUG_VALUE: HAL_DMAEx_MultiBufferStart_IT:SecondMemAddress <- [DW_OP_LLVM_entry_value 1] $r3
	@DEBUG_VALUE: HAL_DMAEx_MultiBufferStart_IT:SrcAddress <- [DW_OP_LLVM_entry_value 1] $r1
	@DEBUG_VALUE: HAL_DMAEx_MultiBufferStart_IT:hdma <- [DW_OP_LLVM_entry_value 1] $r0
	@DEBUG_VALUE: HAL_DMAEx_MultiBufferStart_IT:status <- 0
	.loc	6 241 7 is_stmt 1               @ c:/Keil_v5\ARM\PACK\Keil\STM32L5xx_DFP\1.3.0\Drivers\STM32L5xx_HAL_Driver\Src\stm32l5xx_hal_dma_ex.c:241:7
	orr	r2, r2, #14
	b	.LBB1_8
.Ltmp55:
	.p2align	2
.LBB1_6:
	@DEBUG_VALUE: HAL_DMAEx_MultiBufferStart_IT:SecondMemAddress <- $r3
	@DEBUG_VALUE: HAL_DMAEx_MultiBufferStart_IT:DstAddress <- $r2
	@DEBUG_VALUE: HAL_DMAEx_MultiBufferStart_IT:SrcAddress <- $r1
	@DEBUG_VALUE: HAL_DMAEx_MultiBufferStart_IT:hdma <- [DW_OP_LLVM_entry_value 1] $r0
	@DEBUG_VALUE: HAL_DMAEx_MultiBufferStart_IT:status <- 0
	.loc	6 0 7 is_stmt 0                 @ c:/Keil_v5\ARM\PACK\Keil\STM32L5xx_DFP\1.3.0\Drivers\STM32L5xx_HAL_Driver\Src\stm32l5xx_hal_dma_ex.c:0:7
	movs	r1, #0
.Ltmp56:
	@DEBUG_VALUE: HAL_DMAEx_MultiBufferStart_IT:SrcAddress <- [DW_OP_LLVM_entry_value 1] $r1
	.loc	6 269 5 is_stmt 1               @ c:/Keil_v5\ARM\PACK\Keil\STM32L5xx_DFP\1.3.0\Drivers\STM32L5xx_HAL_Driver\Src\stm32l5xx_hal_dma_ex.c:269:5
	strb.w	r1, [r0, #36]
	movs	r0, #2
.Ltmp57:
	@DEBUG_VALUE: HAL_DMAEx_MultiBufferStart_IT:status <- 2
	.loc	6 275 1                         @ c:/Keil_v5\ARM\PACK\Keil\STM32L5xx_DFP\1.3.0\Drivers\STM32L5xx_HAL_Driver\Src\stm32l5xx_hal_dma_ex.c:275:1
	pop.w	{r4, r5, r6, r7, r8, r9, r10, pc}
.Ltmp58:
	.p2align	2
.LBB1_7:
	@DEBUG_VALUE: HAL_DMAEx_MultiBufferStart_IT:DstAddress <- [DW_OP_LLVM_entry_value 1] $r2
	@DEBUG_VALUE: HAL_DMAEx_MultiBufferStart_IT:SecondMemAddress <- [DW_OP_LLVM_entry_value 1] $r3
	@DEBUG_VALUE: HAL_DMAEx_MultiBufferStart_IT:SrcAddress <- [DW_OP_LLVM_entry_value 1] $r1
	@DEBUG_VALUE: HAL_DMAEx_MultiBufferStart_IT:hdma <- [DW_OP_LLVM_entry_value 1] $r0
	@DEBUG_VALUE: HAL_DMAEx_MultiBufferStart_IT:status <- 0
	.loc	6 245 7                         @ c:/Keil_v5\ARM\PACK\Keil\STM32L5xx_DFP\1.3.0\Drivers\STM32L5xx_HAL_Driver\Src\stm32l5xx_hal_dma_ex.c:245:7
	bic	r2, r2, #4
	str.w	r2, [r12]
	.loc	6 246 7                         @ c:/Keil_v5\ARM\PACK\Keil\STM32L5xx_DFP\1.3.0\Drivers\STM32L5xx_HAL_Driver\Src\stm32l5xx_hal_dma_ex.c:246:7
	ldr.w	r2, [r12]
	orr	r2, r2, #10
.Ltmp59:
.LBB1_8:
	@DEBUG_VALUE: HAL_DMAEx_MultiBufferStart_IT:DstAddress <- [DW_OP_LLVM_entry_value 1] $r2
	@DEBUG_VALUE: HAL_DMAEx_MultiBufferStart_IT:SecondMemAddress <- [DW_OP_LLVM_entry_value 1] $r3
	@DEBUG_VALUE: HAL_DMAEx_MultiBufferStart_IT:SrcAddress <- [DW_OP_LLVM_entry_value 1] $r1
	@DEBUG_VALUE: HAL_DMAEx_MultiBufferStart_IT:hdma <- [DW_OP_LLVM_entry_value 1] $r0
	@DEBUG_VALUE: HAL_DMAEx_MultiBufferStart_IT:status <- 0
	.loc	6 0 0 is_stmt 0                 @ c:/Keil_v5\ARM\PACK\Keil\STM32L5xx_DFP\1.3.0\Drivers\STM32L5xx_HAL_Driver\Src\stm32l5xx_hal_dma_ex.c:0:0
	str.w	r2, [r12]
.Ltmp60:
	.loc	6 250 15 is_stmt 1              @ c:/Keil_v5\ARM\PACK\Keil\STM32L5xx_DFP\1.3.0\Drivers\STM32L5xx_HAL_Driver\Src\stm32l5xx_hal_dma_ex.c:250:15
	ldr	r0, [r0, #80]
	.loc	6 250 30 is_stmt 0              @ c:/Keil_v5\ARM\PACK\Keil\STM32L5xx_DFP\1.3.0\Drivers\STM32L5xx_HAL_Driver\Src\stm32l5xx_hal_dma_ex.c:250:30
	ldr	r2, [r0]
.Ltmp61:
	.loc	6 250 8                         @ c:/Keil_v5\ARM\PACK\Keil\STM32L5xx_DFP\1.3.0\Drivers\STM32L5xx_HAL_Driver\Src\stm32l5xx_hal_dma_ex.c:250:8
	lsls	r2, r2, #15
	bpl	.LBB1_10
.Ltmp62:
@ %bb.9:
	@DEBUG_VALUE: HAL_DMAEx_MultiBufferStart_IT:DstAddress <- [DW_OP_LLVM_entry_value 1] $r2
	@DEBUG_VALUE: HAL_DMAEx_MultiBufferStart_IT:SecondMemAddress <- [DW_OP_LLVM_entry_value 1] $r3
	@DEBUG_VALUE: HAL_DMAEx_MultiBufferStart_IT:SrcAddress <- [DW_OP_LLVM_entry_value 1] $r1
	@DEBUG_VALUE: HAL_DMAEx_MultiBufferStart_IT:hdma <- [DW_OP_LLVM_entry_value 1] $r0
	@DEBUG_VALUE: HAL_DMAEx_MultiBufferStart_IT:status <- 0
	.loc	6 253 32 is_stmt 1              @ c:/Keil_v5\ARM\PACK\Keil\STM32L5xx_DFP\1.3.0\Drivers\STM32L5xx_HAL_Driver\Src\stm32l5xx_hal_dma_ex.c:253:32
	ldr	r2, [r0]
	orr	r2, r2, #256
	str	r2, [r0]
.Ltmp63:
.LBB1_10:
	@DEBUG_VALUE: HAL_DMAEx_MultiBufferStart_IT:DstAddress <- [DW_OP_LLVM_entry_value 1] $r2
	@DEBUG_VALUE: HAL_DMAEx_MultiBufferStart_IT:SecondMemAddress <- [DW_OP_LLVM_entry_value 1] $r3
	@DEBUG_VALUE: HAL_DMAEx_MultiBufferStart_IT:SrcAddress <- [DW_OP_LLVM_entry_value 1] $r1
	@DEBUG_VALUE: HAL_DMAEx_MultiBufferStart_IT:hdma <- [DW_OP_LLVM_entry_value 1] $r0
	@DEBUG_VALUE: HAL_DMAEx_MultiBufferStart_IT:status <- 0
	.loc	6 256 8                         @ c:/Keil_v5\ARM\PACK\Keil\STM32L5xx_DFP\1.3.0\Drivers\STM32L5xx_HAL_Driver\Src\stm32l5xx_hal_dma_ex.c:256:8
	cbz	r1, .LBB1_12
.Ltmp64:
@ %bb.11:
	@DEBUG_VALUE: HAL_DMAEx_MultiBufferStart_IT:DstAddress <- [DW_OP_LLVM_entry_value 1] $r2
	@DEBUG_VALUE: HAL_DMAEx_MultiBufferStart_IT:SecondMemAddress <- [DW_OP_LLVM_entry_value 1] $r3
	@DEBUG_VALUE: HAL_DMAEx_MultiBufferStart_IT:SrcAddress <- [DW_OP_LLVM_entry_value 1] $r1
	@DEBUG_VALUE: HAL_DMAEx_MultiBufferStart_IT:hdma <- [DW_OP_LLVM_entry_value 1] $r0
	@DEBUG_VALUE: HAL_DMAEx_MultiBufferStart_IT:status <- 0
	.loc	6 260 36                        @ c:/Keil_v5\ARM\PACK\Keil\STM32L5xx_DFP\1.3.0\Drivers\STM32L5xx_HAL_Driver\Src\stm32l5xx_hal_dma_ex.c:260:36
	ldr	r0, [r1]
	orr	r0, r0, #256
	str	r0, [r1]
.Ltmp65:
.LBB1_12:
	@DEBUG_VALUE: HAL_DMAEx_MultiBufferStart_IT:DstAddress <- [DW_OP_LLVM_entry_value 1] $r2
	@DEBUG_VALUE: HAL_DMAEx_MultiBufferStart_IT:SecondMemAddress <- [DW_OP_LLVM_entry_value 1] $r3
	@DEBUG_VALUE: HAL_DMAEx_MultiBufferStart_IT:SrcAddress <- [DW_OP_LLVM_entry_value 1] $r1
	@DEBUG_VALUE: HAL_DMAEx_MultiBufferStart_IT:hdma <- [DW_OP_LLVM_entry_value 1] $r0
	@DEBUG_VALUE: HAL_DMAEx_MultiBufferStart_IT:status <- 0
	.loc	6 264 5                         @ c:/Keil_v5\ARM\PACK\Keil\STM32L5xx_DFP\1.3.0\Drivers\STM32L5xx_HAL_Driver\Src\stm32l5xx_hal_dma_ex.c:264:5
	ldr.w	r0, [r12]
	orr	r0, r0, #1
	str.w	r0, [r12]
	movs	r0, #0
.Ltmp66:
	.loc	6 275 1                         @ c:/Keil_v5\ARM\PACK\Keil\STM32L5xx_DFP\1.3.0\Drivers\STM32L5xx_HAL_Driver\Src\stm32l5xx_hal_dma_ex.c:275:1
	pop.w	{r4, r5, r6, r7, r8, r9, r10, pc}
.Ltmp67:
.Lfunc_end1:
	.size	HAL_DMAEx_MultiBufferStart_IT, .Lfunc_end1-HAL_DMAEx_MultiBufferStart_IT
	.cfi_endproc
	.cantunwind
	.fnend
                                        @ -- End function
	.section	.text.HAL_DMAEx_ChangeMemory,"ax",%progbits
	.hidden	HAL_DMAEx_ChangeMemory          @ -- Begin function HAL_DMAEx_ChangeMemory
	.globl	HAL_DMAEx_ChangeMemory
	.p2align	2
	.type	HAL_DMAEx_ChangeMemory,%function
	.code	16                              @ @HAL_DMAEx_ChangeMemory
	.thumb_func
HAL_DMAEx_ChangeMemory:
.Lfunc_begin2:
	.loc	6 292 0                         @ c:/Keil_v5\ARM\PACK\Keil\STM32L5xx_DFP\1.3.0\Drivers\STM32L5xx_HAL_Driver\Src\stm32l5xx_hal_dma_ex.c:292:0
	.fnstart
	.cfi_startproc
@ %bb.0:
	@DEBUG_VALUE: HAL_DMAEx_ChangeMemory:hdma <- $r0
	@DEBUG_VALUE: HAL_DMAEx_ChangeMemory:hdma <- $r0
	@DEBUG_VALUE: HAL_DMAEx_ChangeMemory:Address <- $r1
	@DEBUG_VALUE: HAL_DMAEx_ChangeMemory:Address <- $r1
	@DEBUG_VALUE: HAL_DMAEx_ChangeMemory:memory <- $r2
	@DEBUG_VALUE: HAL_DMAEx_ChangeMemory:memory <- $r2
	.loc	6 0 0 prologue_end              @ c:/Keil_v5\ARM\PACK\Keil\STM32L5xx_DFP\1.3.0\Drivers\STM32L5xx_HAL_Driver\Src\stm32l5xx_hal_dma_ex.c:0:0
	ldr.w	r12, [r0]
	movs	r3, #16
.Ltmp68:
	.loc	6 304 3                         @ c:/Keil_v5\ARM\PACK\Keil\STM32L5xx_DFP\1.3.0\Drivers\STM32L5xx_HAL_Driver\Src\stm32l5xx_hal_dma_ex.c:304:3
	movs	r0, #0
.Ltmp69:
	@DEBUG_VALUE: HAL_DMAEx_ChangeMemory:hdma <- [DW_OP_LLVM_entry_value 1] $r0
	.loc	6 293 6                         @ c:/Keil_v5\ARM\PACK\Keil\STM32L5xx_DFP\1.3.0\Drivers\STM32L5xx_HAL_Driver\Src\stm32l5xx_hal_dma_ex.c:293:6
	cmp	r2, #0
	it	eq
	moveq	r3, #12
.Ltmp70:
	.loc	6 0 0 is_stmt 0                 @ c:/Keil_v5\ARM\PACK\Keil\STM32L5xx_DFP\1.3.0\Drivers\STM32L5xx_HAL_Driver\Src\stm32l5xx_hal_dma_ex.c:0:0
	str.w	r1, [r12, r3]
.Ltmp71:
	.loc	6 304 3 is_stmt 1               @ c:/Keil_v5\ARM\PACK\Keil\STM32L5xx_DFP\1.3.0\Drivers\STM32L5xx_HAL_Driver\Src\stm32l5xx_hal_dma_ex.c:304:3
	bx	lr
.Ltmp72:
.Lfunc_end2:
	.size	HAL_DMAEx_ChangeMemory, .Lfunc_end2-HAL_DMAEx_ChangeMemory
	.cfi_endproc
	.cantunwind
	.fnend
                                        @ -- End function
	.section	.text.HAL_DMAEx_ConfigMuxSync,"ax",%progbits
	.hidden	HAL_DMAEx_ConfigMuxSync         @ -- Begin function HAL_DMAEx_ConfigMuxSync
	.globl	HAL_DMAEx_ConfigMuxSync
	.p2align	2
	.type	HAL_DMAEx_ConfigMuxSync,%function
	.code	16                              @ @HAL_DMAEx_ConfigMuxSync
	.thumb_func
HAL_DMAEx_ConfigMuxSync:
.Lfunc_begin3:
	.loc	6 315 0                         @ c:/Keil_v5\ARM\PACK\Keil\STM32L5xx_DFP\1.3.0\Drivers\STM32L5xx_HAL_Driver\Src\stm32l5xx_hal_dma_ex.c:315:0
	.fnstart
	.cfi_startproc
@ %bb.0:
	@DEBUG_VALUE: HAL_DMAEx_ConfigMuxSync:hdma <- $r0
	@DEBUG_VALUE: HAL_DMAEx_ConfigMuxSync:hdma <- $r0
	@DEBUG_VALUE: HAL_DMAEx_ConfigMuxSync:pSyncConfig <- $r1
	.save	{r4, r5, r7, lr}
	push	{r4, r5, r7, lr}
	.cfi_def_cfa_offset 16
	.cfi_offset lr, -4
	.cfi_offset r7, -8
	.cfi_offset r5, -12
	.cfi_offset r4, -16
.Ltmp73:
	.loc	6 327 12 prologue_end           @ c:/Keil_v5\ARM\PACK\Keil\STM32L5xx_DFP\1.3.0\Drivers\STM32L5xx_HAL_Driver\Src\stm32l5xx_hal_dma_ex.c:327:12
	ldrb.w	r2, [r0, #37]
.Ltmp74:
	.loc	6 327 6 is_stmt 0               @ c:/Keil_v5\ARM\PACK\Keil\STM32L5xx_DFP\1.3.0\Drivers\STM32L5xx_HAL_Driver\Src\stm32l5xx_hal_dma_ex.c:327:6
	cmp	r2, #1
	@DEBUG_VALUE: HAL_DMAEx_ConfigMuxSync:pSyncConfig <- $r1
	itt	ne
	movne	r0, #1
.Ltmp75:
	@DEBUG_VALUE: HAL_DMAEx_ConfigMuxSync:hdma <- [DW_OP_LLVM_entry_value 1] $r0
	.loc	6 349 1 is_stmt 1               @ c:/Keil_v5\ARM\PACK\Keil\STM32L5xx_DFP\1.3.0\Drivers\STM32L5xx_HAL_Driver\Src\stm32l5xx_hal_dma_ex.c:349:1
	popne	{r4, r5, r7, pc}
.Ltmp76:
.LBB3_1:
	@DEBUG_VALUE: HAL_DMAEx_ConfigMuxSync:pSyncConfig <- $r1
	@DEBUG_VALUE: HAL_DMAEx_ConfigMuxSync:hdma <- [DW_OP_LLVM_entry_value 1] $r0
	.loc	6 330 5                         @ c:/Keil_v5\ARM\PACK\Keil\STM32L5xx_DFP\1.3.0\Drivers\STM32L5xx_HAL_Driver\Src\stm32l5xx_hal_dma_ex.c:330:5
	ldrb.w	r2, [r0, #36]
.Ltmp77:
	.loc	6 330 5 is_stmt 0               @ c:/Keil_v5\ARM\PACK\Keil\STM32L5xx_DFP\1.3.0\Drivers\STM32L5xx_HAL_Driver\Src\stm32l5xx_hal_dma_ex.c:330:5
	cmp	r2, #1
	itt	eq
	moveq	r0, #2
.Ltmp78:
	.loc	6 349 1 is_stmt 1               @ c:/Keil_v5\ARM\PACK\Keil\STM32L5xx_DFP\1.3.0\Drivers\STM32L5xx_HAL_Driver\Src\stm32l5xx_hal_dma_ex.c:349:1
	popeq	{r4, r5, r7, pc}
.Ltmp79:
.LBB3_2:
	@DEBUG_VALUE: HAL_DMAEx_ConfigMuxSync:pSyncConfig <- $r1
	@DEBUG_VALUE: HAL_DMAEx_ConfigMuxSync:hdma <- [DW_OP_LLVM_entry_value 1] $r0
	.loc	6 333 5                         @ c:/Keil_v5\ARM\PACK\Keil\STM32L5xx_DFP\1.3.0\Drivers\STM32L5xx_HAL_Driver\Src\stm32l5xx_hal_dma_ex.c:333:5
	ldr	r2, [r0, #80]
	movs	r3, #0
	ldr.w	r12, [r2]
	ldr.w	lr, [r1, #12]
	movt	r3, #65528
	add.w	lr, r3, lr, lsl #19
	ldrd	r3, r4, [r1]
	uxtb.w	r12, r12
	orr.w	r3, r12, r3, lsl #24
	ldrb	r5, [r1, #8]
	orrs	r3, r4
	orr.w	r3, r3, lr
	ldrb	r1, [r1, #9]
.Ltmp80:
	@DEBUG_VALUE: HAL_DMAEx_ConfigMuxSync:pSyncConfig <- [DW_OP_LLVM_entry_value 1] $r1
	orr.w	r3, r3, r5, lsl #16
	orr.w	r1, r3, r1, lsl #9
	str	r1, [r2]
	movs	r1, #0
.Ltmp81:
	.loc	6 340 5                         @ c:/Keil_v5\ARM\PACK\Keil\STM32L5xx_DFP\1.3.0\Drivers\STM32L5xx_HAL_Driver\Src\stm32l5xx_hal_dma_ex.c:340:5
	strb.w	r1, [r0, #36]
.Ltmp82:
	.loc	6 349 1                         @ c:/Keil_v5\ARM\PACK\Keil\STM32L5xx_DFP\1.3.0\Drivers\STM32L5xx_HAL_Driver\Src\stm32l5xx_hal_dma_ex.c:349:1
	mov	r0, r1
	pop	{r4, r5, r7, pc}
.Ltmp83:
.Lfunc_end3:
	.size	HAL_DMAEx_ConfigMuxSync, .Lfunc_end3-HAL_DMAEx_ConfigMuxSync
	.cfi_endproc
	.cantunwind
	.fnend
                                        @ -- End function
	.section	.text.HAL_DMAEx_ConfigMuxRequestGenerator,"ax",%progbits
	.hidden	HAL_DMAEx_ConfigMuxRequestGenerator @ -- Begin function HAL_DMAEx_ConfigMuxRequestGenerator
	.globl	HAL_DMAEx_ConfigMuxRequestGenerator
	.p2align	2
	.type	HAL_DMAEx_ConfigMuxRequestGenerator,%function
	.code	16                              @ @HAL_DMAEx_ConfigMuxRequestGenerator
	.thumb_func
HAL_DMAEx_ConfigMuxRequestGenerator:
.Lfunc_begin4:
	.loc	6 361 0                         @ c:/Keil_v5\ARM\PACK\Keil\STM32L5xx_DFP\1.3.0\Drivers\STM32L5xx_HAL_Driver\Src\stm32l5xx_hal_dma_ex.c:361:0
	.fnstart
	.cfi_startproc
@ %bb.0:
	@DEBUG_VALUE: HAL_DMAEx_ConfigMuxRequestGenerator:hdma <- $r0
	@DEBUG_VALUE: HAL_DMAEx_ConfigMuxRequestGenerator:hdma <- $r0
	@DEBUG_VALUE: HAL_DMAEx_ConfigMuxRequestGenerator:pRequestGeneratorConfig <- $r1
	.save	{r7, lr}
	push	{r7, lr}
	.cfi_def_cfa_offset 8
	.cfi_offset lr, -4
	.cfi_offset r7, -8
.Ltmp84:
	.loc	6 373 13 prologue_end           @ c:/Keil_v5\ARM\PACK\Keil\STM32L5xx_DFP\1.3.0\Drivers\STM32L5xx_HAL_Driver\Src\stm32l5xx_hal_dma_ex.c:373:13
	ldrb.w	r2, [r0, #37]
	.loc	6 373 43 is_stmt 0              @ c:/Keil_v5\ARM\PACK\Keil\STM32L5xx_DFP\1.3.0\Drivers\STM32L5xx_HAL_Driver\Src\stm32l5xx_hal_dma_ex.c:373:43
	cmp	r2, #1
	@DEBUG_VALUE: HAL_DMAEx_ConfigMuxRequestGenerator:pRequestGeneratorConfig <- $r1
	bne	.LBB4_4
.Ltmp85:
@ %bb.1:
	@DEBUG_VALUE: HAL_DMAEx_ConfigMuxRequestGenerator:pRequestGeneratorConfig <- $r1
	@DEBUG_VALUE: HAL_DMAEx_ConfigMuxRequestGenerator:hdma <- $r0
	.loc	6 373 53                        @ c:/Keil_v5\ARM\PACK\Keil\STM32L5xx_DFP\1.3.0\Drivers\STM32L5xx_HAL_Driver\Src\stm32l5xx_hal_dma_ex.c:373:53
	ldr	r2, [r0, #92]
.Ltmp86:
	.loc	6 373 6                         @ c:/Keil_v5\ARM\PACK\Keil\STM32L5xx_DFP\1.3.0\Drivers\STM32L5xx_HAL_Driver\Src\stm32l5xx_hal_dma_ex.c:373:6
	cbz	r2, .LBB4_4
.Ltmp87:
@ %bb.2:
	@DEBUG_VALUE: HAL_DMAEx_ConfigMuxRequestGenerator:pRequestGeneratorConfig <- $r1
	@DEBUG_VALUE: HAL_DMAEx_ConfigMuxRequestGenerator:hdma <- $r0
	.loc	6 376 5 is_stmt 1               @ c:/Keil_v5\ARM\PACK\Keil\STM32L5xx_DFP\1.3.0\Drivers\STM32L5xx_HAL_Driver\Src\stm32l5xx_hal_dma_ex.c:376:5
	ldrb.w	r3, [r0, #36]
.Ltmp88:
	.loc	6 376 5 is_stmt 0               @ c:/Keil_v5\ARM\PACK\Keil\STM32L5xx_DFP\1.3.0\Drivers\STM32L5xx_HAL_Driver\Src\stm32l5xx_hal_dma_ex.c:376:5
	cmp	r3, #1
	itt	eq
	moveq	r0, #2
.Ltmp89:
	@DEBUG_VALUE: HAL_DMAEx_ConfigMuxRequestGenerator:hdma <- [DW_OP_LLVM_entry_value 1] $r0
	.loc	6 391 1 is_stmt 1               @ c:/Keil_v5\ARM\PACK\Keil\STM32L5xx_DFP\1.3.0\Drivers\STM32L5xx_HAL_Driver\Src\stm32l5xx_hal_dma_ex.c:391:1
	popeq	{r7, pc}
.Ltmp90:
.LBB4_3:
	@DEBUG_VALUE: HAL_DMAEx_ConfigMuxRequestGenerator:pRequestGeneratorConfig <- $r1
	@DEBUG_VALUE: HAL_DMAEx_ConfigMuxRequestGenerator:hdma <- [DW_OP_LLVM_entry_value 1] $r0
	.loc	6 379 61                        @ c:/Keil_v5\ARM\PACK\Keil\STM32L5xx_DFP\1.3.0\Drivers\STM32L5xx_HAL_Driver\Src\stm32l5xx_hal_dma_ex.c:379:61
	ldrd	r12, lr, [r1]
	.loc	6 380 62                        @ c:/Keil_v5\ARM\PACK\Keil\STM32L5xx_DFP\1.3.0\Drivers\STM32L5xx_HAL_Driver\Src\stm32l5xx_hal_dma_ex.c:380:62
	ldr	r3, [r1, #8]
	movs	r1, #0
.Ltmp91:
	@DEBUG_VALUE: HAL_DMAEx_ConfigMuxRequestGenerator:pRequestGeneratorConfig <- [DW_OP_LLVM_entry_value 1] $r1
	.loc	6 0 62 is_stmt 0                @ c:/Keil_v5\ARM\PACK\Keil\STM32L5xx_DFP\1.3.0\Drivers\STM32L5xx_HAL_Driver\Src\stm32l5xx_hal_dma_ex.c:0:62
	movt	r1, #65528
	.loc	6 380 82                        @ c:/Keil_v5\ARM\PACK\Keil\STM32L5xx_DFP\1.3.0\Drivers\STM32L5xx_HAL_Driver\Src\stm32l5xx_hal_dma_ex.c:380:82
	add.w	r1, r1, r3, lsl #19
	.loc	6 379 70 is_stmt 1              @ c:/Keil_v5\ARM\PACK\Keil\STM32L5xx_DFP\1.3.0\Drivers\STM32L5xx_HAL_Driver\Src\stm32l5xx_hal_dma_ex.c:379:70
	orr.w	r3, lr, r12
	.loc	6 380 109                       @ c:/Keil_v5\ARM\PACK\Keil\STM32L5xx_DFP\1.3.0\Drivers\STM32L5xx_HAL_Driver\Src\stm32l5xx_hal_dma_ex.c:380:109
	orrs	r1, r3
	.loc	6 379 34                        @ c:/Keil_v5\ARM\PACK\Keil\STM32L5xx_DFP\1.3.0\Drivers\STM32L5xx_HAL_Driver\Src\stm32l5xx_hal_dma_ex.c:379:34
	str	r1, [r2]
	movs	r1, #0
.Ltmp92:
	.loc	6 383 4                         @ c:/Keil_v5\ARM\PACK\Keil\STM32L5xx_DFP\1.3.0\Drivers\STM32L5xx_HAL_Driver\Src\stm32l5xx_hal_dma_ex.c:383:4
	strb.w	r1, [r0, #36]
.Ltmp93:
	.loc	6 391 1                         @ c:/Keil_v5\ARM\PACK\Keil\STM32L5xx_DFP\1.3.0\Drivers\STM32L5xx_HAL_Driver\Src\stm32l5xx_hal_dma_ex.c:391:1
	mov	r0, r1
	pop	{r7, pc}
.Ltmp94:
	.p2align	2
.LBB4_4:
	@DEBUG_VALUE: HAL_DMAEx_ConfigMuxRequestGenerator:pRequestGeneratorConfig <- $r1
	@DEBUG_VALUE: HAL_DMAEx_ConfigMuxRequestGenerator:hdma <- $r0
	.loc	6 0 1 is_stmt 0                 @ c:/Keil_v5\ARM\PACK\Keil\STM32L5xx_DFP\1.3.0\Drivers\STM32L5xx_HAL_Driver\Src\stm32l5xx_hal_dma_ex.c:0:1
	movs	r0, #1
.Ltmp95:
	@DEBUG_VALUE: HAL_DMAEx_ConfigMuxRequestGenerator:hdma <- [DW_OP_LLVM_entry_value 1] $r0
	.loc	6 391 1                         @ c:/Keil_v5\ARM\PACK\Keil\STM32L5xx_DFP\1.3.0\Drivers\STM32L5xx_HAL_Driver\Src\stm32l5xx_hal_dma_ex.c:391:1
	pop	{r7, pc}
.Ltmp96:
.Lfunc_end4:
	.size	HAL_DMAEx_ConfigMuxRequestGenerator, .Lfunc_end4-HAL_DMAEx_ConfigMuxRequestGenerator
	.cfi_endproc
	.cantunwind
	.fnend
                                        @ -- End function
	.section	.text.HAL_DMAEx_EnableMuxRequestGenerator,"ax",%progbits
	.hidden	HAL_DMAEx_EnableMuxRequestGenerator @ -- Begin function HAL_DMAEx_EnableMuxRequestGenerator
	.globl	HAL_DMAEx_EnableMuxRequestGenerator
	.p2align	2
	.type	HAL_DMAEx_EnableMuxRequestGenerator,%function
	.code	16                              @ @HAL_DMAEx_EnableMuxRequestGenerator
	.thumb_func
HAL_DMAEx_EnableMuxRequestGenerator:
.Lfunc_begin5:
	.loc	6 400 0 is_stmt 1               @ c:/Keil_v5\ARM\PACK\Keil\STM32L5xx_DFP\1.3.0\Drivers\STM32L5xx_HAL_Driver\Src\stm32l5xx_hal_dma_ex.c:400:0
	.fnstart
	.cfi_startproc
@ %bb.0:
	@DEBUG_VALUE: HAL_DMAEx_EnableMuxRequestGenerator:hdma <- $r0
	@DEBUG_VALUE: HAL_DMAEx_EnableMuxRequestGenerator:hdma <- $r0
	.loc	6 407 13 prologue_end           @ c:/Keil_v5\ARM\PACK\Keil\STM32L5xx_DFP\1.3.0\Drivers\STM32L5xx_HAL_Driver\Src\stm32l5xx_hal_dma_ex.c:407:13
	ldrb.w	r1, [r0, #37]
	.loc	6 407 43 is_stmt 0              @ c:/Keil_v5\ARM\PACK\Keil\STM32L5xx_DFP\1.3.0\Drivers\STM32L5xx_HAL_Driver\Src\stm32l5xx_hal_dma_ex.c:407:43
	cbz	r1, .LBB5_3
.Ltmp97:
@ %bb.1:
	@DEBUG_VALUE: HAL_DMAEx_EnableMuxRequestGenerator:hdma <- $r0
	.loc	6 407 53                        @ c:/Keil_v5\ARM\PACK\Keil\STM32L5xx_DFP\1.3.0\Drivers\STM32L5xx_HAL_Driver\Src\stm32l5xx_hal_dma_ex.c:407:53
	ldr	r0, [r0, #92]
.Ltmp98:
	@DEBUG_VALUE: HAL_DMAEx_EnableMuxRequestGenerator:hdma <- [DW_OP_LLVM_entry_value 1] $r0
	.loc	6 407 6                         @ c:/Keil_v5\ARM\PACK\Keil\STM32L5xx_DFP\1.3.0\Drivers\STM32L5xx_HAL_Driver\Src\stm32l5xx_hal_dma_ex.c:407:6
	cbz	r0, .LBB5_3
.Ltmp99:
@ %bb.2:
	@DEBUG_VALUE: HAL_DMAEx_EnableMuxRequestGenerator:hdma <- [DW_OP_LLVM_entry_value 1] $r0
	.loc	6 411 34 is_stmt 1              @ c:/Keil_v5\ARM\PACK\Keil\STM32L5xx_DFP\1.3.0\Drivers\STM32L5xx_HAL_Driver\Src\stm32l5xx_hal_dma_ex.c:411:34
	ldr	r1, [r0]
	orr	r1, r1, #65536
	str	r1, [r0]
	movs	r0, #0
.Ltmp100:
	.loc	6 419 1                         @ c:/Keil_v5\ARM\PACK\Keil\STM32L5xx_DFP\1.3.0\Drivers\STM32L5xx_HAL_Driver\Src\stm32l5xx_hal_dma_ex.c:419:1
	bx	lr
.Ltmp101:
	.p2align	2
.LBB5_3:
	.loc	6 0 1 is_stmt 0                 @ c:/Keil_v5\ARM\PACK\Keil\STM32L5xx_DFP\1.3.0\Drivers\STM32L5xx_HAL_Driver\Src\stm32l5xx_hal_dma_ex.c:0:1
	movs	r0, #1
	.loc	6 419 1                         @ c:/Keil_v5\ARM\PACK\Keil\STM32L5xx_DFP\1.3.0\Drivers\STM32L5xx_HAL_Driver\Src\stm32l5xx_hal_dma_ex.c:419:1
	bx	lr
.Ltmp102:
.Lfunc_end5:
	.size	HAL_DMAEx_EnableMuxRequestGenerator, .Lfunc_end5-HAL_DMAEx_EnableMuxRequestGenerator
	.cfi_endproc
	.cantunwind
	.fnend
                                        @ -- End function
	.section	.text.HAL_DMAEx_DisableMuxRequestGenerator,"ax",%progbits
	.hidden	HAL_DMAEx_DisableMuxRequestGenerator @ -- Begin function HAL_DMAEx_DisableMuxRequestGenerator
	.globl	HAL_DMAEx_DisableMuxRequestGenerator
	.p2align	2
	.type	HAL_DMAEx_DisableMuxRequestGenerator,%function
	.code	16                              @ @HAL_DMAEx_DisableMuxRequestGenerator
	.thumb_func
HAL_DMAEx_DisableMuxRequestGenerator:
.Lfunc_begin6:
	.loc	6 428 0 is_stmt 1               @ c:/Keil_v5\ARM\PACK\Keil\STM32L5xx_DFP\1.3.0\Drivers\STM32L5xx_HAL_Driver\Src\stm32l5xx_hal_dma_ex.c:428:0
	.fnstart
	.cfi_startproc
@ %bb.0:
	@DEBUG_VALUE: HAL_DMAEx_DisableMuxRequestGenerator:hdma <- $r0
	@DEBUG_VALUE: HAL_DMAEx_DisableMuxRequestGenerator:hdma <- $r0
	.loc	6 435 13 prologue_end           @ c:/Keil_v5\ARM\PACK\Keil\STM32L5xx_DFP\1.3.0\Drivers\STM32L5xx_HAL_Driver\Src\stm32l5xx_hal_dma_ex.c:435:13
	ldrb.w	r1, [r0, #37]
	.loc	6 435 43 is_stmt 0              @ c:/Keil_v5\ARM\PACK\Keil\STM32L5xx_DFP\1.3.0\Drivers\STM32L5xx_HAL_Driver\Src\stm32l5xx_hal_dma_ex.c:435:43
	cbz	r1, .LBB6_3
.Ltmp103:
@ %bb.1:
	@DEBUG_VALUE: HAL_DMAEx_DisableMuxRequestGenerator:hdma <- $r0
	.loc	6 435 53                        @ c:/Keil_v5\ARM\PACK\Keil\STM32L5xx_DFP\1.3.0\Drivers\STM32L5xx_HAL_Driver\Src\stm32l5xx_hal_dma_ex.c:435:53
	ldr	r0, [r0, #92]
.Ltmp104:
	@DEBUG_VALUE: HAL_DMAEx_DisableMuxRequestGenerator:hdma <- [DW_OP_LLVM_entry_value 1] $r0
	.loc	6 435 6                         @ c:/Keil_v5\ARM\PACK\Keil\STM32L5xx_DFP\1.3.0\Drivers\STM32L5xx_HAL_Driver\Src\stm32l5xx_hal_dma_ex.c:435:6
	cbz	r0, .LBB6_3
.Ltmp105:
@ %bb.2:
	@DEBUG_VALUE: HAL_DMAEx_DisableMuxRequestGenerator:hdma <- [DW_OP_LLVM_entry_value 1] $r0
	.loc	6 439 34 is_stmt 1              @ c:/Keil_v5\ARM\PACK\Keil\STM32L5xx_DFP\1.3.0\Drivers\STM32L5xx_HAL_Driver\Src\stm32l5xx_hal_dma_ex.c:439:34
	ldr	r1, [r0]
	bic	r1, r1, #65536
	str	r1, [r0]
	movs	r0, #0
.Ltmp106:
	.loc	6 447 1                         @ c:/Keil_v5\ARM\PACK\Keil\STM32L5xx_DFP\1.3.0\Drivers\STM32L5xx_HAL_Driver\Src\stm32l5xx_hal_dma_ex.c:447:1
	bx	lr
.Ltmp107:
	.p2align	2
.LBB6_3:
	.loc	6 0 1 is_stmt 0                 @ c:/Keil_v5\ARM\PACK\Keil\STM32L5xx_DFP\1.3.0\Drivers\STM32L5xx_HAL_Driver\Src\stm32l5xx_hal_dma_ex.c:0:1
	movs	r0, #1
	.loc	6 447 1                         @ c:/Keil_v5\ARM\PACK\Keil\STM32L5xx_DFP\1.3.0\Drivers\STM32L5xx_HAL_Driver\Src\stm32l5xx_hal_dma_ex.c:447:1
	bx	lr
.Ltmp108:
.Lfunc_end6:
	.size	HAL_DMAEx_DisableMuxRequestGenerator, .Lfunc_end6-HAL_DMAEx_DisableMuxRequestGenerator
	.cfi_endproc
	.cantunwind
	.fnend
                                        @ -- End function
	.section	.text.HAL_DMAEx_MUX_IRQHandler,"ax",%progbits
	.hidden	HAL_DMAEx_MUX_IRQHandler        @ -- Begin function HAL_DMAEx_MUX_IRQHandler
	.globl	HAL_DMAEx_MUX_IRQHandler
	.p2align	2
	.type	HAL_DMAEx_MUX_IRQHandler,%function
	.code	16                              @ @HAL_DMAEx_MUX_IRQHandler
	.thumb_func
HAL_DMAEx_MUX_IRQHandler:
.Lfunc_begin7:
	.loc	6 456 0 is_stmt 1               @ c:/Keil_v5\ARM\PACK\Keil\STM32L5xx_DFP\1.3.0\Drivers\STM32L5xx_HAL_Driver\Src\stm32l5xx_hal_dma_ex.c:456:0
	.fnstart
	.cfi_startproc
@ %bb.0:
	@DEBUG_VALUE: HAL_DMAEx_MUX_IRQHandler:hdma <- $r0
	.save	{r4, lr}
	push	{r4, lr}
	.cfi_def_cfa_offset 8
	.cfi_offset lr, -4
	.cfi_offset r4, -8
	mov	r4, r0
.Ltmp109:
	@DEBUG_VALUE: HAL_DMAEx_MUX_IRQHandler:hdma <- $r4
	.loc	6 458 13 prologue_end           @ c:/Keil_v5\ARM\PACK\Keil\STM32L5xx_DFP\1.3.0\Drivers\STM32L5xx_HAL_Driver\Src\stm32l5xx_hal_dma_ex.c:458:13
	ldr	r0, [r0, #84]
	.loc	6 458 46 is_stmt 0              @ c:/Keil_v5\ARM\PACK\Keil\STM32L5xx_DFP\1.3.0\Drivers\STM32L5xx_HAL_Driver\Src\stm32l5xx_hal_dma_ex.c:458:46
	ldr	r2, [r4, #88]
	.loc	6 458 34                        @ c:/Keil_v5\ARM\PACK\Keil\STM32L5xx_DFP\1.3.0\Drivers\STM32L5xx_HAL_Driver\Src\stm32l5xx_hal_dma_ex.c:458:34
	ldr	r1, [r0]
.Ltmp110:
	.loc	6 458 6                         @ c:/Keil_v5\ARM\PACK\Keil\STM32L5xx_DFP\1.3.0\Drivers\STM32L5xx_HAL_Driver\Src\stm32l5xx_hal_dma_ex.c:458:6
	tst	r2, r1
	beq	.LBB7_2
.Ltmp111:
@ %bb.1:
	@DEBUG_VALUE: HAL_DMAEx_MUX_IRQHandler:hdma <- $r4
	.loc	6 461 11 is_stmt 1              @ c:/Keil_v5\ARM\PACK\Keil\STM32L5xx_DFP\1.3.0\Drivers\STM32L5xx_HAL_Driver\Src\stm32l5xx_hal_dma_ex.c:461:11
	ldr	r3, [r4, #80]
.Ltmp112:
	.loc	6 469 14                        @ c:/Keil_v5\ARM\PACK\Keil\STM32L5xx_DFP\1.3.0\Drivers\STM32L5xx_HAL_Driver\Src\stm32l5xx_hal_dma_ex.c:469:14
	ldr.w	r12, [r4, #60]
.Ltmp113:
	.loc	6 461 30                        @ c:/Keil_v5\ARM\PACK\Keil\STM32L5xx_DFP\1.3.0\Drivers\STM32L5xx_HAL_Driver\Src\stm32l5xx_hal_dma_ex.c:461:30
	ldr	r1, [r3]
	.loc	6 469 8                         @ c:/Keil_v5\ARM\PACK\Keil\STM32L5xx_DFP\1.3.0\Drivers\STM32L5xx_HAL_Driver\Src\stm32l5xx_hal_dma_ex.c:469:8
	cmp.w	r12, #0
	.loc	6 461 30                        @ c:/Keil_v5\ARM\PACK\Keil\STM32L5xx_DFP\1.3.0\Drivers\STM32L5xx_HAL_Driver\Src\stm32l5xx_hal_dma_ex.c:461:30
	bic	r1, r1, #256
	str	r1, [r3]
	.loc	6 464 36                        @ c:/Keil_v5\ARM\PACK\Keil\STM32L5xx_DFP\1.3.0\Drivers\STM32L5xx_HAL_Driver\Src\stm32l5xx_hal_dma_ex.c:464:36
	str	r2, [r0, #4]
	.loc	6 467 21                        @ c:/Keil_v5\ARM\PACK\Keil\STM32L5xx_DFP\1.3.0\Drivers\STM32L5xx_HAL_Driver\Src\stm32l5xx_hal_dma_ex.c:467:21
	ldr	r0, [r4, #68]
	orr	r0, r0, #512
	str	r0, [r4, #68]
.Ltmp114:
	.loc	6 472 7                         @ c:/Keil_v5\ARM\PACK\Keil\STM32L5xx_DFP\1.3.0\Drivers\STM32L5xx_HAL_Driver\Src\stm32l5xx_hal_dma_ex.c:472:7
	itt	ne
	movne	r0, r4
	blxne	r12
.Ltmp115:
.LBB7_2:
	@DEBUG_VALUE: HAL_DMAEx_MUX_IRQHandler:hdma <- $r4
	.loc	6 476 12                        @ c:/Keil_v5\ARM\PACK\Keil\STM32L5xx_DFP\1.3.0\Drivers\STM32L5xx_HAL_Driver\Src\stm32l5xx_hal_dma_ex.c:476:12
	ldr	r0, [r4, #92]
.Ltmp116:
	.loc	6 476 6 is_stmt 0               @ c:/Keil_v5\ARM\PACK\Keil\STM32L5xx_DFP\1.3.0\Drivers\STM32L5xx_HAL_Driver\Src\stm32l5xx_hal_dma_ex.c:476:6
	cbz	r0, .LBB7_6
.Ltmp117:
@ %bb.3:
	@DEBUG_VALUE: HAL_DMAEx_MUX_IRQHandler:hdma <- $r4
	.loc	6 479 15 is_stmt 1              @ c:/Keil_v5\ARM\PACK\Keil\STM32L5xx_DFP\1.3.0\Drivers\STM32L5xx_HAL_Driver\Src\stm32l5xx_hal_dma_ex.c:479:15
	ldrd	r1, r2, [r4, #96]
	.loc	6 479 39 is_stmt 0              @ c:/Keil_v5\ARM\PACK\Keil\STM32L5xx_DFP\1.3.0\Drivers\STM32L5xx_HAL_Driver\Src\stm32l5xx_hal_dma_ex.c:479:39
	ldr	r3, [r1]
.Ltmp118:
	.loc	6 479 8                         @ c:/Keil_v5\ARM\PACK\Keil\STM32L5xx_DFP\1.3.0\Drivers\STM32L5xx_HAL_Driver\Src\stm32l5xx_hal_dma_ex.c:479:8
	tst	r2, r3
.Ltmp119:
	.loc	6 497 1 is_stmt 1               @ c:/Keil_v5\ARM\PACK\Keil\STM32L5xx_DFP\1.3.0\Drivers\STM32L5xx_HAL_Driver\Src\stm32l5xx_hal_dma_ex.c:497:1
	it	eq
	popeq	{r4, pc}
.Ltmp120:
.LBB7_4:
	.loc	6 482 36                        @ c:/Keil_v5\ARM\PACK\Keil\STM32L5xx_DFP\1.3.0\Drivers\STM32L5xx_HAL_Driver\Src\stm32l5xx_hal_dma_ex.c:482:36
	ldr	r3, [r0]
	bic	r3, r3, #256
	str	r3, [r0]
	.loc	6 485 43                        @ c:/Keil_v5\ARM\PACK\Keil\STM32L5xx_DFP\1.3.0\Drivers\STM32L5xx_HAL_Driver\Src\stm32l5xx_hal_dma_ex.c:485:43
	str	r2, [r1, #4]
	.loc	6 488 23                        @ c:/Keil_v5\ARM\PACK\Keil\STM32L5xx_DFP\1.3.0\Drivers\STM32L5xx_HAL_Driver\Src\stm32l5xx_hal_dma_ex.c:488:23
	ldr	r0, [r4, #68]
	orr	r0, r0, #1024
	str	r0, [r4, #68]
.Ltmp121:
	.loc	6 490 16                        @ c:/Keil_v5\ARM\PACK\Keil\STM32L5xx_DFP\1.3.0\Drivers\STM32L5xx_HAL_Driver\Src\stm32l5xx_hal_dma_ex.c:490:16
	ldr	r1, [r4, #60]
.Ltmp122:
	.loc	6 490 10 is_stmt 0              @ c:/Keil_v5\ARM\PACK\Keil\STM32L5xx_DFP\1.3.0\Drivers\STM32L5xx_HAL_Driver\Src\stm32l5xx_hal_dma_ex.c:490:10
	cbz	r1, .LBB7_6
@ %bb.5:
.Ltmp123:
	.loc	6 493 9 is_stmt 1               @ c:/Keil_v5\ARM\PACK\Keil\STM32L5xx_DFP\1.3.0\Drivers\STM32L5xx_HAL_Driver\Src\stm32l5xx_hal_dma_ex.c:493:9
	mov	r0, r4
	pop.w	{r4, lr}
	bx	r1
.Ltmp124:
	.p2align	2
.LBB7_6:
	.loc	6 497 1                         @ c:/Keil_v5\ARM\PACK\Keil\STM32L5xx_DFP\1.3.0\Drivers\STM32L5xx_HAL_Driver\Src\stm32l5xx_hal_dma_ex.c:497:1
	pop	{r4, pc}
.Ltmp125:
.Lfunc_end7:
	.size	HAL_DMAEx_MUX_IRQHandler, .Lfunc_end7-HAL_DMAEx_MUX_IRQHandler
	.cfi_endproc
	.cantunwind
	.fnend
                                        @ -- End function
	.section	".note.GNU-stack","",%progbits
	.eabi_attribute	30, 2	@ Tag_ABI_optimization_goals
	.ARM_attribute	16, 1	@ Tag_AV_eba