	.text
	.syntax unified
	.eabi_attribute	67, "2.09"	@ Tag_conformance
	.cpu	cortex-m33
	.eabi_attribute	6, 17	@ Tag_CPU_arch
	.eabi_attribute	7, 77	@ Tag_CPU_arch_profile
	.eabi_attribute	8, 0	@ Tag_ARM_ISA_use
	.eabi_attribute	9, 3	@ Tag_THUMB_ISA_use
	.fpu	fpv5-sp-d16
	.eabi_attribute	27, 1	@ Tag_ABI_HardFP_use
	.eabi_attribute	36, 1	@ Tag_FP_HP_extension
	.eabi_attribute	46, 1	@ Tag_DSP_extension
	.eabi_attribute	34, 1	@ Tag_CPU_unaligned_access
	.eabi_attribute	17, 1	@ Tag_ABI_PCS_GOT_use
	.eabi_attribute	20, 2	@ Tag_ABI_FP_denormal
	.eabi_attribute	21, 0	@ Tag_ABI_FP_exceptions
	.eabi_attribute	23, 1	@ Tag_ABI_FP_number_model
	.eabi_attribute	24, 1	@ Tag_ABI_align_needed
	.eabi_attribute	25, 1	@ Tag_ABI_align_preserved
	.eabi_attribute	28, 1	@ Tag_ABI_VFP_args
	.eabi_attribute	38, 1	@ Tag_ABI_FP_16bit_format
	.eabi_attribute	18, 2	@ Tag_ABI_PCS_wchar_t
	.eabi_attribute	26, 1	@ Tag_ABI_enum_size
	.eabi_attribute	14, 0	@ Tag_ABI_PCS_R9_use
	.file	"stm32l5xx_hal_flash_ex.c"
	.file	1 "c:/Keil_v5\\ARM\\PACK\\Keil\\STM32L5xx_DFP\\1.3.0\\Drivers\\STM32L5xx_HAL_Driver\\Inc" "stm32l5xx_hal_def.h"
	.file	2 "c:\\Keil_v5\\ARM\\ARMCLANG\\Bin\\..\\include" "stdint.h"
	.file	3 "c:/Keil_v5\\ARM\\PACK\\Keil\\STM32L5xx_DFP\\1.3.0\\Drivers\\CMSIS\\Device\\ST\\STM32L5xx\\Include" "stm32l552xx.h"
	.section	.text.HAL_FLASHEx_Erase,"ax",%progbits
	.hidden	HAL_FLASHEx_Erase               @ -- Begin function HAL_FLASHEx_Erase
	.globl	HAL_FLASHEx_Erase
	.p2align	2
	.type	HAL_FLASHEx_Erase,%function
	.code	16                              @ @HAL_FLASHEx_Erase
	.thumb_func
HAL_FLASHEx_Erase:
.Lfunc_begin0:
	.file	4 "c:/Keil_v5\\ARM\\PACK\\Keil\\STM32L5xx_DFP\\1.3.0\\Drivers\\STM32L5xx_HAL_Driver\\Src" "stm32l5xx_hal_flash_ex.c"
	.loc	4 170 0                         @ c:/Keil_v5\ARM\PACK\Keil\STM32L5xx_DFP\1.3.0\Drivers\STM32L5xx_HAL_Driver\Src\stm32l5xx_hal_flash_ex.c:170:0
	.fnstart
	.cfi_sections .debug_frame
	.cfi_startproc
@ %bb.0:
	@DEBUG_VALUE: HAL_FLASHEx_Erase:pEraseInit <- $r0
	@DEBUG_VALUE: HAL_FLASHEx_Erase:PageError <- $r1
	.save	{r4, r5, r6, r7, r8, r9, r10, r11, lr}
	push.w	{r4, r5, r6, r7, r8, r9, r10, r11, lr}
	.cfi_def_cfa_offset 36
	.cfi_offset lr, -4
	.cfi_offset r11, -8
	.cfi_offset r10, -12
	.cfi_offset r9, -16
	.cfi_offset r8, -20
	.cfi_offset r7, -24
	.cfi_offset r6, -28
	.cfi_offset r5, -32
	.cfi_offset r4, -36
	.pad	#4
	sub	sp, #4
	.cfi_def_cfa_offset 40
.Ltmp0:
	.loc	4 179 3 prologue_end            @ c:/Keil_v5\ARM\PACK\Keil\STM32L5xx_DFP\1.3.0\Drivers\STM32L5xx_HAL_Driver\Src\stm32l5xx_hal_flash_ex.c:179:3
	movw	r10, :lower16:pFlash
	movt	r10, :upper16:pFlash
	ldrb.w	r2, [r10]
.Ltmp1:
	@DEBUG_VALUE: HAL_FLASHEx_Erase:PageError <- $r1
	.loc	4 179 3 is_stmt 0               @ c:/Keil_v5\ARM\PACK\Keil\STM32L5xx_DFP\1.3.0\Drivers\STM32L5xx_HAL_Driver\Src\stm32l5xx_hal_flash_ex.c:179:3
	cmp	r2, #1
	@DEBUG_VALUE: HAL_FLASHEx_Erase:pEraseInit <- $r0
	ittt	eq
	moveq	r0, #2
.Ltmp2:
	@DEBUG_VALUE: HAL_FLASHEx_Erase:pEraseInit <- [DW_OP_LLVM_entry_value 1] $r0
	.loc	4 230 1 is_stmt 1               @ c:/Keil_v5\ARM\PACK\Keil\STM32L5xx_DFP\1.3.0\Drivers\STM32L5xx_HAL_Driver\Src\stm32l5xx_hal_flash_ex.c:230:1
	addeq	sp, #4
	popeq.w	{r4, r5, r6, r7, r8, r9, r10, r11, pc}
.Ltmp3:
.LBB0_1:
	@DEBUG_VALUE: HAL_FLASHEx_Erase:PageError <- $r1
	@DEBUG_VALUE: HAL_FLASHEx_Erase:pEraseInit <- [DW_OP_LLVM_entry_value 1] $r0
	.loc	4 0 1 is_stmt 0                 @ c:/Keil_v5\ARM\PACK\Keil\STM32L5xx_DFP\1.3.0\Drivers\STM32L5xx_HAL_Driver\Src\stm32l5xx_hal_flash_ex.c:0:1
	mov	r5, r0
.Ltmp4:
	@DEBUG_VALUE: HAL_FLASHEx_Erase:pEraseInit <- $r5
	movs	r0, #1
.Ltmp5:
	.loc	4 179 3 is_stmt 1               @ c:/Keil_v5\ARM\PACK\Keil\STM32L5xx_DFP\1.3.0\Drivers\STM32L5xx_HAL_Driver\Src\stm32l5xx_hal_flash_ex.c:179:3
	strb.w	r0, [r10]
	mov.w	r8, #0
.Ltmp6:
	.loc	4 185 12                        @ c:/Keil_v5\ARM\PACK\Keil\STM32L5xx_DFP\1.3.0\Drivers\STM32L5xx_HAL_Driver\Src\stm32l5xx_hal_flash_ex.c:185:12
	mov.w	r0, #1000
	mov	r9, r1
.Ltmp7:
	@DEBUG_VALUE: HAL_FLASHEx_Erase:PageError <- $r9
	@DEBUG_VALUE: HAL_FLASHEx_Erase:PageError <- $r9
	.loc	4 182 20                        @ c:/Keil_v5\ARM\PACK\Keil\STM32L5xx_DFP\1.3.0\Drivers\STM32L5xx_HAL_Driver\Src\stm32l5xx_hal_flash_ex.c:182:20
	str.w	r8, [r10, #4]
	.loc	4 185 12                        @ c:/Keil_v5\ARM\PACK\Keil\STM32L5xx_DFP\1.3.0\Drivers\STM32L5xx_HAL_Driver\Src\stm32l5xx_hal_flash_ex.c:185:12
	bl	FLASH_WaitForLastOperation
.Ltmp8:
	@DEBUG_VALUE: HAL_FLASHEx_Erase:status <- $r0
	.loc	4 187 7                         @ c:/Keil_v5\ARM\PACK\Keil\STM32L5xx_DFP\1.3.0\Drivers\STM32L5xx_HAL_Driver\Src\stm32l5xx_hal_flash_ex.c:187:7
	cbz	r0, .LBB0_3
.Ltmp9:
@ %bb.2:
	@DEBUG_VALUE: HAL_FLASHEx_Erase:PageError <- $r9
	@DEBUG_VALUE: HAL_FLASHEx_Erase:pEraseInit <- $r5
	@DEBUG_VALUE: HAL_FLASHEx_Erase:status <- $r0
	@DEBUG_VALUE: HAL_FLASHEx_Erase:status <- $r0
	.loc	4 227 3                         @ c:/Keil_v5\ARM\PACK\Keil\STM32L5xx_DFP\1.3.0\Drivers\STM32L5xx_HAL_Driver\Src\stm32l5xx_hal_flash_ex.c:227:3
	strb.w	r8, [r10]
.Ltmp10:
	.loc	4 230 1                         @ c:/Keil_v5\ARM\PACK\Keil\STM32L5xx_DFP\1.3.0\Drivers\STM32L5xx_HAL_Driver\Src\stm32l5xx_hal_flash_ex.c:230:1
	add	sp, #4
	pop.w	{r4, r5, r6, r7, r8, r9, r10, r11, pc}
.Ltmp11:
	.p2align	2
.LBB0_3:
	@DEBUG_VALUE: HAL_FLASHEx_Erase:PageError <- $r9
	@DEBUG_VALUE: HAL_FLASHEx_Erase:pEraseInit <- $r5
	@DEBUG_VALUE: HAL_FLASHEx_Erase:status <- $r0
	.loc	4 189 43                        @ c:/Keil_v5\ARM\PACK\Keil\STM32L5xx_DFP\1.3.0\Drivers\STM32L5xx_HAL_Driver\Src\stm32l5xx_hal_flash_ex.c:189:43
	ldr	r0, [r5]
.Ltmp12:
	.loc	4 0 43 is_stmt 0                @ c:/Keil_v5\ARM\PACK\Keil\STM32L5xx_DFP\1.3.0\Drivers\STM32L5xx_HAL_Driver\Src\stm32l5xx_hal_flash_ex.c:0:43
	movw	r2, #32772
.Ltmp13:
	.loc	4 193 34 is_stmt 1              @ c:/Keil_v5\ARM\PACK\Keil\STM32L5xx_DFP\1.3.0\Drivers\STM32L5xx_HAL_Driver\Src\stm32l5xx_hal_flash_ex.c:193:34
	bic	r1, r0, #-2147483648
	movw	r7, #8232
.Ltmp14:
	.loc	4 193 9 is_stmt 0               @ c:/Keil_v5\ARM\PACK\Keil\STM32L5xx_DFP\1.3.0\Drivers\STM32L5xx_HAL_Driver\Src\stm32l5xx_hal_flash_ex.c:193:9
	cmp	r1, r2
.Ltmp15:
	@DEBUG_VALUE: HAL_FLASHEx_Erase:reg <- undef
	.loc	4 0 9                           @ c:/Keil_v5\ARM\PACK\Keil\STM32L5xx_DFP\1.3.0\Drivers\STM32L5xx_HAL_Driver\Src\stm32l5xx_hal_flash_ex.c:0:9
	movt	r7, #16386
	.loc	4 189 29 is_stmt 1              @ c:/Keil_v5\ARM\PACK\Keil\STM32L5xx_DFP\1.3.0\Drivers\STM32L5xx_HAL_Driver\Src\stm32l5xx_hal_flash_ex.c:189:29
	str.w	r0, [r10, #8]
	.loc	4 193 9                         @ c:/Keil_v5\ARM\PACK\Keil\STM32L5xx_DFP\1.3.0\Drivers\STM32L5xx_HAL_Driver\Src\stm32l5xx_hal_flash_ex.c:193:9
	bne	.LBB0_6
.Ltmp16:
@ %bb.4:
	@DEBUG_VALUE: HAL_FLASHEx_Erase:PageError <- $r9
	@DEBUG_VALUE: HAL_FLASHEx_Erase:pEraseInit <- $r5
	.loc	4 196 35                        @ c:/Keil_v5\ARM\PACK\Keil\STM32L5xx_DFP\1.3.0\Drivers\STM32L5xx_HAL_Driver\Src\stm32l5xx_hal_flash_ex.c:196:35
	ldr	r0, [r5, #4]
.Ltmp17:
	@DEBUG_VALUE: FLASH_MassErase:Banks <- $r0
	.loc	4 758 7                         @ c:/Keil_v5\ARM\PACK\Keil\STM32L5xx_DFP\1.3.0\Drivers\STM32L5xx_HAL_Driver\Src\stm32l5xx_hal_flash_ex.c:758:7
	ldr	r1, [r7, #24]
.Ltmp18:
	.loc	4 758 7 is_stmt 0               @ c:/Keil_v5\ARM\PACK\Keil\STM32L5xx_DFP\1.3.0\Drivers\STM32L5xx_HAL_Driver\Src\stm32l5xx_hal_flash_ex.c:758:7
	lsls	r1, r1, #9
.Ltmp19:
	@DEBUG_VALUE: FLASH_MassErase:reg <- undef
	bmi	.LBB0_14
.Ltmp20:
@ %bb.5:
	@DEBUG_VALUE: HAL_FLASHEx_Erase:PageError <- $r9
	@DEBUG_VALUE: HAL_FLASHEx_Erase:pEraseInit <- $r5
	@DEBUG_VALUE: FLASH_MassErase:Banks <- $r0
	.loc	4 0 7                           @ c:/Keil_v5\ARM\PACK\Keil\STM32L5xx_DFP\1.3.0\Drivers\STM32L5xx_HAL_Driver\Src\stm32l5xx_hal_flash_ex.c:0:7
	movw	r0, #32772
	b	.LBB0_18
.Ltmp21:
	.p2align	2
.LBB0_6:
	@DEBUG_VALUE: HAL_FLASHEx_Erase:PageError <- $r9
	@DEBUG_VALUE: HAL_FLASHEx_Erase:pEraseInit <- $r5
	mov.w	r0, #-1
.Ltmp22:
	.loc	4 204 18 is_stmt 1              @ c:/Keil_v5\ARM\PACK\Keil\STM32L5xx_DFP\1.3.0\Drivers\STM32L5xx_HAL_Driver\Src\stm32l5xx_hal_flash_ex.c:204:18
	str.w	r0, [r9]
.Ltmp23:
	@DEBUG_VALUE: HAL_FLASHEx_Erase:page_index <- undef
	@DEBUG_VALUE: HAL_FLASHEx_Erase:status <- 0
	.loc	4 206 36                        @ c:/Keil_v5\ARM\PACK\Keil\STM32L5xx_DFP\1.3.0\Drivers\STM32L5xx_HAL_Driver\Src\stm32l5xx_hal_flash_ex.c:206:36
	ldrd	r4, r0, [r5, #8]
.Ltmp24:
	.loc	4 206 73 is_stmt 0              @ c:/Keil_v5\ARM\PACK\Keil\STM32L5xx_DFP\1.3.0\Drivers\STM32L5xx_HAL_Driver\Src\stm32l5xx_hal_flash_ex.c:206:73
	add	r0, r4
.Ltmp25:
	.loc	4 206 7                         @ c:/Keil_v5\ARM\PACK\Keil\STM32L5xx_DFP\1.3.0\Drivers\STM32L5xx_HAL_Driver\Src\stm32l5xx_hal_flash_ex.c:206:7
	cmp	r4, r0
	bhs	.LBB0_13
.Ltmp26:
@ %bb.7:
	@DEBUG_VALUE: HAL_FLASHEx_Erase:PageError <- $r9
	@DEBUG_VALUE: HAL_FLASHEx_Erase:pEraseInit <- $r5
	@DEBUG_VALUE: HAL_FLASHEx_Erase:status <- 0
	lsls	r6, r4, #3
	movw	r11, #1018
.Ltmp27:
	.p2align	2
.LBB0_8:                                @ =>This Inner Loop Header: Depth=1
	@DEBUG_VALUE: HAL_FLASHEx_Erase:PageError <- $r9
	@DEBUG_VALUE: HAL_FLASHEx_Erase:pEraseInit <- $r5
	@DEBUG_VALUE: HAL_FLASHEx_Erase:status <- 0
	@DEBUG_VALUE: HAL_FLASHEx_Erase:page_index <- $r4
	.loc	4 208 49 is_stmt 1              @ c:/Keil_v5\ARM\PACK\Keil\STM32L5xx_DFP\1.3.0\Drivers\STM32L5xx_HAL_Driver\Src\stm32l5xx_hal_flash_ex.c:208:49
	ldr	r0, [r5, #4]
.Ltmp28:
	@DEBUG_VALUE: FLASH_PageErase:Page <- $r4
	@DEBUG_VALUE: FLASH_PageErase:Banks <- $r0
	.loc	4 817 6                         @ c:/Keil_v5\ARM\PACK\Keil\STM32L5xx_DFP\1.3.0\Drivers\STM32L5xx_HAL_Driver\Src\stm32l5xx_hal_flash_ex.c:817:6
	ldr	r1, [r7, #24]
.Ltmp29:
	.loc	4 817 6 is_stmt 0               @ c:/Keil_v5\ARM\PACK\Keil\STM32L5xx_DFP\1.3.0\Drivers\STM32L5xx_HAL_Driver\Src\stm32l5xx_hal_flash_ex.c:817:6
	lsls	r1, r1, #9
.Ltmp30:
	@DEBUG_VALUE: FLASH_PageErase:reg <- undef
	bmi	.LBB0_10
.Ltmp31:
@ %bb.9:                                @   in Loop: Header=BB0_8 Depth=1
	@DEBUG_VALUE: HAL_FLASHEx_Erase:PageError <- $r9
	@DEBUG_VALUE: HAL_FLASHEx_Erase:pEraseInit <- $r5
	@DEBUG_VALUE: FLASH_PageErase:Page <- $r4
	@DEBUG_VALUE: HAL_FLASHEx_Erase:page_index <- $r4
	@DEBUG_VALUE: FLASH_PageErase:Banks <- $r0
	@DEBUG_VALUE: HAL_FLASHEx_Erase:status <- 0
	.loc	4 819 5 is_stmt 1               @ c:/Keil_v5\ARM\PACK\Keil\STM32L5xx_DFP\1.3.0\Drivers\STM32L5xx_HAL_Driver\Src\stm32l5xx_hal_flash_ex.c:819:5
	ldr	r0, [r7]
.Ltmp32:
	bic	r0, r0, #2048
	b	.LBB0_11
.Ltmp33:
	.p2align	2
.LBB0_10:                               @   in Loop: Header=BB0_8 Depth=1
	@DEBUG_VALUE: HAL_FLASHEx_Erase:PageError <- $r9
	@DEBUG_VALUE: HAL_FLASHEx_Erase:pEraseInit <- $r5
	@DEBUG_VALUE: FLASH_PageErase:Page <- $r4
	@DEBUG_VALUE: HAL_FLASHEx_Erase:page_index <- $r4
	@DEBUG_VALUE: FLASH_PageErase:Banks <- $r0
	@DEBUG_VALUE: HAL_FLASHEx_Erase:status <- 0
	.loc	4 825 8                         @ c:/Keil_v5\ARM\PACK\Keil\STM32L5xx_DFP\1.3.0\Drivers\STM32L5xx_HAL_Driver\Src\stm32l5xx_hal_flash_ex.c:825:8
	lsls	r0, r0, #31
.Ltmp34:
	.loc	4 0 0 is_stmt 0                 @ c:/Keil_v5\ARM\PACK\Keil\STM32L5xx_DFP\1.3.0\Drivers\STM32L5xx_HAL_Driver\Src\stm32l5xx_hal_flash_ex.c:0:0
	ldr	r1, [r7]
.Ltmp35:
	.loc	4 831 7 is_stmt 1               @ c:/Keil_v5\ARM\PACK\Keil\STM32L5xx_DFP\1.3.0\Drivers\STM32L5xx_HAL_Driver\Src\stm32l5xx_hal_flash_ex.c:831:7
	ite	eq
	orreq	r0, r1, #2048
.Ltmp36:
	.loc	4 827 7                         @ c:/Keil_v5\ARM\PACK\Keil\STM32L5xx_DFP\1.3.0\Drivers\STM32L5xx_HAL_Driver\Src\stm32l5xx_hal_flash_ex.c:827:7
	bicne	r0, r1, #2048
.Ltmp37:
.LBB0_11:                               @   in Loop: Header=BB0_8 Depth=1
	@DEBUG_VALUE: HAL_FLASHEx_Erase:PageError <- $r9
	@DEBUG_VALUE: HAL_FLASHEx_Erase:pEraseInit <- $r5
	@DEBUG_VALUE: FLASH_PageErase:Page <- $r4
	@DEBUG_VALUE: HAL_FLASHEx_Erase:page_index <- $r4
	@DEBUG_VALUE: HAL_FLASHEx_Erase:status <- 0
	.loc	4 0 0 is_stmt 0                 @ c:/Keil_v5\ARM\PACK\Keil\STM32L5xx_DFP\1.3.0\Drivers\STM32L5xx_HAL_Driver\Src\stm32l5xx_hal_flash_ex.c:0:0
	str	r0, [r7]
.Ltmp38:
	.loc	4 836 3 is_stmt 1               @ c:/Keil_v5\ARM\PACK\Keil\STM32L5xx_DFP\1.3.0\Drivers\STM32L5xx_HAL_Driver\Src\stm32l5xx_hal_flash_ex.c:836:3
	ldr	r0, [r7]
	bic.w	r0, r0, r11
	orrs	r0, r6
	orr	r0, r0, #2
	str	r0, [r7]
	.loc	4 837 3                         @ c:/Keil_v5\ARM\PACK\Keil\STM32L5xx_DFP\1.3.0\Drivers\STM32L5xx_HAL_Driver\Src\stm32l5xx_hal_flash_ex.c:837:3
	ldr	r0, [r7]
	orr	r0, r0, #65536
	str	r0, [r7]
.Ltmp39:
	.loc	4 211 18                        @ c:/Keil_v5\ARM\PACK\Keil\STM32L5xx_DFP\1.3.0\Drivers\STM32L5xx_HAL_Driver\Src\stm32l5xx_hal_flash_ex.c:211:18
	mov.w	r0, #1000
	bl	FLASH_WaitForLastOperation
.Ltmp40:
	@DEBUG_VALUE: HAL_FLASHEx_Erase:status <- $r0
	.loc	4 213 13                        @ c:/Keil_v5\ARM\PACK\Keil\STM32L5xx_DFP\1.3.0\Drivers\STM32L5xx_HAL_Driver\Src\stm32l5xx_hal_flash_ex.c:213:13
	cbnz	r0, .LBB0_20
.Ltmp41:
@ %bb.12:                               @   in Loop: Header=BB0_8 Depth=1
	@DEBUG_VALUE: HAL_FLASHEx_Erase:PageError <- $r9
	@DEBUG_VALUE: HAL_FLASHEx_Erase:pEraseInit <- $r5
	@DEBUG_VALUE: HAL_FLASHEx_Erase:page_index <- $r4
	@DEBUG_VALUE: HAL_FLASHEx_Erase:status <- $r0
	.loc	4 206 68                        @ c:/Keil_v5\ARM\PACK\Keil\STM32L5xx_DFP\1.3.0\Drivers\STM32L5xx_HAL_Driver\Src\stm32l5xx_hal_flash_ex.c:206:68
	ldrd	r0, r1, [r5, #8]
.Ltmp42:
	.loc	4 206 107 is_stmt 0             @ c:/Keil_v5\ARM\PACK\Keil\STM32L5xx_DFP\1.3.0\Drivers\STM32L5xx_HAL_Driver\Src\stm32l5xx_hal_flash_ex.c:206:107
	adds	r4, #1
.Ltmp43:
	@DEBUG_VALUE: HAL_FLASHEx_Erase:page_index <- $r4
	@DEBUG_VALUE: HAL_FLASHEx_Erase:status <- 0
	.loc	4 206 53                        @ c:/Keil_v5\ARM\PACK\Keil\STM32L5xx_DFP\1.3.0\Drivers\STM32L5xx_HAL_Driver\Src\stm32l5xx_hal_flash_ex.c:206:53
	adds	r6, #8
	.loc	4 206 73                        @ c:/Keil_v5\ARM\PACK\Keil\STM32L5xx_DFP\1.3.0\Drivers\STM32L5xx_HAL_Driver\Src\stm32l5xx_hal_flash_ex.c:206:73
	add	r0, r1
.Ltmp44:
	.loc	4 206 7                         @ c:/Keil_v5\ARM\PACK\Keil\STM32L5xx_DFP\1.3.0\Drivers\STM32L5xx_HAL_Driver\Src\stm32l5xx_hal_flash_ex.c:206:7
	cmp	r4, r0
	blo	.LBB0_8
.Ltmp45:
.LBB0_13:
	@DEBUG_VALUE: HAL_FLASHEx_Erase:PageError <- $r9
	@DEBUG_VALUE: HAL_FLASHEx_Erase:pEraseInit <- $r5
	@DEBUG_VALUE: HAL_FLASHEx_Erase:status <- 0
	.loc	4 0 7                           @ c:/Keil_v5\ARM\PACK\Keil\STM32L5xx_DFP\1.3.0\Drivers\STM32L5xx_HAL_Driver\Src\stm32l5xx_hal_flash_ex.c:0:7
	movs	r0, #0
	b	.LBB0_21
.Ltmp46:
	.p2align	2
.LBB0_14:
	@DEBUG_VALUE: HAL_FLASHEx_Erase:PageError <- $r9
	@DEBUG_VALUE: HAL_FLASHEx_Erase:pEraseInit <- $r5
	@DEBUG_VALUE: FLASH_MassErase:Banks <- $r0
	.loc	4 764 8 is_stmt 1               @ c:/Keil_v5\ARM\PACK\Keil\STM32L5xx_DFP\1.3.0\Drivers\STM32L5xx_HAL_Driver\Src\stm32l5xx_hal_flash_ex.c:764:8
	lsls	r1, r0, #31
	beq	.LBB0_16
.Ltmp47:
@ %bb.15:
	@DEBUG_VALUE: HAL_FLASHEx_Erase:PageError <- $r9
	@DEBUG_VALUE: HAL_FLASHEx_Erase:pEraseInit <- $r5
	@DEBUG_VALUE: FLASH_MassErase:Banks <- $r0
	.loc	4 766 7                         @ c:/Keil_v5\ARM\PACK\Keil\STM32L5xx_DFP\1.3.0\Drivers\STM32L5xx_HAL_Driver\Src\stm32l5xx_hal_flash_ex.c:766:7
	ldr	r1, [r7]
	orr	r1, r1, #4
	str	r1, [r7]
.Ltmp48:
.LBB0_16:
	@DEBUG_VALUE: HAL_FLASHEx_Erase:PageError <- $r9
	@DEBUG_VALUE: HAL_FLASHEx_Erase:pEraseInit <- $r5
	@DEBUG_VALUE: FLASH_MassErase:Banks <- $r0
	.loc	4 770 8                         @ c:/Keil_v5\ARM\PACK\Keil\STM32L5xx_DFP\1.3.0\Drivers\STM32L5xx_HAL_Driver\Src\stm32l5xx_hal_flash_ex.c:770:8
	lsls	r0, r0, #30
.Ltmp49:
	bpl	.LBB0_19
.Ltmp50:
@ %bb.17:
	@DEBUG_VALUE: HAL_FLASHEx_Erase:PageError <- $r9
	@DEBUG_VALUE: HAL_FLASHEx_Erase:pEraseInit <- $r5
	.loc	4 0 8 is_stmt 0                 @ c:/Keil_v5\ARM\PACK\Keil\STM32L5xx_DFP\1.3.0\Drivers\STM32L5xx_HAL_Driver\Src\stm32l5xx_hal_flash_ex.c:0:8
	mov.w	r0, #32768
.Ltmp51:
.LBB0_18:
	@DEBUG_VALUE: HAL_FLASHEx_Erase:PageError <- $r9
	@DEBUG_VALUE: HAL_FLASHEx_Erase:pEraseInit <- $r5
	ldr	r1, [r7]
	orrs	r0, r1
	str	r0, [r7]
.Ltmp52:
.LBB0_19:
	@DEBUG_VALUE: HAL_FLASHEx_Erase:PageError <- $r9
	@DEBUG_VALUE: HAL_FLASHEx_Erase:pEraseInit <- $r5
	.loc	4 781 3 is_stmt 1               @ c:/Keil_v5\ARM\PACK\Keil\STM32L5xx_DFP\1.3.0\Drivers\STM32L5xx_HAL_Driver\Src\stm32l5xx_hal_flash_ex.c:781:3
	ldr	r0, [r7]
	orr	r0, r0, #65536
	str	r0, [r7]
.Ltmp53:
	.loc	4 199 16                        @ c:/Keil_v5\ARM\PACK\Keil\STM32L5xx_DFP\1.3.0\Drivers\STM32L5xx_HAL_Driver\Src\stm32l5xx_hal_flash_ex.c:199:16
	mov.w	r0, #1000
	bl	FLASH_WaitForLastOperation
.Ltmp54:
	@DEBUG_VALUE: HAL_FLASHEx_Erase:status <- undef
	.loc	4 0 16 is_stmt 0                @ c:/Keil_v5\ARM\PACK\Keil\STM32L5xx_DFP\1.3.0\Drivers\STM32L5xx_HAL_Driver\Src\stm32l5xx_hal_flash_ex.c:0:16
	b	.LBB0_21
.Ltmp55:
	.p2align	2
.LBB0_20:
	@DEBUG_VALUE: HAL_FLASHEx_Erase:PageError <- $r9
	@DEBUG_VALUE: HAL_FLASHEx_Erase:pEraseInit <- $r5
	@DEBUG_VALUE: HAL_FLASHEx_Erase:page_index <- $r4
	@DEBUG_VALUE: HAL_FLASHEx_Erase:status <- $r0
	.loc	4 216 22 is_stmt 1              @ c:/Keil_v5\ARM\PACK\Keil\STM32L5xx_DFP\1.3.0\Drivers\STM32L5xx_HAL_Driver\Src\stm32l5xx_hal_flash_ex.c:216:22
	str.w	r4, [r9]
.Ltmp56:
.LBB0_21:
	@DEBUG_VALUE: HAL_FLASHEx_Erase:PageError <- $r9
	@DEBUG_VALUE: HAL_FLASHEx_Erase:pEraseInit <- $r5
	@DEBUG_VALUE: HAL_FLASHEx_Erase:status <- $r0
	.loc	4 223 5                         @ c:/Keil_v5\ARM\PACK\Keil\STM32L5xx_DFP\1.3.0\Drivers\STM32L5xx_HAL_Driver\Src\stm32l5xx_hal_flash_ex.c:223:5
	ldr.w	r1, [r10, #8]
	mov.w	r2, #-2147483648
	ldr	r3, [r7]
	orn	r1, r2, r1
	ands	r1, r3
	str	r1, [r7]
.Ltmp57:
	@DEBUG_VALUE: HAL_FLASHEx_Erase:status <- $r0
	.loc	4 227 3                         @ c:/Keil_v5\ARM\PACK\Keil\STM32L5xx_DFP\1.3.0\Drivers\STM32L5xx_HAL_Driver\Src\stm32l5xx_hal_flash_ex.c:227:3
	strb.w	r8, [r10]
.Ltmp58:
	.loc	4 230 1                         @ c:/Keil_v5\ARM\PACK\Keil\STM32L5xx_DFP\1.3.0\Drivers\STM32L5xx_HAL_Driver\Src\stm32l5xx_hal_flash_ex.c:230:1
	add	sp, #4
	pop.w	{r4, r5, r6, r7, r8, r9, r10, r11, pc}
.Ltmp59:
.Lfunc_end0:
	.size	HAL_FLASHEx_Erase, .Lfunc_end0-HAL_FLASHEx_Erase
	.cfi_endproc
	.cantunwind
	.fnend
                                        @ -- End function
	.section	.text.FLASH_PageErase,"ax",%progbits
	.hidden	FLASH_PageErase                 @ -- Begin function FLASH_PageErase
	.globl	FLASH_PageErase
	.p2align	2
	.type	FLASH_PageErase,%function
	.code	16                              @ @FLASH_PageErase
	.thumb_func
FLASH_PageErase:
.Lfunc_begin1:
	.loc	4 800 0                         @ c:/Keil_v5\ARM\PACK\Keil\STM32L5xx_DFP\1.3.0\Drivers\STM32L5xx_HAL_Driver\Src\stm32l5xx_hal_flash_ex.c:800:0
	.fnstart
	.cfi_startproc
@ %bb.0:
	@DEBUG_VALUE: FLASH_PageErase:Page <- $r0
	@DEBUG_VALUE: FLASH_PageErase:Banks <- $r1
	movw	r2, #8232
	movt	r2, #16386
.Ltmp60:
	.loc	4 817 6 prologue_end            @ c:/Keil_v5\ARM\PACK\Keil\STM32L5xx_DFP\1.3.0\Drivers\STM32L5xx_HAL_Driver\Src\stm32l5xx_hal_flash_ex.c:817:6
	ldr	r3, [r2, #24]
.Ltmp61:
	@DEBUG_VALUE: FLASH_PageErase:Banks <- $r1
	.loc	4 817 6 is_stmt 0               @ c:/Keil_v5\ARM\PACK\Keil\STM32L5xx_DFP\1.3.0\Drivers\STM32L5xx_HAL_Driver\Src\stm32l5xx_hal_flash_ex.c:817:6
	lsls	r3, r3, #9
.Ltmp62:
	@DEBUG_VALUE: FLASH_PageErase:reg <- undef
	@DEBUG_VALUE: FLASH_PageErase:Page <- $r0
	bmi	.LBB1_2
.Ltmp63:
@ %bb.1:
	@DEBUG_VALUE: FLASH_PageErase:Banks <- $r1
	@DEBUG_VALUE: FLASH_PageErase:Page <- $r0
	.loc	4 819 5 is_stmt 1               @ c:/Keil_v5\ARM\PACK\Keil\STM32L5xx_DFP\1.3.0\Drivers\STM32L5xx_HAL_Driver\Src\stm32l5xx_hal_flash_ex.c:819:5
	ldr	r1, [r2]
.Ltmp64:
	@DEBUG_VALUE: FLASH_PageErase:Banks <- [DW_OP_LLVM_entry_value 1] $r1
	bic	r1, r1, #2048
	.loc	4 820 3                         @ c:/Keil_v5\ARM\PACK\Keil\STM32L5xx_DFP\1.3.0\Drivers\STM32L5xx_HAL_Driver\Src\stm32l5xx_hal_flash_ex.c:820:3
	b	.LBB1_3
.Ltmp65:
	.p2align	2
.LBB1_2:
	@DEBUG_VALUE: FLASH_PageErase:Banks <- $r1
	@DEBUG_VALUE: FLASH_PageErase:Page <- $r0
	.loc	4 825 8                         @ c:/Keil_v5\ARM\PACK\Keil\STM32L5xx_DFP\1.3.0\Drivers\STM32L5xx_HAL_Driver\Src\stm32l5xx_hal_flash_ex.c:825:8
	lsls	r1, r1, #31
.Ltmp66:
	@DEBUG_VALUE: FLASH_PageErase:Banks <- [DW_OP_LLVM_entry_value 1] $r1
	.loc	4 0 0 is_stmt 0                 @ c:/Keil_v5\ARM\PACK\Keil\STM32L5xx_DFP\1.3.0\Drivers\STM32L5xx_HAL_Driver\Src\stm32l5xx_hal_flash_ex.c:0:0
	ldr	r3, [r2]
.Ltmp67:
	.loc	4 831 7 is_stmt 1               @ c:/Keil_v5\ARM\PACK\Keil\STM32L5xx_DFP\1.3.0\Drivers\STM32L5xx_HAL_Driver\Src\stm32l5xx_hal_flash_ex.c:831:7
	ite	eq
	orreq	r1, r3, #2048
.Ltmp68:
	.loc	4 827 7                         @ c:/Keil_v5\ARM\PACK\Keil\STM32L5xx_DFP\1.3.0\Drivers\STM32L5xx_HAL_Driver\Src\stm32l5xx_hal_flash_ex.c:827:7
	bicne	r1, r3, #2048
.Ltmp69:
.LBB1_3:
	@DEBUG_VALUE: FLASH_PageErase:Page <- $r0
	@DEBUG_VALUE: FLASH_PageErase:Banks <- [DW_OP_LLVM_entry_value 1] $r1
	.loc	4 0 0 is_stmt 0                 @ c:/Keil_v5\ARM\PACK\Keil\STM32L5xx_DFP\1.3.0\Drivers\STM32L5xx_HAL_Driver\Src\stm32l5xx_hal_flash_ex.c:0:0
	str	r1, [r2]
.Ltmp70:
	.loc	4 836 3 is_stmt 1               @ c:/Keil_v5\ARM\PACK\Keil\STM32L5xx_DFP\1.3.0\Drivers\STM32L5xx_HAL_Driver\Src\stm32l5xx_hal_flash_ex.c:836:3
	ldr	r1, [r2]
	movw	r3, #1018
	bics	r1, r3
	orr.w	r0, r1, r0, lsl #3
.Ltmp71:
	@DEBUG_VALUE: FLASH_PageErase:Page <- [DW_OP_LLVM_entry_value 1] $r0
	adds	r0, #2
	str	r0, [r2]
	.loc	4 837 3                         @ c:/Keil_v5\ARM\PACK\Keil\STM32L5xx_DFP\1.3.0\Drivers\STM32L5xx_HAL_Driver\Src\stm32l5xx_hal_flash_ex.c:837:3
	ldr	r0, [r2]
	orr	r0, r0, #65536
	str	r0, [r2]
	.loc	4 843 1                         @ c:/Keil_v5\ARM\PACK\Keil\STM32L5xx_DFP\1.3.0\Drivers\STM32L5xx_HAL_Driver\Src\stm32l5xx_hal_flash_ex.c:843:1
	bx	lr
.Ltmp72:
.Lfunc_end1:
	.size	FLASH_PageErase, .Lfunc_end1-FLASH_PageErase
	.cfi_endproc
	.cantunwind
	.fnend
                                        @ -- End function
	.section	.text.HAL_FLASHEx_Erase_IT,"ax",%progbits
	.hidden	HAL_FLASHEx_Erase_IT            @ -- Begin function HAL_FLASHEx_Erase_IT
	.globl	HAL_FLASHEx_Erase_IT
	.p2align	2
	.type	HAL_FLASHEx_Erase_IT,%function
	.code	16                              @ @HAL_FLASHEx_Erase_IT
	.thumb_func
HAL_FLASHEx_Erase_IT:
.Lfunc_begin2:
	.loc	4 240 0                         @ c:/Keil_v5\ARM\PACK\Keil\STM32L5xx_DFP\1.3.0\Drivers\STM32L5xx_HAL_Driver\Src\stm32l5xx_hal_flash_ex.c:240:0
	.fnstart
	.cfi_startproc
@ %bb.0:
	@DEBUG_VALUE: HAL_FLASHEx_Erase_IT:pEraseInit <- $r0
	.save	{r4, r5, r6, lr}
	push	{r4, r5, r6, lr}
	.cfi_def_cfa_offset 16
	.cfi_offset lr, -4
	.cfi_offset r6, -8
	.cfi_offset r5, -12
	.cfi_offset r4, -16
.Ltmp73:
	.loc	4 248 3 prologue_end            @ c:/Keil_v5\ARM\PACK\Keil\STM32L5xx_DFP\1.3.0\Drivers\STM32L5xx_HAL_Driver\Src\stm32l5xx_hal_flash_ex.c:248:3
	movw	r5, :lower16:pFlash
	movt	r5, :upper16:pFlash
	ldrb	r1, [r5]
.Ltmp74:
	.loc	4 248 3 is_stmt 0               @ c:/Keil_v5\ARM\PACK\Keil\STM32L5xx_DFP\1.3.0\Drivers\STM32L5xx_HAL_Driver\Src\stm32l5xx_hal_flash_ex.c:248:3
	cmp	r1, #1
	@DEBUG_VALUE: HAL_FLASHEx_Erase_IT:pEraseInit <- $r0
	itt	eq
	moveq	r0, #2
.Ltmp75:
	@DEBUG_VALUE: HAL_FLASHEx_Erase_IT:pEraseInit <- [DW_OP_LLVM_entry_value 1] $r0
	.loc	4 290 1 is_stmt 1               @ c:/Keil_v5\ARM\PACK\Keil\STM32L5xx_DFP\1.3.0\Drivers\STM32L5xx_HAL_Driver\Src\stm32l5xx_hal_flash_ex.c:290:1
	popeq	{r4, r5, r6, pc}
.Ltmp76:
.LBB2_1:
	@DEBUG_VALUE: HAL_FLASHEx_Erase_IT:pEraseInit <- [DW_OP_LLVM_entry_value 1] $r0
	.loc	4 0 1 is_stmt 0                 @ c:/Keil_v5\ARM\PACK\Keil\STM32L5xx_DFP\1.3.0\Drivers\STM32L5xx_HAL_Driver\Src\stm32l5xx_hal_flash_ex.c:0:1
	mov	r4, r0
.Ltmp77:
	@DEBUG_VALUE: HAL_FLASHEx_Erase_IT:pEraseInit <- $r4
	movs	r0, #1
.Ltmp78:
	.loc	4 248 3 is_stmt 1               @ c:/Keil_v5\ARM\PACK\Keil\STM32L5xx_DFP\1.3.0\Drivers\STM32L5xx_HAL_Driver\Src\stm32l5xx_hal_flash_ex.c:248:3
	strb	r0, [r5]
	movs	r6, #0
.Ltmp79:
	.loc	4 254 12                        @ c:/Keil_v5\ARM\PACK\Keil\STM32L5xx_DFP\1.3.0\Drivers\STM32L5xx_HAL_Driver\Src\stm32l5xx_hal_flash_ex.c:254:12
	mov.w	r0, #1000
	.loc	4 251 20                        @ c:/Keil_v5\ARM\PACK\Keil\STM32L5xx_DFP\1.3.0\Drivers\STM32L5xx_HAL_Driver\Src\stm32l5xx_hal_flash_ex.c:251:20
	str	r6, [r5, #4]
	.loc	4 254 12                        @ c:/Keil_v5\ARM\PACK\Keil\STM32L5xx_DFP\1.3.0\Drivers\STM32L5xx_HAL_Driver\Src\stm32l5xx_hal_flash_ex.c:254:12
	bl	FLASH_WaitForLastOperation
.Ltmp80:
	@DEBUG_VALUE: HAL_FLASHEx_Erase_IT:status <- $r0
	.loc	4 256 7                         @ c:/Keil_v5\ARM\PACK\Keil\STM32L5xx_DFP\1.3.0\Drivers\STM32L5xx_HAL_Driver\Src\stm32l5xx_hal_flash_ex.c:256:7
	cmp	r0, #0
.Ltmp81:
	.loc	4 259 5                         @ c:/Keil_v5\ARM\PACK\Keil\STM32L5xx_DFP\1.3.0\Drivers\STM32L5xx_HAL_Driver\Src\stm32l5xx_hal_flash_ex.c:259:5
	itt	ne
	strbne	r6, [r5]
.Ltmp82:
	.loc	4 290 1                         @ c:/Keil_v5\ARM\PACK\Keil\STM32L5xx_DFP\1.3.0\Drivers\STM32L5xx_HAL_Driver\Src\stm32l5xx_hal_flash_ex.c:290:1
	popne	{r4, r5, r6, pc}
.Ltmp83:
.LBB2_2:
	@DEBUG_VALUE: HAL_FLASHEx_Erase_IT:status <- $r0
	.loc	4 264 43                        @ c:/Keil_v5\ARM\PACK\Keil\STM32L5xx_DFP\1.3.0\Drivers\STM32L5xx_HAL_Driver\Src\stm32l5xx_hal_flash_ex.c:264:43
	ldrd	r0, r1, [r4]
.Ltmp84:
	.loc	4 0 43 is_stmt 0                @ c:/Keil_v5\ARM\PACK\Keil\STM32L5xx_DFP\1.3.0\Drivers\STM32L5xx_HAL_Driver\Src\stm32l5xx_hal_flash_ex.c:0:43
	movw	r2, #32772
	.loc	4 264 29                        @ c:/Keil_v5\ARM\PACK\Keil\STM32L5xx_DFP\1.3.0\Drivers\STM32L5xx_HAL_Driver\Src\stm32l5xx_hal_flash_ex.c:264:29
	str	r0, [r5, #8]
	movw	r0, #8232
	movt	r0, #16386
	.loc	4 265 17 is_stmt 1              @ c:/Keil_v5\ARM\PACK\Keil\STM32L5xx_DFP\1.3.0\Drivers\STM32L5xx_HAL_Driver\Src\stm32l5xx_hal_flash_ex.c:265:17
	str	r1, [r5, #16]
	.loc	4 271 15                        @ c:/Keil_v5\ARM\PACK\Keil\STM32L5xx_DFP\1.3.0\Drivers\STM32L5xx_HAL_Driver\Src\stm32l5xx_hal_flash_ex.c:271:15
	ldr	r1, [r0]
	orr	r1, r1, #50331648
	str	r1, [r0]
.Ltmp85:
	.loc	4 273 17                        @ c:/Keil_v5\ARM\PACK\Keil\STM32L5xx_DFP\1.3.0\Drivers\STM32L5xx_HAL_Driver\Src\stm32l5xx_hal_flash_ex.c:273:17
	ldr	r1, [r5, #8]
	.loc	4 273 34 is_stmt 0              @ c:/Keil_v5\ARM\PACK\Keil\STM32L5xx_DFP\1.3.0\Drivers\STM32L5xx_HAL_Driver\Src\stm32l5xx_hal_flash_ex.c:273:34
	bic	r1, r1, #-2147483648
.Ltmp86:
	.loc	4 273 9                         @ c:/Keil_v5\ARM\PACK\Keil\STM32L5xx_DFP\1.3.0\Drivers\STM32L5xx_HAL_Driver\Src\stm32l5xx_hal_flash_ex.c:273:9
	cmp	r1, r2
.Ltmp87:
	@DEBUG_VALUE: HAL_FLASHEx_Erase_IT:reg_cr <- undef
	bne	.LBB2_5
.Ltmp88:
@ %bb.3:
	.loc	4 276 35 is_stmt 1              @ c:/Keil_v5\ARM\PACK\Keil\STM32L5xx_DFP\1.3.0\Drivers\STM32L5xx_HAL_Driver\Src\stm32l5xx_hal_flash_ex.c:276:35
	ldr	r1, [r4, #4]
.Ltmp89:
	@DEBUG_VALUE: FLASH_MassErase:Banks <- $r1
	.loc	4 758 7                         @ c:/Keil_v5\ARM\PACK\Keil\STM32L5xx_DFP\1.3.0\Drivers\STM32L5xx_HAL_Driver\Src\stm32l5xx_hal_flash_ex.c:758:7
	ldr	r2, [r0, #24]
.Ltmp90:
	.loc	4 758 7 is_stmt 0               @ c:/Keil_v5\ARM\PACK\Keil\STM32L5xx_DFP\1.3.0\Drivers\STM32L5xx_HAL_Driver\Src\stm32l5xx_hal_flash_ex.c:758:7
	lsls	r2, r2, #9
.Ltmp91:
	@DEBUG_VALUE: FLASH_MassErase:reg <- undef
	bmi	.LBB2_7
.Ltmp92:
@ %bb.4:
	@DEBUG_VALUE: FLASH_MassErase:Banks <- $r1
	.loc	4 0 7                           @ c:/Keil_v5\ARM\PACK\Keil\STM32L5xx_DFP\1.3.0\Drivers\STM32L5xx_HAL_Driver\Src\stm32l5xx_hal_flash_ex.c:0:7
	movw	r1, #32772
	b	.LBB2_11
	.p2align	2
.LBB2_5:
.Ltmp93:
	@DEBUG_VALUE: FLASH_PageErase:Banks <- undef
	.loc	4 285 53 is_stmt 1              @ c:/Keil_v5\ARM\PACK\Keil\STM32L5xx_DFP\1.3.0\Drivers\STM32L5xx_HAL_Driver\Src\stm32l5xx_hal_flash_ex.c:285:53
	ldrd	r2, r1, [r4, #4]
	.loc	4 281 43                        @ c:/Keil_v5\ARM\PACK\Keil\STM32L5xx_DFP\1.3.0\Drivers\STM32L5xx_HAL_Driver\Src\stm32l5xx_hal_flash_ex.c:281:43
	ldr	r3, [r4, #12]
	.loc	4 282 19                        @ c:/Keil_v5\ARM\PACK\Keil\STM32L5xx_DFP\1.3.0\Drivers\STM32L5xx_HAL_Driver\Src\stm32l5xx_hal_flash_ex.c:282:19
	strd	r1, r3, [r5, #20]
.Ltmp94:
	@DEBUG_VALUE: FLASH_PageErase:Page <- $r1
	.loc	4 817 6                         @ c:/Keil_v5\ARM\PACK\Keil\STM32L5xx_DFP\1.3.0\Drivers\STM32L5xx_HAL_Driver\Src\stm32l5xx_hal_flash_ex.c:817:6
	ldr	r3, [r0, #24]
.Ltmp95:
	.loc	4 817 6 is_stmt 0               @ c:/Keil_v5\ARM\PACK\Keil\STM32L5xx_DFP\1.3.0\Drivers\STM32L5xx_HAL_Driver\Src\stm32l5xx_hal_flash_ex.c:817:6
	lsls	r3, r3, #9
.Ltmp96:
	@DEBUG_VALUE: FLASH_PageErase:reg <- undef
	bmi	.LBB2_12
.Ltmp97:
@ %bb.6:
	@DEBUG_VALUE: FLASH_PageErase:Page <- $r1
	.loc	4 819 5 is_stmt 1               @ c:/Keil_v5\ARM\PACK\Keil\STM32L5xx_DFP\1.3.0\Drivers\STM32L5xx_HAL_Driver\Src\stm32l5xx_hal_flash_ex.c:819:5
	ldr	r2, [r0]
	bic	r2, r2, #2048
	b	.LBB2_13
.Ltmp98:
	.p2align	2
.LBB2_7:
	@DEBUG_VALUE: FLASH_MassErase:Banks <- $r1
	.loc	4 764 8                         @ c:/Keil_v5\ARM\PACK\Keil\STM32L5xx_DFP\1.3.0\Drivers\STM32L5xx_HAL_Driver\Src\stm32l5xx_hal_flash_ex.c:764:8
	lsls	r2, r1, #31
	beq	.LBB2_9
.Ltmp99:
@ %bb.8:
	@DEBUG_VALUE: FLASH_MassErase:Banks <- $r1
	.loc	4 766 7                         @ c:/Keil_v5\ARM\PACK\Keil\STM32L5xx_DFP\1.3.0\Drivers\STM32L5xx_HAL_Driver\Src\stm32l5xx_hal_flash_ex.c:766:7
	ldr	r2, [r0]
	orr	r2, r2, #4
	str	r2, [r0]
.Ltmp100:
.LBB2_9:
	@DEBUG_VALUE: FLASH_MassErase:Banks <- $r1
	.loc	4 770 8                         @ c:/Keil_v5\ARM\PACK\Keil\STM32L5xx_DFP\1.3.0\Drivers\STM32L5xx_HAL_Driver\Src\stm32l5xx_hal_flash_ex.c:770:8
	lsls	r1, r1, #30
.Ltmp101:
	bpl	.LBB2_14
.Ltmp102:
@ %bb.10:
	.loc	4 0 8 is_stmt 0                 @ c:/Keil_v5\ARM\PACK\Keil\STM32L5xx_DFP\1.3.0\Drivers\STM32L5xx_HAL_Driver\Src\stm32l5xx_hal_flash_ex.c:0:8
	mov.w	r1, #32768
.LBB2_11:
	ldr	r2, [r0]
	orrs	r1, r2
	str	r1, [r0]
	b	.LBB2_14
.Ltmp103:
	.p2align	2
.LBB2_12:
	@DEBUG_VALUE: FLASH_PageErase:Page <- $r1
	.loc	4 825 8 is_stmt 1               @ c:/Keil_v5\ARM\PACK\Keil\STM32L5xx_DFP\1.3.0\Drivers\STM32L5xx_HAL_Driver\Src\stm32l5xx_hal_flash_ex.c:825:8
	lsls	r2, r2, #31
.Ltmp104:
	.loc	4 0 0 is_stmt 0                 @ c:/Keil_v5\ARM\PACK\Keil\STM32L5xx_DFP\1.3.0\Drivers\STM32L5xx_HAL_Driver\Src\stm32l5xx_hal_flash_ex.c:0:0
	ldr	r3, [r0]
.Ltmp105:
	.loc	4 831 7 is_stmt 1               @ c:/Keil_v5\ARM\PACK\Keil\STM32L5xx_DFP\1.3.0\Drivers\STM32L5xx_HAL_Driver\Src\stm32l5xx_hal_flash_ex.c:831:7
	ite	eq
	orreq	r2, r3, #2048
.Ltmp106:
	.loc	4 827 7                         @ c:/Keil_v5\ARM\PACK\Keil\STM32L5xx_DFP\1.3.0\Drivers\STM32L5xx_HAL_Driver\Src\stm32l5xx_hal_flash_ex.c:827:7
	bicne	r2, r3, #2048
.Ltmp107:
.LBB2_13:
	@DEBUG_VALUE: FLASH_PageErase:Page <- $r1
	.loc	4 0 0 is_stmt 0                 @ c:/Keil_v5\ARM\PACK\Keil\STM32L5xx_DFP\1.3.0\Drivers\STM32L5xx_HAL_Driver\Src\stm32l5xx_hal_flash_ex.c:0:0
	str	r2, [r0]
.Ltmp108:
	.loc	4 836 3 is_stmt 1               @ c:/Keil_v5\ARM\PACK\Keil\STM32L5xx_DFP\1.3.0\Drivers\STM32L5xx_HAL_Driver\Src\stm32l5xx_hal_flash_ex.c:836:3
	ldr	r2, [r0]
	movw	r3, #1018
	bics	r2, r3
	orr.w	r1, r2, r1, lsl #3
.Ltmp109:
	adds	r1, #2
	str	r1, [r0]
.Ltmp110:
.LBB2_14:
	.loc	4 0 0 is_stmt 0                 @ c:/Keil_v5\ARM\PACK\Keil\STM32L5xx_DFP\1.3.0\Drivers\STM32L5xx_HAL_Driver\Src\stm32l5xx_hal_flash_ex.c:0:0
	ldr	r1, [r0]
	orr	r1, r1, #65536
	str	r1, [r0]
	movs	r0, #0
.Ltmp111:
	.loc	4 290 1 is_stmt 1               @ c:/Keil_v5\ARM\PACK\Keil\STM32L5xx_DFP\1.3.0\Drivers\STM32L5xx_HAL_Driver\Src\stm32l5xx_hal_flash_ex.c:290:1
	pop	{r4, r5, r6, pc}
.Ltmp112:
.Lfunc_end2:
	.size	HAL_FLASHEx_Erase_IT, .Lfunc_end2-HAL_FLASHEx_Erase_IT
	.cfi_endproc
	.cantunwind
	.fnend
                                        @ -- End function
	.section	.text.HAL_FLASHEx_OBProgram,"ax",%progbits
	.hidden	HAL_FLASHEx_OBProgram           @ -- Begin function HAL_FLASHEx_OBProgram
	.globl	HAL_FLASHEx_OBProgram
	.p2align	2
	.type	HAL_FLASHEx_OBProgram,%function
	.code	16                              @ @HAL_FLASHEx_OBProgram
	.thumb_func
HAL_FLASHEx_OBProgram:
.Lfunc_begin3:
	.loc	4 306 0                         @ c:/Keil_v5\ARM\PACK\Keil\STM32L5xx_DFP\1.3.0\Drivers\STM32L5xx_HAL_Driver\Src\stm32l5xx_hal_flash_ex.c:306:0
	.fnstart
	.cfi_startproc
@ %bb.0:
	@DEBUG_VALUE: HAL_FLASHEx_OBProgram:pOBInit <- $r0
	.save	{r4, r5, r6, r7, r8, r9, r10, r11, lr}
	push.w	{r4, r5, r6, r7, r8, r9, r10, r11, lr}
	.cfi_def_cfa_offset 36
	.cfi_offset lr, -4
	.cfi_offset r11, -8
	.cfi_offset r10, -12
	.cfi_offset r9, -16
	.cfi_offset r8, -20
	.cfi_offset r7, -24
	.cfi_offset r6, -28
	.cfi_offset r5, -32
	.cfi_offset r4, -36
	.pad	#20
	sub	sp, #20
	.cfi_def_cfa_offset 56
.Ltmp113:
	.loc	4 313 3 prologue_end            @ c:/Keil_v5\ARM\PACK\Keil\STM32L5xx_DFP\1.3.0\Drivers\STM32L5xx_HAL_Driver\Src\stm32l5xx_hal_flash_ex.c:313:3
	movw	r5, :lower16:pFlash
	movt	r5, :upper16:pFlash
	ldrb	r1, [r5]
.Ltmp114:
	.loc	4 313 3 is_stmt 0               @ c:/Keil_v5\ARM\PACK\Keil\STM32L5xx_DFP\1.3.0\Drivers\STM32L5xx_HAL_Driver\Src\stm32l5xx_hal_flash_ex.c:313:3
	cmp	r1, #1
	@DEBUG_VALUE: HAL_FLASHEx_OBProgram:pOBInit <- $r0
	ittt	eq
	moveq	r0, #2
.Ltmp115:
	@DEBUG_VALUE: HAL_FLASHEx_OBProgram:pOBInit <- [DW_OP_LLVM_entry_value 1] $r0
	.loc	4 378 1 is_stmt 1               @ c:/Keil_v5\ARM\PACK\Keil\STM32L5xx_DFP\1.3.0\Drivers\STM32L5xx_HAL_Driver\Src\stm32l5xx_hal_flash_ex.c:378:1
	addeq	sp, #20
	popeq.w	{r4, r5, r6, r7, r8, r9, r10, r11, pc}
.Ltmp116:
.LBB3_1:
	@DEBUG_VALUE: HAL_FLASHEx_OBProgram:pOBInit <- [DW_OP_LLVM_entry_value 1] $r0
	.loc	4 0 1 is_stmt 0                 @ c:/Keil_v5\ARM\PACK\Keil\STM32L5xx_DFP\1.3.0\Drivers\STM32L5xx_HAL_Driver\Src\stm32l5xx_hal_flash_ex.c:0:1
	mov	r4, r0
.Ltmp117:
	@DEBUG_VALUE: HAL_FLASHEx_OBProgram:pOBInit <- $r4
	movs	r0, #1
.Ltmp118:
	.loc	4 313 3 is_stmt 1               @ c:/Keil_v5\ARM\PACK\Keil\STM32L5xx_DFP\1.3.0\Drivers\STM32L5xx_HAL_Driver\Src\stm32l5xx_hal_flash_ex.c:313:3
	strb	r0, [r5]
	mov.w	r8, #0
.Ltmp119:
	.loc	4 319 12                        @ c:/Keil_v5\ARM\PACK\Keil\STM32L5xx_DFP\1.3.0\Drivers\STM32L5xx_HAL_Driver\Src\stm32l5xx_hal_flash_ex.c:319:12
	mov.w	r0, #1000
	.loc	4 316 20                        @ c:/Keil_v5\ARM\PACK\Keil\STM32L5xx_DFP\1.3.0\Drivers\STM32L5xx_HAL_Driver\Src\stm32l5xx_hal_flash_ex.c:316:20
	str.w	r8, [r5, #4]
	.loc	4 319 12                        @ c:/Keil_v5\ARM\PACK\Keil\STM32L5xx_DFP\1.3.0\Drivers\STM32L5xx_HAL_Driver\Src\stm32l5xx_hal_flash_ex.c:319:12
	bl	FLASH_WaitForLastOperation
.Ltmp120:
	@DEBUG_VALUE: HAL_FLASHEx_OBProgram:status <- $r0
	.loc	4 321 6                         @ c:/Keil_v5\ARM\PACK\Keil\STM32L5xx_DFP\1.3.0\Drivers\STM32L5xx_HAL_Driver\Src\stm32l5xx_hal_flash_ex.c:321:6
	cbz	r0, .LBB3_3
.Ltmp121:
@ %bb.2:
	@DEBUG_VALUE: HAL_FLASHEx_OBProgram:pOBInit <- $r4
	@DEBUG_VALUE: HAL_FLASHEx_OBProgram:status <- $r0
	@DEBUG_VALUE: HAL_FLASHEx_OBProgram:status <- $r0
	.loc	4 375 3                         @ c:/Keil_v5\ARM\PACK\Keil\STM32L5xx_DFP\1.3.0\Drivers\STM32L5xx_HAL_Driver\Src\stm32l5xx_hal_flash_ex.c:375:3
	strb.w	r8, [r5]
.Ltmp122:
	.loc	4 378 1                         @ c:/Keil_v5\ARM\PACK\Keil\STM32L5xx_DFP\1.3.0\Drivers\STM32L5xx_HAL_Driver\Src\stm32l5xx_hal_flash_ex.c:378:1
	add	sp, #20
	pop.w	{r4, r5, r6, r7, r8, r9, r10, r11, pc}
.Ltmp123:
	.p2align	2
.LBB3_3:
	@DEBUG_VALUE: HAL_FLASHEx_OBProgram:pOBInit <- $r4
	@DEBUG_VALUE: HAL_FLASHEx_OBProgram:status <- $r0
	.loc	4 324 18                        @ c:/Keil_v5\ARM\PACK\Keil\STM32L5xx_DFP\1.3.0\Drivers\STM32L5xx_HAL_Driver\Src\stm32l5xx_hal_flash_ex.c:324:18
	ldr.w	r11, [r4]
	movw	r12, #8256
.Ltmp124:
	.loc	4 324 8 is_stmt 0               @ c:/Keil_v5\ARM\PACK\Keil\STM32L5xx_DFP\1.3.0\Drivers\STM32L5xx_HAL_Driver\Src\stm32l5xx_hal_flash_ex.c:324:8
	lsls.w	r0, r11, #31
.Ltmp125:
	.loc	4 0 8                           @ c:/Keil_v5\ARM\PACK\Keil\STM32L5xx_DFP\1.3.0\Drivers\STM32L5xx_HAL_Driver\Src\stm32l5xx_hal_flash_ex.c:0:8
	movt	r12, #16386
	.loc	4 324 8                         @ c:/Keil_v5\ARM\PACK\Keil\STM32L5xx_DFP\1.3.0\Drivers\STM32L5xx_HAL_Driver\Src\stm32l5xx_hal_flash_ex.c:324:8
	bne	.LBB3_7
.Ltmp126:
.LBB3_4:
	@DEBUG_VALUE: HAL_FLASHEx_OBProgram:pOBInit <- $r4
	.loc	4 331 8 is_stmt 1               @ c:/Keil_v5\ARM\PACK\Keil\STM32L5xx_DFP\1.3.0\Drivers\STM32L5xx_HAL_Driver\Src\stm32l5xx_hal_flash_ex.c:331:8
	lsls.w	r0, r11, #30
	bmi	.LBB3_12
.Ltmp127:
@ %bb.5:
	@DEBUG_VALUE: HAL_FLASHEx_OBProgram:pOBInit <- $r4
	.loc	4 338 8                         @ c:/Keil_v5\ARM\PACK\Keil\STM32L5xx_DFP\1.3.0\Drivers\STM32L5xx_HAL_Driver\Src\stm32l5xx_hal_flash_ex.c:338:8
	lsls.w	r0, r11, #29
	bmi	.LBB3_13
.Ltmp128:
.LBB3_6:
	@DEBUG_VALUE: HAL_FLASHEx_OBProgram:pOBInit <- $r4
	.loc	4 361 8                         @ c:/Keil_v5\ARM\PACK\Keil\STM32L5xx_DFP\1.3.0\Drivers\STM32L5xx_HAL_Driver\Src\stm32l5xx_hal_flash_ex.c:361:8
	lsls.w	r0, r11, #28
	bpl.w	.LBB3_18
	b	.LBB3_14
.Ltmp129:
	.p2align	2
.LBB3_7:
	@DEBUG_VALUE: HAL_FLASHEx_OBProgram:pOBInit <- $r4
	.loc	4 327 35                        @ c:/Keil_v5\ARM\PACK\Keil\STM32L5xx_DFP\1.3.0\Drivers\STM32L5xx_HAL_Driver\Src\stm32l5xx_hal_flash_ex.c:327:35
	ldr	r0, [r4, #4]
.Ltmp130:
	@DEBUG_VALUE: FLASH_OB_WRPConfig:WRPStartOffset <- undef
	@DEBUG_VALUE: FLASH_OB_WRPConfig:WRPArea <- $r0
	@DEBUG_VALUE: FLASH_OB_WRPConfig:WRPEndOffset <- undef
	.loc	4 880 6                         @ c:/Keil_v5\ARM\PACK\Keil\STM32L5xx_DFP\1.3.0\Drivers\STM32L5xx_HAL_Driver\Src\stm32l5xx_hal_flash_ex.c:880:6
	subs	r3, r0, #1
	cmp	r3, #7
	bhi	.LBB3_4
.Ltmp131:
@ %bb.8:
	@DEBUG_VALUE: HAL_FLASHEx_OBProgram:pOBInit <- $r4
	@DEBUG_VALUE: FLASH_OB_WRPConfig:WRPArea <- $r0
	@DEBUG_VALUE: FLASH_OB_WRPConfig:WRPEndOffset <- undef
	@DEBUG_VALUE: FLASH_OB_WRPConfig:WRPStartOffset <- undef
	.loc	4 0 6 is_stmt 0                 @ c:/Keil_v5\ARM\PACK\Keil\STM32L5xx_DFP\1.3.0\Drivers\STM32L5xx_HAL_Driver\Src\stm32l5xx_hal_flash_ex.c:0:6
	ldrd	r0, r2, [r4, #8]
.Ltmp132:
.LCPI3_0:
	tbb	[pc, r3]
.Ltmp133:
@ %bb.9:
.LJTI3_0:
	.byte	(.LBB3_11-(.LCPI3_0+4))/2
	.byte	(.LBB3_19-(.LCPI3_0+4))/2
	.byte	(.LBB3_10-(.LCPI3_0+4))/2
	.byte	(.LBB3_20-(.LCPI3_0+4))/2
	.byte	(.LBB3_10-(.LCPI3_0+4))/2
	.byte	(.LBB3_10-(.LCPI3_0+4))/2
	.byte	(.LBB3_10-(.LCPI3_0+4))/2
	.byte	(.LBB3_21-(.LCPI3_0+4))/2
	.p2align	1
	.p2align	2
.LBB3_10:
	b	.LBB3_4
	.p2align	2
.LBB3_11:
.Ltmp134:
	@DEBUG_VALUE: HAL_FLASHEx_OBProgram:pOBInit <- $r4
	.loc	4 882 5 is_stmt 1               @ c:/Keil_v5\ARM\PACK\Keil\STM32L5xx_DFP\1.3.0\Drivers\STM32L5xx_HAL_Driver\Src\stm32l5xx_hal_flash_ex.c:882:5
	ldr.w	r3, [r12, #24]
	orr.w	r0, r0, r2, lsl #16
	bic	r2, r3, #8323199
	orrs	r0, r2
	str.w	r0, [r12, #24]
	b	.LBB3_4
.Ltmp135:
	.p2align	2
.LBB3_12:
	@DEBUG_VALUE: HAL_FLASHEx_OBProgram:pOBInit <- $r4
	.loc	4 334 35                        @ c:/Keil_v5\ARM\PACK\Keil\STM32L5xx_DFP\1.3.0\Drivers\STM32L5xx_HAL_Driver\Src\stm32l5xx_hal_flash_ex.c:334:35
	ldr	r0, [r4, #16]
.Ltmp136:
	@DEBUG_VALUE: FLASH_OB_RDPConfig:RDPLevel <- $r0
	.loc	4 931 3                         @ c:/Keil_v5\ARM\PACK\Keil\STM32L5xx_DFP\1.3.0\Drivers\STM32L5xx_HAL_Driver\Src\stm32l5xx_hal_flash_ex.c:931:3
	ldr.w	r2, [r12]
	bic	r2, r2, #255
	orrs	r0, r2
.Ltmp137:
	str.w	r0, [r12]
.Ltmp138:
	.loc	4 338 8                         @ c:/Keil_v5\ARM\PACK\Keil\STM32L5xx_DFP\1.3.0\Drivers\STM32L5xx_HAL_Driver\Src\stm32l5xx_hal_flash_ex.c:338:8
	lsls.w	r0, r11, #29
	bpl	.LBB3_6
.Ltmp139:
.LBB3_13:
	@DEBUG_VALUE: HAL_FLASHEx_OBProgram:pOBInit <- $r4
	@DEBUG_VALUE: FLASH_OB_UserConfig:UserConfig <- undef
	@DEBUG_VALUE: FLASH_OB_UserConfig:UserType <- undef
	.loc	4 341 36                        @ c:/Keil_v5\ARM\PACK\Keil\STM32L5xx_DFP\1.3.0\Drivers\STM32L5xx_HAL_Driver\Src\stm32l5xx_hal_flash_ex.c:341:36
	ldrd	r3, r0, [r4, #20]
.Ltmp140:
	@DEBUG_VALUE: FLASH_OB_UserConfig:optr_reg_mask <- 0
	@DEBUG_VALUE: FLASH_OB_UserConfig:optr_reg_val <- 0
	.loc	4 965 16                        @ c:/Keil_v5\ARM\PACK\Keil\STM32L5xx_DFP\1.3.0\Drivers\STM32L5xx_HAL_Driver\Src\stm32l5xx_hal_flash_ex.c:965:16
	ands	r1, r3, #1
.Ltmp141:
	.loc	4 975 6                         @ c:/Keil_v5\ARM\PACK\Keil\STM32L5xx_DFP\1.3.0\Drivers\STM32L5xx_HAL_Driver\Src\stm32l5xx_hal_flash_ex.c:975:6
	str	r1, [sp, #16]                   @ 4-byte Spill
	and.w	r2, r0, r3, lsl #11
	and	r7, r0, #1792
.Ltmp142:
	@DEBUG_VALUE: FLASH_OB_UserConfig:optr_reg_mask <- undef
	@DEBUG_VALUE: FLASH_OB_UserConfig:optr_reg_val <- undef
	and	r2, r2, #4096
	it	ne
	addne	r2, r7
	@DEBUG_VALUE: FLASH_OB_UserConfig:optr_reg_mask <- undef
.Ltmp143:
	@DEBUG_VALUE: FLASH_OB_UserConfig:optr_reg_val <- $r2
	.loc	4 985 6                         @ c:/Keil_v5\ARM\PACK\Keil\STM32L5xx_DFP\1.3.0\Drivers\STM32L5xx_HAL_Driver\Src\stm32l5xx_hal_flash_ex.c:985:6
	and	r7, r0, #8192
	lsls	r6, r3, #29
	it	mi
	addmi	r2, r7
.Ltmp144:
	@DEBUG_VALUE: FLASH_OB_UserConfig:optr_reg_val <- $r2
	.loc	4 995 16                        @ c:/Keil_v5\ARM\PACK\Keil\STM32L5xx_DFP\1.3.0\Drivers\STM32L5xx_HAL_Driver\Src\stm32l5xx_hal_flash_ex.c:995:16
	ands	r12, r3, #8
.Ltmp145:
	.loc	4 995 6 is_stmt 0               @ c:/Keil_v5\ARM\PACK\Keil\STM32L5xx_DFP\1.3.0\Drivers\STM32L5xx_HAL_Driver\Src\stm32l5xx_hal_flash_ex.c:995:6
	and	r7, r0, #16384
	it	ne
	addne	r2, r7
.Ltmp146:
	@DEBUG_VALUE: FLASH_OB_UserConfig:optr_reg_val <- $r2
	.loc	4 1005 16 is_stmt 1             @ c:/Keil_v5\ARM\PACK\Keil\STM32L5xx_DFP\1.3.0\Drivers\STM32L5xx_HAL_Driver\Src\stm32l5xx_hal_flash_ex.c:1005:16
	ands	r9, r3, #16
.Ltmp147:
	.loc	4 1005 6 is_stmt 0              @ c:/Keil_v5\ARM\PACK\Keil\STM32L5xx_DFP\1.3.0\Drivers\STM32L5xx_HAL_Driver\Src\stm32l5xx_hal_flash_ex.c:1005:6
	and	r7, r0, #65536
	it	ne
	orrne	r2, r7
.Ltmp148:
	@DEBUG_VALUE: FLASH_OB_UserConfig:optr_reg_val <- $r2
	.loc	4 1015 16 is_stmt 1             @ c:/Keil_v5\ARM\PACK\Keil\STM32L5xx_DFP\1.3.0\Drivers\STM32L5xx_HAL_Driver\Src\stm32l5xx_hal_flash_ex.c:1015:16
	ands	r1, r3, #32
.Ltmp149:
	.loc	4 1015 6 is_stmt 0              @ c:/Keil_v5\ARM\PACK\Keil\STM32L5xx_DFP\1.3.0\Drivers\STM32L5xx_HAL_Driver\Src\stm32l5xx_hal_flash_ex.c:1015:6
	and	r7, r0, #131072
	it	ne
	orrne	r2, r7
.Ltmp150:
	@DEBUG_VALUE: FLASH_OB_UserConfig:optr_reg_val <- $r2
	.loc	4 1025 16 is_stmt 1             @ c:/Keil_v5\ARM\PACK\Keil\STM32L5xx_DFP\1.3.0\Drivers\STM32L5xx_HAL_Driver\Src\stm32l5xx_hal_flash_ex.c:1025:16
	ands	r7, r3, #64
.Ltmp151:
	.loc	4 1025 6 is_stmt 0              @ c:/Keil_v5\ARM\PACK\Keil\STM32L5xx_DFP\1.3.0\Drivers\STM32L5xx_HAL_Driver\Src\stm32l5xx_hal_flash_ex.c:1025:6
	str	r7, [sp, #12]                   @ 4-byte Spill
	and	r7, r0, #262144
	it	ne
	orrne	r2, r7
.Ltmp152:
	@DEBUG_VALUE: FLASH_OB_UserConfig:optr_reg_val <- $r2
	.loc	4 1035 16 is_stmt 1             @ c:/Keil_v5\ARM\PACK\Keil\STM32L5xx_DFP\1.3.0\Drivers\STM32L5xx_HAL_Driver\Src\stm32l5xx_hal_flash_ex.c:1035:16
	ands	r7, r3, #128
.Ltmp153:
	.loc	4 1035 6 is_stmt 0              @ c:/Keil_v5\ARM\PACK\Keil\STM32L5xx_DFP\1.3.0\Drivers\STM32L5xx_HAL_Driver\Src\stm32l5xx_hal_flash_ex.c:1035:6
	and	r6, r0, #524288
	str	r7, [sp, #8]                    @ 4-byte Spill
	it	ne
	orrne	r2, r6
.Ltmp154:
	@DEBUG_VALUE: FLASH_OB_UserConfig:optr_reg_val <- $r2
	.loc	4 1045 16 is_stmt 1             @ c:/Keil_v5\ARM\PACK\Keil\STM32L5xx_DFP\1.3.0\Drivers\STM32L5xx_HAL_Driver\Src\stm32l5xx_hal_flash_ex.c:1045:16
	ands	r7, r3, #256
.Ltmp155:
	.loc	4 1045 6 is_stmt 0              @ c:/Keil_v5\ARM\PACK\Keil\STM32L5xx_DFP\1.3.0\Drivers\STM32L5xx_HAL_Driver\Src\stm32l5xx_hal_flash_ex.c:1045:6
	and	r6, r0, #1048576
	str	r7, [sp, #4]                    @ 4-byte Spill
	it	ne
	orrne	r2, r6
.Ltmp156:
	@DEBUG_VALUE: FLASH_OB_UserConfig:optr_reg_val <- $r2
	.loc	4 0 6                           @ c:/Keil_v5\ARM\PACK\Keil\STM32L5xx_DFP\1.3.0\Drivers\STM32L5xx_HAL_Driver\Src\stm32l5xx_hal_flash_ex.c:0:6
	mov.w	r6, #12288
	.loc	4 975 6 is_stmt 1               @ c:/Keil_v5\ARM\PACK\Keil\STM32L5xx_DFP\1.3.0\Drivers\STM32L5xx_HAL_Driver\Src\stm32l5xx_hal_flash_ex.c:975:6
	and.w	r6, r6, r3, lsl #11
.Ltmp157:
	.loc	4 1055 16                       @ c:/Keil_v5\ARM\PACK\Keil\STM32L5xx_DFP\1.3.0\Drivers\STM32L5xx_HAL_Driver\Src\stm32l5xx_hal_flash_ex.c:1055:16
	ands	lr, r3, #512
.Ltmp158:
	.loc	4 985 6                         @ c:/Keil_v5\ARM\PACK\Keil\STM32L5xx_DFP\1.3.0\Drivers\STM32L5xx_HAL_Driver\Src\stm32l5xx_hal_flash_ex.c:985:6
	orr.w	r6, r6, r12, lsl #11
	.loc	4 1055 6                        @ c:/Keil_v5\ARM\PACK\Keil\STM32L5xx_DFP\1.3.0\Drivers\STM32L5xx_HAL_Driver\Src\stm32l5xx_hal_flash_ex.c:1055:6
	and	r10, r0, #2097152
	it	ne
	orrne.w	r2, r2, r10
.Ltmp159:
	@DEBUG_VALUE: FLASH_OB_UserConfig:optr_reg_val <- $r2
	.loc	4 995 6                         @ c:/Keil_v5\ARM\PACK\Keil\STM32L5xx_DFP\1.3.0\Drivers\STM32L5xx_HAL_Driver\Src\stm32l5xx_hal_flash_ex.c:995:6
	orr.w	r6, r6, r9, lsl #12
.Ltmp160:
	.loc	4 1065 16                       @ c:/Keil_v5\ARM\PACK\Keil\STM32L5xx_DFP\1.3.0\Drivers\STM32L5xx_HAL_Driver\Src\stm32l5xx_hal_flash_ex.c:1065:16
	ands	r10, r3, #2048
.Ltmp161:
	.loc	4 1005 6                        @ c:/Keil_v5\ARM\PACK\Keil\STM32L5xx_DFP\1.3.0\Drivers\STM32L5xx_HAL_Driver\Src\stm32l5xx_hal_flash_ex.c:1005:6
	orr.w	r6, r6, r1, lsl #12
	.loc	4 1065 6                        @ c:/Keil_v5\ARM\PACK\Keil\STM32L5xx_DFP\1.3.0\Drivers\STM32L5xx_HAL_Driver\Src\stm32l5xx_hal_flash_ex.c:1065:6
	and	r7, r0, #16777216
	it	ne
	orrne	r2, r7
.Ltmp162:
	@DEBUG_VALUE: FLASH_OB_UserConfig:optr_reg_val <- $r2
	.loc	4 1015 6                        @ c:/Keil_v5\ARM\PACK\Keil\STM32L5xx_DFP\1.3.0\Drivers\STM32L5xx_HAL_Driver\Src\stm32l5xx_hal_flash_ex.c:1015:6
	ldr	r1, [sp, #12]                   @ 4-byte Reload
.Ltmp163:
	.loc	4 1075 16                       @ c:/Keil_v5\ARM\PACK\Keil\STM32L5xx_DFP\1.3.0\Drivers\STM32L5xx_HAL_Driver\Src\stm32l5xx_hal_flash_ex.c:1075:16
	ands	r12, r3, #4096
.Ltmp164:
	.loc	4 1015 6                        @ c:/Keil_v5\ARM\PACK\Keil\STM32L5xx_DFP\1.3.0\Drivers\STM32L5xx_HAL_Driver\Src\stm32l5xx_hal_flash_ex.c:1015:6
	orr.w	r6, r6, r1, lsl #12
	.loc	4 1025 6                        @ c:/Keil_v5\ARM\PACK\Keil\STM32L5xx_DFP\1.3.0\Drivers\STM32L5xx_HAL_Driver\Src\stm32l5xx_hal_flash_ex.c:1025:6
	ldr	r1, [sp, #8]                    @ 4-byte Reload
	.loc	4 1085 6                        @ c:/Keil_v5\ARM\PACK\Keil\STM32L5xx_DFP\1.3.0\Drivers\STM32L5xx_HAL_Driver\Src\stm32l5xx_hal_flash_ex.c:1085:6
	and	r7, r0, #67108864
	.loc	4 1025 6                        @ c:/Keil_v5\ARM\PACK\Keil\STM32L5xx_DFP\1.3.0\Drivers\STM32L5xx_HAL_Driver\Src\stm32l5xx_hal_flash_ex.c:1025:6
	orr.w	r6, r6, r1, lsl #12
	.loc	4 1075 6                        @ c:/Keil_v5\ARM\PACK\Keil\STM32L5xx_DFP\1.3.0\Drivers\STM32L5xx_HAL_Driver\Src\stm32l5xx_hal_flash_ex.c:1075:6
	and	r1, r0, #33554432
	it	ne
	orrne	r2, r1
.Ltmp165:
	@DEBUG_VALUE: FLASH_OB_UserConfig:optr_reg_val <- $r2
	.loc	4 1035 6                        @ c:/Keil_v5\ARM\PACK\Keil\STM32L5xx_DFP\1.3.0\Drivers\STM32L5xx_HAL_Driver\Src\stm32l5xx_hal_flash_ex.c:1035:6
	ldr	r1, [sp, #4]                    @ 4-byte Reload
.Ltmp166:
	.loc	4 1085 16                       @ c:/Keil_v5\ARM\PACK\Keil\STM32L5xx_DFP\1.3.0\Drivers\STM32L5xx_HAL_Driver\Src\stm32l5xx_hal_flash_ex.c:1085:16
	ands	r9, r3, #8192
.Ltmp167:
	.loc	4 1085 6 is_stmt 0              @ c:/Keil_v5\ARM\PACK\Keil\STM32L5xx_DFP\1.3.0\Drivers\STM32L5xx_HAL_Driver\Src\stm32l5xx_hal_flash_ex.c:1085:6
	it	ne
	orrne	r2, r7
.Ltmp168:
	@DEBUG_VALUE: FLASH_OB_UserConfig:optr_reg_val <- $r2
	.loc	4 1035 6 is_stmt 1              @ c:/Keil_v5\ARM\PACK\Keil\STM32L5xx_DFP\1.3.0\Drivers\STM32L5xx_HAL_Driver\Src\stm32l5xx_hal_flash_ex.c:1035:6
	orr.w	r1, r6, r1, lsl #12
.Ltmp169:
	.loc	4 1095 16                       @ c:/Keil_v5\ARM\PACK\Keil\STM32L5xx_DFP\1.3.0\Drivers\STM32L5xx_HAL_Driver\Src\stm32l5xx_hal_flash_ex.c:1095:16
	ands	r7, r3, #16384
.Ltmp170:
	.loc	4 1045 6                        @ c:/Keil_v5\ARM\PACK\Keil\STM32L5xx_DFP\1.3.0\Drivers\STM32L5xx_HAL_Driver\Src\stm32l5xx_hal_flash_ex.c:1045:6
	orr.w	r1, r1, lr, lsl #12
	.loc	4 1095 6                        @ c:/Keil_v5\ARM\PACK\Keil\STM32L5xx_DFP\1.3.0\Drivers\STM32L5xx_HAL_Driver\Src\stm32l5xx_hal_flash_ex.c:1095:6
	and	r6, r0, #134217728
	it	ne
	orrne	r2, r6
.Ltmp171:
	@DEBUG_VALUE: FLASH_OB_UserConfig:optr_reg_val <- $r2
	.loc	4 1055 6                        @ c:/Keil_v5\ARM\PACK\Keil\STM32L5xx_DFP\1.3.0\Drivers\STM32L5xx_HAL_Driver\Src\stm32l5xx_hal_flash_ex.c:1055:6
	orr.w	r1, r1, r10, lsl #13
.Ltmp172:
	.loc	4 1105 16                       @ c:/Keil_v5\ARM\PACK\Keil\STM32L5xx_DFP\1.3.0\Drivers\STM32L5xx_HAL_Driver\Src\stm32l5xx_hal_flash_ex.c:1105:16
	ands	r6, r3, #32768
.Ltmp173:
	.loc	4 1065 6                        @ c:/Keil_v5\ARM\PACK\Keil\STM32L5xx_DFP\1.3.0\Drivers\STM32L5xx_HAL_Driver\Src\stm32l5xx_hal_flash_ex.c:1065:6
	orr.w	r1, r1, r12, lsl #13
	movw	r12, #8256
	.loc	4 1075 6                        @ c:/Keil_v5\ARM\PACK\Keil\STM32L5xx_DFP\1.3.0\Drivers\STM32L5xx_HAL_Driver\Src\stm32l5xx_hal_flash_ex.c:1075:6
	orr.w	r1, r1, r9, lsl #13
	movt	r12, #16386
	.loc	4 1085 6                        @ c:/Keil_v5\ARM\PACK\Keil\STM32L5xx_DFP\1.3.0\Drivers\STM32L5xx_HAL_Driver\Src\stm32l5xx_hal_flash_ex.c:1085:6
	orr.w	r1, r1, r7, lsl #13
	.loc	4 1105 6                        @ c:/Keil_v5\ARM\PACK\Keil\STM32L5xx_DFP\1.3.0\Drivers\STM32L5xx_HAL_Driver\Src\stm32l5xx_hal_flash_ex.c:1105:6
	and	r7, r0, #268435456
	it	ne
	orrne	r2, r7
.Ltmp174:
	@DEBUG_VALUE: FLASH_OB_UserConfig:optr_reg_val <- $r2
	.loc	4 1095 6                        @ c:/Keil_v5\ARM\PACK\Keil\STM32L5xx_DFP\1.3.0\Drivers\STM32L5xx_HAL_Driver\Src\stm32l5xx_hal_flash_ex.c:1095:6
	orr.w	r1, r1, r6, lsl #13
.Ltmp175:
	.loc	4 1115 16                       @ c:/Keil_v5\ARM\PACK\Keil\STM32L5xx_DFP\1.3.0\Drivers\STM32L5xx_HAL_Driver\Src\stm32l5xx_hal_flash_ex.c:1115:16
	ands	r3, r3, #65536
.Ltmp176:
	.loc	4 1115 6 is_stmt 0              @ c:/Keil_v5\ARM\PACK\Keil\STM32L5xx_DFP\1.3.0\Drivers\STM32L5xx_HAL_Driver\Src\stm32l5xx_hal_flash_ex.c:1115:6
	and	r0, r0, #-2147483648
	it	ne
	orrne	r2, r0
.Ltmp177:
	@DEBUG_VALUE: FLASH_OB_UserConfig:optr_reg_val <- $r2
	.loc	4 1105 6 is_stmt 1              @ c:/Keil_v5\ARM\PACK\Keil\STM32L5xx_DFP\1.3.0\Drivers\STM32L5xx_HAL_Driver\Src\stm32l5xx_hal_flash_ex.c:1105:6
	orr.w	r0, r1, r3, lsl #15
	.loc	4 1115 6                        @ c:/Keil_v5\ARM\PACK\Keil\STM32L5xx_DFP\1.3.0\Drivers\STM32L5xx_HAL_Driver\Src\stm32l5xx_hal_flash_ex.c:1115:6
	ldr	r1, [sp, #16]                   @ 4-byte Reload
	cmp	r1, #0
	.loc	4 1126 3                        @ c:/Keil_v5\ARM\PACK\Keil\STM32L5xx_DFP\1.3.0\Drivers\STM32L5xx_HAL_Driver\Src\stm32l5xx_hal_flash_ex.c:1126:3
	ldr.w	r1, [r12]
	.loc	4 1115 6                        @ c:/Keil_v5\ARM\PACK\Keil\STM32L5xx_DFP\1.3.0\Drivers\STM32L5xx_HAL_Driver\Src\stm32l5xx_hal_flash_ex.c:1115:6
	it	ne
	orrne	r0, r0, #1792
.Ltmp178:
	@DEBUG_VALUE: FLASH_OB_UserConfig:optr_reg_mask <- $r0
	.loc	4 1126 3                        @ c:/Keil_v5\ARM\PACK\Keil\STM32L5xx_DFP\1.3.0\Drivers\STM32L5xx_HAL_Driver\Src\stm32l5xx_hal_flash_ex.c:1126:3
	bic.w	r0, r1, r0
.Ltmp179:
	orrs	r0, r2
	str.w	r0, [r12]
.Ltmp180:
	.loc	4 361 8                         @ c:/Keil_v5\ARM\PACK\Keil\STM32L5xx_DFP\1.3.0\Drivers\STM32L5xx_HAL_Driver\Src\stm32l5xx_hal_flash_ex.c:361:8
	lsls.w	r0, r11, #28
	bpl	.LBB3_18
.Ltmp181:
.LBB3_14:
	@DEBUG_VALUE: HAL_FLASHEx_OBProgram:pOBInit <- $r4
	@DEBUG_VALUE: FLASH_OB_BootAddrConfig:BootAddr <- undef
	@DEBUG_VALUE: FLASH_OB_BootAddrConfig:BootAddrConfig <- undef
	.loc	4 364 40                        @ c:/Keil_v5\ARM\PACK\Keil\STM32L5xx_DFP\1.3.0\Drivers\STM32L5xx_HAL_Driver\Src\stm32l5xx_hal_flash_ex.c:364:40
	ldrd	r1, r0, [r4, #28]
.Ltmp182:
	.loc	4 1261 7                        @ c:/Keil_v5\ARM\PACK\Keil\STM32L5xx_DFP\1.3.0\Drivers\STM32L5xx_HAL_Driver\Src\stm32l5xx_hal_flash_ex.c:1261:7
	cmp	r1, #2
	beq	.LBB3_17
.Ltmp183:
@ %bb.15:
	@DEBUG_VALUE: HAL_FLASHEx_OBProgram:pOBInit <- $r4
	cmp	r1, #1
	bne	.LBB3_18
.Ltmp184:
@ %bb.16:
	@DEBUG_VALUE: HAL_FLASHEx_OBProgram:pOBInit <- $r4
	.loc	4 1263 5                        @ c:/Keil_v5\ARM\PACK\Keil\STM32L5xx_DFP\1.3.0\Drivers\STM32L5xx_HAL_Driver\Src\stm32l5xx_hal_flash_ex.c:1263:5
	ldr.w	r1, [r12, #4]
	and	r1, r1, #127
	orrs	r0, r1
	str.w	r0, [r12, #4]
	b	.LBB3_18
.Ltmp185:
	.p2align	2
.LBB3_17:
	@DEBUG_VALUE: HAL_FLASHEx_OBProgram:pOBInit <- $r4
	.loc	4 1267 5                        @ c:/Keil_v5\ARM\PACK\Keil\STM32L5xx_DFP\1.3.0\Drivers\STM32L5xx_HAL_Driver\Src\stm32l5xx_hal_flash_ex.c:1267:5
	ldr.w	r1, [r12, #8]
	and	r1, r1, #127
	orrs	r0, r1
	str.w	r0, [r12, #8]
.Ltmp186:
.LBB3_18:
	@DEBUG_VALUE: HAL_FLASHEx_OBProgram:pOBInit <- $r4
	.loc	4 368 5                         @ c:/Keil_v5\ARM\PACK\Keil\STM32L5xx_DFP\1.3.0\Drivers\STM32L5xx_HAL_Driver\Src\stm32l5xx_hal_flash_ex.c:368:5
	ldr	r0, [r12, #-24]
	orr	r0, r0, #131072
	str	r0, [r12, #-24]
	.loc	4 371 14                        @ c:/Keil_v5\ARM\PACK\Keil\STM32L5xx_DFP\1.3.0\Drivers\STM32L5xx_HAL_Driver\Src\stm32l5xx_hal_flash_ex.c:371:14
	mov.w	r0, #1000
	bl	FLASH_WaitForLastOperation
.Ltmp187:
	@DEBUG_VALUE: HAL_FLASHEx_OBProgram:status <- undef
	@DEBUG_VALUE: HAL_FLASHEx_OBProgram:status <- $r0
	.loc	4 375 3                         @ c:/Keil_v5\ARM\PACK\Keil\STM32L5xx_DFP\1.3.0\Drivers\STM32L5xx_HAL_Driver\Src\stm32l5xx_hal_flash_ex.c:375:3
	strb.w	r8, [r5]
.Ltmp188:
	.loc	4 378 1                         @ c:/Keil_v5\ARM\PACK\Keil\STM32L5xx_DFP\1.3.0\Drivers\STM32L5xx_HAL_Driver\Src\stm32l5xx_hal_flash_ex.c:378:1
	add	sp, #20
	pop.w	{r4, r5, r6, r7, r8, r9, r10, r11, pc}
.Ltmp189:
	.p2align	2
.LBB3_19:
	@DEBUG_VALUE: HAL_FLASHEx_OBProgram:pOBInit <- $r4
	.loc	4 887 5                         @ c:/Keil_v5\ARM\PACK\Keil\STM32L5xx_DFP\1.3.0\Drivers\STM32L5xx_HAL_Driver\Src\stm32l5xx_hal_flash_ex.c:887:5
	ldr.w	r3, [r12, #28]
	orr.w	r0, r0, r2, lsl #16
	bic	r2, r3, #8323199
	orrs	r0, r2
	str.w	r0, [r12, #28]
	b	.LBB3_4
.Ltmp190:
	.p2align	2
.LBB3_20:
	@DEBUG_VALUE: HAL_FLASHEx_OBProgram:pOBInit <- $r4
	.loc	4 892 5                         @ c:/Keil_v5\ARM\PACK\Keil\STM32L5xx_DFP\1.3.0\Drivers\STM32L5xx_HAL_Driver\Src\stm32l5xx_hal_flash_ex.c:892:5
	ldr.w	r3, [r12, #40]
	orr.w	r0, r0, r2, lsl #16
	bic	r2, r3, #8323199
	orrs	r0, r2
	str.w	r0, [r12, #40]
	b	.LBB3_4
.Ltmp191:
	.p2align	2
.LBB3_21:
	@DEBUG_VALUE: HAL_FLASHEx_OBProgram:pOBInit <- $r4
	.loc	4 897 5                         @ c:/Keil_v5\ARM\PACK\Keil\STM32L5xx_DFP\1.3.0\Drivers\STM32L5xx_HAL_Driver\Src\stm32l5xx_hal_flash_ex.c:897:5
	ldr.w	r3, [r12, #44]
	orr.w	r0, r0, r2, lsl #16
	bic	r2, r3, #8323199
	orrs	r0, r2
	str.w	r0, [r12, #44]
	b	.LBB3_4
.Ltmp192:
.Lfunc_end3:
	.size	HAL_FLASHEx_OBProgram, .Lfunc_end3-HAL_FLASHEx_OBProgram
	.cfi_endproc
	.cantunwind
	.fnend
                                        @ -- End function
	.section	.text.HAL_FLASHEx_OBGetConfig,"ax",%progbits
	.hidden	HAL_FLASHEx_OBGetConfig         @ -- Begin function HAL_FLASHEx_OBGetConfig
	.globl	HAL_FLASHEx_OBGetConfig
	.p2align	2
	.type	HAL_FLASHEx_OBGetConfig,%function
	.code	16                              @ @HAL_FLASHEx_OBGetConfig
	.thumb_func
HAL_FLASHEx_OBGetConfig:
.Lfunc_begin4:
	.loc	4 391 0                         @ c:/Keil_v5\ARM\PACK\Keil\STM32L5xx_DFP\1.3.0\Drivers\STM32L5xx_HAL_Driver\Src\stm32l5xx_hal_flash_ex.c:391:0
	.fnstart
	.cfi_startproc
@ %bb.0:
	@DEBUG_VALUE: HAL_FLASHEx_OBGetConfig:pOBInit <- $r0
	.save	{r7, lr}
	push	{r7, lr}
	.cfi_def_cfa_offset 8
	.cfi_offset lr, -4
	.cfi_offset r7, -8
.Ltmp193:
	.loc	4 394 16 prologue_end           @ c:/Keil_v5\ARM\PACK\Keil\STM32L5xx_DFP\1.3.0\Drivers\STM32L5xx_HAL_Driver\Src\stm32l5xx_hal_flash_ex.c:394:16
	ldr	r3, [r0, #4]
	movw	r12, #8256
	movs	r1, #6
	@DEBUG_VALUE: HAL_FLASHEx_OBGetConfig:pOBInit <- $r0
	.loc	4 394 51 is_stmt 0              @ c:/Keil_v5\ARM\PACK\Keil\STM32L5xx_DFP\1.3.0\Drivers\STM32L5xx_HAL_Driver\Src\stm32l5xx_hal_flash_ex.c:394:51
	cmp	r3, #8
	movt	r12, #16386
	mov.w	lr, #14
.Ltmp194:
	.loc	4 392 23 is_stmt 1              @ c:/Keil_v5\ARM\PACK\Keil\STM32L5xx_DFP\1.3.0\Drivers\STM32L5xx_HAL_Driver\Src\stm32l5xx_hal_flash_ex.c:392:23
	str	r1, [r0]
.Ltmp195:
	.loc	4 394 51                        @ c:/Keil_v5\ARM\PACK\Keil\STM32L5xx_DFP\1.3.0\Drivers\STM32L5xx_HAL_Driver\Src\stm32l5xx_hal_flash_ex.c:394:51
	bhi	.LBB4_10
.Ltmp196:
@ %bb.1:
	@DEBUG_VALUE: HAL_FLASHEx_OBGetConfig:pOBInit <- $r0
	.loc	4 0 51 is_stmt 0                @ c:/Keil_v5\ARM\PACK\Keil\STM32L5xx_DFP\1.3.0\Drivers\STM32L5xx_HAL_Driver\Src\stm32l5xx_hal_flash_ex.c:0:51
	movs	r1, #1
	lsls	r1, r3
	tst.w	r1, #278
	beq	.LBB4_10
.Ltmp197:
@ %bb.2:
	@DEBUG_VALUE: HAL_FLASHEx_OBGetConfig:pOBInit <- $r0
	.loc	4 1302 6 is_stmt 1              @ c:/Keil_v5\ARM\PACK\Keil\STM32L5xx_DFP\1.3.0\Drivers\STM32L5xx_HAL_Driver\Src\stm32l5xx_hal_flash_ex.c:1302:6
	subs	r3, #1
	movs	r1, #7
	cmp	r3, #7
	mov.w	lr, #15
.Ltmp198:
	@DEBUG_VALUE: FLASH_OB_GetWRP:WRPEndOffset <- [DW_OP_plus_uconst 12, DW_OP_stack_value] $r0
	@DEBUG_VALUE: FLASH_OB_GetWRP:WRPStartOffset <- [DW_OP_plus_uconst 8, DW_OP_stack_value] $r0
	@DEBUG_VALUE: FLASH_OB_GetWRP:WRPArea <- undef
	.loc	4 397 25                        @ c:/Keil_v5\ARM\PACK\Keil\STM32L5xx_DFP\1.3.0\Drivers\STM32L5xx_HAL_Driver\Src\stm32l5xx_hal_flash_ex.c:397:25
	str	r1, [r0]
.Ltmp199:
	.loc	4 1302 6                        @ c:/Keil_v5\ARM\PACK\Keil\STM32L5xx_DFP\1.3.0\Drivers\STM32L5xx_HAL_Driver\Src\stm32l5xx_hal_flash_ex.c:1302:6
	bhi	.LBB4_10
.Ltmp200:
@ %bb.3:
	@DEBUG_VALUE: FLASH_OB_GetWRP:WRPStartOffset <- [DW_OP_plus_uconst 8, DW_OP_stack_value] $r0
	@DEBUG_VALUE: FLASH_OB_GetWRP:WRPEndOffset <- [DW_OP_plus_uconst 12, DW_OP_stack_value] $r0
	@DEBUG_VALUE: HAL_FLASHEx_OBGetConfig:pOBInit <- $r0
	.loc	4 0 6 is_stmt 0                 @ c:/Keil_v5\ARM\PACK\Keil\STM32L5xx_DFP\1.3.0\Drivers\STM32L5xx_HAL_Driver\Src\stm32l5xx_hal_flash_ex.c:0:6
.LCPI4_0:
	tbb	[pc, r3]
.Ltmp201:
@ %bb.4:
.LJTI4_0:
	.byte	(.LBB4_5-(.LCPI4_0+4))/2
	.byte	(.LBB4_6-(.LCPI4_0+4))/2
	.byte	(.LBB4_10-(.LCPI4_0+4))/2
	.byte	(.LBB4_7-(.LCPI4_0+4))/2
	.byte	(.LBB4_10-(.LCPI4_0+4))/2
	.byte	(.LBB4_10-(.LCPI4_0+4))/2
	.byte	(.LBB4_10-(.LCPI4_0+4))/2
	.byte	(.LBB4_8-(.LCPI4_0+4))/2
	.p2align	1
	.p2align	2
.LBB4_5:
.Ltmp202:
	@DEBUG_VALUE: FLASH_OB_GetWRP:WRPStartOffset <- [DW_OP_plus_uconst 8, DW_OP_stack_value] $r0
	@DEBUG_VALUE: FLASH_OB_GetWRP:WRPEndOffset <- [DW_OP_plus_uconst 12, DW_OP_stack_value] $r0
	@DEBUG_VALUE: HAL_FLASHEx_OBGetConfig:pOBInit <- $r0
	.loc	4 1304 23 is_stmt 1             @ c:/Keil_v5\ARM\PACK\Keil\STM32L5xx_DFP\1.3.0\Drivers\STM32L5xx_HAL_Driver\Src\stm32l5xx_hal_flash_ex.c:1304:23
	ldr.w	r1, [r12, #24]
	and	r1, r1, #127
	.loc	4 1304 21 is_stmt 0             @ c:/Keil_v5\ARM\PACK\Keil\STM32L5xx_DFP\1.3.0\Drivers\STM32L5xx_HAL_Driver\Src\stm32l5xx_hal_flash_ex.c:1304:21
	str	r1, [r0, #8]
	.loc	4 1305 22 is_stmt 1             @ c:/Keil_v5\ARM\PACK\Keil\STM32L5xx_DFP\1.3.0\Drivers\STM32L5xx_HAL_Driver\Src\stm32l5xx_hal_flash_ex.c:1305:22
	ldr.w	r1, [r12, #24]
	b	.LBB4_9
.Ltmp203:
	.p2align	2
.LBB4_6:
	@DEBUG_VALUE: FLASH_OB_GetWRP:WRPStartOffset <- [DW_OP_plus_uconst 8, DW_OP_stack_value] $r0
	@DEBUG_VALUE: FLASH_OB_GetWRP:WRPEndOffset <- [DW_OP_plus_uconst 12, DW_OP_stack_value] $r0
	@DEBUG_VALUE: HAL_FLASHEx_OBGetConfig:pOBInit <- $r0
	.loc	4 1309 23                       @ c:/Keil_v5\ARM\PACK\Keil\STM32L5xx_DFP\1.3.0\Drivers\STM32L5xx_HAL_Driver\Src\stm32l5xx_hal_flash_ex.c:1309:23
	ldr.w	r1, [r12, #28]
	and	r1, r1, #127
	.loc	4 1309 21 is_stmt 0             @ c:/Keil_v5\ARM\PACK\Keil\STM32L5xx_DFP\1.3.0\Drivers\STM32L5xx_HAL_Driver\Src\stm32l5xx_hal_flash_ex.c:1309:21
	str	r1, [r0, #8]
	.loc	4 1310 22 is_stmt 1             @ c:/Keil_v5\ARM\PACK\Keil\STM32L5xx_DFP\1.3.0\Drivers\STM32L5xx_HAL_Driver\Src\stm32l5xx_hal_flash_ex.c:1310:22
	ldr.w	r1, [r12, #28]
	b	.LBB4_9
.Ltmp204:
	.p2align	2
.LBB4_7:
	@DEBUG_VALUE: FLASH_OB_GetWRP:WRPStartOffset <- [DW_OP_plus_uconst 8, DW_OP_stack_value] $r0
	@DEBUG_VALUE: FLASH_OB_GetWRP:WRPEndOffset <- [DW_OP_plus_uconst 12, DW_OP_stack_value] $r0
	@DEBUG_VALUE: HAL_FLASHEx_OBGetConfig:pOBInit <- $r0
	.loc	4 1314 23                       @ c:/Keil_v5\ARM\PACK\Keil\STM32L5xx_DFP\1.3.0\Drivers\STM32L5xx_HAL_Driver\Src\stm32l5xx_hal_flash_ex.c:1314:23
	ldr.w	r1, [r12, #40]
	and	r1, r1, #127
	.loc	4 1314 21 is_stmt 0             @ c:/Keil_v5\ARM\PACK\Keil\STM32L5xx_DFP\1.3.0\Drivers\STM32L5xx_HAL_Driver\Src\stm32l5xx_hal_flash_ex.c:1314:21
	str	r1, [r0, #8]
	.loc	4 1315 22 is_stmt 1             @ c:/Keil_v5\ARM\PACK\Keil\STM32L5xx_DFP\1.3.0\Drivers\STM32L5xx_HAL_Driver\Src\stm32l5xx_hal_flash_ex.c:1315:22
	ldr.w	r1, [r12, #40]
	b	.LBB4_9
.Ltmp205:
	.p2align	2
.LBB4_8:
	@DEBUG_VALUE: FLASH_OB_GetWRP:WRPStartOffset <- [DW_OP_plus_uconst 8, DW_OP_stack_value] $r0
	@DEBUG_VALUE: FLASH_OB_GetWRP:WRPEndOffset <- [DW_OP_plus_uconst 12, DW_OP_stack_value] $r0
	@DEBUG_VALUE: HAL_FLASHEx_OBGetConfig:pOBInit <- $r0
	.loc	4 1319 23                       @ c:/Keil_v5\ARM\PACK\Keil\STM32L5xx_DFP\1.3.0\Drivers\STM32L5xx_HAL_Driver\Src\stm32l5xx_hal_flash_ex.c:1319:23
	ldr.w	r1, [r12, #44]
	and	r1, r1, #127
	.loc	4 1319 21 is_stmt 0             @ c:/Keil_v5\ARM\PACK\Keil\STM32L5xx_DFP\1.3.0\Drivers\STM32L5xx_HAL_Driver\Src\stm32l5xx_hal_flash_ex.c:1319:21
	str	r1, [r0, #8]
	.loc	4 1320 22 is_stmt 1             @ c:/Keil_v5\ARM\PACK\Keil\STM32L5xx_DFP\1.3.0\Drivers\STM32L5xx_HAL_Driver\Src\stm32l5xx_hal_flash_ex.c:1320:22
	ldr.w	r1, [r12, #44]
.Ltmp206:
.LBB4_9:
	@DEBUG_VALUE: FLASH_OB_GetWRP:WRPStartOffset <- [DW_OP_plus_uconst 8, DW_OP_stack_value] $r0
	@DEBUG_VALUE: FLASH_OB_GetWRP:WRPEndOffset <- [DW_OP_plus_uconst 12, DW_OP_stack_value] $r0
	@DEBUG_VALUE: HAL_FLASHEx_OBGetConfig:pOBInit <- $r0
	.loc	4 0 0 is_stmt 0                 @ c:/Keil_v5\ARM\PACK\Keil\STM32L5xx_DFP\1.3.0\Drivers\STM32L5xx_HAL_Driver\Src\stm32l5xx_hal_flash_ex.c:0:0
	ubfx	r1, r1, #16, #7
	mov.w	lr, #15
	str	r1, [r0, #12]
.Ltmp207:
.LBB4_10:
	@DEBUG_VALUE: HAL_FLASHEx_OBGetConfig:pOBInit <- $r0
	.loc	4 1339 24 is_stmt 1             @ c:/Keil_v5\ARM\PACK\Keil\STM32L5xx_DFP\1.3.0\Drivers\STM32L5xx_HAL_Driver\Src\stm32l5xx_hal_flash_ex.c:1339:24
	ldr.w	r1, [r12]
.Ltmp208:
	@DEBUG_VALUE: FLASH_OB_GetRDP:rdp_level <- [DW_OP_constu 255, DW_OP_and, DW_OP_stack_value] $r1
	.loc	4 1341 37                       @ c:/Keil_v5\ARM\PACK\Keil\STM32L5xx_DFP\1.3.0\Drivers\STM32L5xx_HAL_Driver\Src\stm32l5xx_hal_flash_ex.c:1341:37
	uxtb	r3, r1
	cmp	r3, #85
	it	ne
	cmpne	r3, #204
	beq	.LBB4_12
.Ltmp209:
@ %bb.11:
	@DEBUG_VALUE: FLASH_OB_GetRDP:rdp_level <- [DW_OP_constu 255, DW_OP_and, DW_OP_stack_value] $r1
	@DEBUG_VALUE: HAL_FLASHEx_OBGetConfig:pOBInit <- $r0
	cmp	r3, #170
	it	ne
	movne	r3, #187
.Ltmp210:
.LBB4_12:
	@DEBUG_VALUE: HAL_FLASHEx_OBGetConfig:pOBInit <- $r0
	.loc	4 403 21                        @ c:/Keil_v5\ARM\PACK\Keil\STM32L5xx_DFP\1.3.0\Drivers\STM32L5xx_HAL_Driver\Src\stm32l5xx_hal_flash_ex.c:403:21
	str	r3, [r0, #16]
.Ltmp211:
	.loc	4 1366 26                       @ c:/Keil_v5\ARM\PACK\Keil\STM32L5xx_DFP\1.3.0\Drivers\STM32L5xx_HAL_Driver\Src\stm32l5xx_hal_flash_ex.c:1366:26
	ldr.w	r1, [r12]
.Ltmp212:
	@DEBUG_VALUE: FLASH_OB_GetUser:user_config <- $r1
	.loc	4 427 17                        @ c:/Keil_v5\ARM\PACK\Keil\STM32L5xx_DFP\1.3.0\Drivers\STM32L5xx_HAL_Driver\Src\stm32l5xx_hal_flash_ex.c:427:17
	ldr	r3, [r0, #28]
.Ltmp213:
	.loc	4 1367 3                        @ c:/Keil_v5\ARM\PACK\Keil\STM32L5xx_DFP\1.3.0\Drivers\STM32L5xx_HAL_Driver\Src\stm32l5xx_hal_flash_ex.c:1367:3
	bic	r1, r1, #255
.Ltmp214:
	@DEBUG_VALUE: FLASH_OB_GetUser:user_config <- $r1
	@DEBUG_VALUE: FLASH_OB_GetUser:user_config <- $r1
	.loc	4 427 52                        @ c:/Keil_v5\ARM\PACK\Keil\STM32L5xx_DFP\1.3.0\Drivers\STM32L5xx_HAL_Driver\Src\stm32l5xx_hal_flash_ex.c:427:52
	subs	r2, r3, #1
	cmp	r2, #1
.Ltmp215:
	.loc	4 406 23                        @ c:/Keil_v5\ARM\PACK\Keil\STM32L5xx_DFP\1.3.0\Drivers\STM32L5xx_HAL_Driver\Src\stm32l5xx_hal_flash_ex.c:406:23
	str	r1, [r0, #24]
.Ltmp216:
	.loc	4 427 52                        @ c:/Keil_v5\ARM\PACK\Keil\STM32L5xx_DFP\1.3.0\Drivers\STM32L5xx_HAL_Driver\Src\stm32l5xx_hal_flash_ex.c:427:52
	bhi	.LBB4_17
.Ltmp217:
@ %bb.13:
	@DEBUG_VALUE: HAL_FLASHEx_OBGetConfig:pOBInit <- $r0
	.loc	4 1463 7                        @ c:/Keil_v5\ARM\PACK\Keil\STM32L5xx_DFP\1.3.0\Drivers\STM32L5xx_HAL_Driver\Src\stm32l5xx_hal_flash_ex.c:1463:7
	cmp	r3, #2
.Ltmp218:
	.loc	4 430 25                        @ c:/Keil_v5\ARM\PACK\Keil\STM32L5xx_DFP\1.3.0\Drivers\STM32L5xx_HAL_Driver\Src\stm32l5xx_hal_flash_ex.c:430:25
	str.w	lr, [r0]
.Ltmp219:
	@DEBUG_VALUE: FLASH_OB_GetBootAddr:BootAddr <- [DW_OP_plus_uconst 32, DW_OP_stack_value] $r0
	@DEBUG_VALUE: FLASH_OB_GetBootAddr:BootAddrConfig <- $r3
	.loc	4 1463 7                        @ c:/Keil_v5\ARM\PACK\Keil\STM32L5xx_DFP\1.3.0\Drivers\STM32L5xx_HAL_Driver\Src\stm32l5xx_hal_flash_ex.c:1463:7
	beq	.LBB4_16
.Ltmp220:
@ %bb.14:
	@DEBUG_VALUE: FLASH_OB_GetBootAddr:BootAddrConfig <- $r3
	@DEBUG_VALUE: FLASH_OB_GetBootAddr:BootAddr <- [DW_OP_plus_uconst 32, DW_OP_stack_value] $r0
	@DEBUG_VALUE: HAL_FLASHEx_OBGetConfig:pOBInit <- $r0
	cmp	r3, #1
.Ltmp221:
	.loc	4 433 1                         @ c:/Keil_v5\ARM\PACK\Keil\STM32L5xx_DFP\1.3.0\Drivers\STM32L5xx_HAL_Driver\Src\stm32l5xx_hal_flash_ex.c:433:1
	it	ne
	popne	{r7, pc}
.Ltmp222:
.LBB4_15:
	@DEBUG_VALUE: FLASH_OB_GetBootAddr:BootAddrConfig <- $r3
	@DEBUG_VALUE: FLASH_OB_GetBootAddr:BootAddr <- [DW_OP_plus_uconst 32, DW_OP_stack_value] $r0
	@DEBUG_VALUE: HAL_FLASHEx_OBGetConfig:pOBInit <- $r0
	.loc	4 1465 25                       @ c:/Keil_v5\ARM\PACK\Keil\STM32L5xx_DFP\1.3.0\Drivers\STM32L5xx_HAL_Driver\Src\stm32l5xx_hal_flash_ex.c:1465:25
	ldr.w	r1, [r12, #4]
	.loc	4 1465 37 is_stmt 0             @ c:/Keil_v5\ARM\PACK\Keil\STM32L5xx_DFP\1.3.0\Drivers\STM32L5xx_HAL_Driver\Src\stm32l5xx_hal_flash_ex.c:1465:37
	bic	r1, r1, #127
	.loc	4 1465 15                       @ c:/Keil_v5\ARM\PACK\Keil\STM32L5xx_DFP\1.3.0\Drivers\STM32L5xx_HAL_Driver\Src\stm32l5xx_hal_flash_ex.c:1465:15
	str	r1, [r0, #32]
.Ltmp223:
	.loc	4 433 1 is_stmt 1               @ c:/Keil_v5\ARM\PACK\Keil\STM32L5xx_DFP\1.3.0\Drivers\STM32L5xx_HAL_Driver\Src\stm32l5xx_hal_flash_ex.c:433:1
	pop	{r7, pc}
.Ltmp224:
	.p2align	2
.LBB4_16:
	@DEBUG_VALUE: FLASH_OB_GetBootAddr:BootAddrConfig <- $r3
	@DEBUG_VALUE: FLASH_OB_GetBootAddr:BootAddr <- [DW_OP_plus_uconst 32, DW_OP_stack_value] $r0
	@DEBUG_VALUE: HAL_FLASHEx_OBGetConfig:pOBInit <- $r0
	.loc	4 1469 25                       @ c:/Keil_v5\ARM\PACK\Keil\STM32L5xx_DFP\1.3.0\Drivers\STM32L5xx_HAL_Driver\Src\stm32l5xx_hal_flash_ex.c:1469:25
	ldr.w	r1, [r12, #8]
	.loc	4 1469 37 is_stmt 0             @ c:/Keil_v5\ARM\PACK\Keil\STM32L5xx_DFP\1.3.0\Drivers\STM32L5xx_HAL_Driver\Src\stm32l5xx_hal_flash_ex.c:1469:37
	bic	r1, r1, #127
	.loc	4 1469 15                       @ c:/Keil_v5\ARM\PACK\Keil\STM32L5xx_DFP\1.3.0\Drivers\STM32L5xx_HAL_Driver\Src\stm32l5xx_hal_flash_ex.c:1469:15
	str	r1, [r0, #32]
.Ltmp225:
.LBB4_17:
	@DEBUG_VALUE: HAL_FLASHEx_OBGetConfig:pOBInit <- $r0
	.loc	4 433 1 is_stmt 1               @ c:/Keil_v5\ARM\PACK\Keil\STM32L5xx_DFP\1.3.0\Drivers\STM32L5xx_HAL_Driver\Src\stm32l5xx_hal_flash_ex.c:433:1
	pop	{r7, pc}
.Ltmp226:
.Lfunc_end4:
	.size	HAL_FLASHEx_OBGetConfig, .Lfunc_end4-HAL_FLASHEx_OBGetConfig
	.cfi_endproc
	.cantunwind
	.fnend
                                        @ -- End function
	.section	.text.HAL_FLASHEx_ConfigPrivMode,"ax",%progbits
	.hidden	HAL_FLASHEx_ConfigPrivMode      @ -- Begin function HAL_FLASHEx_ConfigPrivMode
	.globl	HAL_FLASHEx_ConfigPrivMode
	.p2align	2
	.type	HAL_FLASHEx_ConfigPrivMode,%function
	.code	16                              @ @HAL_FLASHEx_ConfigPrivMode
	.thumb_func
HAL_FLASHEx_ConfigPrivMode:
.Lfunc_begin5:
	.loc	4 585 0                         @ c:/Keil_v5\ARM\PACK\Keil\STM32L5xx_DFP\1.3.0\Drivers\STM32L5xx_HAL_Driver\Src\stm32l5xx_hal_flash_ex.c:585:0
	.fnstart
	.cfi_startproc
@ %bb.0:
	@DEBUG_VALUE: HAL_FLASHEx_ConfigPrivMode:PrivMode <- $r0
	movw	r1, #8388
	movt	r1, #16386
.Ltmp227:
	.loc	4 589 3 prologue_end            @ c:/Keil_v5\ARM\PACK\Keil\STM32L5xx_DFP\1.3.0\Drivers\STM32L5xx_HAL_Driver\Src\stm32l5xx_hal_flash_ex.c:589:3
	ldr	r2, [r1]
	@DEBUG_VALUE: HAL_FLASHEx_ConfigPrivMode:PrivMode <- $r0
	bic	r2, r2, #1
	orrs	r0, r2
.Ltmp228:
	@DEBUG_VALUE: HAL_FLASHEx_ConfigPrivMode:PrivMode <- [DW_OP_LLVM_entry_value 1] $r0
	str	r0, [r1]
	.loc	4 590 1                         @ c:/Keil_v5\ARM\PACK\Keil\STM32L5xx_DFP\1.3.0\Drivers\STM32L5xx_HAL_Driver\Src\stm32l5xx_hal_flash_ex.c:590:1
	bx	lr
.Ltmp229:
.Lfunc_end5:
	.size	HAL_FLASHEx_ConfigPrivMode, .Lfunc_end5-HAL_FLASHEx_ConfigPrivMode
	.cfi_endproc
	.cantunwind
	.fnend
                                        @ -- End function
	.section	.text.HAL_FLASHEx_GetPrivMode,"ax",%progbits
	.hidden	HAL_FLASHEx_GetPrivMode         @ -- Begin function HAL_FLASHEx_GetPrivMode
	.globl	HAL_FLASHEx_GetPrivMode
	.p2align	2
	.type	HAL_FLASHEx_GetPrivMode,%function
	.code	16                              @ @HAL_FLASHEx_GetPrivMode
	.thumb_func
HAL_FLASHEx_GetPrivMode:
.Lfunc_begin6:
	.loc	4 601 0                         @ c:/Keil_v5\ARM\PACK\Keil\STM32L5xx_DFP\1.3.0\Drivers\STM32L5xx_HAL_Driver\Src\stm32l5xx_hal_flash_ex.c:601:0
	.fnstart
	.cfi_startproc
@ %bb.0:
	movw	r0, #8388
	movt	r0, #16386
.Ltmp230:
	.loc	4 602 18 prologue_end           @ c:/Keil_v5\ARM\PACK\Keil\STM32L5xx_DFP\1.3.0\Drivers\STM32L5xx_HAL_Driver\Src\stm32l5xx_hal_flash_ex.c:602:18
	ldr	r0, [r0]
	.loc	4 602 27 is_stmt 0              @ c:/Keil_v5\ARM\PACK\Keil\STM32L5xx_DFP\1.3.0\Drivers\STM32L5xx_HAL_Driver\Src\stm32l5xx_hal_flash_ex.c:602:27
	and	r0, r0, #1
	.loc	4 602 3                         @ c:/Keil_v5\ARM\PACK\Keil\STM32L5xx_DFP\1.3.0\Drivers\STM32L5xx_HAL_Driver\Src\stm32l5xx_hal_flash_ex.c:602:3
	bx	lr
.Ltmp231:
.Lfunc_end6:
	.size	HAL_FLASHEx_GetPrivMode, .Lfunc_end6-HAL_FLASHEx_GetPrivMode
	.cfi_endproc
	.cantunwind
	.fnend
                                        @ -- End function
	.section	.text.HAL_FLASHEx_ConfigLVEPin,"ax",%progbits
	.hidden	HAL_FLASHEx_ConfigLVEPin        @ -- Begin function HAL_FLASHEx_ConfigLVEPin
	.globl	HAL_FLASHEx_ConfigLVEPin
	.p2align	2
	.type	HAL_FLASHEx_ConfigLVEPin,%function
	.code	16                              @ @HAL_FLASHEx_ConfigLVEPin
	.thumb_func
HAL_FLASHEx_ConfigLVEPin:
.Lfunc_begin7:
	.loc	4 665 0 is_stmt 1               @ c:/Keil_v5\ARM\PACK\Keil\STM32L5xx_DFP\1.3.0\Drivers\STM32L5xx_HAL_Driver\Src\stm32l5xx_hal_flash_ex.c:665:0
	.fnstart
	.cfi_startproc
@ %bb.0:
	@DEBUG_VALUE: HAL_FLASHEx_ConfigLVEPin:ConfigLVE <- $r0
	.save	{r4, r5, r7, lr}
	push	{r4, r5, r7, lr}
	.cfi_def_cfa_offset 16
	.cfi_offset lr, -4
	.cfi_offset r7, -8
	.cfi_offset r5, -12
	.cfi_offset r4, -16
.Ltmp232:
	.loc	4 672 3 prologue_end            @ c:/Keil_v5\ARM\PACK\Keil\STM32L5xx_DFP\1.3.0\Drivers\STM32L5xx_HAL_Driver\Src\stm32l5xx_hal_flash_ex.c:672:3
	movw	r5, :lower16:pFlash
	movt	r5, :upper16:pFlash
	ldrb	r1, [r5]
.Ltmp233:
	.loc	4 672 3 is_stmt 0               @ c:/Keil_v5\ARM\PACK\Keil\STM32L5xx_DFP\1.3.0\Drivers\STM32L5xx_HAL_Driver\Src\stm32l5xx_hal_flash_ex.c:672:3
	cmp	r1, #1
	@DEBUG_VALUE: HAL_FLASHEx_ConfigLVEPin:ConfigLVE <- $r0
	itt	eq
	moveq	r0, #2
.Ltmp234:
	@DEBUG_VALUE: HAL_FLASHEx_ConfigLVEPin:ConfigLVE <- [DW_OP_LLVM_entry_value 1] $r0
	.loc	4 706 1 is_stmt 1               @ c:/Keil_v5\ARM\PACK\Keil\STM32L5xx_DFP\1.3.0\Drivers\STM32L5xx_HAL_Driver\Src\stm32l5xx_hal_flash_ex.c:706:1
	popeq	{r4, r5, r7, pc}
.Ltmp235:
.LBB7_1:
	@DEBUG_VALUE: HAL_FLASHEx_ConfigLVEPin:ConfigLVE <- [DW_OP_LLVM_entry_value 1] $r0
	.loc	4 0 1 is_stmt 0                 @ c:/Keil_v5\ARM\PACK\Keil\STM32L5xx_DFP\1.3.0\Drivers\STM32L5xx_HAL_Driver\Src\stm32l5xx_hal_flash_ex.c:0:1
	mov	r4, r0
.Ltmp236:
	@DEBUG_VALUE: HAL_FLASHEx_ConfigLVEPin:ConfigLVE <- $r4
	movs	r0, #1
.Ltmp237:
	.loc	4 672 3 is_stmt 1               @ c:/Keil_v5\ARM\PACK\Keil\STM32L5xx_DFP\1.3.0\Drivers\STM32L5xx_HAL_Driver\Src\stm32l5xx_hal_flash_ex.c:672:3
	strb	r0, [r5]
.Ltmp238:
	.loc	4 675 12                        @ c:/Keil_v5\ARM\PACK\Keil\STM32L5xx_DFP\1.3.0\Drivers\STM32L5xx_HAL_Driver\Src\stm32l5xx_hal_flash_ex.c:675:12
	mov.w	r0, #1000
	bl	FLASH_WaitForLastOperation
.Ltmp239:
	@DEBUG_VALUE: HAL_FLASHEx_ConfigLVEPin:status <- $r0
	.loc	4 677 7                         @ c:/Keil_v5\ARM\PACK\Keil\STM32L5xx_DFP\1.3.0\Drivers\STM32L5xx_HAL_Driver\Src\stm32l5xx_hal_flash_ex.c:677:7
	cbz	r0, .LBB7_3
.Ltmp240:
@ %bb.2:
	@DEBUG_VALUE: HAL_FLASHEx_ConfigLVEPin:ConfigLVE <- $r4
	@DEBUG_VALUE: HAL_FLASHEx_ConfigLVEPin:status <- $r0
	@DEBUG_VALUE: HAL_FLASHEx_ConfigLVEPin:status <- $r0
	.loc	4 0 7 is_stmt 0                 @ c:/Keil_v5\ARM\PACK\Keil\STM32L5xx_DFP\1.3.0\Drivers\STM32L5xx_HAL_Driver\Src\stm32l5xx_hal_flash_ex.c:0:7
	movs	r1, #0
.Ltmp241:
	.loc	4 703 3 is_stmt 1               @ c:/Keil_v5\ARM\PACK\Keil\STM32L5xx_DFP\1.3.0\Drivers\STM32L5xx_HAL_Driver\Src\stm32l5xx_hal_flash_ex.c:703:3
	strb	r1, [r5]
.Ltmp242:
	.loc	4 706 1                         @ c:/Keil_v5\ARM\PACK\Keil\STM32L5xx_DFP\1.3.0\Drivers\STM32L5xx_HAL_Driver\Src\stm32l5xx_hal_flash_ex.c:706:1
	pop	{r4, r5, r7, pc}
.Ltmp243:
	.p2align	2
.LBB7_3:
	@DEBUG_VALUE: HAL_FLASHEx_ConfigLVEPin:ConfigLVE <- $r4
	@DEBUG_VALUE: HAL_FLASHEx_ConfigLVEPin:status <- $r0
	.loc	4 680 9                         @ c:/Keil_v5\ARM\PACK\Keil\STM32L5xx_DFP\1.3.0\Drivers\STM32L5xx_HAL_Driver\Src\stm32l5xx_hal_flash_ex.c:680:9
	bl	HAL_PWREx_GetVoltageRange
.Ltmp244:
	.loc	4 680 9 is_stmt 0               @ c:/Keil_v5\ARM\PACK\Keil\STM32L5xx_DFP\1.3.0\Drivers\STM32L5xx_HAL_Driver\Src\stm32l5xx_hal_flash_ex.c:680:9
	cmp.w	r0, #1024
	bne	.LBB7_5
.Ltmp245:
@ %bb.4:
	@DEBUG_VALUE: HAL_FLASHEx_ConfigLVEPin:ConfigLVE <- $r4
	.loc	4 0 9                           @ c:/Keil_v5\ARM\PACK\Keil\STM32L5xx_DFP\1.3.0\Drivers\STM32L5xx_HAL_Driver\Src\stm32l5xx_hal_flash_ex.c:0:9
	movw	r0, #8192
	movw	r1, #63223
	movt	r0, #16386
	movt	r1, #62709
.Ltmp246:
	.loc	4 683 22 is_stmt 1              @ c:/Keil_v5\ARM\PACK\Keil\STM32L5xx_DFP\1.3.0\Drivers\STM32L5xx_HAL_Driver\Src\stm32l5xx_hal_flash_ex.c:683:22
	str	r1, [r0, #20]
	movw	r1, #11325
	movt	r1, #2587
	.loc	4 684 22                        @ c:/Keil_v5\ARM\PACK\Keil\STM32L5xx_DFP\1.3.0\Drivers\STM32L5xx_HAL_Driver\Src\stm32l5xx_hal_flash_ex.c:684:22
	str	r1, [r0, #20]
	.loc	4 687 7                         @ c:/Keil_v5\ARM\PACK\Keil\STM32L5xx_DFP\1.3.0\Drivers\STM32L5xx_HAL_Driver\Src\stm32l5xx_hal_flash_ex.c:687:7
	ldr	r1, [r0]
	bic	r1, r1, #32768
	orrs	r1, r4
	str	r1, [r0]
.Ltmp247:
	.loc	4 690 11                        @ c:/Keil_v5\ARM\PACK\Keil\STM32L5xx_DFP\1.3.0\Drivers\STM32L5xx_HAL_Driver\Src\stm32l5xx_hal_flash_ex.c:690:11
	ldr	r0, [r0]
	and	r0, r0, #32768
	.loc	4 690 48 is_stmt 0              @ c:/Keil_v5\ARM\PACK\Keil\STM32L5xx_DFP\1.3.0\Drivers\STM32L5xx_HAL_Driver\Src\stm32l5xx_hal_flash_ex.c:690:48
	subs	r0, r0, r4
	it	ne
	movne	r0, #1
.Ltmp248:
	@DEBUG_VALUE: HAL_FLASHEx_ConfigLVEPin:status <- $r0
	.loc	4 0 48                          @ c:/Keil_v5\ARM\PACK\Keil\STM32L5xx_DFP\1.3.0\Drivers\STM32L5xx_HAL_Driver\Src\stm32l5xx_hal_flash_ex.c:0:48
	movs	r1, #0
.Ltmp249:
	.loc	4 703 3 is_stmt 1               @ c:/Keil_v5\ARM\PACK\Keil\STM32L5xx_DFP\1.3.0\Drivers\STM32L5xx_HAL_Driver\Src\stm32l5xx_hal_flash_ex.c:703:3
	strb	r1, [r5]
.Ltmp250:
	.loc	4 706 1                         @ c:/Keil_v5\ARM\PACK\Keil\STM32L5xx_DFP\1.3.0\Drivers\STM32L5xx_HAL_Driver\Src\stm32l5xx_hal_flash_ex.c:706:1
	pop	{r4, r5, r7, pc}
.Ltmp251:
	.p2align	2
.LBB7_5:
	@DEBUG_VALUE: HAL_FLASHEx_ConfigLVEPin:ConfigLVE <- $r4
	.loc	4 0 1 is_stmt 0                 @ c:/Keil_v5\ARM\PACK\Keil\STM32L5xx_DFP\1.3.0\Drivers\STM32L5xx_HAL_Driver\Src\stm32l5xx_hal_flash_ex.c:0:1
	movs	r0, #1
.Ltmp252:
	@DEBUG_VALUE: HAL_FLASHEx_ConfigLVEPin:status <- $r0
	movs	r1, #0
.Ltmp253:
	.loc	4 703 3 is_stmt 1               @ c:/Keil_v5\ARM\PACK\Keil\STM32L5xx_DFP\1.3.0\Drivers\STM32L5xx_HAL_Driver\Src\stm32l5xx_hal_flash_ex.c:703:3
	strb	r1, [r5]
.Ltmp254:
	.loc	4 706 1                         @ c:/Keil_v5\ARM\PACK\Keil\STM32L5xx_DFP\1.3.0\Drivers\STM32L5xx_HAL_Driver\Src\stm32l5xx_hal_flash_ex.c:706:1
	pop	{r4, r5, r7, pc}
.Ltmp255:
.Lfunc_end7:
	.size	HAL_FLASHEx_ConfigLVEPin, .Lfunc_end7-HAL_FLASHEx_ConfigLVEPin
	.cfi_endproc
	.cantunwind
	.fnend
                                        @ -- End function
	.section	.text.HAL_FLASHEx_GetLVEPin,"ax",%progbits
	.hidden	HAL_FLASHEx_GetLVEPin           @ -- Begin function HAL_FLASHEx_GetLVEPin
	.globl	HAL_FLASHEx_GetLVEPin
	.p2align	2
	.type	HAL_FLASHEx_GetLVEPin,%function
	.code	16                              @ @HAL_FLASHEx_GetLVEPin
	.thumb_func
HAL_FLASHEx_GetLVEPin:
.Lfunc_begin8:
	.loc	4 717 0                         @ c:/Keil_v5\ARM\PACK\Keil\STM32L5xx_DFP\1.3.0\Drivers\STM32L5xx_HAL_Driver\Src\stm32l5xx_hal_flash_ex.c:717:0
	.fnstart
	.cfi_startproc
@ %bb.0:
	movw	r0, #8192
	movt	r0, #16386
.Ltmp256:
	.loc	4 718 18 prologue_end           @ c:/Keil_v5\ARM\PACK\Keil\STM32L5xx_DFP\1.3.0\Drivers\STM32L5xx_HAL_Driver\Src\stm32l5xx_hal_flash_ex.c:718:18
	ldr	r0, [r0]
	.loc	4 718 22 is_stmt 0              @ c:/Keil_v5\ARM\PACK\Keil\STM32L5xx_DFP\1.3.0\Drivers\STM32L5xx_HAL_Driver\Src\stm32l5xx_hal_flash_ex.c:718:22
	and	r0, r0, #32768
	.loc	4 718 3                         @ c:/Keil_v5\ARM\PACK\Keil\STM32L5xx_DFP\1.3.0\Drivers\STM32L5xx_HAL_Driver\Src\stm32l5xx_hal_flash_ex.c:718:3
	bx	lr
.Ltmp257:
.Lfunc_end8:
	.size	HAL_FLASHEx_GetLVEPin, .Lfunc_end8-HAL_FLASHEx_GetLVEPin
	.cfi_endproc
	.cantunwind
	.fnend
                                        @ -- End function
	.file	5 "c:/Keil_v5\\ARM\\PACK\\Keil\\STM32L5xx_DFP\\1.3.0\\Drivers\\STM32L5xx_HAL_Driver\\Inc" "stm32l5xx_hal_flash.h"
	.section	".note.GNU-stack","",%progbits
	.eabi_attribute	30, 2	@ Tag_ABI_optimization_goals
	.ARM_attribute	16, 1	@ Tag_AV_eba