	.text
	.syntax unified
	.eabi_attribute	67, "2.09"	@ Tag_conformance
	.cpu	cortex-m33
	.eabi_attribute	6, 17	@ Tag_CPU_arch
	.eabi_attribute	7, 77	@ Tag_CPU_arch_profile
	.eabi_attribute	8, 0	@ Tag_ARM_ISA_use
	.eabi_attribute	9, 3	@ Tag_THUMB_ISA_use
	.fpu	fpv5-sp-d16
	.eabi_attribute	27, 1	@ Tag_ABI_HardFP_use
	.eabi_attribute	36, 1	@ Tag_FP_HP_extension
	.eabi_attribute	46, 1	@ Tag_DSP_extension
	.eabi_attribute	34, 1	@ Tag_CPU_unaligned_access
	.eabi_attribute	17, 1	@ Tag_ABI_PCS_GOT_use
	.eabi_attribute	20, 2	@ Tag_ABI_FP_denormal
	.eabi_attribute	21, 0	@ Tag_ABI_FP_exceptions
	.eabi_attribute	23, 1	@ Tag_ABI_FP_number_model
	.eabi_attribute	24, 1	@ Tag_ABI_align_needed
	.eabi_attribute	25, 1	@ Tag_ABI_align_preserved
	.eabi_attribute	28, 1	@ Tag_ABI_VFP_args
	.eabi_attribute	38, 1	@ Tag_ABI_FP_16bit_format
	.eabi_attribute	18, 2	@ Tag_ABI_PCS_wchar_t
	.eabi_attribute	26, 1	@ Tag_ABI_enum_size
	.eabi_attribute	14, 0	@ Tag_ABI_PCS_R9_use
	.file	"stm32l5xx_hal_adc_ex.c"
	.file	1 "c:/Keil_v5\\ARM\\PACK\\Keil\\STM32L5xx_DFP\\1.3.0\\Drivers\\STM32L5xx_HAL_Driver\\Inc" "stm32l5xx_hal_def.h"
	.file	2 "c:/Keil_v5\\ARM\\PACK\\Keil\\STM32L5xx_DFP\\1.3.0\\Drivers\\CMSIS\\Device\\ST\\STM32L5xx\\Include" "stm32l5xx.h"
	.file	3 "c:/Keil_v5\\ARM\\PACK\\Keil\\STM32L5xx_DFP\\1.3.0\\Drivers\\STM32L5xx_HAL_Driver\\Inc" "stm32l5xx_hal_dma.h"
	.file	4 "c:\\Keil_v5\\ARM\\ARMCLANG\\Bin\\..\\include" "stdint.h"
	.file	5 "c:/Keil_v5\\ARM\\PACK\\Keil\\STM32L5xx_DFP\\1.3.0\\Drivers\\CMSIS\\Device\\ST\\STM32L5xx\\Include" "stm32l552xx.h"
	.section	.text.HAL_ADCEx_Calibration_Start,"ax",%progbits
	.hidden	HAL_ADCEx_Calibration_Start     @ -- Begin function HAL_ADCEx_Calibration_Start
	.globl	HAL_ADCEx_Calibration_Start
	.p2align	2
	.type	HAL_ADCEx_Calibration_Start,%function
	.code	16                              @ @HAL_ADCEx_Calibration_Start
	.thumb_func
HAL_ADCEx_Calibration_Start:
.Lfunc_begin0:
	.file	6 "c:/Keil_v5\\ARM\\PACK\\Keil\\STM32L5xx_DFP\\1.3.0\\Drivers\\STM32L5xx_HAL_Driver\\Src" "stm32l5xx_hal_adc_ex.c"
	.loc	6 129 0                         @ c:/Keil_v5\ARM\PACK\Keil\STM32L5xx_DFP\1.3.0\Drivers\STM32L5xx_HAL_Driver\Src\stm32l5xx_hal_adc_ex.c:129:0
	.fnstart
	.cfi_sections .debug_frame
	.cfi_startproc
@ %bb.0:
	@DEBUG_VALUE: HAL_ADCEx_Calibration_Start:hadc <- $r0
	@DEBUG_VALUE: HAL_ADCEx_Calibration_Start:SingleDiff <- $r1
	.save	{r4, r5, r7, lr}
	push	{r4, r5, r7, lr}
	.cfi_def_cfa_offset 16
	.cfi_offset lr, -4
	.cfi_offset r7, -8
	.cfi_offset r5, -12
	.cfi_offset r4, -16
	.pad	#8
	sub	sp, #8
	.cfi_def_cfa_offset 24
	mov	r4, r0
.Ltmp0:
	@DEBUG_VALUE: HAL_ADCEx_Calibration_Start:hadc <- $r4
	movs	r0, #0
	@DEBUG_VALUE: HAL_ADCEx_Calibration_Start:hadc <- $r4
.Ltmp1:
	.loc	6 131 17 prologue_end           @ c:/Keil_v5\ARM\PACK\Keil\STM32L5xx_DFP\1.3.0\Drivers\STM32L5xx_HAL_Driver\Src\stm32l5xx_hal_adc_ex.c:131:17
	str	r0, [sp, #4]
.Ltmp2:
	.loc	6 138 3                         @ c:/Keil_v5\ARM\PACK\Keil\STM32L5xx_DFP\1.3.0\Drivers\STM32L5xx_HAL_Driver\Src\stm32l5xx_hal_adc_ex.c:138:3
	ldrb.w	r0, [r4, #84]
.Ltmp3:
	.loc	6 138 3 is_stmt 0               @ c:/Keil_v5\ARM\PACK\Keil\STM32L5xx_DFP\1.3.0\Drivers\STM32L5xx_HAL_Driver\Src\stm32l5xx_hal_adc_ex.c:138:3
	cmp	r0, #1
	@DEBUG_VALUE: HAL_ADCEx_Calibration_Start:SingleDiff <- $r1
	ittt	eq
	moveq	r0, #2
.Ltmp4:
	.loc	6 192 1 is_stmt 1               @ c:/Keil_v5\ARM\PACK\Keil\STM32L5xx_DFP\1.3.0\Drivers\STM32L5xx_HAL_Driver\Src\stm32l5xx_hal_adc_ex.c:192:1
	addeq	sp, #8
	popeq	{r4, r5, r7, pc}
.Ltmp5:
.LBB0_1:
	@DEBUG_VALUE: HAL_ADCEx_Calibration_Start:SingleDiff <- $r1
	.loc	6 0 1 is_stmt 0                 @ c:/Keil_v5\ARM\PACK\Keil\STM32L5xx_DFP\1.3.0\Drivers\STM32L5xx_HAL_Driver\Src\stm32l5xx_hal_adc_ex.c:0:1
	movs	r0, #1
.Ltmp6:
	.loc	6 138 3 is_stmt 1               @ c:/Keil_v5\ARM\PACK\Keil\STM32L5xx_DFP\1.3.0\Drivers\STM32L5xx_HAL_Driver\Src\stm32l5xx_hal_adc_ex.c:138:3
	strb.w	r0, [r4, #84]
.Ltmp7:
	.loc	6 143 20                        @ c:/Keil_v5\ARM\PACK\Keil\STM32L5xx_DFP\1.3.0\Drivers\STM32L5xx_HAL_Driver\Src\stm32l5xx_hal_adc_ex.c:143:20
	mov	r0, r4
	mov	r5, r1
.Ltmp8:
	@DEBUG_VALUE: HAL_ADCEx_Calibration_Start:SingleDiff <- $r5
	@DEBUG_VALUE: HAL_ADCEx_Calibration_Start:SingleDiff <- $r5
	bl	ADC_Disable
.Ltmp9:
	@DEBUG_VALUE: HAL_ADCEx_Calibration_Start:tmp_hal_status <- $r0
	.loc	6 0 0 is_stmt 0                 @ c:/Keil_v5\ARM\PACK\Keil\STM32L5xx_DFP\1.3.0\Drivers\STM32L5xx_HAL_Driver\Src\stm32l5xx_hal_adc_ex.c:0:0
	ldr	r1, [r4, #88]
.Ltmp10:
	.loc	6 146 7 is_stmt 1               @ c:/Keil_v5\ARM\PACK\Keil\STM32L5xx_DFP\1.3.0\Drivers\STM32L5xx_HAL_Driver\Src\stm32l5xx_hal_adc_ex.c:146:7
	cbz	r0, .LBB0_3
.Ltmp11:
@ %bb.2:
	@DEBUG_VALUE: HAL_ADCEx_Calibration_Start:SingleDiff <- $r5
	@DEBUG_VALUE: HAL_ADCEx_Calibration_Start:tmp_hal_status <- $r0
	.loc	6 181 5                         @ c:/Keil_v5\ARM\PACK\Keil\STM32L5xx_DFP\1.3.0\Drivers\STM32L5xx_HAL_Driver\Src\stm32l5xx_hal_adc_ex.c:181:5
	orr	r1, r1, #16
	b	.LBB0_14
.Ltmp12:
	.p2align	2
.LBB0_3:
	@DEBUG_VALUE: HAL_ADCEx_Calibration_Start:SingleDiff <- $r5
	@DEBUG_VALUE: HAL_ADCEx_Calibration_Start:tmp_hal_status <- $r0
	.loc	6 0 5 is_stmt 0                 @ c:/Keil_v5\ARM\PACK\Keil\STM32L5xx_DFP\1.3.0\Drivers\STM32L5xx_HAL_Driver\Src\stm32l5xx_hal_adc_ex.c:0:5
	movw	r2, #4354
.Ltmp13:
	.loc	6 149 5 is_stmt 1               @ c:/Keil_v5\ARM\PACK\Keil\STM32L5xx_DFP\1.3.0\Drivers\STM32L5xx_HAL_Driver\Src\stm32l5xx_hal_adc_ex.c:149:5
	bics	r1, r2
	adds	r1, #2
	str	r1, [r4, #88]
	.loc	6 154 35                        @ c:/Keil_v5\ARM\PACK\Keil\STM32L5xx_DFP\1.3.0\Drivers\STM32L5xx_HAL_Driver\Src\stm32l5xx_hal_adc_ex.c:154:35
	ldr	r1, [r4]
.Ltmp14:
	@DEBUG_VALUE: LL_ADC_StartCalibration:SingleDiff <- $r5
	@DEBUG_VALUE: LL_ADC_StartCalibration:ADCx <- $r1
	.loc	6 0 35 is_stmt 0                @ c:/Keil_v5\ARM\PACK\Keil\STM32L5xx_DFP\1.3.0\Drivers\STM32L5xx_HAL_Driver\Src\stm32l5xx_hal_adc_ex.c:0:35
	movw	r3, #65472
.Ltmp15:
	.file	7 "c:/Keil_v5\\ARM\\PACK\\Keil\\STM32L5xx_DFP\\1.3.0\\Drivers\\STM32L5xx_HAL_Driver\\Inc" "stm32l5xx_ll_adc.h"
	.loc	7 5800 3 is_stmt 1              @ c:/Keil_v5\ARM\PACK\Keil\STM32L5xx_DFP\1.3.0\Drivers\STM32L5xx_HAL_Driver\Inc\stm32l5xx_ll_adc.h:5800:3
	ldr	r2, [r1, #8]
	movt	r3, #16383
	ands	r2, r3
	and	r3, r5, #1073741824
	add	r2, r3
	add.w	r3, r2, #-2147483648
	movw	r2, #52223
	movt	r2, #6
	str	r3, [r1, #8]
.Ltmp16:
.LBB0_4:                                @ =>This Inner Loop Header: Depth=1
	@DEBUG_VALUE: HAL_ADCEx_Calibration_Start:SingleDiff <- $r5
	@DEBUG_VALUE: HAL_ADCEx_Calibration_Start:tmp_hal_status <- $r0
	@DEBUG_VALUE: LL_ADC_IsCalibrationOnGoing:ADCx <- $r1
	.loc	7 5813 12                       @ c:/Keil_v5\ARM\PACK\Keil\STM32L5xx_DFP\1.3.0\Drivers\STM32L5xx_HAL_Driver\Inc\stm32l5xx_ll_adc.h:5813:12
	ldr	r3, [r1, #8]
.Ltmp17:
	.loc	6 157 5                         @ c:/Keil_v5\ARM\PACK\Keil\STM32L5xx_DFP\1.3.0\Drivers\STM32L5xx_HAL_Driver\Src\stm32l5xx_hal_adc_ex.c:157:5
	cmp.w	r3, #-1
	bgt	.LBB0_13
.Ltmp18:
@ %bb.5:                                @   in Loop: Header=BB0_4 Depth=1
	@DEBUG_VALUE: HAL_ADCEx_Calibration_Start:SingleDiff <- $r5
	@DEBUG_VALUE: HAL_ADCEx_Calibration_Start:tmp_hal_status <- $r0
	.loc	6 159 22                        @ c:/Keil_v5\ARM\PACK\Keil\STM32L5xx_DFP\1.3.0\Drivers\STM32L5xx_HAL_Driver\Src\stm32l5xx_hal_adc_ex.c:159:22
	ldr	r3, [sp, #4]
	adds	r3, #1
	str	r3, [sp, #4]
.Ltmp19:
	.loc	6 160 11                        @ c:/Keil_v5\ARM\PACK\Keil\STM32L5xx_DFP\1.3.0\Drivers\STM32L5xx_HAL_Driver\Src\stm32l5xx_hal_adc_ex.c:160:11
	ldr	r3, [sp, #4]
.Ltmp20:
	.loc	6 160 11 is_stmt 0              @ c:/Keil_v5\ARM\PACK\Keil\STM32L5xx_DFP\1.3.0\Drivers\STM32L5xx_HAL_Driver\Src\stm32l5xx_hal_adc_ex.c:160:11
	cmp	r3, r2
	bhi	.LBB0_12
.Ltmp21:
@ %bb.6:                                @   in Loop: Header=BB0_4 Depth=1
	@DEBUG_VALUE: HAL_ADCEx_Calibration_Start:SingleDiff <- $r5
	@DEBUG_VALUE: HAL_ADCEx_Calibration_Start:tmp_hal_status <- $r0
	@DEBUG_VALUE: LL_ADC_IsCalibrationOnGoing:ADCx <- $r1
	.loc	7 5813 12 is_stmt 1             @ c:/Keil_v5\ARM\PACK\Keil\STM32L5xx_DFP\1.3.0\Drivers\STM32L5xx_HAL_Driver\Inc\stm32l5xx_ll_adc.h:5813:12
	ldr	r3, [r1, #8]
.Ltmp22:
	.loc	6 157 5                         @ c:/Keil_v5\ARM\PACK\Keil\STM32L5xx_DFP\1.3.0\Drivers\STM32L5xx_HAL_Driver\Src\stm32l5xx_hal_adc_ex.c:157:5
	cmp.w	r3, #-1
	bgt	.LBB0_13
.Ltmp23:
@ %bb.7:                                @   in Loop: Header=BB0_4 Depth=1
	@DEBUG_VALUE: HAL_ADCEx_Calibration_Start:SingleDiff <- $r5
	@DEBUG_VALUE: HAL_ADCEx_Calibration_Start:tmp_hal_status <- $r0
	.loc	6 159 22                        @ c:/Keil_v5\ARM\PACK\Keil\STM32L5xx_DFP\1.3.0\Drivers\STM32L5xx_HAL_Driver\Src\stm32l5xx_hal_adc_ex.c:159:22
	ldr	r3, [sp, #4]
	adds	r3, #1
	str	r3, [sp, #4]
.Ltmp24:
	.loc	6 160 11                        @ c:/Keil_v5\ARM\PACK\Keil\STM32L5xx_DFP\1.3.0\Drivers\STM32L5xx_HAL_Driver\Src\stm32l5xx_hal_adc_ex.c:160:11
	ldr	r3, [sp, #4]
.Ltmp25:
	.loc	6 160 11 is_stmt 0              @ c:/Keil_v5\ARM\PACK\Keil\STM32L5xx_DFP\1.3.0\Drivers\STM32L5xx_HAL_Driver\Src\stm32l5xx_hal_adc_ex.c:160:11
	cmp	r3, r2
	bhi	.LBB0_12
.Ltmp26:
@ %bb.8:                                @   in Loop: Header=BB0_4 Depth=1
	@DEBUG_VALUE: HAL_ADCEx_Calibration_Start:SingleDiff <- $r5
	@DEBUG_VALUE: HAL_ADCEx_Calibration_Start:tmp_hal_status <- $r0
	@DEBUG_VALUE: LL_ADC_IsCalibrationOnGoing:ADCx <- $r1
	.loc	7 5813 12 is_stmt 1             @ c:/Keil_v5\ARM\PACK\Keil\STM32L5xx_DFP\1.3.0\Drivers\STM32L5xx_HAL_Driver\Inc\stm32l5xx_ll_adc.h:5813:12
	ldr	r3, [r1, #8]
.Ltmp27:
	.loc	6 157 5                         @ c:/Keil_v5\ARM\PACK\Keil\STM32L5xx_DFP\1.3.0\Drivers\STM32L5xx_HAL_Driver\Src\stm32l5xx_hal_adc_ex.c:157:5
	cmp.w	r3, #-1
	bgt	.LBB0_13
.Ltmp28:
@ %bb.9:                                @   in Loop: Header=BB0_4 Depth=1
	@DEBUG_VALUE: HAL_ADCEx_Calibration_Start:SingleDiff <- $r5
	@DEBUG_VALUE: HAL_ADCEx_Calibration_Start:tmp_hal_status <- $r0
	.loc	6 159 22                        @ c:/Keil_v5\ARM\PACK\Keil\STM32L5xx_DFP\1.3.0\Drivers\STM32L5xx_HAL_Driver\Src\stm32l5xx_hal_adc_ex.c:159:22
	ldr	r3, [sp, #4]
	adds	r3, #1
	str	r3, [sp, #4]
.Ltmp29:
	.loc	6 160 11                        @ c:/Keil_v5\ARM\PACK\Keil\STM32L5xx_DFP\1.3.0\Drivers\STM32L5xx_HAL_Driver\Src\stm32l5xx_hal_adc_ex.c:160:11
	ldr	r3, [sp, #4]
.Ltmp30:
	.loc	6 160 11 is_stmt 0              @ c:/Keil_v5\ARM\PACK\Keil\STM32L5xx_DFP\1.3.0\Drivers\STM32L5xx_HAL_Driver\Src\stm32l5xx_hal_adc_ex.c:160:11
	cmp	r3, r2
	bhi	.LBB0_12
.Ltmp31:
@ %bb.10:                               @   in Loop: Header=BB0_4 Depth=1
	@DEBUG_VALUE: HAL_ADCEx_Calibration_Start:SingleDiff <- $r5
	@DEBUG_VALUE: HAL_ADCEx_Calibration_Start:tmp_hal_status <- $r0
	@DEBUG_VALUE: LL_ADC_IsCalibrationOnGoing:ADCx <- $r1
	.loc	7 5813 12 is_stmt 1             @ c:/Keil_v5\ARM\PACK\Keil\STM32L5xx_DFP\1.3.0\Drivers\STM32L5xx_HAL_Driver\Inc\stm32l5xx_ll_adc.h:5813:12
	ldr	r3, [r1, #8]
.Ltmp32:
	.loc	6 157 5                         @ c:/Keil_v5\ARM\PACK\Keil\STM32L5xx_DFP\1.3.0\Drivers\STM32L5xx_HAL_Driver\Src\stm32l5xx_hal_adc_ex.c:157:5
	cmp.w	r3, #-1
	bgt	.LBB0_13
.Ltmp33:
@ %bb.11:                               @   in Loop: Header=BB0_4 Depth=1
	@DEBUG_VALUE: HAL_ADCEx_Calibration_Start:SingleDiff <- $r5
	@DEBUG_VALUE: HAL_ADCEx_Calibration_Start:tmp_hal_status <- $r0
	.loc	6 159 22                        @ c:/Keil_v5\ARM\PACK\Keil\STM32L5xx_DFP\1.3.0\Drivers\STM32L5xx_HAL_Driver\Src\stm32l5xx_hal_adc_ex.c:159:22
	ldr	r3, [sp, #4]
	adds	r3, #1
	str	r3, [sp, #4]
.Ltmp34:
	.loc	6 160 11                        @ c:/Keil_v5\ARM\PACK\Keil\STM32L5xx_DFP\1.3.0\Drivers\STM32L5xx_HAL_Driver\Src\stm32l5xx_hal_adc_ex.c:160:11
	ldr	r3, [sp, #4]
.Ltmp35:
	.loc	6 160 11 is_stmt 0              @ c:/Keil_v5\ARM\PACK\Keil\STM32L5xx_DFP\1.3.0\Drivers\STM32L5xx_HAL_Driver\Src\stm32l5xx_hal_adc_ex.c:160:11
	cmp	r3, r2
	bls	.LBB0_4
.Ltmp36:
.LBB0_12:
	@DEBUG_VALUE: HAL_ADCEx_Calibration_Start:SingleDiff <- $r5
	@DEBUG_VALUE: HAL_ADCEx_Calibration_Start:tmp_hal_status <- $r0
	.loc	6 163 9 is_stmt 1               @ c:/Keil_v5\ARM\PACK\Keil\STM32L5xx_DFP\1.3.0\Drivers\STM32L5xx_HAL_Driver\Src\stm32l5xx_hal_adc_ex.c:163:9
	ldr	r0, [r4, #88]
.Ltmp37:
	orr	r0, r0, #16
	bic	r1, r0, #2
	movs	r0, #1
	b	.LBB0_14
.Ltmp38:
	.p2align	2
.LBB0_13:
	@DEBUG_VALUE: HAL_ADCEx_Calibration_Start:SingleDiff <- $r5
	@DEBUG_VALUE: HAL_ADCEx_Calibration_Start:tmp_hal_status <- $r0
	.loc	6 175 5                         @ c:/Keil_v5\ARM\PACK\Keil\STM32L5xx_DFP\1.3.0\Drivers\STM32L5xx_HAL_Driver\Src\stm32l5xx_hal_adc_ex.c:175:5
	ldr	r1, [r4, #88]
	movs	r2, #1
	bfi	r1, r2, #0, #2
.Ltmp39:
.LBB0_14:
	@DEBUG_VALUE: HAL_ADCEx_Calibration_Start:SingleDiff <- $r5
	.loc	6 0 0 is_stmt 0                 @ c:/Keil_v5\ARM\PACK\Keil\STM32L5xx_DFP\1.3.0\Drivers\STM32L5xx_HAL_Driver\Src\stm32l5xx_hal_adc_ex.c:0:0
	str	r1, [r4, #88]
	movs	r1, #0
.Ltmp40:
	strb.w	r1, [r4, #84]
	.loc	6 192 1 is_stmt 1               @ c:/Keil_v5\ARM\PACK\Keil\STM32L5xx_DFP\1.3.0\Drivers\STM32L5xx_HAL_Driver\Src\stm32l5xx_hal_adc_ex.c:192:1
	add	sp, #8
	pop	{r4, r5, r7, pc}
.Ltmp41:
.Lfunc_end0:
	.size	HAL_ADCEx_Calibration_Start, .Lfunc_end0-HAL_ADCEx_Calibration_Start
	.cfi_endproc
	.cantunwind
	.fnend
                                        @ -- End function
	.section	.text.HAL_ADCEx_Calibration_GetValue,"ax",%progbits
	.hidden	HAL_ADCEx_Calibration_GetValue  @ -- Begin function HAL_ADCEx_Calibration_GetValue
	.globl	HAL_ADCEx_Calibration_GetValue
	.p2align	2
	.type	HAL_ADCEx_Calibration_GetValue,%function
	.code	16                              @ @HAL_ADCEx_Calibration_GetValue
	.thumb_func
HAL_ADCEx_Calibration_GetValue:
.Lfunc_begin1:
	.loc	6 203 0                         @ c:/Keil_v5\ARM\PACK\Keil\STM32L5xx_DFP\1.3.0\Drivers\STM32L5xx_HAL_Driver\Src\stm32l5xx_hal_adc_ex.c:203:0
	.fnstart
	.cfi_startproc
@ %bb.0:
	@DEBUG_VALUE: HAL_ADCEx_Calibration_GetValue:hadc <- $r0
	@DEBUG_VALUE: HAL_ADCEx_Calibration_GetValue:hadc <- $r0
	@DEBUG_VALUE: HAL_ADCEx_Calibration_GetValue:SingleDiff <- $r1
	.loc	6 209 44 prologue_end           @ c:/Keil_v5\ARM\PACK\Keil\STM32L5xx_DFP\1.3.0\Drivers\STM32L5xx_HAL_Driver\Src\stm32l5xx_hal_adc_ex.c:209:44
	ldr	r0, [r0]
.Ltmp42:
	@DEBUG_VALUE: HAL_ADCEx_Calibration_GetValue:hadc <- [DW_OP_LLVM_entry_value 1] $r0
	@DEBUG_VALUE: LL_ADC_GetCalibrationFactor:SingleDiff <- undef
	@DEBUG_VALUE: LL_ADC_GetCalibrationFactor:ADCx <- $r0
	.loc	6 0 44 is_stmt 0                @ c:/Keil_v5\ARM\PACK\Keil\STM32L5xx_DFP\1.3.0\Drivers\STM32L5xx_HAL_Driver\Src\stm32l5xx_hal_adc_ex.c:0:44
	movs	r2, #16
.Ltmp43:
	.loc	7 2502 21 is_stmt 1             @ c:/Keil_v5\ARM\PACK\Keil\STM32L5xx_DFP\1.3.0\Drivers\STM32L5xx_HAL_Driver\Inc\stm32l5xx_ll_adc.h:2502:21
	ldr.w	r0, [r0, #180]
.Ltmp44:
	@DEBUG_VALUE: HAL_ADCEx_Calibration_GetValue:SingleDiff <- $r1
	ands	r0, r1
	.loc	7 2503 132                      @ c:/Keil_v5\ARM\PACK\Keil\STM32L5xx_DFP\1.3.0\Drivers\STM32L5xx_HAL_Driver\Inc\stm32l5xx_ll_adc.h:2503:132
	and.w	r1, r2, r1, lsr #12
.Ltmp45:
	@DEBUG_VALUE: HAL_ADCEx_Calibration_GetValue:SingleDiff <- [DW_OP_LLVM_entry_value 1] $r1
	.loc	7 2502 21                       @ c:/Keil_v5\ARM\PACK\Keil\STM32L5xx_DFP\1.3.0\Drivers\STM32L5xx_HAL_Driver\Inc\stm32l5xx_ll_adc.h:2502:21
	and	r0, r0, #8323199
	.loc	7 2503 79                       @ c:/Keil_v5\ARM\PACK\Keil\STM32L5xx_DFP\1.3.0\Drivers\STM32L5xx_HAL_Driver\Inc\stm32l5xx_ll_adc.h:2503:79
	lsrs	r0, r1
.Ltmp46:
	.loc	6 209 3                         @ c:/Keil_v5\ARM\PACK\Keil\STM32L5xx_DFP\1.3.0\Drivers\STM32L5xx_HAL_Driver\Src\stm32l5xx_hal_adc_ex.c:209:3
	bx	lr
.Ltmp47:
.Lfunc_end1:
	.size	HAL_ADCEx_Calibration_GetValue, .Lfunc_end1-HAL_ADCEx_Calibration_GetValue
	.cfi_endproc
	.cantunwind
	.fnend
                                        @ -- End function
	.section	.text.HAL_ADCEx_Calibration_SetValue,"ax",%progbits
	.hidden	HAL_ADCEx_Calibration_SetValue  @ -- Begin function HAL_ADCEx_Calibration_SetValue
	.globl	HAL_ADCEx_Calibration_SetValue
	.p2align	2
	.type	HAL_ADCEx_Calibration_SetValue,%function
	.code	16                              @ @HAL_ADCEx_Calibration_SetValue
	.thumb_func
HAL_ADCEx_Calibration_SetValue:
.Lfunc_begin2:
	.loc	6 224 0                         @ c:/Keil_v5\ARM\PACK\Keil\STM32L5xx_DFP\1.3.0\Drivers\STM32L5xx_HAL_Driver\Src\stm32l5xx_hal_adc_ex.c:224:0
	.fnstart
	.cfi_startproc
@ %bb.0:
	@DEBUG_VALUE: HAL_ADCEx_Calibration_SetValue:hadc <- $r0
	@DEBUG_VALUE: HAL_ADCEx_Calibration_SetValue:hadc <- $r0
	@DEBUG_VALUE: HAL_ADCEx_Calibration_SetValue:SingleDiff <- $r1
	@DEBUG_VALUE: HAL_ADCEx_Calibration_SetValue:CalibrationFactor <- $r2
	.save	{r4, lr}
	push	{r4, lr}
	.cfi_def_cfa_offset 8
	.cfi_offset lr, -4
	.cfi_offset r4, -8
.Ltmp48:
	@DEBUG_VALUE: HAL_ADCEx_Calibration_SetValue:tmp_hal_status <- 0
	.loc	6 235 3 prologue_end            @ c:/Keil_v5\ARM\PACK\Keil\STM32L5xx_DFP\1.3.0\Drivers\STM32L5xx_HAL_Driver\Src\stm32l5xx_hal_adc_ex.c:235:3
	ldrb.w	r3, [r0, #84]
.Ltmp49:
	@DEBUG_VALUE: HAL_ADCEx_Calibration_SetValue:CalibrationFactor <- $r2
	.loc	6 235 3 is_stmt 0               @ c:/Keil_v5\ARM\PACK\Keil\STM32L5xx_DFP\1.3.0\Drivers\STM32L5xx_HAL_Driver\Src\stm32l5xx_hal_adc_ex.c:235:3
	cmp	r3, #1
	@DEBUG_VALUE: HAL_ADCEx_Calibration_SetValue:SingleDiff <- $r1
	itt	eq
	moveq	r0, #2
.Ltmp50:
	@DEBUG_VALUE: HAL_ADCEx_Calibration_SetValue:hadc <- [DW_OP_LLVM_entry_value 1] $r0
	.loc	6 266 1 is_stmt 1               @ c:/Keil_v5\ARM\PACK\Keil\STM32L5xx_DFP\1.3.0\Drivers\STM32L5xx_HAL_Driver\Src\stm32l5xx_hal_adc_ex.c:266:1
	popeq	{r4, pc}
.Ltmp51:
.LBB2_1:
	@DEBUG_VALUE: HAL_ADCEx_Calibration_SetValue:CalibrationFactor <- $r2
	@DEBUG_VALUE: HAL_ADCEx_Calibration_SetValue:SingleDiff <- $r1
	@DEBUG_VALUE: HAL_ADCEx_Calibration_SetValue:hadc <- [DW_OP_LLVM_entry_value 1] $r0
	@DEBUG_VALUE: HAL_ADCEx_Calibration_SetValue:tmp_hal_status <- 0
	.loc	6 239 81                        @ c:/Keil_v5\ARM\PACK\Keil\STM32L5xx_DFP\1.3.0\Drivers\STM32L5xx_HAL_Driver\Src\stm32l5xx_hal_adc_ex.c:239:81
	ldr	r3, [r0]
.Ltmp52:
	@DEBUG_VALUE: LL_ADC_REG_IsConversionOngoing:ADCx <- $r3
	.loc	7 5880 12                       @ c:/Keil_v5\ARM\PACK\Keil\STM32L5xx_DFP\1.3.0\Drivers\STM32L5xx_HAL_Driver\Inc\stm32l5xx_ll_adc.h:5880:12
	ldr.w	r12, [r3, #8]
.Ltmp53:
	@DEBUG_VALUE: LL_ADC_INJ_IsConversionOngoing:ADCx <- $r3
	@DEBUG_VALUE: HAL_ADCEx_Calibration_SetValue:tmp_adc_is_conversion_on_going_regular <- [DW_OP_constu 1, DW_OP_and, DW_OP_stack_value] undef
	.loc	7 6063 12                       @ c:/Keil_v5\ARM\PACK\Keil\STM32L5xx_DFP\1.3.0\Drivers\STM32L5xx_HAL_Driver\Inc\stm32l5xx_ll_adc.h:6063:12
	ldr.w	lr, [r3, #8]
.Ltmp54:
	@DEBUG_VALUE: LL_ADC_IsEnabled:ADCx <- $r3
	@DEBUG_VALUE: HAL_ADCEx_Calibration_SetValue:tmp_adc_is_conversion_on_going_injected <- [DW_OP_constu 1, DW_OP_and, DW_OP_stack_value] undef
	.loc	7 5758 12                       @ c:/Keil_v5\ARM\PACK\Keil\STM32L5xx_DFP\1.3.0\Drivers\STM32L5xx_HAL_Driver\Inc\stm32l5xx_ll_adc.h:5758:12
	ldr	r4, [r3, #8]
.Ltmp55:
	.loc	6 243 7                         @ c:/Keil_v5\ARM\PACK\Keil\STM32L5xx_DFP\1.3.0\Drivers\STM32L5xx_HAL_Driver\Src\stm32l5xx_hal_adc_ex.c:243:7
	lsls	r4, r4, #31
	beq	.LBB2_4
.Ltmp56:
@ %bb.2:
	@DEBUG_VALUE: HAL_ADCEx_Calibration_SetValue:CalibrationFactor <- $r2
	@DEBUG_VALUE: HAL_ADCEx_Calibration_SetValue:SingleDiff <- $r1
	@DEBUG_VALUE: HAL_ADCEx_Calibration_SetValue:hadc <- [DW_OP_LLVM_entry_value 1] $r0
	@DEBUG_VALUE: HAL_ADCEx_Calibration_SetValue:tmp_hal_status <- 0
	.loc	6 0 0 is_stmt 0                 @ c:/Keil_v5\ARM\PACK\Keil\STM32L5xx_DFP\1.3.0\Drivers\STM32L5xx_HAL_Driver\Src\stm32l5xx_hal_adc_ex.c:0:0
	lsr.w	r4, lr, #3
.Ltmp57:
	@DEBUG_VALUE: HAL_ADCEx_Calibration_SetValue:tmp_adc_is_conversion_on_going_injected <- [DW_OP_constu 1, DW_OP_and, DW_OP_stack_value] $r4
	.loc	6 243 7                         @ c:/Keil_v5\ARM\PACK\Keil\STM32L5xx_DFP\1.3.0\Drivers\STM32L5xx_HAL_Driver\Src\stm32l5xx_hal_adc_ex.c:243:7
	orr.w	r4, r4, r12, lsr #2
.Ltmp58:
	ands	r4, r4, #1
	bne	.LBB2_4
.Ltmp59:
@ %bb.3:
	@DEBUG_VALUE: HAL_ADCEx_Calibration_SetValue:CalibrationFactor <- $r2
	@DEBUG_VALUE: HAL_ADCEx_Calibration_SetValue:SingleDiff <- $r1
	@DEBUG_VALUE: HAL_ADCEx_Calibration_SetValue:hadc <- [DW_OP_LLVM_entry_value 1] $r0
	@DEBUG_VALUE: HAL_ADCEx_Calibration_SetValue:tmp_hal_status <- 0
	@DEBUG_VALUE: LL_ADC_SetCalibrationFactor:ADCx <- $r3
	@DEBUG_VALUE: LL_ADC_SetCalibrationFactor:SingleDiff <- $r1
	@DEBUG_VALUE: LL_ADC_SetCalibrationFactor:CalibrationFactor <- $r2
	.loc	6 0 7                           @ c:/Keil_v5\ARM\PACK\Keil\STM32L5xx_DFP\1.3.0\Drivers\STM32L5xx_HAL_Driver\Src\stm32l5xx_hal_adc_ex.c:0:7
	mvn	r4, #8323199
.Ltmp60:
	.loc	7 2475 3 is_stmt 1              @ c:/Keil_v5\ARM\PACK\Keil\STM32L5xx_DFP\1.3.0\Drivers\STM32L5xx_HAL_Driver\Inc\stm32l5xx_ll_adc.h:2475:3
	orn	lr, r4, r1
	mvns	r4, r1
	and.w	r1, r4, r1, lsr #12
.Ltmp61:
	@DEBUG_VALUE: HAL_ADCEx_Calibration_SetValue:SingleDiff <- [DW_OP_LLVM_entry_value 1] $r1
	ldr	r12, [r3, #180]!
.Ltmp62:
	and	r1, r1, #16
	and.w	r4, r12, lr
	lsl.w	r1, r2, r1
	orr.w	r2, r4, r1
.Ltmp63:
	@DEBUG_VALUE: HAL_ADCEx_Calibration_SetValue:CalibrationFactor <- [DW_OP_LLVM_entry_value 1] $r2
	.loc	7 0 3 is_stmt 0                 @ c:/Keil_v5\ARM\PACK\Keil\STM32L5xx_DFP\1.3.0\Drivers\STM32L5xx_HAL_Driver\Inc\stm32l5xx_ll_adc.h:0:3
	movs	r1, #0
	b	.LBB2_5
.Ltmp64:
	.p2align	2
.LBB2_4:
	@DEBUG_VALUE: HAL_ADCEx_Calibration_SetValue:CalibrationFactor <- $r2
	@DEBUG_VALUE: HAL_ADCEx_Calibration_SetValue:SingleDiff <- $r1
	@DEBUG_VALUE: HAL_ADCEx_Calibration_SetValue:hadc <- [DW_OP_LLVM_entry_value 1] $r0
	@DEBUG_VALUE: HAL_ADCEx_Calibration_SetValue:tmp_hal_status <- 0
	.loc	6 253 5 is_stmt 1               @ c:/Keil_v5\ARM\PACK\Keil\STM32L5xx_DFP\1.3.0\Drivers\STM32L5xx_HAL_Driver\Src\stm32l5xx_hal_adc_ex.c:253:5
	ldr	r1, [r0, #88]
.Ltmp65:
	@DEBUG_VALUE: HAL_ADCEx_Calibration_SetValue:SingleDiff <- [DW_OP_LLVM_entry_value 1] $r1
	.loc	6 255 5                         @ c:/Keil_v5\ARM\PACK\Keil\STM32L5xx_DFP\1.3.0\Drivers\STM32L5xx_HAL_Driver\Src\stm32l5xx_hal_adc_ex.c:255:5
	mov	r3, r0
	.loc	6 253 5                         @ c:/Keil_v5\ARM\PACK\Keil\STM32L5xx_DFP\1.3.0\Drivers\STM32L5xx_HAL_Driver\Src\stm32l5xx_hal_adc_ex.c:253:5
	orr	r1, r1, #32
	str	r1, [r0, #88]
	.loc	6 255 5                         @ c:/Keil_v5\ARM\PACK\Keil\STM32L5xx_DFP\1.3.0\Drivers\STM32L5xx_HAL_Driver\Src\stm32l5xx_hal_adc_ex.c:255:5
	ldr	r1, [r3, #92]!
	orr	r2, r1, #1
.Ltmp66:
	@DEBUG_VALUE: HAL_ADCEx_Calibration_SetValue:CalibrationFactor <- [DW_OP_LLVM_entry_value 1] $r2
	.loc	6 0 5 is_stmt 0                 @ c:/Keil_v5\ARM\PACK\Keil\STM32L5xx_DFP\1.3.0\Drivers\STM32L5xx_HAL_Driver\Src\stm32l5xx_hal_adc_ex.c:0:5
	movs	r1, #1
.Ltmp67:
	@DEBUG_VALUE: HAL_ADCEx_Calibration_SetValue:tmp_hal_status <- 1
.LBB2_5:
	@DEBUG_VALUE: HAL_ADCEx_Calibration_SetValue:CalibrationFactor <- [DW_OP_LLVM_entry_value 1] $r2
	@DEBUG_VALUE: HAL_ADCEx_Calibration_SetValue:SingleDiff <- [DW_OP_LLVM_entry_value 1] $r1
	@DEBUG_VALUE: HAL_ADCEx_Calibration_SetValue:hadc <- [DW_OP_LLVM_entry_value 1] $r0
	str	r2, [r3]
	movs	r2, #0
.Ltmp68:
	@DEBUG_VALUE: HAL_ADCEx_Calibration_SetValue:tmp_hal_status <- $r1
	.loc	6 262 3 is_stmt 1               @ c:/Keil_v5\ARM\PACK\Keil\STM32L5xx_DFP\1.3.0\Drivers\STM32L5xx_HAL_Driver\Src\stm32l5xx_hal_adc_ex.c:262:3
	strb.w	r2, [r0, #84]
.Ltmp69:
	.loc	6 266 1                         @ c:/Keil_v5\ARM\PACK\Keil\STM32L5xx_DFP\1.3.0\Drivers\STM32L5xx_HAL_Driver\Src\stm32l5xx_hal_adc_ex.c:266:1
	mov	r0, r1
	pop	{r4, pc}
.Ltmp70:
.Lfunc_end2:
	.size	HAL_ADCEx_Calibration_SetValue, .Lfunc_end2-HAL_ADCEx_Calibration_SetValue
	.cfi_endproc
	.cantunwind
	.fnend
                                        @ -- End function
	.section	.text.HAL_ADCEx_InjectedStart,"ax",%progbits
	.hidden	HAL_ADCEx_InjectedStart         @ -- Begin function HAL_ADCEx_InjectedStart
	.globl	HAL_ADCEx_InjectedStart
	.p2align	2
	.type	HAL_ADCEx_InjectedStart,%function
	.code	16                              @ @HAL_ADCEx_InjectedStart
	.thumb_func
HAL_ADCEx_InjectedStart:
.Lfunc_begin3:
	.loc	6 280 0                         @ c:/Keil_v5\ARM\PACK\Keil\STM32L5xx_DFP\1.3.0\Drivers\STM32L5xx_HAL_Driver\Src\stm32l5xx_hal_adc_ex.c:280:0
	.fnstart
	.cfi_startproc
@ %bb.0:
	@DEBUG_VALUE: HAL_ADCEx_InjectedStart:hadc <- $r0
	.save	{r4, r5, r6, lr}
	push	{r4, r5, r6, lr}
	.cfi_def_cfa_offset 16
	.cfi_offset lr, -4
	.cfi_offset r6, -8
	.cfi_offset r5, -12
	.cfi_offset r4, -16
	movw	r5, #32768
	movt	r5, #16898
.Ltmp71:
	@DEBUG_VALUE: HAL_ADCEx_InjectedStart:hadc <- $r4
	mov	r4, r0
.Ltmp72:
	.loc	7 5421 21 prologue_end          @ c:/Keil_v5\ARM\PACK\Keil\STM32L5xx_DFP\1.3.0\Drivers\STM32L5xx_HAL_Driver\Inc\stm32l5xx_ll_adc.h:5421:21
	ldr.w	r6, [r5, #776]
.Ltmp73:
	@DEBUG_VALUE: HAL_ADCEx_InjectedStart:tmp_multimode_config <- undef
	.loc	6 290 44                        @ c:/Keil_v5\ARM\PACK\Keil\STM32L5xx_DFP\1.3.0\Drivers\STM32L5xx_HAL_Driver\Src\stm32l5xx_hal_adc_ex.c:290:44
	ldr	r0, [r0]
.Ltmp74:
	@DEBUG_VALUE: LL_ADC_INJ_IsConversionOngoing:ADCx <- $r0
	.loc	7 6063 12                       @ c:/Keil_v5\ARM\PACK\Keil\STM32L5xx_DFP\1.3.0\Drivers\STM32L5xx_HAL_Driver\Inc\stm32l5xx_ll_adc.h:6063:12
	ldr	r1, [r0, #8]
.Ltmp75:
	.loc	6 290 7                         @ c:/Keil_v5\ARM\PACK\Keil\STM32L5xx_DFP\1.3.0\Drivers\STM32L5xx_HAL_Driver\Src\stm32l5xx_hal_adc_ex.c:290:7
	lsls	r1, r1, #28
	@DEBUG_VALUE: LL_ADC_GetMultimode:ADCxy_COMMON <- undef
	itt	mi
	movmi	r0, #2
.Ltmp76:
	.loc	6 410 1                         @ c:/Keil_v5\ARM\PACK\Keil\STM32L5xx_DFP\1.3.0\Drivers\STM32L5xx_HAL_Driver\Src\stm32l5xx_hal_adc_ex.c:410:1
	popmi	{r4, r5, r6, pc}
.Ltmp77:
.LBB3_1:
	@DEBUG_VALUE: HAL_ADCEx_InjectedStart:tmp_multimode_config <- undef
	.loc	6 303 33                        @ c:/Keil_v5\ARM\PACK\Keil\STM32L5xx_DFP\1.3.0\Drivers\STM32L5xx_HAL_Driver\Src\stm32l5xx_hal_adc_ex.c:303:33
	ldr	r1, [r0, #12]
.Ltmp78:
	@DEBUG_VALUE: HAL_ADCEx_InjectedStart:tmp_config_injected_queue <- [DW_OP_constu 18446744071562067968, DW_OP_and, DW_OP_stack_value] $r1
	.loc	6 305 10                        @ c:/Keil_v5\ARM\PACK\Keil\STM32L5xx_DFP\1.3.0\Drivers\STM32L5xx_HAL_Driver\Src\stm32l5xx_hal_adc_ex.c:305:10
	ldr	r0, [r0, #76]
	.loc	6 306 9                         @ c:/Keil_v5\ARM\PACK\Keil\STM32L5xx_DFP\1.3.0\Drivers\STM32L5xx_HAL_Driver\Src\stm32l5xx_hal_adc_ex.c:306:9
	cmp	r1, #0
	bmi	.LBB3_4
.Ltmp79:
@ %bb.2:
	@DEBUG_VALUE: HAL_ADCEx_InjectedStart:tmp_config_injected_queue <- [DW_OP_constu 18446744071562067968, DW_OP_and, DW_OP_stack_value] $r1
	.loc	6 0 0 is_stmt 0                 @ c:/Keil_v5\ARM\PACK\Keil\STM32L5xx_DFP\1.3.0\Drivers\STM32L5xx_HAL_Driver\Src\stm32l5xx_hal_adc_ex.c:0:0
	ands	r0, r0, #192
	.loc	6 306 9                         @ c:/Keil_v5\ARM\PACK\Keil\STM32L5xx_DFP\1.3.0\Drivers\STM32L5xx_HAL_Driver\Src\stm32l5xx_hal_adc_ex.c:306:9
	bne	.LBB3_4
.Ltmp80:
@ %bb.3:
	@DEBUG_VALUE: HAL_ADCEx_InjectedStart:tmp_config_injected_queue <- [DW_OP_constu 18446744071562067968, DW_OP_and, DW_OP_stack_value] $r1
	.loc	6 309 7 is_stmt 1               @ c:/Keil_v5\ARM\PACK\Keil\STM32L5xx_DFP\1.3.0\Drivers\STM32L5xx_HAL_Driver\Src\stm32l5xx_hal_adc_ex.c:309:7
	ldr	r0, [r4, #88]
	orr	r0, r0, #32
	str	r0, [r4, #88]
	movs	r0, #1
.Ltmp81:
	.loc	6 410 1                         @ c:/Keil_v5\ARM\PACK\Keil\STM32L5xx_DFP\1.3.0\Drivers\STM32L5xx_HAL_Driver\Src\stm32l5xx_hal_adc_ex.c:410:1
	pop	{r4, r5, r6, pc}
.Ltmp82:
	.p2align	2
.LBB3_4:
	@DEBUG_VALUE: HAL_ADCEx_InjectedStart:tmp_config_injected_queue <- [DW_OP_constu 18446744071562067968, DW_OP_and, DW_OP_stack_value] $r1
	@DEBUG_VALUE: HAL_ADCEx_InjectedStart:tmp_multimode_config <- undef
	.loc	6 314 5                         @ c:/Keil_v5\ARM\PACK\Keil\STM32L5xx_DFP\1.3.0\Drivers\STM32L5xx_HAL_Driver\Src\stm32l5xx_hal_adc_ex.c:314:5
	ldrb.w	r0, [r4, #84]
.Ltmp83:
	.loc	6 314 5 is_stmt 0               @ c:/Keil_v5\ARM\PACK\Keil\STM32L5xx_DFP\1.3.0\Drivers\STM32L5xx_HAL_Driver\Src\stm32l5xx_hal_adc_ex.c:314:5
	cmp	r0, #1
	itt	eq
	moveq	r0, #2
.Ltmp84:
	.loc	6 410 1 is_stmt 1               @ c:/Keil_v5\ARM\PACK\Keil\STM32L5xx_DFP\1.3.0\Drivers\STM32L5xx_HAL_Driver\Src\stm32l5xx_hal_adc_ex.c:410:1
	popeq	{r4, r5, r6, pc}
.Ltmp85:
.LBB3_5:
	@DEBUG_VALUE: HAL_ADCEx_InjectedStart:tmp_config_injected_queue <- [DW_OP_constu 18446744071562067968, DW_OP_and, DW_OP_stack_value] $r1
	@DEBUG_VALUE: HAL_ADCEx_InjectedStart:tmp_multimode_config <- undef
	.loc	6 0 1 is_stmt 0                 @ c:/Keil_v5\ARM\PACK\Keil\STM32L5xx_DFP\1.3.0\Drivers\STM32L5xx_HAL_Driver\Src\stm32l5xx_hal_adc_ex.c:0:1
	movs	r0, #1
.Ltmp86:
	.loc	6 314 5 is_stmt 1               @ c:/Keil_v5\ARM\PACK\Keil\STM32L5xx_DFP\1.3.0\Drivers\STM32L5xx_HAL_Driver\Src\stm32l5xx_hal_adc_ex.c:314:5
	strb.w	r0, [r4, #84]
.Ltmp87:
	.loc	6 317 22                        @ c:/Keil_v5\ARM\PACK\Keil\STM32L5xx_DFP\1.3.0\Drivers\STM32L5xx_HAL_Driver\Src\stm32l5xx_hal_adc_ex.c:317:22
	mov	r0, r4
	bl	ADC_Enable
.Ltmp88:
	@DEBUG_VALUE: HAL_ADCEx_InjectedStart:tmp_hal_status <- $r0
	.loc	6 320 9                         @ c:/Keil_v5\ARM\PACK\Keil\STM32L5xx_DFP\1.3.0\Drivers\STM32L5xx_HAL_Driver\Src\stm32l5xx_hal_adc_ex.c:320:9
	cbz	r0, .LBB3_7
.Ltmp89:
@ %bb.6:
	@DEBUG_VALUE: HAL_ADCEx_InjectedStart:tmp_hal_status <- $r0
	.loc	6 0 9 is_stmt 0                 @ c:/Keil_v5\ARM\PACK\Keil\STM32L5xx_DFP\1.3.0\Drivers\STM32L5xx_HAL_Driver\Src\stm32l5xx_hal_adc_ex.c:0:9
	movs	r1, #0
.Ltmp90:
	.loc	6 404 7 is_stmt 1               @ c:/Keil_v5\ARM\PACK\Keil\STM32L5xx_DFP\1.3.0\Drivers\STM32L5xx_HAL_Driver\Src\stm32l5xx_hal_adc_ex.c:404:7
	strb.w	r1, [r4, #84]
.Ltmp91:
	.loc	6 410 1                         @ c:/Keil_v5\ARM\PACK\Keil\STM32L5xx_DFP\1.3.0\Drivers\STM32L5xx_HAL_Driver\Src\stm32l5xx_hal_adc_ex.c:410:1
	pop	{r4, r5, r6, pc}
.Ltmp92:
	.p2align	2
.LBB3_7:
	@DEBUG_VALUE: HAL_ADCEx_InjectedStart:tmp_hal_status <- $r0
	.loc	6 323 18                        @ c:/Keil_v5\ARM\PACK\Keil\STM32L5xx_DFP\1.3.0\Drivers\STM32L5xx_HAL_Driver\Src\stm32l5xx_hal_adc_ex.c:323:18
	ldr	r0, [r4, #88]
.Ltmp93:
	.loc	6 0 18 is_stmt 0                @ c:/Keil_v5\ARM\PACK\Keil\STM32L5xx_DFP\1.3.0\Drivers\STM32L5xx_HAL_Driver\Src\stm32l5xx_hal_adc_ex.c:0:18
	movw	r2, #12289
.Ltmp94:
	.loc	6 323 11                        @ c:/Keil_v5\ARM\PACK\Keil\STM32L5xx_DFP\1.3.0\Drivers\STM32L5xx_HAL_Driver\Src\stm32l5xx_hal_adc_ex.c:323:11
	lsls	r0, r0, #23
.Ltmp95:
	.loc	6 326 9 is_stmt 1               @ c:/Keil_v5\ARM\PACK\Keil\STM32L5xx_DFP\1.3.0\Drivers\STM32L5xx_HAL_Driver\Src\stm32l5xx_hal_adc_ex.c:326:9
	itte	mi
	ldrmi	r1, [r4, #92]
	bicmi	r1, r1, #8
	movpl	r1, #0
.Ltmp96:
	.loc	6 0 0 is_stmt 0                 @ c:/Keil_v5\ARM\PACK\Keil\STM32L5xx_DFP\1.3.0\Drivers\STM32L5xx_HAL_Driver\Src\stm32l5xx_hal_adc_ex.c:0:0
	str	r1, [r4, #92]
.Ltmp97:
	.loc	6 337 7 is_stmt 1               @ c:/Keil_v5\ARM\PACK\Keil\STM32L5xx_DFP\1.3.0\Drivers\STM32L5xx_HAL_Driver\Src\stm32l5xx_hal_adc_ex.c:337:7
	ldr	r1, [r4, #88]
	and	r0, r6, #31
.Ltmp98:
	@DEBUG_VALUE: HAL_ADCEx_InjectedStart:tmp_multimode_config <- $r0
	bics	r1, r2
	add.w	r1, r1, #4096
	str	r1, [r4, #88]
.Ltmp99:
	.loc	6 345 12                        @ c:/Keil_v5\ARM\PACK\Keil\STM32L5xx_DFP\1.3.0\Drivers\STM32L5xx_HAL_Driver\Src\stm32l5xx_hal_adc_ex.c:345:12
	ldr	r1, [r4]
	add.w	r2, r5, #256
	cmp	r1, r2
	it	ne
	movne	r5, r1
	.loc	6 346 11                        @ c:/Keil_v5\ARM\PACK\Keil\STM32L5xx_DFP\1.3.0\Drivers\STM32L5xx_HAL_Driver\Src\stm32l5xx_hal_adc_ex.c:346:11
	cmp	r0, #0
	it	ne
	cmpne	r5, r1
	bne	.LBB3_9
.Ltmp100:
@ %bb.8:
	@DEBUG_VALUE: HAL_ADCEx_InjectedStart:tmp_multimode_config <- $r0
	.loc	6 349 9                         @ c:/Keil_v5\ARM\PACK\Keil\STM32L5xx_DFP\1.3.0\Drivers\STM32L5xx_HAL_Driver\Src\stm32l5xx_hal_adc_ex.c:349:9
	ldr	r2, [r4, #88]
	bic	r2, r2, #1048576
	str	r2, [r4, #88]
.Ltmp101:
.LBB3_9:
	@DEBUG_VALUE: HAL_ADCEx_InjectedStart:tmp_multimode_config <- $r0
	.loc	6 0 9 is_stmt 0                 @ c:/Keil_v5\ARM\PACK\Keil\STM32L5xx_DFP\1.3.0\Drivers\STM32L5xx_HAL_Driver\Src\stm32l5xx_hal_adc_ex.c:0:9
	movs	r2, #96
	.loc	6 355 7 is_stmt 1               @ c:/Keil_v5\ARM\PACK\Keil\STM32L5xx_DFP\1.3.0\Drivers\STM32L5xx_HAL_Driver\Src\stm32l5xx_hal_adc_ex.c:355:7
	str	r2, [r1]
	movs	r2, #0
.Ltmp102:
	.loc	6 376 11                        @ c:/Keil_v5\ARM\PACK\Keil\STM32L5xx_DFP\1.3.0\Drivers\STM32L5xx_HAL_Driver\Src\stm32l5xx_hal_adc_ex.c:376:11
	cmp	r5, r1
.Ltmp103:
	.loc	6 360 7                         @ c:/Keil_v5\ARM\PACK\Keil\STM32L5xx_DFP\1.3.0\Drivers\STM32L5xx_HAL_Driver\Src\stm32l5xx_hal_adc_ex.c:360:7
	strb.w	r2, [r4, #84]
.Ltmp104:
	.loc	6 376 11                        @ c:/Keil_v5\ARM\PACK\Keil\STM32L5xx_DFP\1.3.0\Drivers\STM32L5xx_HAL_Driver\Src\stm32l5xx_hal_adc_ex.c:376:11
	beq	.LBB3_12
.Ltmp105:
@ %bb.10:
	@DEBUG_VALUE: HAL_ADCEx_InjectedStart:tmp_multimode_config <- $r0
	cmp	r0, #7
	bhi	.LBB3_14
.Ltmp106:
@ %bb.11:
	@DEBUG_VALUE: HAL_ADCEx_InjectedStart:tmp_multimode_config <- $r0
	.loc	6 0 11 is_stmt 0                @ c:/Keil_v5\ARM\PACK\Keil\STM32L5xx_DFP\1.3.0\Drivers\STM32L5xx_HAL_Driver\Src\stm32l5xx_hal_adc_ex.c:0:11
	movs	r2, #1
	lsl.w	r0, r2, r0
.Ltmp107:
	tst.w	r0, #193
	beq	.LBB3_14
.LBB3_12:
.Ltmp108:
	@DEBUG_VALUE: LL_ADC_INJ_GetTrigAuto:ADCx <- $r1
	.loc	7 4083 21 is_stmt 1             @ c:/Keil_v5\ARM\PACK\Keil\STM32L5xx_DFP\1.3.0\Drivers\STM32L5xx_HAL_Driver\Inc\stm32l5xx_ll_adc.h:4083:21
	ldr	r0, [r1, #12]
.Ltmp109:
	.loc	6 382 13                        @ c:/Keil_v5\ARM\PACK\Keil\STM32L5xx_DFP\1.3.0\Drivers\STM32L5xx_HAL_Driver\Src\stm32l5xx_hal_adc_ex.c:382:13
	lsls	r0, r0, #6
	itt	mi
	movmi	r0, #0
.Ltmp110:
	.loc	6 410 1                         @ c:/Keil_v5\ARM\PACK\Keil\STM32L5xx_DFP\1.3.0\Drivers\STM32L5xx_HAL_Driver\Src\stm32l5xx_hal_adc_ex.c:410:1
	popmi	{r4, r5, r6, pc}
.Ltmp111:
.LBB3_13:
	@DEBUG_VALUE: LL_ADC_INJ_StartConversion:ADCx <- $r1
	.loc	7 6030 3                        @ c:/Keil_v5\ARM\PACK\Keil\STM32L5xx_DFP\1.3.0\Drivers\STM32L5xx_HAL_Driver\Inc\stm32l5xx_ll_adc.h:6030:3
	ldr	r0, [r1, #8]
	movw	r2, #65472
	movt	r2, #32767
	ands	r0, r2
	adds	r0, #8
	str	r0, [r1, #8]
	movs	r0, #0
.Ltmp112:
	.loc	6 410 1                         @ c:/Keil_v5\ARM\PACK\Keil\STM32L5xx_DFP\1.3.0\Drivers\STM32L5xx_HAL_Driver\Src\stm32l5xx_hal_adc_ex.c:410:1
	pop	{r4, r5, r6, pc}
.Ltmp113:
	.p2align	2
.LBB3_14:
	.loc	6 390 9                         @ c:/Keil_v5\ARM\PACK\Keil\STM32L5xx_DFP\1.3.0\Drivers\STM32L5xx_HAL_Driver\Src\stm32l5xx_hal_adc_ex.c:390:9
	ldr	r0, [r4, #88]
	orr	r0, r0, #1048576
	str	r0, [r4, #88]
	movs	r0, #0
.Ltmp114:
	.loc	6 410 1                         @ c:/Keil_v5\ARM\PACK\Keil\STM32L5xx_DFP\1.3.0\Drivers\STM32L5xx_HAL_Driver\Src\stm32l5xx_hal_adc_ex.c:410:1
	pop	{r4, r5, r6, pc}
.Ltmp115:
.Lfunc_end3:
	.size	HAL_ADCEx_InjectedStart, .Lfunc_end3-HAL_ADCEx_InjectedStart
	.cfi_endproc
	.cantunwind
	.fnend
                                        @ -- End function
	.section	.text.HAL_ADCEx_InjectedStop,"ax",%progbits
	.hidden	HAL_ADCEx_InjectedStop          @ -- Begin function HAL_ADCEx_InjectedStop
	.globl	HAL_ADCEx_InjectedStop
	.p2align	2
	.type	HAL_ADCEx_InjectedStop,%function
	.code	16                              @ @HAL_ADCEx_InjectedStop
	.thumb_func
HAL_ADCEx_InjectedStop:
.Lfunc_begin4:
	.loc	6 429 0                         @ c:/Keil_v5\ARM\PACK\Keil\STM32L5xx_DFP\1.3.0\Drivers\STM32L5xx_HAL_Driver\Src\stm32l5xx_hal_adc_ex.c:429:0
	.fnstart
	.cfi_startproc
@ %bb.0:
	@DEBUG_VALUE: HAL_ADCEx_InjectedStop:hadc <- $r0
	.save	{r4, lr}
	push	{r4, lr}
	.cfi_def_cfa_offset 8
	.cfi_offset lr, -4
	.cfi_offset r4, -8
	mov	r4, r0
.Ltmp116:
	@DEBUG_VALUE: HAL_ADCEx_InjectedStop:hadc <- $r4
	.loc	6 436 3 prologue_end            @ c:/Keil_v5\ARM\PACK\Keil\STM32L5xx_DFP\1.3.0\Drivers\STM32L5xx_HAL_Driver\Src\stm32l5xx_hal_adc_ex.c:436:3
	ldrb.w	r0, [r0, #84]
.Ltmp117:
	.loc	6 436 3 is_stmt 0               @ c:/Keil_v5\ARM\PACK\Keil\STM32L5xx_DFP\1.3.0\Drivers\STM32L5xx_HAL_Driver\Src\stm32l5xx_hal_adc_ex.c:436:3
	cmp	r0, #1
	itt	eq
	moveq	r0, #2
.Ltmp118:
	.loc	6 473 1 is_stmt 1               @ c:/Keil_v5\ARM\PACK\Keil\STM32L5xx_DFP\1.3.0\Drivers\STM32L5xx_HAL_Driver\Src\stm32l5xx_hal_adc_ex.c:473:1
	popeq	{r4, pc}
.Ltmp119:
.LBB4_1:
	.loc	6 0 1 is_stmt 0                 @ c:/Keil_v5\ARM\PACK\Keil\STM32L5xx_DFP\1.3.0\Drivers\STM32L5xx_HAL_Driver\Src\stm32l5xx_hal_adc_ex.c:0:1
	movs	r0, #1
.Ltmp120:
	.loc	6 436 3 is_stmt 1               @ c:/Keil_v5\ARM\PACK\Keil\STM32L5xx_DFP\1.3.0\Drivers\STM32L5xx_HAL_Driver\Src\stm32l5xx_hal_adc_ex.c:436:3
	strb.w	r0, [r4, #84]
.Ltmp121:
	.loc	6 439 20                        @ c:/Keil_v5\ARM\PACK\Keil\STM32L5xx_DFP\1.3.0\Drivers\STM32L5xx_HAL_Driver\Src\stm32l5xx_hal_adc_ex.c:439:20
	mov	r0, r4
	movs	r1, #2
	bl	ADC_ConversionStop
.Ltmp122:
	@DEBUG_VALUE: HAL_ADCEx_InjectedStop:tmp_hal_status <- $r0
	.loc	6 443 7                         @ c:/Keil_v5\ARM\PACK\Keil\STM32L5xx_DFP\1.3.0\Drivers\STM32L5xx_HAL_Driver\Src\stm32l5xx_hal_adc_ex.c:443:7
	cbz	r0, .LBB4_3
.Ltmp123:
.LBB4_2:
	@DEBUG_VALUE: HAL_ADCEx_InjectedStop:tmp_hal_status <- $r0
	@DEBUG_VALUE: HAL_ADCEx_InjectedStop:tmp_hal_status <- $r0
	.loc	6 0 7 is_stmt 0                 @ c:/Keil_v5\ARM\PACK\Keil\STM32L5xx_DFP\1.3.0\Drivers\STM32L5xx_HAL_Driver\Src\stm32l5xx_hal_adc_ex.c:0:7
	movs	r1, #0
.Ltmp124:
	.loc	6 469 3 is_stmt 1               @ c:/Keil_v5\ARM\PACK\Keil\STM32L5xx_DFP\1.3.0\Drivers\STM32L5xx_HAL_Driver\Src\stm32l5xx_hal_adc_ex.c:469:3
	strb.w	r1, [r4, #84]
.Ltmp125:
	.loc	6 473 1                         @ c:/Keil_v5\ARM\PACK\Keil\STM32L5xx_DFP\1.3.0\Drivers\STM32L5xx_HAL_Driver\Src\stm32l5xx_hal_adc_ex.c:473:1
	pop	{r4, pc}
.Ltmp126:
	.p2align	2
.LBB4_3:
	@DEBUG_VALUE: HAL_ADCEx_InjectedStop:tmp_hal_status <- $r0
	.loc	6 445 46                        @ c:/Keil_v5\ARM\PACK\Keil\STM32L5xx_DFP\1.3.0\Drivers\STM32L5xx_HAL_Driver\Src\stm32l5xx_hal_adc_ex.c:445:46
	ldr	r0, [r4]
.Ltmp127:
	@DEBUG_VALUE: LL_ADC_REG_IsConversionOngoing:ADCx <- $r0
	.loc	7 5880 12                       @ c:/Keil_v5\ARM\PACK\Keil\STM32L5xx_DFP\1.3.0\Drivers\STM32L5xx_HAL_Driver\Inc\stm32l5xx_ll_adc.h:5880:12
	ldr	r0, [r0, #8]
.Ltmp128:
	.loc	6 445 9                         @ c:/Keil_v5\ARM\PACK\Keil\STM32L5xx_DFP\1.3.0\Drivers\STM32L5xx_HAL_Driver\Src\stm32l5xx_hal_adc_ex.c:445:9
	lsls	r0, r0, #29
	bmi	.LBB4_6
@ %bb.4:
.Ltmp129:
	.loc	6 448 24                        @ c:/Keil_v5\ARM\PACK\Keil\STM32L5xx_DFP\1.3.0\Drivers\STM32L5xx_HAL_Driver\Src\stm32l5xx_hal_adc_ex.c:448:24
	mov	r0, r4
	bl	ADC_Disable
.Ltmp130:
	@DEBUG_VALUE: HAL_ADCEx_InjectedStop:tmp_hal_status <- $r0
	.loc	6 451 11                        @ c:/Keil_v5\ARM\PACK\Keil\STM32L5xx_DFP\1.3.0\Drivers\STM32L5xx_HAL_Driver\Src\stm32l5xx_hal_adc_ex.c:451:11
	cmp	r0, #0
	bne	.LBB4_2
.Ltmp131:
@ %bb.5:
	@DEBUG_VALUE: HAL_ADCEx_InjectedStop:tmp_hal_status <- $r0
	.loc	6 454 9                         @ c:/Keil_v5\ARM\PACK\Keil\STM32L5xx_DFP\1.3.0\Drivers\STM32L5xx_HAL_Driver\Src\stm32l5xx_hal_adc_ex.c:454:9
	ldr	r0, [r4, #88]
.Ltmp132:
	.loc	6 0 9 is_stmt 0                 @ c:/Keil_v5\ARM\PACK\Keil\STM32L5xx_DFP\1.3.0\Drivers\STM32L5xx_HAL_Driver\Src\stm32l5xx_hal_adc_ex.c:0:9
	movw	r1, #4353
	.loc	6 454 9                         @ c:/Keil_v5\ARM\PACK\Keil\STM32L5xx_DFP\1.3.0\Drivers\STM32L5xx_HAL_Driver\Src\stm32l5xx_hal_adc_ex.c:454:9
	bics	r0, r1
	adds	r0, #1
	b	.LBB4_7
.Ltmp133:
	.p2align	2
.LBB4_6:
	.loc	6 464 7 is_stmt 1               @ c:/Keil_v5\ARM\PACK\Keil\STM32L5xx_DFP\1.3.0\Drivers\STM32L5xx_HAL_Driver\Src\stm32l5xx_hal_adc_ex.c:464:7
	ldr	r0, [r4, #88]
	bic	r0, r0, #4096
.Ltmp134:
.LBB4_7:
	.loc	6 0 0 is_stmt 0                 @ c:/Keil_v5\ARM\PACK\Keil\STM32L5xx_DFP\1.3.0\Drivers\STM32L5xx_HAL_Driver\Src\stm32l5xx_hal_adc_ex.c:0:0
	str	r0, [r4, #88]
	movs	r0, #0
.Ltmp135:
	@DEBUG_VALUE: HAL_ADCEx_InjectedStop:tmp_hal_status <- $r0
	movs	r1, #0
.Ltmp136:
	.loc	6 469 3 is_stmt 1               @ c:/Keil_v5\ARM\PACK\Keil\STM32L5xx_DFP\1.3.0\Drivers\STM32L5xx_HAL_Driver\Src\stm32l5xx_hal_adc_ex.c:469:3
	strb.w	r1, [r4, #84]
.Ltmp137:
	.loc	6 473 1                         @ c:/Keil_v5\ARM\PACK\Keil\STM32L5xx_DFP\1.3.0\Drivers\STM32L5xx_HAL_Driver\Src\stm32l5xx_hal_adc_ex.c:473:1
	pop	{r4, pc}
.Ltmp138:
.Lfunc_end4:
	.size	HAL_ADCEx_InjectedStop, .Lfunc_end4-HAL_ADCEx_InjectedStop
	.cfi_endproc
	.cantunwind
	.fnend
                                        @ -- End function
	.section	.text.HAL_ADCEx_InjectedPollForConversion,"ax",%progbits
	.hidden	HAL_ADCEx_InjectedPollForConversion @ -- Begin function HAL_ADCEx_InjectedPollForConversion
	.globl	HAL_ADCEx_InjectedPollForConversion
	.p2align	2
	.type	HAL_ADCEx_InjectedPollForConversion,%function
	.code	16                              @ @HAL_ADCEx_InjectedPollForConversion
	.thumb_func
HAL_ADCEx_InjectedPollForConversion:
.Lfunc_begin5:
	.loc	6 484 0                         @ c:/Keil_v5\ARM\PACK\Keil\STM32L5xx_DFP\1.3.0\Drivers\STM32L5xx_HAL_Driver\Src\stm32l5xx_hal_adc_ex.c:484:0
	.fnstart
	.cfi_startproc
@ %bb.0:
	@DEBUG_VALUE: HAL_ADCEx_InjectedPollForConversion:hadc <- $r0
	@DEBUG_VALUE: HAL_ADCEx_InjectedPollForConversion:Timeout <- $r1
	.save	{r4, r5, r6, r7, r8, r9, r10, lr}
	push.w	{r4, r5, r6, r7, r8, r9, r10, lr}
	.cfi_def_cfa_offset 32
	.cfi_offset lr, -4
	.cfi_offset r10, -8
	.cfi_offset r9, -12
	.cfi_offset r8, -16
	.cfi_offset r7, -20
	.cfi_offset r6, -24
	.cfi_offset r5, -28
	.cfi_offset r4, -32
	movw	r7, #32768
	movt	r7, #16898
.Ltmp139:
	@DEBUG_VALUE: HAL_ADCEx_InjectedPollForConversion:Timeout <- $r5
	@DEBUG_VALUE: HAL_ADCEx_InjectedPollForConversion:hadc <- $r10
	.loc	7 5421 21 prologue_end          @ c:/Keil_v5\ARM\PACK\Keil\STM32L5xx_DFP\1.3.0\Drivers\STM32L5xx_HAL_Driver\Inc\stm32l5xx_ll_adc.h:5421:21
	ldr.w	r9, [r7, #776]
.Ltmp140:
	@DEBUG_VALUE: HAL_ADCEx_InjectedPollForConversion:tmp_multimode_config <- undef
	.loc	6 499 18                        @ c:/Keil_v5\ARM\PACK\Keil\STM32L5xx_DFP\1.3.0\Drivers\STM32L5xx_HAL_Driver\Src\stm32l5xx_hal_adc_ex.c:499:18
	ldr.w	r8, [r0, #20]
	movs	r4, #32
	mov	r5, r1
.Ltmp141:
	.loc	6 0 18 is_stmt 0                @ c:/Keil_v5\ARM\PACK\Keil\STM32L5xx_DFP\1.3.0\Drivers\STM32L5xx_HAL_Driver\Src\stm32l5xx_hal_adc_ex.c:0:18
	mov	r10, r0
.Ltmp142:
	.loc	6 499 7                         @ c:/Keil_v5\ARM\PACK\Keil\STM32L5xx_DFP\1.3.0\Drivers\STM32L5xx_HAL_Driver\Src\stm32l5xx_hal_adc_ex.c:499:7
	cmp.w	r8, #8
	it	eq
	moveq	r4, #64
.Ltmp143:
	@DEBUG_VALUE: HAL_ADCEx_InjectedPollForConversion:tmp_Flag_End <- $r4
	.loc	6 509 15 is_stmt 1              @ c:/Keil_v5\ARM\PACK\Keil\STM32L5xx_DFP\1.3.0\Drivers\STM32L5xx_HAL_Driver\Src\stm32l5xx_hal_adc_ex.c:509:15
	bl	HAL_GetTick
	.loc	6 512 17                        @ c:/Keil_v5\ARM\PACK\Keil\STM32L5xx_DFP\1.3.0\Drivers\STM32L5xx_HAL_Driver\Src\stm32l5xx_hal_adc_ex.c:512:17
	ldr.w	r1, [r10]
	.loc	6 512 27 is_stmt 0              @ c:/Keil_v5\ARM\PACK\Keil\STM32L5xx_DFP\1.3.0\Drivers\STM32L5xx_HAL_Driver\Src\stm32l5xx_hal_adc_ex.c:512:27
	ldr	r2, [r1]
	.loc	6 512 3                         @ c:/Keil_v5\ARM\PACK\Keil\STM32L5xx_DFP\1.3.0\Drivers\STM32L5xx_HAL_Driver\Src\stm32l5xx_hal_adc_ex.c:512:3
	tst	r2, r4
	@DEBUG_VALUE: LL_ADC_GetMultimode:ADCxy_COMMON <- undef
.Ltmp144:
	@DEBUG_VALUE: HAL_ADCEx_InjectedPollForConversion:tickstart <- $r0
	beq	.LBB5_11
.Ltmp145:
.LBB5_1:
	@DEBUG_VALUE: HAL_ADCEx_InjectedPollForConversion:tmp_Flag_End <- $r4
	.loc	6 537 8 is_stmt 1               @ c:/Keil_v5\ARM\PACK\Keil\STM32L5xx_DFP\1.3.0\Drivers\STM32L5xx_HAL_Driver\Src\stm32l5xx_hal_adc_ex.c:537:8
	add.w	r6, r7, #256
.Ltmp146:
	.loc	7 3783 12                       @ c:/Keil_v5\ARM\PACK\Keil\STM32L5xx_DFP\1.3.0\Drivers\STM32L5xx_HAL_Driver\Inc\stm32l5xx_ll_adc.h:3783:12
	ldr	r3, [r1, #76]
.Ltmp147:
	@DEBUG_VALUE: LL_ADC_REG_IsTriggerSourceSWStart:ADCx <- $r1
	@DEBUG_VALUE: HAL_ADCEx_InjectedPollForConversion:tmp_adc_inj_is_trigger_source_sw_start <- [DW_OP_LLVM_convert 1 7, DW_OP_LLVM_convert 32 7, DW_OP_stack_value] undef
	.loc	7 3073 12                       @ c:/Keil_v5\ARM\PACK\Keil\STM32L5xx_DFP\1.3.0\Drivers\STM32L5xx_HAL_Driver\Inc\stm32l5xx_ll_adc.h:3073:12
	ldr	r2, [r1, #12]
.Ltmp148:
	@DEBUG_VALUE: HAL_ADCEx_InjectedPollForConversion:tmp_adc_reg_is_trigger_source_sw_start <- [DW_OP_LLVM_convert 1 7, DW_OP_LLVM_convert 32 7, DW_OP_stack_value] undef
	.loc	6 537 8                         @ c:/Keil_v5\ARM\PACK\Keil\STM32L5xx_DFP\1.3.0\Drivers\STM32L5xx_HAL_Driver\Src\stm32l5xx_hal_adc_ex.c:537:8
	cmp	r1, r6
	it	ne
	movne	r7, r1
.Ltmp149:
	.loc	6 0 0 is_stmt 0                 @ c:/Keil_v5\ARM\PACK\Keil\STM32L5xx_DFP\1.3.0\Drivers\STM32L5xx_HAL_Driver\Src\stm32l5xx_hal_adc_ex.c:0:0
	and	r0, r9, #31
	@DEBUG_VALUE: LL_ADC_INJ_IsTriggerSourceSWStart:ADCx <- $r1
.Ltmp150:
	@DEBUG_VALUE: HAL_ADCEx_InjectedPollForConversion:tmp_multimode_config <- $r0
	.loc	6 538 7 is_stmt 1               @ c:/Keil_v5\ARM\PACK\Keil\STM32L5xx_DFP\1.3.0\Drivers\STM32L5xx_HAL_Driver\Src\stm32l5xx_hal_adc_ex.c:538:7
	cmp	r7, r1
	it	ne
	movne	r7, r7
	and	r6, r9, #30
	cmp	r0, #0
	it	eq
	moveq	r7, r1
	cmp	r6, #6
	it	eq
	moveq	r7, r1
	.loc	6 0 0 is_stmt 0                 @ c:/Keil_v5\ARM\PACK\Keil\STM32L5xx_DFP\1.3.0\Drivers\STM32L5xx_HAL_Driver\Src\stm32l5xx_hal_adc_ex.c:0:0
	ldr	r0, [r7, #12]
.Ltmp151:
	@DEBUG_VALUE: HAL_ADCEx_InjectedPollForConversion:tmp_cfgr <- $r0
	.loc	6 555 3 is_stmt 1               @ c:/Keil_v5\ARM\PACK\Keil\STM32L5xx_DFP\1.3.0\Drivers\STM32L5xx_HAL_Driver\Src\stm32l5xx_hal_adc_ex.c:555:3
	ldr.w	r7, [r10, #88]
.Ltmp152:
	.loc	6 560 66                        @ c:/Keil_v5\ARM\PACK\Keil\STM32L5xx_DFP\1.3.0\Drivers\STM32L5xx_HAL_Driver\Src\stm32l5xx_hal_adc_ex.c:560:66
	tst.w	r3, #192
.Ltmp153:
	.loc	6 555 3                         @ c:/Keil_v5\ARM\PACK\Keil\STM32L5xx_DFP\1.3.0\Drivers\STM32L5xx_HAL_Driver\Src\stm32l5xx_hal_adc_ex.c:555:3
	orr	r7, r7, #8192
	str.w	r7, [r10, #88]
.Ltmp154:
	.loc	6 560 66                        @ c:/Keil_v5\ARM\PACK\Keil\STM32L5xx_DFP\1.3.0\Drivers\STM32L5xx_HAL_Driver\Src\stm32l5xx_hal_adc_ex.c:560:66
	beq	.LBB5_3
.Ltmp155:
@ %bb.2:
	@DEBUG_VALUE: HAL_ADCEx_InjectedPollForConversion:tmp_Flag_End <- $r4
	@DEBUG_VALUE: LL_ADC_REG_IsTriggerSourceSWStart:ADCx <- $r1
	@DEBUG_VALUE: HAL_ADCEx_InjectedPollForConversion:tmp_cfgr <- $r0
	.loc	7 3073 12                       @ c:/Keil_v5\ARM\PACK\Keil\STM32L5xx_DFP\1.3.0\Drivers\STM32L5xx_HAL_Driver\Inc\stm32l5xx_ll_adc.h:3073:12
	and	r2, r2, #3072
.Ltmp156:
	@DEBUG_VALUE: HAL_ADCEx_InjectedPollForConversion:tmp_adc_reg_is_trigger_source_sw_start <- [DW_OP_LLVM_convert 1 7, DW_OP_LLVM_convert 32 7, DW_OP_stack_value] undef
	.loc	6 561 9                         @ c:/Keil_v5\ARM\PACK\Keil\STM32L5xx_DFP\1.3.0\Drivers\STM32L5xx_HAL_Driver\Src\stm32l5xx_hal_adc_ex.c:561:9
	and	r3, r0, #33554432
	.loc	6 561 57 is_stmt 0              @ c:/Keil_v5\ARM\PACK\Keil\STM32L5xx_DFP\1.3.0\Drivers\STM32L5xx_HAL_Driver\Src\stm32l5xx_hal_adc_ex.c:561:57
	add	r2, r3
	and	r3, r0, #8192
	adds	r2, r2, r3
	bne	.LBB5_7
.Ltmp157:
.LBB5_3:
	@DEBUG_VALUE: HAL_ADCEx_InjectedPollForConversion:tmp_Flag_End <- $r4
	@DEBUG_VALUE: HAL_ADCEx_InjectedPollForConversion:tmp_cfgr <- $r0
	.loc	6 566 9 is_stmt 1               @ c:/Keil_v5\ARM\PACK\Keil\STM32L5xx_DFP\1.3.0\Drivers\STM32L5xx_HAL_Driver\Src\stm32l5xx_hal_adc_ex.c:566:9
	ldr	r2, [r1]
.Ltmp158:
	.loc	6 566 9 is_stmt 0               @ c:/Keil_v5\ARM\PACK\Keil\STM32L5xx_DFP\1.3.0\Drivers\STM32L5xx_HAL_Driver\Src\stm32l5xx_hal_adc_ex.c:566:9
	lsls	r3, r0, #10
	bmi	.LBB5_7
.Ltmp159:
@ %bb.4:
	@DEBUG_VALUE: HAL_ADCEx_InjectedPollForConversion:tmp_Flag_End <- $r4
	@DEBUG_VALUE: HAL_ADCEx_InjectedPollForConversion:tmp_cfgr <- $r0
	.loc	6 0 0                           @ c:/Keil_v5\ARM\PACK\Keil\STM32L5xx_DFP\1.3.0\Drivers\STM32L5xx_HAL_Driver\Src\stm32l5xx_hal_adc_ex.c:0:0
	ands	r2, r2, #64
	.loc	6 566 9                         @ c:/Keil_v5\ARM\PACK\Keil\STM32L5xx_DFP\1.3.0\Drivers\STM32L5xx_HAL_Driver\Src\stm32l5xx_hal_adc_ex.c:566:9
	beq	.LBB5_7
.Ltmp160:
@ %bb.5:
	@DEBUG_VALUE: HAL_ADCEx_InjectedPollForConversion:tmp_Flag_End <- $r4
	@DEBUG_VALUE: HAL_ADCEx_InjectedPollForConversion:tmp_cfgr <- $r0
	.loc	6 577 9 is_stmt 1               @ c:/Keil_v5\ARM\PACK\Keil\STM32L5xx_DFP\1.3.0\Drivers\STM32L5xx_HAL_Driver\Src\stm32l5xx_hal_adc_ex.c:577:9
	ldr.w	r2, [r10, #88]
	bic	r2, r2, #4096
	str.w	r2, [r10, #88]
.Ltmp161:
	.loc	6 579 20                        @ c:/Keil_v5\ARM\PACK\Keil\STM32L5xx_DFP\1.3.0\Drivers\STM32L5xx_HAL_Driver\Src\stm32l5xx_hal_adc_ex.c:579:20
	ldr.w	r2, [r10, #88]
.Ltmp162:
	.loc	6 579 13 is_stmt 0              @ c:/Keil_v5\ARM\PACK\Keil\STM32L5xx_DFP\1.3.0\Drivers\STM32L5xx_HAL_Driver\Src\stm32l5xx_hal_adc_ex.c:579:13
	lsls	r2, r2, #23
	bmi	.LBB5_7
.Ltmp163:
@ %bb.6:
	@DEBUG_VALUE: HAL_ADCEx_InjectedPollForConversion:tmp_Flag_End <- $r4
	@DEBUG_VALUE: HAL_ADCEx_InjectedPollForConversion:tmp_cfgr <- $r0
	.loc	6 581 11 is_stmt 1              @ c:/Keil_v5\ARM\PACK\Keil\STM32L5xx_DFP\1.3.0\Drivers\STM32L5xx_HAL_Driver\Src\stm32l5xx_hal_adc_ex.c:581:11
	ldr.w	r2, [r10, #88]
	orr	r2, r2, #1
	str.w	r2, [r10, #88]
.Ltmp164:
.LBB5_7:
	@DEBUG_VALUE: HAL_ADCEx_InjectedPollForConversion:tmp_Flag_End <- $r4
	@DEBUG_VALUE: HAL_ADCEx_InjectedPollForConversion:tmp_cfgr <- $r0
	.loc	6 588 7                         @ c:/Keil_v5\ARM\PACK\Keil\STM32L5xx_DFP\1.3.0\Drivers\STM32L5xx_HAL_Driver\Src\stm32l5xx_hal_adc_ex.c:588:7
	cmp.w	r8, #8
	bne	.LBB5_10
.Ltmp165:
@ %bb.8:
	@DEBUG_VALUE: HAL_ADCEx_InjectedPollForConversion:tmp_Flag_End <- $r4
	@DEBUG_VALUE: HAL_ADCEx_InjectedPollForConversion:tmp_cfgr <- $r0
	.loc	6 594 9                         @ c:/Keil_v5\ARM\PACK\Keil\STM32L5xx_DFP\1.3.0\Drivers\STM32L5xx_HAL_Driver\Src\stm32l5xx_hal_adc_ex.c:594:9
	lsls	r0, r0, #17
.Ltmp166:
	.loc	6 0 9 is_stmt 0                 @ c:/Keil_v5\ARM\PACK\Keil\STM32L5xx_DFP\1.3.0\Drivers\STM32L5xx_HAL_Driver\Src\stm32l5xx_hal_adc_ex.c:0:9
	itt	mi
	movmi	r0, #0
.Ltmp167:
	.loc	6 606 1 is_stmt 1               @ c:/Keil_v5\ARM\PACK\Keil\STM32L5xx_DFP\1.3.0\Drivers\STM32L5xx_HAL_Driver\Src\stm32l5xx_hal_adc_ex.c:606:1
	popmi.w	{r4, r5, r6, r7, r8, r9, r10, pc}
.Ltmp168:
.LBB5_9:
	.loc	6 0 1 is_stmt 0                 @ c:/Keil_v5\ARM\PACK\Keil\STM32L5xx_DFP\1.3.0\Drivers\STM32L5xx_HAL_Driver\Src\stm32l5xx_hal_adc_ex.c:0:1
	movs	r0, #96
.Ltmp169:
	str	r0, [r1]
	movs	r0, #0
.Ltmp170:
	.loc	6 606 1                         @ c:/Keil_v5\ARM\PACK\Keil\STM32L5xx_DFP\1.3.0\Drivers\STM32L5xx_HAL_Driver\Src\stm32l5xx_hal_adc_ex.c:606:1
	pop.w	{r4, r5, r6, r7, r8, r9, r10, pc}
	.p2align	2
.LBB5_10:
.Ltmp171:
	@DEBUG_VALUE: HAL_ADCEx_InjectedPollForConversion:tmp_Flag_End <- $r4
	@DEBUG_VALUE: HAL_ADCEx_InjectedPollForConversion:tmp_cfgr <- $r0
	.loc	6 0 1                           @ c:/Keil_v5\ARM\PACK\Keil\STM32L5xx_DFP\1.3.0\Drivers\STM32L5xx_HAL_Driver\Src\stm32l5xx_hal_adc_ex.c:0:1
	movs	r0, #32
.Ltmp172:
	str	r0, [r1]
	movs	r0, #0
.Ltmp173:
	.loc	6 606 1                         @ c:/Keil_v5\ARM\PACK\Keil\STM32L5xx_DFP\1.3.0\Drivers\STM32L5xx_HAL_Driver\Src\stm32l5xx_hal_adc_ex.c:606:1
	pop.w	{r4, r5, r6, r7, r8, r9, r10, pc}
.Ltmp174:
	.p2align	2
.LBB5_11:
	@DEBUG_VALUE: HAL_ADCEx_InjectedPollForConversion:tmp_Flag_End <- $r4
	@DEBUG_VALUE: HAL_ADCEx_InjectedPollForConversion:tickstart <- $r0
	@DEBUG_VALUE: HAL_ADCEx_InjectedPollForConversion:tickstart <- $r0
	.loc	6 512 3 is_stmt 1               @ c:/Keil_v5\ARM\PACK\Keil\STM32L5xx_DFP\1.3.0\Drivers\STM32L5xx_HAL_Driver\Src\stm32l5xx_hal_adc_ex.c:512:3
	cbz	r5, .LBB5_19
.Ltmp175:
@ %bb.12:
	@DEBUG_VALUE: HAL_ADCEx_InjectedPollForConversion:tmp_Flag_End <- $r4
	@DEBUG_VALUE: HAL_ADCEx_InjectedPollForConversion:tickstart <- $r0
	.loc	6 0 0 is_stmt 0                 @ c:/Keil_v5\ARM\PACK\Keil\STM32L5xx_DFP\1.3.0\Drivers\STM32L5xx_HAL_Driver\Src\stm32l5xx_hal_adc_ex.c:0:0
	mov	r6, r0
.Ltmp176:
	@DEBUG_VALUE: HAL_ADCEx_InjectedPollForConversion:tickstart <- $r6
	@DEBUG_VALUE: HAL_ADCEx_InjectedPollForConversion:tickstart <- $r6
	.loc	6 512 3                         @ c:/Keil_v5\ARM\PACK\Keil\STM32L5xx_DFP\1.3.0\Drivers\STM32L5xx_HAL_Driver\Src\stm32l5xx_hal_adc_ex.c:512:3
	adds	r0, r5, #1
	bne	.LBB5_18
.Ltmp177:
	.p2align	2
.LBB5_13:                               @ =>This Inner Loop Header: Depth=1
	@DEBUG_VALUE: HAL_ADCEx_InjectedPollForConversion:tickstart <- $r6
	@DEBUG_VALUE: HAL_ADCEx_InjectedPollForConversion:tmp_Flag_End <- $r4
	.loc	6 512 27                        @ c:/Keil_v5\ARM\PACK\Keil\STM32L5xx_DFP\1.3.0\Drivers\STM32L5xx_HAL_Driver\Src\stm32l5xx_hal_adc_ex.c:512:27
	ldr	r0, [r1]
	.loc	6 512 3                         @ c:/Keil_v5\ARM\PACK\Keil\STM32L5xx_DFP\1.3.0\Drivers\STM32L5xx_HAL_Driver\Src\stm32l5xx_hal_adc_ex.c:512:3
	tst	r0, r4
	bne	.LBB5_1
.Ltmp178:
@ %bb.14:                               @   in Loop: Header=BB5_13 Depth=1
	@DEBUG_VALUE: HAL_ADCEx_InjectedPollForConversion:tickstart <- $r6
	@DEBUG_VALUE: HAL_ADCEx_InjectedPollForConversion:tmp_Flag_End <- $r4
	.loc	6 512 27                        @ c:/Keil_v5\ARM\PACK\Keil\STM32L5xx_DFP\1.3.0\Drivers\STM32L5xx_HAL_Driver\Src\stm32l5xx_hal_adc_ex.c:512:27
	ldr	r0, [r1]
	.loc	6 512 3                         @ c:/Keil_v5\ARM\PACK\Keil\STM32L5xx_DFP\1.3.0\Drivers\STM32L5xx_HAL_Driver\Src\stm32l5xx_hal_adc_ex.c:512:3
	tst	r0, r4
	bne	.LBB5_1
.Ltmp179:
@ %bb.15:                               @   in Loop: Header=BB5_13 Depth=1
	@DEBUG_VALUE: HAL_ADCEx_InjectedPollForConversion:tickstart <- $r6
	@DEBUG_VALUE: HAL_ADCEx_InjectedPollForConversion:tmp_Flag_End <- $r4
	.loc	6 512 27                        @ c:/Keil_v5\ARM\PACK\Keil\STM32L5xx_DFP\1.3.0\Drivers\STM32L5xx_HAL_Driver\Src\stm32l5xx_hal_adc_ex.c:512:27
	ldr	r0, [r1]
	.loc	6 512 3                         @ c:/Keil_v5\ARM\PACK\Keil\STM32L5xx_DFP\1.3.0\Drivers\STM32L5xx_HAL_Driver\Src\stm32l5xx_hal_adc_ex.c:512:3
	tst	r0, r4
	bne	.LBB5_1
.Ltmp180:
@ %bb.16:                               @   in Loop: Header=BB5_13 Depth=1
	@DEBUG_VALUE: HAL_ADCEx_InjectedPollForConversion:tickstart <- $r6
	@DEBUG_VALUE: HAL_ADCEx_InjectedPollForConversion:tmp_Flag_End <- $r4
	.loc	6 512 27                        @ c:/Keil_v5\ARM\PACK\Keil\STM32L5xx_DFP\1.3.0\Drivers\STM32L5xx_HAL_Driver\Src\stm32l5xx_hal_adc_ex.c:512:27
	ldr	r0, [r1]
	.loc	6 512 3                         @ c:/Keil_v5\ARM\PACK\Keil\STM32L5xx_DFP\1.3.0\Drivers\STM32L5xx_HAL_Driver\Src\stm32l5xx_hal_adc_ex.c:512:3
	tst	r0, r4
	beq	.LBB5_13
	b	.LBB5_1
.Ltmp181:
	.p2align	2
.LBB5_17:                               @   in Loop: Header=BB5_18 Depth=1
	@DEBUG_VALUE: HAL_ADCEx_InjectedPollForConversion:tickstart <- $r6
	@DEBUG_VALUE: HAL_ADCEx_InjectedPollForConversion:tmp_Flag_End <- $r4
	.loc	6 512 17                        @ c:/Keil_v5\ARM\PACK\Keil\STM32L5xx_DFP\1.3.0\Drivers\STM32L5xx_HAL_Driver\Src\stm32l5xx_hal_adc_ex.c:512:17
	ldr.w	r1, [r10]
	.loc	6 512 27                        @ c:/Keil_v5\ARM\PACK\Keil\STM32L5xx_DFP\1.3.0\Drivers\STM32L5xx_HAL_Driver\Src\stm32l5xx_hal_adc_ex.c:512:27
	ldr	r0, [r1]
	.loc	6 512 3                         @ c:/Keil_v5\ARM\PACK\Keil\STM32L5xx_DFP\1.3.0\Drivers\STM32L5xx_HAL_Driver\Src\stm32l5xx_hal_adc_ex.c:512:3
	tst	r0, r4
	bne	.LBB5_1
.Ltmp182:
.LBB5_18:                               @ =>This Inner Loop Header: Depth=1
	@DEBUG_VALUE: HAL_ADCEx_InjectedPollForConversion:tickstart <- $r6
	@DEBUG_VALUE: HAL_ADCEx_InjectedPollForConversion:tmp_Flag_End <- $r4
	.loc	6 517 13 is_stmt 1              @ c:/Keil_v5\ARM\PACK\Keil\STM32L5xx_DFP\1.3.0\Drivers\STM32L5xx_HAL_Driver\Src\stm32l5xx_hal_adc_ex.c:517:13
	bl	HAL_GetTick
	.loc	6 517 27 is_stmt 0              @ c:/Keil_v5\ARM\PACK\Keil\STM32L5xx_DFP\1.3.0\Drivers\STM32L5xx_HAL_Driver\Src\stm32l5xx_hal_adc_ex.c:517:27
	subs	r0, r0, r6
	.loc	6 517 51                        @ c:/Keil_v5\ARM\PACK\Keil\STM32L5xx_DFP\1.3.0\Drivers\STM32L5xx_HAL_Driver\Src\stm32l5xx_hal_adc_ex.c:517:51
	cmp	r0, r5
	bls	.LBB5_17
	b	.LBB5_20
.Ltmp183:
	.p2align	2
.LBB5_19:
	@DEBUG_VALUE: HAL_ADCEx_InjectedPollForConversion:tmp_Flag_End <- $r4
	@DEBUG_VALUE: HAL_ADCEx_InjectedPollForConversion:tickstart <- $r0
	.loc	6 517 13                        @ c:/Keil_v5\ARM\PACK\Keil\STM32L5xx_DFP\1.3.0\Drivers\STM32L5xx_HAL_Driver\Src\stm32l5xx_hal_adc_ex.c:517:13
	bl	HAL_GetTick
.Ltmp184:
.LBB5_20:
	@DEBUG_VALUE: HAL_ADCEx_InjectedPollForConversion:tmp_Flag_End <- $r4
	.loc	6 520 9 is_stmt 1               @ c:/Keil_v5\ARM\PACK\Keil\STM32L5xx_DFP\1.3.0\Drivers\STM32L5xx_HAL_Driver\Src\stm32l5xx_hal_adc_ex.c:520:9
	ldr.w	r0, [r10, #88]
	orr	r0, r0, #4
	str.w	r0, [r10, #88]
	movs	r0, #0
.Ltmp185:
	.loc	6 523 9                         @ c:/Keil_v5\ARM\PACK\Keil\STM32L5xx_DFP\1.3.0\Drivers\STM32L5xx_HAL_Driver\Src\stm32l5xx_hal_adc_ex.c:523:9
	strb.w	r0, [r10, #84]
	movs	r0, #3
.Ltmp186:
	.loc	6 606 1                         @ c:/Keil_v5\ARM\PACK\Keil\STM32L5xx_DFP\1.3.0\Drivers\STM32L5xx_HAL_Driver\Src\stm32l5xx_hal_adc_ex.c:606:1
	pop.w	{r4, r5, r6, r7, r8, r9, r10, pc}
.Ltmp187:
.Lfunc_end5:
	.size	HAL_ADCEx_InjectedPollForConversion, .Lfunc_end5-HAL_ADCEx_InjectedPollForConversion
	.cfi_endproc
	.cantunwind
	.fnend
                                        @ -- End function
	.section	.text.HAL_ADCEx_InjectedStart_IT,"ax",%progbits
	.hidden	HAL_ADCEx_InjectedStart_IT      @ -- Begin function HAL_ADCEx_InjectedStart_IT
	.globl	HAL_ADCEx_InjectedStart_IT
	.p2align	2
	.type	HAL_ADCEx_InjectedStart_IT,%function
	.code	16                              @ @HAL_ADCEx_InjectedStart_IT
	.thumb_func
HAL_ADCEx_InjectedStart_IT:
.Lfunc_begin6:
	.loc	6 621 0                         @ c:/Keil_v5\ARM\PACK\Keil\STM32L5xx_DFP\1.3.0\Drivers\STM32L5xx_HAL_Driver\Src\stm32l5xx_hal_adc_ex.c:621:0
	.fnstart
	.cfi_startproc
@ %bb.0:
	@DEBUG_VALUE: HAL_ADCEx_InjectedStart_IT:hadc <- $r0
	.save	{r4, r5, r6, lr}
	push	{r4, r5, r6, lr}
	.cfi_def_cfa_offset 16
	.cfi_offset lr, -4
	.cfi_offset r6, -8
	.cfi_offset r5, -12
	.cfi_offset r4, -16
	movw	r5, #32768
	movt	r5, #16898
.Ltmp188:
	@DEBUG_VALUE: HAL_ADCEx_InjectedStart_IT:hadc <- $r4
	mov	r4, r0
.Ltmp189:
	.loc	7 5421 21 prologue_end          @ c:/Keil_v5\ARM\PACK\Keil\STM32L5xx_DFP\1.3.0\Drivers\STM32L5xx_HAL_Driver\Inc\stm32l5xx_ll_adc.h:5421:21
	ldr.w	r6, [r5, #776]
.Ltmp190:
	@DEBUG_VALUE: HAL_ADCEx_InjectedStart_IT:tmp_multimode_config <- undef
	.loc	6 631 44                        @ c:/Keil_v5\ARM\PACK\Keil\STM32L5xx_DFP\1.3.0\Drivers\STM32L5xx_HAL_Driver\Src\stm32l5xx_hal_adc_ex.c:631:44
	ldr	r0, [r0]
.Ltmp191:
	@DEBUG_VALUE: LL_ADC_INJ_IsConversionOngoing:ADCx <- $r0
	.loc	7 6063 12                       @ c:/Keil_v5\ARM\PACK\Keil\STM32L5xx_DFP\1.3.0\Drivers\STM32L5xx_HAL_Driver\Inc\stm32l5xx_ll_adc.h:6063:12
	ldr	r1, [r0, #8]
.Ltmp192:
	.loc	6 631 7                         @ c:/Keil_v5\ARM\PACK\Keil\STM32L5xx_DFP\1.3.0\Drivers\STM32L5xx_HAL_Driver\Src\stm32l5xx_hal_adc_ex.c:631:7
	lsls	r1, r1, #28
	@DEBUG_VALUE: LL_ADC_GetMultimode:ADCxy_COMMON <- undef
	itt	mi
	movmi	r0, #2
.Ltmp193:
	.loc	6 772 1                         @ c:/Keil_v5\ARM\PACK\Keil\STM32L5xx_DFP\1.3.0\Drivers\STM32L5xx_HAL_Driver\Src\stm32l5xx_hal_adc_ex.c:772:1
	popmi	{r4, r5, r6, pc}
.Ltmp194:
.LBB6_1:
	@DEBUG_VALUE: HAL_ADCEx_InjectedStart_IT:tmp_multimode_config <- undef
	.loc	6 644 33                        @ c:/Keil_v5\ARM\PACK\Keil\STM32L5xx_DFP\1.3.0\Drivers\STM32L5xx_HAL_Driver\Src\stm32l5xx_hal_adc_ex.c:644:33
	ldr	r1, [r0, #12]
.Ltmp195:
	@DEBUG_VALUE: HAL_ADCEx_InjectedStart_IT:tmp_config_injected_queue <- [DW_OP_constu 18446744071562067968, DW_OP_and, DW_OP_stack_value] $r1
	.loc	6 646 10                        @ c:/Keil_v5\ARM\PACK\Keil\STM32L5xx_DFP\1.3.0\Drivers\STM32L5xx_HAL_Driver\Src\stm32l5xx_hal_adc_ex.c:646:10
	ldr	r0, [r0, #76]
	.loc	6 647 9                         @ c:/Keil_v5\ARM\PACK\Keil\STM32L5xx_DFP\1.3.0\Drivers\STM32L5xx_HAL_Driver\Src\stm32l5xx_hal_adc_ex.c:647:9
	cmp	r1, #0
	bmi	.LBB6_4
.Ltmp196:
@ %bb.2:
	@DEBUG_VALUE: HAL_ADCEx_InjectedStart_IT:tmp_config_injected_queue <- [DW_OP_constu 18446744071562067968, DW_OP_and, DW_OP_stack_value] $r1
	.loc	6 0 0 is_stmt 0                 @ c:/Keil_v5\ARM\PACK\Keil\STM32L5xx_DFP\1.3.0\Drivers\STM32L5xx_HAL_Driver\Src\stm32l5xx_hal_adc_ex.c:0:0
	ands	r0, r0, #192
	.loc	6 647 9                         @ c:/Keil_v5\ARM\PACK\Keil\STM32L5xx_DFP\1.3.0\Drivers\STM32L5xx_HAL_Driver\Src\stm32l5xx_hal_adc_ex.c:647:9
	bne	.LBB6_4
.Ltmp197:
@ %bb.3:
	@DEBUG_VALUE: HAL_ADCEx_InjectedStart_IT:tmp_config_injected_queue <- [DW_OP_constu 18446744071562067968, DW_OP_and, DW_OP_stack_value] $r1
	.loc	6 650 7 is_stmt 1               @ c:/Keil_v5\ARM\PACK\Keil\STM32L5xx_DFP\1.3.0\Drivers\STM32L5xx_HAL_Driver\Src\stm32l5xx_hal_adc_ex.c:650:7
	ldr	r0, [r4, #88]
	orr	r0, r0, #32
	str	r0, [r4, #88]
	movs	r0, #1
.Ltmp198:
	.loc	6 772 1                         @ c:/Keil_v5\ARM\PACK\Keil\STM32L5xx_DFP\1.3.0\Drivers\STM32L5xx_HAL_Driver\Src\stm32l5xx_hal_adc_ex.c:772:1
	pop	{r4, r5, r6, pc}
.Ltmp199:
	.p2align	2
.LBB6_4:
	@DEBUG_VALUE: HAL_ADCEx_InjectedStart_IT:tmp_config_injected_queue <- [DW_OP_constu 18446744071562067968, DW_OP_and, DW_OP_stack_value] $r1
	@DEBUG_VALUE: HAL_ADCEx_InjectedStart_IT:tmp_multimode_config <- undef
	.loc	6 655 5                         @ c:/Keil_v5\ARM\PACK\Keil\STM32L5xx_DFP\1.3.0\Drivers\STM32L5xx_HAL_Driver\Src\stm32l5xx_hal_adc_ex.c:655:5
	ldrb.w	r0, [r4, #84]
.Ltmp200:
	.loc	6 655 5 is_stmt 0               @ c:/Keil_v5\ARM\PACK\Keil\STM32L5xx_DFP\1.3.0\Drivers\STM32L5xx_HAL_Driver\Src\stm32l5xx_hal_adc_ex.c:655:5
	cmp	r0, #1
	itt	eq
	moveq	r0, #2
.Ltmp201:
	.loc	6 772 1 is_stmt 1               @ c:/Keil_v5\ARM\PACK\Keil\STM32L5xx_DFP\1.3.0\Drivers\STM32L5xx_HAL_Driver\Src\stm32l5xx_hal_adc_ex.c:772:1
	popeq	{r4, r5, r6, pc}
.Ltmp202:
.LBB6_5:
	@DEBUG_VALUE: HAL_ADCEx_InjectedStart_IT:tmp_config_injected_queue <- [DW_OP_constu 18446744071562067968, DW_OP_and, DW_OP_stack_value] $r1
	@DEBUG_VALUE: HAL_ADCEx_InjectedStart_IT:tmp_multimode_config <- undef
	.loc	6 0 1 is_stmt 0                 @ c:/Keil_v5\ARM\PACK\Keil\STM32L5xx_DFP\1.3.0\Drivers\STM32L5xx_HAL_Driver\Src\stm32l5xx_hal_adc_ex.c:0:1
	movs	r0, #1
.Ltmp203:
	.loc	6 655 5 is_stmt 1               @ c:/Keil_v5\ARM\PACK\Keil\STM32L5xx_DFP\1.3.0\Drivers\STM32L5xx_HAL_Driver\Src\stm32l5xx_hal_adc_ex.c:655:5
	strb.w	r0, [r4, #84]
.Ltmp204:
	.loc	6 658 22                        @ c:/Keil_v5\ARM\PACK\Keil\STM32L5xx_DFP\1.3.0\Drivers\STM32L5xx_HAL_Driver\Src\stm32l5xx_hal_adc_ex.c:658:22
	mov	r0, r4
	bl	ADC_Enable
.Ltmp205:
	@DEBUG_VALUE: HAL_ADCEx_InjectedStart_IT:tmp_hal_status <- $r0
	.loc	6 661 9                         @ c:/Keil_v5\ARM\PACK\Keil\STM32L5xx_DFP\1.3.0\Drivers\STM32L5xx_HAL_Driver\Src\stm32l5xx_hal_adc_ex.c:661:9
	cbz	r0, .LBB6_7
.Ltmp206:
@ %bb.6:
	@DEBUG_VALUE: HAL_ADCEx_InjectedStart_IT:tmp_hal_status <- $r0
	.loc	6 0 9 is_stmt 0                 @ c:/Keil_v5\ARM\PACK\Keil\STM32L5xx_DFP\1.3.0\Drivers\STM32L5xx_HAL_Driver\Src\stm32l5xx_hal_adc_ex.c:0:9
	movs	r1, #0
.Ltmp207:
	.loc	6 766 7 is_stmt 1               @ c:/Keil_v5\ARM\PACK\Keil\STM32L5xx_DFP\1.3.0\Drivers\STM32L5xx_HAL_Driver\Src\stm32l5xx_hal_adc_ex.c:766:7
	strb.w	r1, [r4, #84]
.Ltmp208:
	.loc	6 772 1                         @ c:/Keil_v5\ARM\PACK\Keil\STM32L5xx_DFP\1.3.0\Drivers\STM32L5xx_HAL_Driver\Src\stm32l5xx_hal_adc_ex.c:772:1
	pop	{r4, r5, r6, pc}
.Ltmp209:
	.p2align	2
.LBB6_7:
	@DEBUG_VALUE: HAL_ADCEx_InjectedStart_IT:tmp_hal_status <- $r0
	.loc	6 664 18                        @ c:/Keil_v5\ARM\PACK\Keil\STM32L5xx_DFP\1.3.0\Drivers\STM32L5xx_HAL_Driver\Src\stm32l5xx_hal_adc_ex.c:664:18
	ldr	r0, [r4, #88]
.Ltmp210:
	.loc	6 0 18 is_stmt 0                @ c:/Keil_v5\ARM\PACK\Keil\STM32L5xx_DFP\1.3.0\Drivers\STM32L5xx_HAL_Driver\Src\stm32l5xx_hal_adc_ex.c:0:18
	movw	r2, #12289
.Ltmp211:
	.loc	6 664 11                        @ c:/Keil_v5\ARM\PACK\Keil\STM32L5xx_DFP\1.3.0\Drivers\STM32L5xx_HAL_Driver\Src\stm32l5xx_hal_adc_ex.c:664:11
	lsls	r0, r0, #23
.Ltmp212:
	.loc	6 667 9 is_stmt 1               @ c:/Keil_v5\ARM\PACK\Keil\STM32L5xx_DFP\1.3.0\Drivers\STM32L5xx_HAL_Driver\Src\stm32l5xx_hal_adc_ex.c:667:9
	itte	mi
	ldrmi	r1, [r4, #92]
	bicmi	r1, r1, #8
	movpl	r1, #0
.Ltmp213:
	.loc	6 0 0 is_stmt 0                 @ c:/Keil_v5\ARM\PACK\Keil\STM32L5xx_DFP\1.3.0\Drivers\STM32L5xx_HAL_Driver\Src\stm32l5xx_hal_adc_ex.c:0:0
	str	r1, [r4, #92]
.Ltmp214:
	.loc	6 678 7 is_stmt 1               @ c:/Keil_v5\ARM\PACK\Keil\STM32L5xx_DFP\1.3.0\Drivers\STM32L5xx_HAL_Driver\Src\stm32l5xx_hal_adc_ex.c:678:7
	ldr	r1, [r4, #88]
	and	r0, r6, #31
.Ltmp215:
	@DEBUG_VALUE: HAL_ADCEx_InjectedStart_IT:tmp_multimode_config <- $r0
	bics	r1, r2
	add.w	r1, r1, #4096
	str	r1, [r4, #88]
.Ltmp216:
	.loc	6 686 12                        @ c:/Keil_v5\ARM\PACK\Keil\STM32L5xx_DFP\1.3.0\Drivers\STM32L5xx_HAL_Driver\Src\stm32l5xx_hal_adc_ex.c:686:12
	ldr	r1, [r4]
	add.w	r2, r5, #256
	cmp	r1, r2
	it	ne
	movne	r5, r1
	.loc	6 687 11                        @ c:/Keil_v5\ARM\PACK\Keil\STM32L5xx_DFP\1.3.0\Drivers\STM32L5xx_HAL_Driver\Src\stm32l5xx_hal_adc_ex.c:687:11
	cmp	r0, #0
	it	ne
	cmpne	r5, r1
	bne	.LBB6_9
.Ltmp217:
@ %bb.8:
	@DEBUG_VALUE: HAL_ADCEx_InjectedStart_IT:tmp_multimode_config <- $r0
	.loc	6 690 9                         @ c:/Keil_v5\ARM\PACK\Keil\STM32L5xx_DFP\1.3.0\Drivers\STM32L5xx_HAL_Driver\Src\stm32l5xx_hal_adc_ex.c:690:9
	ldr	r2, [r4, #88]
	bic	r2, r2, #1048576
	str	r2, [r4, #88]
.Ltmp218:
.LBB6_9:
	@DEBUG_VALUE: HAL_ADCEx_InjectedStart_IT:tmp_multimode_config <- $r0
	.loc	6 0 9 is_stmt 0                 @ c:/Keil_v5\ARM\PACK\Keil\STM32L5xx_DFP\1.3.0\Drivers\STM32L5xx_HAL_Driver\Src\stm32l5xx_hal_adc_ex.c:0:9
	movs	r2, #96
	.loc	6 696 7 is_stmt 1               @ c:/Keil_v5\ARM\PACK\Keil\STM32L5xx_DFP\1.3.0\Drivers\STM32L5xx_HAL_Driver\Src\stm32l5xx_hal_adc_ex.c:696:7
	str	r2, [r1]
	movs	r2, #0
.Ltmp219:
	.loc	6 701 7                         @ c:/Keil_v5\ARM\PACK\Keil\STM32L5xx_DFP\1.3.0\Drivers\STM32L5xx_HAL_Driver\Src\stm32l5xx_hal_adc_ex.c:701:7
	strb.w	r2, [r4, #84]
.Ltmp220:
	.loc	6 705 28                        @ c:/Keil_v5\ARM\PACK\Keil\STM32L5xx_DFP\1.3.0\Drivers\STM32L5xx_HAL_Driver\Src\stm32l5xx_hal_adc_ex.c:705:28
	ldr	r2, [r1, #12]
.Ltmp221:
	.loc	6 705 11 is_stmt 0              @ c:/Keil_v5\ARM\PACK\Keil\STM32L5xx_DFP\1.3.0\Drivers\STM32L5xx_HAL_Driver\Src\stm32l5xx_hal_adc_ex.c:705:11
	lsls	r2, r2, #10
	bpl	.LBB6_11
.Ltmp222:
@ %bb.10:
	@DEBUG_VALUE: HAL_ADCEx_InjectedStart_IT:tmp_multimode_config <- $r0
	.loc	6 707 9 is_stmt 1               @ c:/Keil_v5\ARM\PACK\Keil\STM32L5xx_DFP\1.3.0\Drivers\STM32L5xx_HAL_Driver\Src\stm32l5xx_hal_adc_ex.c:707:9
	ldr	r2, [r1, #4]
	orr	r2, r2, #1024
	str	r2, [r1, #4]
.Ltmp223:
.LBB6_11:
	@DEBUG_VALUE: HAL_ADCEx_InjectedStart_IT:tmp_multimode_config <- $r0
	.loc	6 711 26                        @ c:/Keil_v5\ARM\PACK\Keil\STM32L5xx_DFP\1.3.0\Drivers\STM32L5xx_HAL_Driver\Src\stm32l5xx_hal_adc_ex.c:711:26
	ldr	r2, [r4, #20]
.Ltmp224:
	.loc	6 0 0 is_stmt 0                 @ c:/Keil_v5\ARM\PACK\Keil\STM32L5xx_DFP\1.3.0\Drivers\STM32L5xx_HAL_Driver\Src\stm32l5xx_hal_adc_ex.c:0:0
	ldr	r3, [r1, #4]
	mvn	r6, #64
.Ltmp225:
	.loc	6 711 7                         @ c:/Keil_v5\ARM\PACK\Keil\STM32L5xx_DFP\1.3.0\Drivers\STM32L5xx_HAL_Driver\Src\stm32l5xx_hal_adc_ex.c:711:7
	cmp	r2, #8
	it	eq
	mvneq	r6, #32
.Ltmp226:
	.loc	6 0 0                           @ c:/Keil_v5\ARM\PACK\Keil\STM32L5xx_DFP\1.3.0\Drivers\STM32L5xx_HAL_Driver\Src\stm32l5xx_hal_adc_ex.c:0:0
	and.w	r3, r3, r6
	str	r3, [r1, #4]
	mov.w	r2, #32
	ldr	r3, [r1, #4]
.Ltmp227:
	.loc	6 711 7                         @ c:/Keil_v5\ARM\PACK\Keil\STM32L5xx_DFP\1.3.0\Drivers\STM32L5xx_HAL_Driver\Src\stm32l5xx_hal_adc_ex.c:711:7
	it	eq
	moveq	r2, #64
.Ltmp228:
	.loc	6 738 11 is_stmt 1              @ c:/Keil_v5\ARM\PACK\Keil\STM32L5xx_DFP\1.3.0\Drivers\STM32L5xx_HAL_Driver\Src\stm32l5xx_hal_adc_ex.c:738:11
	cmp	r5, r1
.Ltmp229:
	.loc	6 0 0 is_stmt 0                 @ c:/Keil_v5\ARM\PACK\Keil\STM32L5xx_DFP\1.3.0\Drivers\STM32L5xx_HAL_Driver\Src\stm32l5xx_hal_adc_ex.c:0:0
	orr.w	r2, r2, r3
	str	r2, [r1, #4]
.Ltmp230:
	.loc	6 738 11                        @ c:/Keil_v5\ARM\PACK\Keil\STM32L5xx_DFP\1.3.0\Drivers\STM32L5xx_HAL_Driver\Src\stm32l5xx_hal_adc_ex.c:738:11
	beq	.LBB6_14
.Ltmp231:
@ %bb.12:
	@DEBUG_VALUE: HAL_ADCEx_InjectedStart_IT:tmp_multimode_config <- $r0
	cmp	r0, #7
	bhi	.LBB6_16
.Ltmp232:
@ %bb.13:
	@DEBUG_VALUE: HAL_ADCEx_InjectedStart_IT:tmp_multimode_config <- $r0
	.loc	6 0 11                          @ c:/Keil_v5\ARM\PACK\Keil\STM32L5xx_DFP\1.3.0\Drivers\STM32L5xx_HAL_Driver\Src\stm32l5xx_hal_adc_ex.c:0:11
	movs	r2, #1
	lsl.w	r0, r2, r0
.Ltmp233:
	tst.w	r0, #193
	beq	.LBB6_16
.LBB6_14:
.Ltmp234:
	@DEBUG_VALUE: LL_ADC_INJ_GetTrigAuto:ADCx <- $r1
	.loc	7 4083 21 is_stmt 1             @ c:/Keil_v5\ARM\PACK\Keil\STM32L5xx_DFP\1.3.0\Drivers\STM32L5xx_HAL_Driver\Inc\stm32l5xx_ll_adc.h:4083:21
	ldr	r0, [r1, #12]
.Ltmp235:
	.loc	6 744 13                        @ c:/Keil_v5\ARM\PACK\Keil\STM32L5xx_DFP\1.3.0\Drivers\STM32L5xx_HAL_Driver\Src\stm32l5xx_hal_adc_ex.c:744:13
	lsls	r0, r0, #6
	itt	mi
	movmi	r0, #0
.Ltmp236:
	.loc	6 772 1                         @ c:/Keil_v5\ARM\PACK\Keil\STM32L5xx_DFP\1.3.0\Drivers\STM32L5xx_HAL_Driver\Src\stm32l5xx_hal_adc_ex.c:772:1
	popmi	{r4, r5, r6, pc}
.Ltmp237:
.LBB6_15:
	@DEBUG_VALUE: LL_ADC_INJ_StartConversion:ADCx <- $r1
	.loc	7 6030 3                        @ c:/Keil_v5\ARM\PACK\Keil\STM32L5xx_DFP\1.3.0\Drivers\STM32L5xx_HAL_Driver\Inc\stm32l5xx_ll_adc.h:6030:3
	ldr	r0, [r1, #8]
	movw	r2, #65472
	movt	r2, #32767
	ands	r0, r2
	adds	r0, #8
	str	r0, [r1, #8]
	movs	r0, #0
.Ltmp238:
	.loc	6 772 1                         @ c:/Keil_v5\ARM\PACK\Keil\STM32L5xx_DFP\1.3.0\Drivers\STM32L5xx_HAL_Driver\Src\stm32l5xx_hal_adc_ex.c:772:1
	pop	{r4, r5, r6, pc}
.Ltmp239:
	.p2align	2
.LBB6_16:
	.loc	6 752 9                         @ c:/Keil_v5\ARM\PACK\Keil\STM32L5xx_DFP\1.3.0\Drivers\STM32L5xx_HAL_Driver\Src\stm32l5xx_hal_adc_ex.c:752:9
	ldr	r0, [r4, #88]
	orr	r0, r0, #1048576
	str	r0, [r4, #88]
	movs	r0, #0
.Ltmp240:
	.loc	6 772 1                         @ c:/Keil_v5\ARM\PACK\Keil\STM32L5xx_DFP\1.3.0\Drivers\STM32L5xx_HAL_Driver\Src\stm32l5xx_hal_adc_ex.c:772:1
	pop	{r4, r5, r6, pc}
.Ltmp241:
.Lfunc_end6:
	.size	HAL_ADCEx_InjectedStart_IT, .Lfunc_end6-HAL_ADCEx_InjectedStart_IT
	.cfi_endproc
	.cantunwind
	.fnend
                                        @ -- End function
	.section	.text.HAL_ADCEx_InjectedStop_IT,"ax",%progbits
	.hidden	HAL_ADCEx_InjectedStop_IT       @ -- Begin function HAL_ADCEx_InjectedStop_IT
	.globl	HAL_ADCEx_InjectedStop_IT
	.p2align	2
	.type	HAL_ADCEx_InjectedStop_IT,%function
	.code	16                              @ @HAL_ADCEx_InjectedStop_IT
	.thumb_func
HAL_ADCEx_InjectedStop_IT:
.Lfunc_begin7:
	.loc	6 794 0                         @ c:/Keil_v5\ARM\PACK\Keil\STM32L5xx_DFP\1.3.0\Drivers\STM32L5xx_HAL_Driver\Src\stm32l5xx_hal_adc_ex.c:794:0
	.fnstart
	.cfi_startproc
@ %bb.0:
	@DEBUG_VALUE: HAL_ADCEx_InjectedStop_IT:hadc <- $r0
	.save	{r4, lr}
	push	{r4, lr}
	.cfi_def_cfa_offset 8
	.cfi_offset lr, -4
	.cfi_offset r4, -8
	mov	r4, r0
.Ltmp242:
	@DEBUG_VALUE: HAL_ADCEx_InjectedStop_IT:hadc <- $r4
	.loc	6 801 3 prologue_end            @ c:/Keil_v5\ARM\PACK\Keil\STM32L5xx_DFP\1.3.0\Drivers\STM32L5xx_HAL_Driver\Src\stm32l5xx_hal_adc_ex.c:801:3
	ldrb.w	r0, [r0, #84]
.Ltmp243:
	.loc	6 801 3 is_stmt 0               @ c:/Keil_v5\ARM\PACK\Keil\STM32L5xx_DFP\1.3.0\Drivers\STM32L5xx_HAL_Driver\Src\stm32l5xx_hal_adc_ex.c:801:3
	cmp	r0, #1
	itt	eq
	moveq	r0, #2
.Ltmp244:
	.loc	6 842 1 is_stmt 1               @ c:/Keil_v5\ARM\PACK\Keil\STM32L5xx_DFP\1.3.0\Drivers\STM32L5xx_HAL_Driver\Src\stm32l5xx_hal_adc_ex.c:842:1
	popeq	{r4, pc}
.Ltmp245:
.LBB7_1:
	.loc	6 0 1 is_stmt 0                 @ c:/Keil_v5\ARM\PACK\Keil\STM32L5xx_DFP\1.3.0\Drivers\STM32L5xx_HAL_Driver\Src\stm32l5xx_hal_adc_ex.c:0:1
	movs	r0, #1
.Ltmp246:
	.loc	6 801 3 is_stmt 1               @ c:/Keil_v5\ARM\PACK\Keil\STM32L5xx_DFP\1.3.0\Drivers\STM32L5xx_HAL_Driver\Src\stm32l5xx_hal_adc_ex.c:801:3
	strb.w	r0, [r4, #84]
.Ltmp247:
	.loc	6 804 20                        @ c:/Keil_v5\ARM\PACK\Keil\STM32L5xx_DFP\1.3.0\Drivers\STM32L5xx_HAL_Driver\Src\stm32l5xx_hal_adc_ex.c:804:20
	mov	r0, r4
	movs	r1, #2
	bl	ADC_ConversionStop
.Ltmp248:
	@DEBUG_VALUE: HAL_ADCEx_InjectedStop_IT:tmp_hal_status <- $r0
	.loc	6 809 7                         @ c:/Keil_v5\ARM\PACK\Keil\STM32L5xx_DFP\1.3.0\Drivers\STM32L5xx_HAL_Driver\Src\stm32l5xx_hal_adc_ex.c:809:7
	cbz	r0, .LBB7_3
.Ltmp249:
.LBB7_2:
	@DEBUG_VALUE: HAL_ADCEx_InjectedStop_IT:tmp_hal_status <- $r0
	@DEBUG_VALUE: HAL_ADCEx_InjectedStop_IT:tmp_hal_status <- $r0
	.loc	6 0 7 is_stmt 0                 @ c:/Keil_v5\ARM\PACK\Keil\STM32L5xx_DFP\1.3.0\Drivers\STM32L5xx_HAL_Driver\Src\stm32l5xx_hal_adc_ex.c:0:7
	movs	r1, #0
.Ltmp250:
	.loc	6 838 3 is_stmt 1               @ c:/Keil_v5\ARM\PACK\Keil\STM32L5xx_DFP\1.3.0\Drivers\STM32L5xx_HAL_Driver\Src\stm32l5xx_hal_adc_ex.c:838:3
	strb.w	r1, [r4, #84]
.Ltmp251:
	.loc	6 842 1                         @ c:/Keil_v5\ARM\PACK\Keil\STM32L5xx_DFP\1.3.0\Drivers\STM32L5xx_HAL_Driver\Src\stm32l5xx_hal_adc_ex.c:842:1
	pop	{r4, pc}
.Ltmp252:
	.p2align	2
.LBB7_3:
	@DEBUG_VALUE: HAL_ADCEx_InjectedStop_IT:tmp_hal_status <- $r0
	.loc	6 812 5                         @ c:/Keil_v5\ARM\PACK\Keil\STM32L5xx_DFP\1.3.0\Drivers\STM32L5xx_HAL_Driver\Src\stm32l5xx_hal_adc_ex.c:812:5
	ldr	r0, [r4]
.Ltmp253:
	ldr	r1, [r0, #4]
	bic	r1, r1, #1120
	str	r1, [r0, #4]
.Ltmp254:
	@DEBUG_VALUE: LL_ADC_REG_IsConversionOngoing:ADCx <- $r0
	.loc	7 5880 12                       @ c:/Keil_v5\ARM\PACK\Keil\STM32L5xx_DFP\1.3.0\Drivers\STM32L5xx_HAL_Driver\Inc\stm32l5xx_ll_adc.h:5880:12
	ldr	r0, [r0, #8]
.Ltmp255:
	.loc	6 814 9                         @ c:/Keil_v5\ARM\PACK\Keil\STM32L5xx_DFP\1.3.0\Drivers\STM32L5xx_HAL_Driver\Src\stm32l5xx_hal_adc_ex.c:814:9
	lsls	r0, r0, #29
	bmi	.LBB7_6
@ %bb.4:
.Ltmp256:
	.loc	6 817 24                        @ c:/Keil_v5\ARM\PACK\Keil\STM32L5xx_DFP\1.3.0\Drivers\STM32L5xx_HAL_Driver\Src\stm32l5xx_hal_adc_ex.c:817:24
	mov	r0, r4
	bl	ADC_Disable
.Ltmp257:
	@DEBUG_VALUE: HAL_ADCEx_InjectedStop_IT:tmp_hal_status <- $r0
	.loc	6 820 11                        @ c:/Keil_v5\ARM\PACK\Keil\STM32L5xx_DFP\1.3.0\Drivers\STM32L5xx_HAL_Driver\Src\stm32l5xx_hal_adc_ex.c:820:11
	cmp	r0, #0
	bne	.LBB7_2
.Ltmp258:
@ %bb.5:
	@DEBUG_VALUE: HAL_ADCEx_InjectedStop_IT:tmp_hal_status <- $r0
	.loc	6 823 9                         @ c:/Keil_v5\ARM\PACK\Keil\STM32L5xx_DFP\1.3.0\Drivers\STM32L5xx_HAL_Driver\Src\stm32l5xx_hal_adc_ex.c:823:9
	ldr	r0, [r4, #88]
.Ltmp259:
	.loc	6 0 9 is_stmt 0                 @ c:/Keil_v5\ARM\PACK\Keil\STM32L5xx_DFP\1.3.0\Drivers\STM32L5xx_HAL_Driver\Src\stm32l5xx_hal_adc_ex.c:0:9
	movw	r1, #4353
	.loc	6 823 9                         @ c:/Keil_v5\ARM\PACK\Keil\STM32L5xx_DFP\1.3.0\Drivers\STM32L5xx_HAL_Driver\Src\stm32l5xx_hal_adc_ex.c:823:9
	bics	r0, r1
	adds	r0, #1
	b	.LBB7_7
.Ltmp260:
	.p2align	2
.LBB7_6:
	.loc	6 833 7 is_stmt 1               @ c:/Keil_v5\ARM\PACK\Keil\STM32L5xx_DFP\1.3.0\Drivers\STM32L5xx_HAL_Driver\Src\stm32l5xx_hal_adc_ex.c:833:7
	ldr	r0, [r4, #88]
	bic	r0, r0, #4096
.Ltmp261:
.LBB7_7:
	.loc	6 0 0 is_stmt 0                 @ c:/Keil_v5\ARM\PACK\Keil\STM32L5xx_DFP\1.3.0\Drivers\STM32L5xx_HAL_Driver\Src\stm32l5xx_hal_adc_ex.c:0:0
	str	r0, [r4, #88]
	movs	r0, #0
.Ltmp262:
	@DEBUG_VALUE: HAL_ADCEx_InjectedStop_IT:tmp_hal_status <- $r0
	movs	r1, #0
.Ltmp263:
	.loc	6 838 3 is_stmt 1               @ c:/Keil_v5\ARM\PACK\Keil\STM32L5xx_DFP\1.3.0\Drivers\STM32L5xx_HAL_Driver\Src\stm32l5xx_hal_adc_ex.c:838:3
	strb.w	r1, [r4, #84]
.Ltmp264:
	.loc	6 842 1                         @ c:/Keil_v5\ARM\PACK\Keil\STM32L5xx_DFP\1.3.0\Drivers\STM32L5xx_HAL_Driver\Src\stm32l5xx_hal_adc_ex.c:842:1
	pop	{r4, pc}
.Ltmp265:
.Lfunc_end7:
	.size	HAL_ADCEx_InjectedStop_IT, .Lfunc_end7-HAL_ADCEx_InjectedStop_IT
	.cfi_endproc
	.cantunwind
	.fnend
                                        @ -- End function
	.section	.text.HAL_ADCEx_MultiModeStart_DMA,"ax",%progbits
	.hidden	HAL_ADCEx_MultiModeStart_DMA    @ -- Begin function HAL_ADCEx_MultiModeStart_DMA
	.globl	HAL_ADCEx_MultiModeStart_DMA
	.p2align	2
	.type	HAL_ADCEx_MultiModeStart_DMA,%function
	.code	16                              @ @HAL_ADCEx_MultiModeStart_DMA
	.thumb_func
HAL_ADCEx_MultiModeStart_DMA:
.Lfunc_begin8:
	.loc	6 861 0                         @ c:/Keil_v5\ARM\PACK\Keil\STM32L5xx_DFP\1.3.0\Drivers\STM32L5xx_HAL_Driver\Src\stm32l5xx_hal_adc_ex.c:861:0
	.fnstart
	.cfi_startproc
@ %bb.0:
	@DEBUG_VALUE: HAL_ADCEx_MultiModeStart_DMA:hadc <- $r0
	@DEBUG_VALUE: HAL_ADCEx_MultiModeStart_DMA:pData <- $r1
	@DEBUG_VALUE: HAL_ADCEx_MultiModeStart_DMA:Length <- $r2
	.save	{r4, r5, r6, r7, lr}
	push	{r4, r5, r6, r7, lr}
	.cfi_def_cfa_offset 20
	.cfi_offset lr, -4
	.cfi_offset r7, -8
	.cfi_offset r6, -12
	.cfi_offset r5, -16
	.cfi_offset r4, -20
	.pad	#108
	sub	sp, #108
	.cfi_def_cfa_offset 128
	mov	r4, r0
.Ltmp266:
	@DEBUG_VALUE: HAL_ADCEx_MultiModeStart_DMA:hadc <- $r4
	.loc	6 872 44 prologue_end           @ c:/Keil_v5\ARM\PACK\Keil\STM32L5xx_DFP\1.3.0\Drivers\STM32L5xx_HAL_Driver\Src\stm32l5xx_hal_adc_ex.c:872:44
	ldr	r0, [r0]
.Ltmp267:
	@DEBUG_VALUE: LL_ADC_REG_IsConversionOngoing:ADCx <- $r0
	.loc	6 0 44 is_stmt 0                @ c:/Keil_v5\ARM\PACK\Keil\STM32L5xx_DFP\1.3.0\Drivers\STM32L5xx_HAL_Driver\Src\stm32l5xx_hal_adc_ex.c:0:44
	mov	r5, r2
.Ltmp268:
	@DEBUG_VALUE: HAL_ADCEx_MultiModeStart_DMA:Length <- $r5
	@DEBUG_VALUE: HAL_ADCEx_MultiModeStart_DMA:Length <- $r5
	.loc	7 5880 12 is_stmt 1             @ c:/Keil_v5\ARM\PACK\Keil\STM32L5xx_DFP\1.3.0\Drivers\STM32L5xx_HAL_Driver\Inc\stm32l5xx_ll_adc.h:5880:12
	ldr	r3, [r0, #8]
.Ltmp269:
	.loc	6 872 7                         @ c:/Keil_v5\ARM\PACK\Keil\STM32L5xx_DFP\1.3.0\Drivers\STM32L5xx_HAL_Driver\Src\stm32l5xx_hal_adc_ex.c:872:7
	lsls	r2, r3, #29
	@DEBUG_VALUE: HAL_ADCEx_MultiModeStart_DMA:pData <- $r1
	bmi	.LBB8_2
.Ltmp270:
@ %bb.1:
	@DEBUG_VALUE: HAL_ADCEx_MultiModeStart_DMA:Length <- $r5
	@DEBUG_VALUE: HAL_ADCEx_MultiModeStart_DMA:hadc <- $r4
	@DEBUG_VALUE: HAL_ADCEx_MultiModeStart_DMA:pData <- $r1
	.loc	6 0 7 is_stmt 0                 @ c:/Keil_v5\ARM\PACK\Keil\STM32L5xx_DFP\1.3.0\Drivers\STM32L5xx_HAL_Driver\Src\stm32l5xx_hal_adc_ex.c:0:7
	mov	r6, r1
.Ltmp271:
	@DEBUG_VALUE: HAL_ADCEx_MultiModeStart_DMA:pData <- $r6
	@DEBUG_VALUE: HAL_ADCEx_MultiModeStart_DMA:pData <- $r6
	.loc	6 879 5 is_stmt 1               @ c:/Keil_v5\ARM\PACK\Keil\STM32L5xx_DFP\1.3.0\Drivers\STM32L5xx_HAL_Driver\Src\stm32l5xx_hal_adc_ex.c:879:5
	ldrb.w	r1, [r4, #84]
.Ltmp272:
	.loc	6 879 5 is_stmt 0               @ c:/Keil_v5\ARM\PACK\Keil\STM32L5xx_DFP\1.3.0\Drivers\STM32L5xx_HAL_Driver\Src\stm32l5xx_hal_adc_ex.c:879:5
	cmp	r1, #1
	bne	.LBB8_3
.Ltmp273:
.LBB8_2:
	@DEBUG_VALUE: HAL_ADCEx_MultiModeStart_DMA:Length <- $r5
	@DEBUG_VALUE: HAL_ADCEx_MultiModeStart_DMA:hadc <- $r4
	.loc	6 0 5                           @ c:/Keil_v5\ARM\PACK\Keil\STM32L5xx_DFP\1.3.0\Drivers\STM32L5xx_HAL_Driver\Src\stm32l5xx_hal_adc_ex.c:0:5
	movs	r0, #2
	.loc	6 960 1 is_stmt 1               @ c:/Keil_v5\ARM\PACK\Keil\STM32L5xx_DFP\1.3.0\Drivers\STM32L5xx_HAL_Driver\Src\stm32l5xx_hal_adc_ex.c:960:1
	add	sp, #108
	pop	{r4, r5, r6, r7, pc}
.Ltmp274:
	.p2align	2
.LBB8_3:
	@DEBUG_VALUE: HAL_ADCEx_MultiModeStart_DMA:pData <- $r6
	@DEBUG_VALUE: HAL_ADCEx_MultiModeStart_DMA:Length <- $r5
	@DEBUG_VALUE: HAL_ADCEx_MultiModeStart_DMA:hadc <- $r4
	.loc	6 0 1 is_stmt 0                 @ c:/Keil_v5\ARM\PACK\Keil\STM32L5xx_DFP\1.3.0\Drivers\STM32L5xx_HAL_Driver\Src\stm32l5xx_hal_adc_ex.c:0:1
	movw	r7, #32768
	movt	r7, #16898
	movs	r1, #1
.Ltmp275:
	.loc	6 882 5 is_stmt 1               @ c:/Keil_v5\ARM\PACK\Keil\STM32L5xx_DFP\1.3.0\Drivers\STM32L5xx_HAL_Driver\Src\stm32l5xx_hal_adc_ex.c:882:5
	cmp	r0, r7
.Ltmp276:
	.loc	6 879 5                         @ c:/Keil_v5\ARM\PACK\Keil\STM32L5xx_DFP\1.3.0\Drivers\STM32L5xx_HAL_Driver\Src\stm32l5xx_hal_adc_ex.c:879:5
	strb.w	r1, [r4, #84]
.Ltmp277:
	.loc	6 882 5                         @ c:/Keil_v5\ARM\PACK\Keil\STM32L5xx_DFP\1.3.0\Drivers\STM32L5xx_HAL_Driver\Src\stm32l5xx_hal_adc_ex.c:882:5
	beq	.LBB8_5
.Ltmp278:
@ %bb.4:
	@DEBUG_VALUE: HAL_ADCEx_MultiModeStart_DMA:pData <- $r6
	@DEBUG_VALUE: HAL_ADCEx_MultiModeStart_DMA:Length <- $r5
	@DEBUG_VALUE: HAL_ADCEx_MultiModeStart_DMA:hadc <- $r4
	.loc	6 887 7                         @ c:/Keil_v5\ARM\PACK\Keil\STM32L5xx_DFP\1.3.0\Drivers\STM32L5xx_HAL_Driver\Src\stm32l5xx_hal_adc_ex.c:887:7
	ldr	r0, [r4, #88]
	orr	r0, r0, #32
	str	r0, [r4, #88]
	movs	r0, #0
.Ltmp279:
	.loc	6 890 7                         @ c:/Keil_v5\ARM\PACK\Keil\STM32L5xx_DFP\1.3.0\Drivers\STM32L5xx_HAL_Driver\Src\stm32l5xx_hal_adc_ex.c:890:7
	strb.w	r0, [r4, #84]
	movs	r0, #1
.Ltmp280:
	.loc	6 960 1                         @ c:/Keil_v5\ARM\PACK\Keil\STM32L5xx_DFP\1.3.0\Drivers\STM32L5xx_HAL_Driver\Src\stm32l5xx_hal_adc_ex.c:960:1
	add	sp, #108
	pop	{r4, r5, r6, r7, pc}
.Ltmp281:
	.p2align	2
.LBB8_5:
	@DEBUG_VALUE: HAL_ADCEx_MultiModeStart_DMA:pData <- $r6
	@DEBUG_VALUE: HAL_ADCEx_MultiModeStart_DMA:Length <- $r5
	@DEBUG_VALUE: HAL_ADCEx_MultiModeStart_DMA:hadc <- $r4
	.loc	6 882 5                         @ c:/Keil_v5\ARM\PACK\Keil\STM32L5xx_DFP\1.3.0\Drivers\STM32L5xx_HAL_Driver\Src\stm32l5xx_hal_adc_ex.c:882:5
	add.w	r0, r7, #256
	str	r0, [sp, #4]
	.loc	6 897 22                        @ c:/Keil_v5\ARM\PACK\Keil\STM32L5xx_DFP\1.3.0\Drivers\STM32L5xx_HAL_Driver\Src\stm32l5xx_hal_adc_ex.c:897:22
	mov	r0, r4
	bl	ADC_Enable
.Ltmp282:
	@DEBUG_VALUE: HAL_ADCEx_MultiModeStart_DMA:tmp_hal_status <- $r0
	.loc	6 898 9                         @ c:/Keil_v5\ARM\PACK\Keil\STM32L5xx_DFP\1.3.0\Drivers\STM32L5xx_HAL_Driver\Src\stm32l5xx_hal_adc_ex.c:898:9
	cbnz	r0, .LBB8_7
.Ltmp283:
@ %bb.6:
	@DEBUG_VALUE: HAL_ADCEx_MultiModeStart_DMA:pData <- $r6
	@DEBUG_VALUE: HAL_ADCEx_MultiModeStart_DMA:Length <- $r5
	@DEBUG_VALUE: HAL_ADCEx_MultiModeStart_DMA:hadc <- $r4
	@DEBUG_VALUE: HAL_ADCEx_MultiModeStart_DMA:tmp_hal_status <- $r0
	.loc	6 0 9 is_stmt 0                 @ c:/Keil_v5\ARM\PACK\Keil\STM32L5xx_DFP\1.3.0\Drivers\STM32L5xx_HAL_Driver\Src\stm32l5xx_hal_adc_ex.c:0:9
	add	r0, sp, #4
.Ltmp284:
	.loc	6 900 24 is_stmt 1              @ c:/Keil_v5\ARM\PACK\Keil\STM32L5xx_DFP\1.3.0\Drivers\STM32L5xx_HAL_Driver\Src\stm32l5xx_hal_adc_ex.c:900:24
	bl	ADC_Enable
.Ltmp285:
	@DEBUG_VALUE: HAL_ADCEx_MultiModeStart_DMA:tmp_hal_status <- $r0
	.loc	6 904 9                         @ c:/Keil_v5\ARM\PACK\Keil\STM32L5xx_DFP\1.3.0\Drivers\STM32L5xx_HAL_Driver\Src\stm32l5xx_hal_adc_ex.c:904:9
	cbz	r0, .LBB8_8
.Ltmp286:
.LBB8_7:
	@DEBUG_VALUE: HAL_ADCEx_MultiModeStart_DMA:pData <- $r6
	@DEBUG_VALUE: HAL_ADCEx_MultiModeStart_DMA:Length <- $r5
	@DEBUG_VALUE: HAL_ADCEx_MultiModeStart_DMA:hadc <- $r4
	@DEBUG_VALUE: HAL_ADCEx_MultiModeStart_DMA:tmp_hal_status <- $r0
	.loc	6 0 9 is_stmt 0                 @ c:/Keil_v5\ARM\PACK\Keil\STM32L5xx_DFP\1.3.0\Drivers\STM32L5xx_HAL_Driver\Src\stm32l5xx_hal_adc_ex.c:0:9
	movs	r1, #0
.Ltmp287:
	.loc	6 954 7 is_stmt 1               @ c:/Keil_v5\ARM\PACK\Keil\STM32L5xx_DFP\1.3.0\Drivers\STM32L5xx_HAL_Driver\Src\stm32l5xx_hal_adc_ex.c:954:7
	strb.w	r1, [r4, #84]
.Ltmp288:
	.loc	6 960 1                         @ c:/Keil_v5\ARM\PACK\Keil\STM32L5xx_DFP\1.3.0\Drivers\STM32L5xx_HAL_Driver\Src\stm32l5xx_hal_adc_ex.c:960:1
	add	sp, #108
	pop	{r4, r5, r6, r7, pc}
.Ltmp289:
	.p2align	2
.LBB8_8:
	@DEBUG_VALUE: HAL_ADCEx_MultiModeStart_DMA:pData <- $r6
	@DEBUG_VALUE: HAL_ADCEx_MultiModeStart_DMA:Length <- $r5
	@DEBUG_VALUE: HAL_ADCEx_MultiModeStart_DMA:hadc <- $r4
	@DEBUG_VALUE: HAL_ADCEx_MultiModeStart_DMA:tmp_hal_status <- $r0
	.loc	6 931 7                         @ c:/Keil_v5\ARM\PACK\Keil\STM32L5xx_DFP\1.3.0\Drivers\STM32L5xx_HAL_Driver\Src\stm32l5xx_hal_adc_ex.c:931:7
	ldr	r1, [r4]
	.loc	6 915 13                        @ c:/Keil_v5\ARM\PACK\Keil\STM32L5xx_DFP\1.3.0\Drivers\STM32L5xx_HAL_Driver\Src\stm32l5xx_hal_adc_ex.c:915:13
	ldr	r0, [r4, #80]
.Ltmp290:
	.loc	6 907 7                         @ c:/Keil_v5\ARM\PACK\Keil\STM32L5xx_DFP\1.3.0\Drivers\STM32L5xx_HAL_Driver\Src\stm32l5xx_hal_adc_ex.c:907:7
	ldr	r2, [r4, #88]
	movw	r3, #3841
	bics	r2, r3
	add.w	r2, r2, #256
	.loc	6 915 42                        @ c:/Keil_v5\ARM\PACK\Keil\STM32L5xx_DFP\1.3.0\Drivers\STM32L5xx_HAL_Driver\Src\stm32l5xx_hal_adc_ex.c:915:42
	movw	r3, :lower16:ADC_DMAConvCplt
	.loc	6 918 46                        @ c:/Keil_v5\ARM\PACK\Keil\STM32L5xx_DFP\1.3.0\Drivers\STM32L5xx_HAL_Driver\Src\stm32l5xx_hal_adc_ex.c:918:46
	movw	r12, :lower16:ADC_DMAHalfConvCplt
	.loc	6 907 7                         @ c:/Keil_v5\ARM\PACK\Keil\STM32L5xx_DFP\1.3.0\Drivers\STM32L5xx_HAL_Driver\Src\stm32l5xx_hal_adc_ex.c:907:7
	str	r2, [r4, #88]
	movs	r2, #0
	.loc	6 915 42                        @ c:/Keil_v5\ARM\PACK\Keil\STM32L5xx_DFP\1.3.0\Drivers\STM32L5xx_HAL_Driver\Src\stm32l5xx_hal_adc_ex.c:915:42
	movt	r3, :upper16:ADC_DMAConvCplt
	.loc	6 918 46                        @ c:/Keil_v5\ARM\PACK\Keil\STM32L5xx_DFP\1.3.0\Drivers\STM32L5xx_HAL_Driver\Src\stm32l5xx_hal_adc_ex.c:918:46
	movt	r12, :upper16:ADC_DMAHalfConvCplt
	.loc	6 912 7                         @ c:/Keil_v5\ARM\PACK\Keil\STM32L5xx_DFP\1.3.0\Drivers\STM32L5xx_HAL_Driver\Src\stm32l5xx_hal_adc_ex.c:912:7
	str	r2, [r4, #92]
	.loc	6 915 42                        @ c:/Keil_v5\ARM\PACK\Keil\STM32L5xx_DFP\1.3.0\Drivers\STM32L5xx_HAL_Driver\Src\stm32l5xx_hal_adc_ex.c:915:42
	strd	r3, r12, [r0, #44]
	.loc	6 921 43                        @ c:/Keil_v5\ARM\PACK\Keil\STM32L5xx_DFP\1.3.0\Drivers\STM32L5xx_HAL_Driver\Src\stm32l5xx_hal_adc_ex.c:921:43
	movw	r3, :lower16:ADC_DMAError
	movt	r3, :upper16:ADC_DMAError
	str	r3, [r0, #60]
	movs	r3, #28
	.loc	6 931 7                         @ c:/Keil_v5\ARM\PACK\Keil\STM32L5xx_DFP\1.3.0\Drivers\STM32L5xx_HAL_Driver\Src\stm32l5xx_hal_adc_ex.c:931:7
	str	r3, [r1]
.Ltmp291:
	.loc	6 936 7                         @ c:/Keil_v5\ARM\PACK\Keil\STM32L5xx_DFP\1.3.0\Drivers\STM32L5xx_HAL_Driver\Src\stm32l5xx_hal_adc_ex.c:936:7
	strb.w	r2, [r4, #84]
.Ltmp292:
	.loc	6 939 7                         @ c:/Keil_v5\ARM\PACK\Keil\STM32L5xx_DFP\1.3.0\Drivers\STM32L5xx_HAL_Driver\Src\stm32l5xx_hal_adc_ex.c:939:7
	ldr	r2, [r1, #4]
	.loc	6 942 24                        @ c:/Keil_v5\ARM\PACK\Keil\STM32L5xx_DFP\1.3.0\Drivers\STM32L5xx_HAL_Driver\Src\stm32l5xx_hal_adc_ex.c:942:24
	mov	r3, r5
	.loc	6 939 7                         @ c:/Keil_v5\ARM\PACK\Keil\STM32L5xx_DFP\1.3.0\Drivers\STM32L5xx_HAL_Driver\Src\stm32l5xx_hal_adc_ex.c:939:7
	orr	r2, r2, #16
	str	r2, [r1, #4]
	.loc	6 942 24                        @ c:/Keil_v5\ARM\PACK\Keil\STM32L5xx_DFP\1.3.0\Drivers\STM32L5xx_HAL_Driver\Src\stm32l5xx_hal_adc_ex.c:942:24
	add.w	r1, r7, #780
	mov	r2, r6
	bl	HAL_DMA_Start_IT
	.loc	6 949 40                        @ c:/Keil_v5\ARM\PACK\Keil\STM32L5xx_DFP\1.3.0\Drivers\STM32L5xx_HAL_Driver\Src\stm32l5xx_hal_adc_ex.c:949:40
	ldr	r1, [r4]
.Ltmp293:
	@DEBUG_VALUE: LL_ADC_REG_StartConversion:ADCx <- $r1
	.loc	6 0 40 is_stmt 0                @ c:/Keil_v5\ARM\PACK\Keil\STM32L5xx_DFP\1.3.0\Drivers\STM32L5xx_HAL_Driver\Src\stm32l5xx_hal_adc_ex.c:0:40
	movw	r3, #65472
.Ltmp294:
	.loc	7 5847 3 is_stmt 1              @ c:/Keil_v5\ARM\PACK\Keil\STM32L5xx_DFP\1.3.0\Drivers\STM32L5xx_HAL_Driver\Inc\stm32l5xx_ll_adc.h:5847:3
	ldr	r2, [r1, #8]
.Ltmp295:
	@DEBUG_VALUE: HAL_ADCEx_MultiModeStart_DMA:tmp_hal_status <- undef
	.loc	7 0 3 is_stmt 0                 @ c:/Keil_v5\ARM\PACK\Keil\STM32L5xx_DFP\1.3.0\Drivers\STM32L5xx_HAL_Driver\Inc\stm32l5xx_ll_adc.h:0:3
	movt	r3, #32767
	.loc	7 5847 3                        @ c:/Keil_v5\ARM\PACK\Keil\STM32L5xx_DFP\1.3.0\Drivers\STM32L5xx_HAL_Driver\Inc\stm32l5xx_ll_adc.h:5847:3
	ands	r2, r3
	@DEBUG_VALUE: LL_ADC_REG_StartConversion:ADCx <- $r1
	adds	r2, #4
	str	r2, [r1, #8]
.Ltmp296:
	@DEBUG_VALUE: HAL_ADCEx_MultiModeStart_DMA:tmpADC_Common <- undef
	.loc	6 960 1 is_stmt 1               @ c:/Keil_v5\ARM\PACK\Keil\STM32L5xx_DFP\1.3.0\Drivers\STM32L5xx_HAL_Driver\Src\stm32l5xx_hal_adc_ex.c:960:1
	add	sp, #108
	pop	{r4, r5, r6, r7, pc}
.Ltmp297:
.Lfunc_end8:
	.size	HAL_ADCEx_MultiModeStart_DMA, .Lfunc_end8-HAL_ADCEx_MultiModeStart_DMA
	.cfi_endproc
	.cantunwind
	.fnend
                                        @ -- End function
	.section	.text.HAL_ADCEx_MultiModeStop_DMA,"ax",%progbits
	.hidden	HAL_ADCEx_MultiModeStop_DMA     @ -- Begin function HAL_ADCEx_MultiModeStop_DMA
	.globl	HAL_ADCEx_MultiModeStop_DMA
	.p2align	2
	.type	HAL_ADCEx_MultiModeStop_DMA,%function
	.code	16                              @ @HAL_ADCEx_MultiModeStop_DMA
	.thumb_func
HAL_ADCEx_MultiModeStop_DMA:
.Lfunc_begin9:
	.loc	6 976 0                         @ c:/Keil_v5\ARM\PACK\Keil\STM32L5xx_DFP\1.3.0\Drivers\STM32L5xx_HAL_Driver\Src\stm32l5xx_hal_adc_ex.c:976:0
	.fnstart
	.cfi_startproc
@ %bb.0:
	@DEBUG_VALUE: HAL_ADCEx_MultiModeStop_DMA:hadc <- $r0
	.save	{r4, r5, r6, lr}
	push	{r4, r5, r6, lr}
	.cfi_def_cfa_offset 16
	.cfi_offset lr, -4
	.cfi_offset r6, -8
	.cfi_offset r5, -12
	.cfi_offset r4, -16
	.pad	#104
	sub	sp, #104
	.cfi_def_cfa_offset 120
	mov	r4, r0
.Ltmp298:
	@DEBUG_VALUE: HAL_ADCEx_MultiModeStop_DMA:hadc <- $r4
	.loc	6 987 3 prologue_end            @ c:/Keil_v5\ARM\PACK\Keil\STM32L5xx_DFP\1.3.0\Drivers\STM32L5xx_HAL_Driver\Src\stm32l5xx_hal_adc_ex.c:987:3
	ldrb.w	r0, [r0, #84]
.Ltmp299:
	.loc	6 987 3 is_stmt 0               @ c:/Keil_v5\ARM\PACK\Keil\STM32L5xx_DFP\1.3.0\Drivers\STM32L5xx_HAL_Driver\Src\stm32l5xx_hal_adc_ex.c:987:3
	cmp	r0, #1
	bne	.LBB9_2
.Ltmp300:
@ %bb.1:
	@DEBUG_VALUE: HAL_ADCEx_MultiModeStop_DMA:hadc <- $r4
	.loc	6 0 3                           @ c:/Keil_v5\ARM\PACK\Keil\STM32L5xx_DFP\1.3.0\Drivers\STM32L5xx_HAL_Driver\Src\stm32l5xx_hal_adc_ex.c:0:3
	movs	r5, #2
	.loc	6 1081 1 is_stmt 1              @ c:/Keil_v5\ARM\PACK\Keil\STM32L5xx_DFP\1.3.0\Drivers\STM32L5xx_HAL_Driver\Src\stm32l5xx_hal_adc_ex.c:1081:1
	mov	r0, r5
	add	sp, #104
	pop	{r4, r5, r6, pc}
.Ltmp301:
	.p2align	2
.LBB9_2:
	@DEBUG_VALUE: HAL_ADCEx_MultiModeStop_DMA:hadc <- $r4
	.loc	6 0 1 is_stmt 0                 @ c:/Keil_v5\ARM\PACK\Keil\STM32L5xx_DFP\1.3.0\Drivers\STM32L5xx_HAL_Driver\Src\stm32l5xx_hal_adc_ex.c:0:1
	movs	r0, #1
.Ltmp302:
	.loc	6 987 3 is_stmt 1               @ c:/Keil_v5\ARM\PACK\Keil\STM32L5xx_DFP\1.3.0\Drivers\STM32L5xx_HAL_Driver\Src\stm32l5xx_hal_adc_ex.c:987:3
	strb.w	r0, [r4, #84]
.Ltmp303:
	.loc	6 991 20                        @ c:/Keil_v5\ARM\PACK\Keil\STM32L5xx_DFP\1.3.0\Drivers\STM32L5xx_HAL_Driver\Src\stm32l5xx_hal_adc_ex.c:991:20
	mov	r0, r4
	movs	r1, #3
	bl	ADC_ConversionStop
	mov	r5, r0
.Ltmp304:
	@DEBUG_VALUE: HAL_ADCEx_MultiModeStop_DMA:tmp_hal_status <- $r5
	.loc	6 994 7                         @ c:/Keil_v5\ARM\PACK\Keil\STM32L5xx_DFP\1.3.0\Drivers\STM32L5xx_HAL_Driver\Src\stm32l5xx_hal_adc_ex.c:994:7
	cmp	r0, #0
	bne	.LBB9_17
.Ltmp305:
@ %bb.3:
	@DEBUG_VALUE: HAL_ADCEx_MultiModeStop_DMA:tmp_hal_status <- $r5
	@DEBUG_VALUE: HAL_ADCEx_MultiModeStop_DMA:hadc <- $r4
	.loc	6 0 7 is_stmt 0                 @ c:/Keil_v5\ARM\PACK\Keil\STM32L5xx_DFP\1.3.0\Drivers\STM32L5xx_HAL_Driver\Src\stm32l5xx_hal_adc_ex.c:0:7
	movw	r6, #33032
	movt	r6, #16898
.Ltmp306:
	.loc	6 997 5 is_stmt 1               @ c:/Keil_v5\ARM\PACK\Keil\STM32L5xx_DFP\1.3.0\Drivers\STM32L5xx_HAL_Driver\Src\stm32l5xx_hal_adc_ex.c:997:5
	ldr	r0, [r4]
	sub.w	r1, r6, #264
	cmp	r0, r1
	beq	.LBB9_5
.Ltmp307:
@ %bb.4:
	@DEBUG_VALUE: HAL_ADCEx_MultiModeStop_DMA:tmp_hal_status <- $r5
	@DEBUG_VALUE: HAL_ADCEx_MultiModeStop_DMA:hadc <- $r4
	.loc	6 1002 7                        @ c:/Keil_v5\ARM\PACK\Keil\STM32L5xx_DFP\1.3.0\Drivers\STM32L5xx_HAL_Driver\Src\stm32l5xx_hal_adc_ex.c:1002:7
	mov	r0, r4
	ldr	r1, [r0, #88]!
	movs	r5, #1
.Ltmp308:
	orr	r1, r1, #32
	b	.LBB9_16
.Ltmp309:
	.p2align	2
.LBB9_5:
	@DEBUG_VALUE: HAL_ADCEx_MultiModeStop_DMA:tmp_hal_status <- $r5
	@DEBUG_VALUE: HAL_ADCEx_MultiModeStop_DMA:hadc <- $r4
	.loc	6 997 5                         @ c:/Keil_v5\ARM\PACK\Keil\STM32L5xx_DFP\1.3.0\Drivers\STM32L5xx_HAL_Driver\Src\stm32l5xx_hal_adc_ex.c:997:5
	sub.w	r0, r6, #8
	str	r0, [sp]
	.loc	6 1014 17                       @ c:/Keil_v5\ARM\PACK\Keil\STM32L5xx_DFP\1.3.0\Drivers\STM32L5xx_HAL_Driver\Src\stm32l5xx_hal_adc_ex.c:1014:17
	bl	HAL_GetTick
	.loc	6 0 0 is_stmt 0                 @ c:/Keil_v5\ARM\PACK\Keil\STM32L5xx_DFP\1.3.0\Drivers\STM32L5xx_HAL_Driver\Src\stm32l5xx_hal_adc_ex.c:0:0
	ldr	r1, [r6]
.Ltmp310:
	@DEBUG_VALUE: HAL_ADCEx_MultiModeStop_DMA:tmphadcSlave_conversion_on_going <- [DW_OP_constu 2, DW_OP_shr, DW_OP_constu 1, DW_OP_and, DW_OP_stack_value] $r1
	.loc	6 1017 50 is_stmt 1             @ c:/Keil_v5\ARM\PACK\Keil\STM32L5xx_DFP\1.3.0\Drivers\STM32L5xx_HAL_Driver\Src\stm32l5xx_hal_adc_ex.c:1017:50
	ldr	r2, [r4]
.Ltmp311:
	@DEBUG_VALUE: LL_ADC_REG_IsConversionOngoing:ADCx <- $r2
	.loc	7 5880 12                       @ c:/Keil_v5\ARM\PACK\Keil\STM32L5xx_DFP\1.3.0\Drivers\STM32L5xx_HAL_Driver\Inc\stm32l5xx_ll_adc.h:5880:12
	ldr	r2, [r2, #8]
.Ltmp312:
	.loc	6 1018 12                       @ c:/Keil_v5\ARM\PACK\Keil\STM32L5xx_DFP\1.3.0\Drivers\STM32L5xx_HAL_Driver\Src\stm32l5xx_hal_adc_ex.c:1018:12
	orrs	r1, r2
.Ltmp313:
	.loc	6 1017 5                        @ c:/Keil_v5\ARM\PACK\Keil\STM32L5xx_DFP\1.3.0\Drivers\STM32L5xx_HAL_Driver\Src\stm32l5xx_hal_adc_ex.c:1017:5
	lsls	r1, r1, #29
.Ltmp314:
	@DEBUG_VALUE: LL_ADC_REG_IsConversionOngoing:ADCx <- 0
	@DEBUG_VALUE: HAL_ADCEx_MultiModeStop_DMA:tickstart <- $r0
	@DEBUG_VALUE: HAL_ADCEx_MultiModeStop_DMA:tmphadcSlave_conversion_on_going <- [DW_OP_constu 2, DW_OP_shr, DW_OP_constu 1, DW_OP_and, DW_OP_stack_value] undef
	bpl	.LBB9_9
.Ltmp315:
@ %bb.6:
	@DEBUG_VALUE: HAL_ADCEx_MultiModeStop_DMA:tmp_hal_status <- $r5
	@DEBUG_VALUE: HAL_ADCEx_MultiModeStop_DMA:hadc <- $r4
	@DEBUG_VALUE: HAL_ADCEx_MultiModeStop_DMA:tickstart <- $r0
	@DEBUG_VALUE: LL_ADC_REG_IsConversionOngoing:ADCx <- 0
	.loc	6 0 5 is_stmt 0                 @ c:/Keil_v5\ARM\PACK\Keil\STM32L5xx_DFP\1.3.0\Drivers\STM32L5xx_HAL_Driver\Src\stm32l5xx_hal_adc_ex.c:0:5
	mov	r5, r0
.Ltmp316:
	@DEBUG_VALUE: HAL_ADCEx_MultiModeStop_DMA:tickstart <- $r5
	@DEBUG_VALUE: HAL_ADCEx_MultiModeStop_DMA:tickstart <- $r5
	.p2align	2
.LBB9_7:                                @ =>This Inner Loop Header: Depth=1
	@DEBUG_VALUE: HAL_ADCEx_MultiModeStop_DMA:tickstart <- $r5
	@DEBUG_VALUE: HAL_ADCEx_MultiModeStop_DMA:hadc <- $r4
	.loc	6 1021 12 is_stmt 1             @ c:/Keil_v5\ARM\PACK\Keil\STM32L5xx_DFP\1.3.0\Drivers\STM32L5xx_HAL_Driver\Src\stm32l5xx_hal_adc_ex.c:1021:12
	bl	HAL_GetTick
	.loc	6 1021 26 is_stmt 0             @ c:/Keil_v5\ARM\PACK\Keil\STM32L5xx_DFP\1.3.0\Drivers\STM32L5xx_HAL_Driver\Src\stm32l5xx_hal_adc_ex.c:1021:26
	subs	r0, r0, r5
.Ltmp317:
	.loc	6 1021 11                       @ c:/Keil_v5\ARM\PACK\Keil\STM32L5xx_DFP\1.3.0\Drivers\STM32L5xx_HAL_Driver\Src\stm32l5xx_hal_adc_ex.c:1021:11
	cmp	r0, #6
	bhs	.LBB9_13
.Ltmp318:
@ %bb.8:                                @   in Loop: Header=BB9_7 Depth=1
	@DEBUG_VALUE: HAL_ADCEx_MultiModeStop_DMA:tickstart <- $r5
	@DEBUG_VALUE: HAL_ADCEx_MultiModeStop_DMA:hadc <- $r4
	@DEBUG_VALUE: HAL_ADCEx_MultiModeStop_DMA:tmphadcSlave_conversion_on_going <- [DW_OP_constu 2, DW_OP_shr, DW_OP_constu 1, DW_OP_and, DW_OP_stack_value] undef
	@DEBUG_VALUE: LL_ADC_REG_IsConversionOngoing:ADCx <- 0
	.loc	6 0 0                           @ c:/Keil_v5\ARM\PACK\Keil\STM32L5xx_DFP\1.3.0\Drivers\STM32L5xx_HAL_Driver\Src\stm32l5xx_hal_adc_ex.c:0:0
	ldr	r0, [r6]
.Ltmp319:
	@DEBUG_VALUE: HAL_ADCEx_MultiModeStop_DMA:tmphadcSlave_conversion_on_going <- [DW_OP_constu 2, DW_OP_shr, DW_OP_constu 1, DW_OP_and, DW_OP_stack_value] $r0
	.loc	6 1017 50 is_stmt 1             @ c:/Keil_v5\ARM\PACK\Keil\STM32L5xx_DFP\1.3.0\Drivers\STM32L5xx_HAL_Driver\Src\stm32l5xx_hal_adc_ex.c:1017:50
	ldr	r1, [r4]
.Ltmp320:
	@DEBUG_VALUE: LL_ADC_REG_IsConversionOngoing:ADCx <- $r1
	.loc	7 5880 12                       @ c:/Keil_v5\ARM\PACK\Keil\STM32L5xx_DFP\1.3.0\Drivers\STM32L5xx_HAL_Driver\Inc\stm32l5xx_ll_adc.h:5880:12
	ldr	r1, [r1, #8]
.Ltmp321:
	.loc	6 1018 12                       @ c:/Keil_v5\ARM\PACK\Keil\STM32L5xx_DFP\1.3.0\Drivers\STM32L5xx_HAL_Driver\Src\stm32l5xx_hal_adc_ex.c:1018:12
	orrs	r0, r1
.Ltmp322:
	.loc	6 1017 5                        @ c:/Keil_v5\ARM\PACK\Keil\STM32L5xx_DFP\1.3.0\Drivers\STM32L5xx_HAL_Driver\Src\stm32l5xx_hal_adc_ex.c:1017:5
	lsls	r0, r0, #29
	bmi	.LBB9_7
.Ltmp323:
.LBB9_9:
	@DEBUG_VALUE: HAL_ADCEx_MultiModeStop_DMA:hadc <- $r4
	.loc	6 1039 42                       @ c:/Keil_v5\ARM\PACK\Keil\STM32L5xx_DFP\1.3.0\Drivers\STM32L5xx_HAL_Driver\Src\stm32l5xx_hal_adc_ex.c:1039:42
	ldr	r0, [r4, #80]
	.loc	6 1039 22 is_stmt 0             @ c:/Keil_v5\ARM\PACK\Keil\STM32L5xx_DFP\1.3.0\Drivers\STM32L5xx_HAL_Driver\Src\stm32l5xx_hal_adc_ex.c:1039:22
	bl	HAL_DMA_Abort
	mov	r5, r0
.Ltmp324:
	@DEBUG_VALUE: HAL_ADCEx_MultiModeStop_DMA:tmp_hal_status <- $r5
	.loc	6 1042 9 is_stmt 1              @ c:/Keil_v5\ARM\PACK\Keil\STM32L5xx_DFP\1.3.0\Drivers\STM32L5xx_HAL_Driver\Src\stm32l5xx_hal_adc_ex.c:1042:9
	cmp	r0, #1
	bne	.LBB9_11
.Ltmp325:
@ %bb.10:
	@DEBUG_VALUE: HAL_ADCEx_MultiModeStop_DMA:tmp_hal_status <- $r5
	@DEBUG_VALUE: HAL_ADCEx_MultiModeStop_DMA:hadc <- $r4
	.loc	6 1049 5                        @ c:/Keil_v5\ARM\PACK\Keil\STM32L5xx_DFP\1.3.0\Drivers\STM32L5xx_HAL_Driver\Src\stm32l5xx_hal_adc_ex.c:1049:5
	ldr	r0, [r4]
.Ltmp326:
	.loc	6 1045 7                        @ c:/Keil_v5\ARM\PACK\Keil\STM32L5xx_DFP\1.3.0\Drivers\STM32L5xx_HAL_Driver\Src\stm32l5xx_hal_adc_ex.c:1045:7
	ldr	r1, [r4, #88]
	orr	r1, r1, #64
	str	r1, [r4, #88]
.Ltmp327:
	.loc	6 1049 5                        @ c:/Keil_v5\ARM\PACK\Keil\STM32L5xx_DFP\1.3.0\Drivers\STM32L5xx_HAL_Driver\Src\stm32l5xx_hal_adc_ex.c:1049:5
	ldr	r1, [r0, #4]
	bic	r1, r1, #16
	str	r1, [r0, #4]
	b	.LBB9_12
.Ltmp328:
	.p2align	2
.LBB9_11:
	@DEBUG_VALUE: HAL_ADCEx_MultiModeStop_DMA:tmp_hal_status <- $r5
	@DEBUG_VALUE: HAL_ADCEx_MultiModeStop_DMA:hadc <- $r4
	ldr	r0, [r4]
	ldr	r1, [r0, #4]
	bic	r1, r1, #16
	str	r1, [r0, #4]
	.loc	6 1054 9                        @ c:/Keil_v5\ARM\PACK\Keil\STM32L5xx_DFP\1.3.0\Drivers\STM32L5xx_HAL_Driver\Src\stm32l5xx_hal_adc_ex.c:1054:9
	cbz	r5, .LBB9_14
.Ltmp329:
.LBB9_12:
	@DEBUG_VALUE: HAL_ADCEx_MultiModeStop_DMA:tmp_hal_status <- $r5
	@DEBUG_VALUE: HAL_ADCEx_MultiModeStop_DMA:hadc <- $r4
	.loc	6 1066 14                       @ c:/Keil_v5\ARM\PACK\Keil\STM32L5xx_DFP\1.3.0\Drivers\STM32L5xx_HAL_Driver\Src\stm32l5xx_hal_adc_ex.c:1066:14
	mov	r0, r4
	bl	ADC_Disable
	mov	r0, sp
	b	.LBB9_15
.Ltmp330:
	.p2align	2
.LBB9_13:
	@DEBUG_VALUE: HAL_ADCEx_MultiModeStop_DMA:tickstart <- $r5
	@DEBUG_VALUE: HAL_ADCEx_MultiModeStop_DMA:hadc <- $r4
	.loc	6 1024 9                        @ c:/Keil_v5\ARM\PACK\Keil\STM32L5xx_DFP\1.3.0\Drivers\STM32L5xx_HAL_Driver\Src\stm32l5xx_hal_adc_ex.c:1024:9
	mov	r0, r4
	ldr	r1, [r0, #88]!
	movs	r5, #1
.Ltmp331:
	orr	r1, r1, #16
	b	.LBB9_16
.Ltmp332:
	.p2align	2
.LBB9_14:
	@DEBUG_VALUE: HAL_ADCEx_MultiModeStop_DMA:tmp_hal_status <- $r5
	@DEBUG_VALUE: HAL_ADCEx_MultiModeStop_DMA:hadc <- $r4
	.loc	6 0 9 is_stmt 0                 @ c:/Keil_v5\ARM\PACK\Keil\STM32L5xx_DFP\1.3.0\Drivers\STM32L5xx_HAL_Driver\Src\stm32l5xx_hal_adc_ex.c:0:9
	mov	r0, sp
.Ltmp333:
	.loc	6 1056 37 is_stmt 1             @ c:/Keil_v5\ARM\PACK\Keil\STM32L5xx_DFP\1.3.0\Drivers\STM32L5xx_HAL_Driver\Src\stm32l5xx_hal_adc_ex.c:1056:37
	bl	ADC_Disable
.Ltmp334:
	@DEBUG_VALUE: HAL_ADCEx_MultiModeStop_DMA:tmphadcSlave_disable_status <- undef
	.loc	6 0 37 is_stmt 0                @ c:/Keil_v5\ARM\PACK\Keil\STM32L5xx_DFP\1.3.0\Drivers\STM32L5xx_HAL_Driver\Src\stm32l5xx_hal_adc_ex.c:0:37
	mov	r0, r4
.Ltmp335:
.LBB9_15:
	@DEBUG_VALUE: HAL_ADCEx_MultiModeStop_DMA:tmp_hal_status <- $r5
	@DEBUG_VALUE: HAL_ADCEx_MultiModeStop_DMA:hadc <- $r4
	bl	ADC_Disable
.Ltmp336:
	@DEBUG_VALUE: HAL_ADCEx_MultiModeStop_DMA:tmp_hal_status <- $r5
	.loc	6 1071 5 is_stmt 1              @ c:/Keil_v5\ARM\PACK\Keil\STM32L5xx_DFP\1.3.0\Drivers\STM32L5xx_HAL_Driver\Src\stm32l5xx_hal_adc_ex.c:1071:5
	mov	r0, r4
	ldr	r1, [r0, #88]!
	movw	r2, #4353
	bics	r1, r2
	adds	r1, #1
.Ltmp337:
.LBB9_16:
	@DEBUG_VALUE: HAL_ADCEx_MultiModeStop_DMA:hadc <- $r4
	.loc	6 0 0 is_stmt 0                 @ c:/Keil_v5\ARM\PACK\Keil\STM32L5xx_DFP\1.3.0\Drivers\STM32L5xx_HAL_Driver\Src\stm32l5xx_hal_adc_ex.c:0:0
	str	r1, [r0]
.Ltmp338:
.LBB9_17:
	@DEBUG_VALUE: HAL_ADCEx_MultiModeStop_DMA:hadc <- $r4
	movs	r0, #0
	strb.w	r0, [r4, #84]
	.loc	6 1081 1 is_stmt 1              @ c:/Keil_v5\ARM\PACK\Keil\STM32L5xx_DFP\1.3.0\Drivers\STM32L5xx_HAL_Driver\Src\stm32l5xx_hal_adc_ex.c:1081:1
	mov	r0, r5
	add	sp, #104
	pop	{r4, r5, r6, pc}
.Ltmp339:
.Lfunc_end9:
	.size	HAL_ADCEx_MultiModeStop_DMA, .Lfunc_end9-HAL_ADCEx_MultiModeStop_DMA
	.cfi_endproc
	.cantunwind
	.fnend
                                        @ -- End function
	.section	.text.HAL_ADCEx_MultiModeGetValue,"ax",%progbits
	.hidden	HAL_ADCEx_MultiModeGetValue     @ -- Begin function HAL_ADCEx_MultiModeGetValue
	.globl	HAL_ADCEx_MultiModeGetValue
	.p2align	2
	.type	HAL_ADCEx_MultiModeGetValue,%function
	.code	16                              @ @HAL_ADCEx_MultiModeGetValue
	.thumb_func
HAL_ADCEx_MultiModeGetValue:
.Lfunc_begin10:
	.loc	6 1089 0                        @ c:/Keil_v5\ARM\PACK\Keil\STM32L5xx_DFP\1.3.0\Drivers\STM32L5xx_HAL_Driver\Src\stm32l5xx_hal_adc_ex.c:1089:0
	.fnstart
	.cfi_startproc
@ %bb.0:
	@DEBUG_VALUE: HAL_ADCEx_MultiModeGetValue:hadc <- $r0
	movw	r0, #33548
.Ltmp340:
	@DEBUG_VALUE: HAL_ADCEx_MultiModeGetValue:hadc <- [DW_OP_LLVM_entry_value 1] $r0
	movt	r0, #16898
.Ltmp341:
	.loc	6 1103 25 prologue_end          @ c:/Keil_v5\ARM\PACK\Keil\STM32L5xx_DFP\1.3.0\Drivers\STM32L5xx_HAL_Driver\Src\stm32l5xx_hal_adc_ex.c:1103:25
	ldr	r0, [r0]
.Ltmp342:
	@DEBUG_VALUE: HAL_ADCEx_MultiModeGetValue:tmpADC_Common <- undef
	.loc	6 1103 3 is_stmt 0              @ c:/Keil_v5\ARM\PACK\Keil\STM32L5xx_DFP\1.3.0\Drivers\STM32L5xx_HAL_Driver\Src\stm32l5xx_hal_adc_ex.c:1103:3
	bx	lr
.Ltmp343:
.Lfunc_end10:
	.size	HAL_ADCEx_MultiModeGetValue, .Lfunc_end10-HAL_ADCEx_MultiModeGetValue
	.cfi_endproc
	.cantunwind
	.fnend
                                        @ -- End function
	.section	.text.HAL_ADCEx_InjectedGetValue,"ax",%progbits
	.hidden	HAL_ADCEx_InjectedGetValue      @ -- Begin function HAL_ADCEx_InjectedGetValue
	.globl	HAL_ADCEx_InjectedGetValue
	.p2align	2
	.type	HAL_ADCEx_InjectedGetValue,%function
	.code	16                              @ @HAL_ADCEx_InjectedGetValue
	.thumb_func
HAL_ADCEx_InjectedGetValue:
.Lfunc_begin11:
	.loc	6 1136 0 is_stmt 1              @ c:/Keil_v5\ARM\PACK\Keil\STM32L5xx_DFP\1.3.0\Drivers\STM32L5xx_HAL_Driver\Src\stm32l5xx_hal_adc_ex.c:1136:0
	.fnstart
	.cfi_startproc
@ %bb.0:
	@DEBUG_VALUE: HAL_ADCEx_InjectedGetValue:hadc <- $r0
	@DEBUG_VALUE: HAL_ADCEx_InjectedGetValue:InjectedRank <- $r1
	@DEBUG_VALUE: HAL_ADCEx_InjectedGetValue:InjectedRank <- $r1
	.loc	6 1144 3 prologue_end           @ c:/Keil_v5\ARM\PACK\Keil\STM32L5xx_DFP\1.3.0\Drivers\STM32L5xx_HAL_Driver\Src\stm32l5xx_hal_adc_ex.c:1144:3
	cmp.w	r1, #270
	@DEBUG_VALUE: HAL_ADCEx_InjectedGetValue:hadc <- $r0
	beq	.LBB11_3
.Ltmp344:
@ %bb.1:
	@DEBUG_VALUE: HAL_ADCEx_InjectedGetValue:InjectedRank <- $r1
	@DEBUG_VALUE: HAL_ADCEx_InjectedGetValue:hadc <- $r0
	cmp.w	r1, #532
	beq	.LBB11_4
.Ltmp345:
@ %bb.2:
	@DEBUG_VALUE: HAL_ADCEx_InjectedGetValue:InjectedRank <- $r1
	@DEBUG_VALUE: HAL_ADCEx_InjectedGetValue:hadc <- $r0
	.loc	6 0 3 is_stmt 0                 @ c:/Keil_v5\ARM\PACK\Keil\STM32L5xx_DFP\1.3.0\Drivers\STM32L5xx_HAL_Driver\Src\stm32l5xx_hal_adc_ex.c:0:3
	movw	r2, #794
.Ltmp346:
	.loc	6 1157 23 is_stmt 1             @ c:/Keil_v5\ARM\PACK\Keil\STM32L5xx_DFP\1.3.0\Drivers\STM32L5xx_HAL_Driver\Src\stm32l5xx_hal_adc_ex.c:1157:23
	ldr	r0, [r0]
.Ltmp347:
	@DEBUG_VALUE: HAL_ADCEx_InjectedGetValue:hadc <- [DW_OP_LLVM_entry_value 1] $r0
	.loc	6 1144 3                        @ c:/Keil_v5\ARM\PACK\Keil\STM32L5xx_DFP\1.3.0\Drivers\STM32L5xx_HAL_Driver\Src\stm32l5xx_hal_adc_ex.c:1144:3
	cmp	r1, r2
.Ltmp348:
	.loc	6 1157 33                       @ c:/Keil_v5\ARM\PACK\Keil\STM32L5xx_DFP\1.3.0\Drivers\STM32L5xx_HAL_Driver\Src\stm32l5xx_hal_adc_ex.c:1157:33
	ite	ne
	addne	r0, #128
.Ltmp349:
	@DEBUG_VALUE: HAL_ADCEx_InjectedGetValue:tmp_jdr <- undef
	.loc	6 1147 33                       @ c:/Keil_v5\ARM\PACK\Keil\STM32L5xx_DFP\1.3.0\Drivers\STM32L5xx_HAL_Driver\Src\stm32l5xx_hal_adc_ex.c:1147:33
	addeq	r0, #140
	@DEBUG_VALUE: HAL_ADCEx_InjectedGetValue:tmp_jdr <- undef
	.loc	6 0 0 is_stmt 0                 @ c:/Keil_v5\ARM\PACK\Keil\STM32L5xx_DFP\1.3.0\Drivers\STM32L5xx_HAL_Driver\Src\stm32l5xx_hal_adc_ex.c:0:0
	ldr	r0, [r0]
.Ltmp350:
	@DEBUG_VALUE: HAL_ADCEx_InjectedGetValue:tmp_jdr <- $r0
	.loc	6 1162 3 is_stmt 1              @ c:/Keil_v5\ARM\PACK\Keil\STM32L5xx_DFP\1.3.0\Drivers\STM32L5xx_HAL_Driver\Src\stm32l5xx_hal_adc_ex.c:1162:3
	bx	lr
.Ltmp351:
	.p2align	2
.LBB11_3:
	@DEBUG_VALUE: HAL_ADCEx_InjectedGetValue:InjectedRank <- $r1
	@DEBUG_VALUE: HAL_ADCEx_InjectedGetValue:hadc <- $r0
	.loc	6 1153 23                       @ c:/Keil_v5\ARM\PACK\Keil\STM32L5xx_DFP\1.3.0\Drivers\STM32L5xx_HAL_Driver\Src\stm32l5xx_hal_adc_ex.c:1153:23
	ldr	r0, [r0]
.Ltmp352:
	@DEBUG_VALUE: HAL_ADCEx_InjectedGetValue:hadc <- [DW_OP_LLVM_entry_value 1] $r0
	.loc	6 1153 33 is_stmt 0             @ c:/Keil_v5\ARM\PACK\Keil\STM32L5xx_DFP\1.3.0\Drivers\STM32L5xx_HAL_Driver\Src\stm32l5xx_hal_adc_ex.c:1153:33
	adds	r0, #132
.Ltmp353:
	@DEBUG_VALUE: HAL_ADCEx_InjectedGetValue:tmp_jdr <- undef
	.loc	6 0 0                           @ c:/Keil_v5\ARM\PACK\Keil\STM32L5xx_DFP\1.3.0\Drivers\STM32L5xx_HAL_Driver\Src\stm32l5xx_hal_adc_ex.c:0:0
	ldr	r0, [r0]
.Ltmp354:
	@DEBUG_VALUE: HAL_ADCEx_InjectedGetValue:tmp_jdr <- $r0
	.loc	6 1162 3 is_stmt 1              @ c:/Keil_v5\ARM\PACK\Keil\STM32L5xx_DFP\1.3.0\Drivers\STM32L5xx_HAL_Driver\Src\stm32l5xx_hal_adc_ex.c:1162:3
	bx	lr
.Ltmp355:
	.p2align	2
.LBB11_4:
	@DEBUG_VALUE: HAL_ADCEx_InjectedGetValue:InjectedRank <- $r1
	@DEBUG_VALUE: HAL_ADCEx_InjectedGetValue:hadc <- $r0
	.loc	6 1150 23                       @ c:/Keil_v5\ARM\PACK\Keil\STM32L5xx_DFP\1.3.0\Drivers\STM32L5xx_HAL_Driver\Src\stm32l5xx_hal_adc_ex.c:1150:23
	ldr	r0, [r0]
.Ltmp356:
	@DEBUG_VALUE: HAL_ADCEx_InjectedGetValue:hadc <- [DW_OP_LLVM_entry_value 1] $r0
	.loc	6 1150 33 is_stmt 0             @ c:/Keil_v5\ARM\PACK\Keil\STM32L5xx_DFP\1.3.0\Drivers\STM32L5xx_HAL_Driver\Src\stm32l5xx_hal_adc_ex.c:1150:33
	adds	r0, #136
.Ltmp357:
	@DEBUG_VALUE: HAL_ADCEx_InjectedGetValue:tmp_jdr <- undef
	.loc	6 0 0                           @ c:/Keil_v5\ARM\PACK\Keil\STM32L5xx_DFP\1.3.0\Drivers\STM32L5xx_HAL_Driver\Src\stm32l5xx_hal_adc_ex.c:0:0
	ldr	r0, [r0]
.Ltmp358:
	@DEBUG_VALUE: HAL_ADCEx_InjectedGetValue:tmp_jdr <- $r0
	.loc	6 1162 3 is_stmt 1              @ c:/Keil_v5\ARM\PACK\Keil\STM32L5xx_DFP\1.3.0\Drivers\STM32L5xx_HAL_Driver\Src\stm32l5xx_hal_adc_ex.c:1162:3
	bx	lr
.Ltmp359:
.Lfunc_end11:
	.size	HAL_ADCEx_InjectedGetValue, .Lfunc_end11-HAL_ADCEx_InjectedGetValue
	.cfi_endproc
	.cantunwind
	.fnend
                                        @ -- End function
	.section	.text.HAL_ADCEx_InjectedConvCpltCallback,"ax",%progbits
	.hidden	HAL_ADCEx_InjectedConvCpltCallback @ -- Begin function HAL_ADCEx_InjectedConvCpltCallback
	.weak	HAL_ADCEx_InjectedConvCpltCallback
	.p2align	2
	.type	HAL_ADCEx_InjectedConvCpltCallback,%function
	.code	16                              @ @HAL_ADCEx_InjectedConvCpltCallback
	.thumb_func
HAL_ADCEx_InjectedConvCpltCallback:
.Lfunc_begin12:
	.loc	6 1171 0                        @ c:/Keil_v5\ARM\PACK\Keil\STM32L5xx_DFP\1.3.0\Drivers\STM32L5xx_HAL_Driver\Src\stm32l5xx_hal_adc_ex.c:1171:0
	.fnstart
	.cfi_startproc
@ %bb.0:
	@DEBUG_VALUE: HAL_ADCEx_InjectedConvCpltCallback:hadc <- $r0
	.loc	6 1178 1 prologue_end           @ c:/Keil_v5\ARM\PACK\Keil\STM32L5xx_DFP\1.3.0\Drivers\STM32L5xx_HAL_Driver\Src\stm32l5xx_hal_adc_ex.c:1178:1
	bx	lr
.Ltmp360:
.Lfunc_end12:
	.size	HAL_ADCEx_InjectedConvCpltCallback, .Lfunc_end12-HAL_ADCEx_InjectedConvCpltCallback
	.cfi_endproc
	.cantunwind
	.fnend
                                        @ -- End function
	.section	.text.HAL_ADCEx_InjectedQueueOverflowCallback,"ax",%progbits
	.hidden	HAL_ADCEx_InjectedQueueOverflowCallback @ -- Begin function HAL_ADCEx_InjectedQueueOverflowCallback
	.weak	HAL_ADCEx_InjectedQueueOverflowCallback
	.p2align	2
	.type	HAL_ADCEx_InjectedQueueOverflowCallback,%function
	.code	16                              @ @HAL_ADCEx_InjectedQueueOverflowCallback
	.thumb_func
HAL_ADCEx_InjectedQueueOverflowCallback:
.Lfunc_begin13:
	.loc	6 1190 0                        @ c:/Keil_v5\ARM\PACK\Keil\STM32L5xx_DFP\1.3.0\Drivers\STM32L5xx_HAL_Driver\Src\stm32l5xx_hal_adc_ex.c:1190:0
	.fnstart
	.cfi_startproc
@ %bb.0:
	@DEBUG_VALUE: HAL_ADCEx_InjectedQueueOverflowCallback:hadc <- $r0
	.loc	6 1197 1 prologue_end           @ c:/Keil_v5\ARM\PACK\Keil\STM32L5xx_DFP\1.3.0\Drivers\STM32L5xx_HAL_Driver\Src\stm32l5xx_hal_adc_ex.c:1197:1
	bx	lr
.Ltmp361:
.Lfunc_end13:
	.size	HAL_ADCEx_InjectedQueueOverflowCallback, .Lfunc_end13-HAL_ADCEx_InjectedQueueOverflowCallback
	.cfi_endproc
	.cantunwind
	.fnend
                                        @ -- End function
	.section	.text.HAL_ADCEx_LevelOutOfWindow2Callback,"ax",%progbits
	.hidden	HAL_ADCEx_LevelOutOfWindow2Callback @ -- Begin function HAL_ADCEx_LevelOutOfWindow2Callback
	.weak	HAL_ADCEx_LevelOutOfWindow2Callback
	.p2align	2
	.type	HAL_ADCEx_LevelOutOfWindow2Callback,%function
	.code	16                              @ @HAL_ADCEx_LevelOutOfWindow2Callback
	.thumb_func
HAL_ADCEx_LevelOutOfWindow2Callback:
.Lfunc_begin14:
	.loc	6 1205 0                        @ c:/Keil_v5\ARM\PACK\Keil\STM32L5xx_DFP\1.3.0\Drivers\STM32L5xx_HAL_Driver\Src\stm32l5xx_hal_adc_ex.c:1205:0
	.fnstart
	.cfi_startproc
@ %bb.0:
	@DEBUG_VALUE: HAL_ADCEx_LevelOutOfWindow2Callback:hadc <- $r0
	.loc	6 1212 1 prologue_end           @ c:/Keil_v5\ARM\PACK\Keil\STM32L5xx_DFP\1.3.0\Drivers\STM32L5xx_HAL_Driver\Src\stm32l5xx_hal_adc_ex.c:1212:1
	bx	lr
.Ltmp362:
.Lfunc_end14:
	.size	HAL_ADCEx_LevelOutOfWindow2Callback, .Lfunc_end14-HAL_ADCEx_LevelOutOfWindow2Callback
	.cfi_endproc
	.cantunwind
	.fnend
                                        @ -- End function
	.section	.text.HAL_ADCEx_LevelOutOfWindow3Callback,"ax",%progbits
	.hidden	HAL_ADCEx_LevelOutOfWindow3Callback @ -- Begin function HAL_ADCEx_LevelOutOfWindow3Callback
	.weak	HAL_ADCEx_LevelOutOfWindow3Callback
	.p2align	2
	.type	HAL_ADCEx_LevelOutOfWindow3Callback,%function
	.code	16                              @ @HAL_ADCEx_LevelOutOfWindow3Callback
	.thumb_func
HAL_ADCEx_LevelOutOfWindow3Callback:
.Lfunc_begin15:
	.loc	6 1220 0                        @ c:/Keil_v5\ARM\PACK\Keil\STM32L5xx_DFP\1.3.0\Drivers\STM32L5xx_HAL_Driver\Src\stm32l5xx_hal_adc_ex.c:1220:0
	.fnstart
	.cfi_startproc
@ %bb.0:
	@DEBUG_VALUE: HAL_ADCEx_LevelOutOfWindow3Callback:hadc <- $r0
	.loc	6 1227 1 prologue_end           @ c:/Keil_v5\ARM\PACK\Keil\STM32L5xx_DFP\1.3.0\Drivers\STM32L5xx_HAL_Driver\Src\stm32l5xx_hal_adc_ex.c:1227:1
	bx	lr
.Ltmp363:
.Lfunc_end15:
	.size	HAL_ADCEx_LevelOutOfWindow3Callback, .Lfunc_end15-HAL_ADCEx_LevelOutOfWindow3Callback
	.cfi_endproc
	.cantunwind
	.fnend
                                        @ -- End function
	.section	.text.HAL_ADCEx_EndOfSamplingCallback,"ax",%progbits
	.hidden	HAL_ADCEx_EndOfSamplingCallback @ -- Begin function HAL_ADCEx_EndOfSamplingCallback
	.weak	HAL_ADCEx_EndOfSamplingCallback
	.p2align	2
	.type	HAL_ADCEx_EndOfSamplingCallback,%function
	.code	16                              @ @HAL_ADCEx_EndOfSamplingCallback
	.thumb_func
HAL_ADCEx_EndOfSamplingCallback:
.Lfunc_begin16:
	.loc	6 1236 0                        @ c:/Keil_v5\ARM\PACK\Keil\STM32L5xx_DFP\1.3.0\Drivers\STM32L5xx_HAL_Driver\Src\stm32l5xx_hal_adc_ex.c:1236:0
	.fnstart
	.cfi_startproc
@ %bb.0:
	@DEBUG_VALUE: HAL_ADCEx_EndOfSamplingCallback:hadc <- $r0
	.loc	6 1243 1 prologue_end           @ c:/Keil_v5\ARM\PACK\Keil\STM32L5xx_DFP\1.3.0\Drivers\STM32L5xx_HAL_Driver\Src\stm32l5xx_hal_adc_ex.c:1243:1
	bx	lr
.Ltmp364:
.Lfunc_end16:
	.size	HAL_ADCEx_EndOfSamplingCallback, .Lfunc_end16-HAL_ADCEx_EndOfSamplingCallback
	.cfi_endproc
	.cantunwind
	.fnend
                                        @ -- End function
	.section	.text.HAL_ADCEx_RegularStop,"ax",%progbits
	.hidden	HAL_ADCEx_RegularStop           @ -- Begin function HAL_ADCEx_RegularStop
	.globl	HAL_ADCEx_RegularStop
	.p2align	2
	.type	HAL_ADCEx_RegularStop,%function
	.code	16                              @ @HAL_ADCEx_RegularStop
	.thumb_func
HAL_ADCEx_RegularStop:
.Lfunc_begin17:
	.loc	6 1253 0                        @ c:/Keil_v5\ARM\PACK\Keil\STM32L5xx_DFP\1.3.0\Drivers\STM32L5xx_HAL_Driver\Src\stm32l5xx_hal_adc_ex.c:1253:0
	.fnstart
	.cfi_startproc
@ %bb.0:
	@DEBUG_VALUE: HAL_ADCEx_RegularStop:hadc <- $r0
	.save	{r4, lr}
	push	{r4, lr}
	.cfi_def_cfa_offset 8
	.cfi_offset lr, -4
	.cfi_offset r4, -8
	mov	r4, r0
.Ltmp365:
	@DEBUG_VALUE: HAL_ADCEx_RegularStop:hadc <- $r4
	.loc	6 1260 3 prologue_end           @ c:/Keil_v5\ARM\PACK\Keil\STM32L5xx_DFP\1.3.0\Drivers\STM32L5xx_HAL_Driver\Src\stm32l5xx_hal_adc_ex.c:1260:3
	ldrb.w	r0, [r0, #84]
.Ltmp366:
	.loc	6 1260 3 is_stmt 0              @ c:/Keil_v5\ARM\PACK\Keil\STM32L5xx_DFP\1.3.0\Drivers\STM32L5xx_HAL_Driver\Src\stm32l5xx_hal_adc_ex.c:1260:3
	cmp	r0, #1
	itt	eq
	moveq	r0, #2
.Ltmp367:
	.loc	6 1299 1 is_stmt 1              @ c:/Keil_v5\ARM\PACK\Keil\STM32L5xx_DFP\1.3.0\Drivers\STM32L5xx_HAL_Driver\Src\stm32l5xx_hal_adc_ex.c:1299:1
	popeq	{r4, pc}
.Ltmp368:
.LBB17_1:
	.loc	6 0 1 is_stmt 0                 @ c:/Keil_v5\ARM\PACK\Keil\STM32L5xx_DFP\1.3.0\Drivers\STM32L5xx_HAL_Driver\Src\stm32l5xx_hal_adc_ex.c:0:1
	movs	r0, #1
.Ltmp369:
	.loc	6 1260 3 is_stmt 1              @ c:/Keil_v5\ARM\PACK\Keil\STM32L5xx_DFP\1.3.0\Drivers\STM32L5xx_HAL_Driver\Src\stm32l5xx_hal_adc_ex.c:1260:3
	strb.w	r0, [r4, #84]
.Ltmp370:
	.loc	6 1263 20                       @ c:/Keil_v5\ARM\PACK\Keil\STM32L5xx_DFP\1.3.0\Drivers\STM32L5xx_HAL_Driver\Src\stm32l5xx_hal_adc_ex.c:1263:20
	mov	r0, r4
	movs	r1, #1
	bl	ADC_ConversionStop
.Ltmp371:
	@DEBUG_VALUE: HAL_ADCEx_RegularStop:tmp_hal_status <- $r0
	.loc	6 1267 7                        @ c:/Keil_v5\ARM\PACK\Keil\STM32L5xx_DFP\1.3.0\Drivers\STM32L5xx_HAL_Driver\Src\stm32l5xx_hal_adc_ex.c:1267:7
	cbz	r0, .LBB17_3
.Ltmp372:
.LBB17_2:
	@DEBUG_VALUE: HAL_ADCEx_RegularStop:tmp_hal_status <- $r0
	@DEBUG_VALUE: HAL_ADCEx_RegularStop:tmp_hal_status <- $r0
	.loc	6 0 7 is_stmt 0                 @ c:/Keil_v5\ARM\PACK\Keil\STM32L5xx_DFP\1.3.0\Drivers\STM32L5xx_HAL_Driver\Src\stm32l5xx_hal_adc_ex.c:0:7
	movs	r1, #0
.Ltmp373:
	.loc	6 1295 3 is_stmt 1              @ c:/Keil_v5\ARM\PACK\Keil\STM32L5xx_DFP\1.3.0\Drivers\STM32L5xx_HAL_Driver\Src\stm32l5xx_hal_adc_ex.c:1295:3
	strb.w	r1, [r4, #84]
.Ltmp374:
	.loc	6 1299 1                        @ c:/Keil_v5\ARM\PACK\Keil\STM32L5xx_DFP\1.3.0\Drivers\STM32L5xx_HAL_Driver\Src\stm32l5xx_hal_adc_ex.c:1299:1
	pop	{r4, pc}
.Ltmp375:
	.p2align	2
.LBB17_3:
	@DEBUG_VALUE: HAL_ADCEx_RegularStop:tmp_hal_status <- $r0
	.loc	6 1272 46                       @ c:/Keil_v5\ARM\PACK\Keil\STM32L5xx_DFP\1.3.0\Drivers\STM32L5xx_HAL_Driver\Src\stm32l5xx_hal_adc_ex.c:1272:46
	ldr	r0, [r4]
.Ltmp376:
	.loc	6 1270 5                        @ c:/Keil_v5\ARM\PACK\Keil\STM32L5xx_DFP\1.3.0\Drivers\STM32L5xx_HAL_Driver\Src\stm32l5xx_hal_adc_ex.c:1270:5
	ldr	r1, [r4, #88]
	bic	r1, r1, #256
	str	r1, [r4, #88]
.Ltmp377:
	@DEBUG_VALUE: LL_ADC_INJ_IsConversionOngoing:ADCx <- $r0
	.loc	7 6063 12                       @ c:/Keil_v5\ARM\PACK\Keil\STM32L5xx_DFP\1.3.0\Drivers\STM32L5xx_HAL_Driver\Inc\stm32l5xx_ll_adc.h:6063:12
	ldr	r0, [r0, #8]
.Ltmp378:
	.loc	6 1272 9                        @ c:/Keil_v5\ARM\PACK\Keil\STM32L5xx_DFP\1.3.0\Drivers\STM32L5xx_HAL_Driver\Src\stm32l5xx_hal_adc_ex.c:1272:9
	lsls	r0, r0, #28
	bmi	.LBB17_6
@ %bb.4:
.Ltmp379:
	.loc	6 1275 24                       @ c:/Keil_v5\ARM\PACK\Keil\STM32L5xx_DFP\1.3.0\Drivers\STM32L5xx_HAL_Driver\Src\stm32l5xx_hal_adc_ex.c:1275:24
	mov	r0, r4
	bl	ADC_Disable
.Ltmp380:
	@DEBUG_VALUE: HAL_ADCEx_RegularStop:tmp_hal_status <- $r0
	.loc	6 1278 11                       @ c:/Keil_v5\ARM\PACK\Keil\STM32L5xx_DFP\1.3.0\Drivers\STM32L5xx_HAL_Driver\Src\stm32l5xx_hal_adc_ex.c:1278:11
	cmp	r0, #0
	bne	.LBB17_2
.Ltmp381:
@ %bb.5:
	@DEBUG_VALUE: HAL_ADCEx_RegularStop:tmp_hal_status <- $r0
	.loc	6 1281 9                        @ c:/Keil_v5\ARM\PACK\Keil\STM32L5xx_DFP\1.3.0\Drivers\STM32L5xx_HAL_Driver\Src\stm32l5xx_hal_adc_ex.c:1281:9
	ldr	r0, [r4, #88]
.Ltmp382:
	.loc	6 0 9 is_stmt 0                 @ c:/Keil_v5\ARM\PACK\Keil\STM32L5xx_DFP\1.3.0\Drivers\STM32L5xx_HAL_Driver\Src\stm32l5xx_hal_adc_ex.c:0:9
	movw	r1, #4097
	.loc	6 1281 9                        @ c:/Keil_v5\ARM\PACK\Keil\STM32L5xx_DFP\1.3.0\Drivers\STM32L5xx_HAL_Driver\Src\stm32l5xx_hal_adc_ex.c:1281:9
	bics	r0, r1
	adds	r0, #1
	b	.LBB17_7
.Ltmp383:
	.p2align	2
.LBB17_6:
	.loc	6 1290 7 is_stmt 1              @ c:/Keil_v5\ARM\PACK\Keil\STM32L5xx_DFP\1.3.0\Drivers\STM32L5xx_HAL_Driver\Src\stm32l5xx_hal_adc_ex.c:1290:7
	ldr	r0, [r4, #88]
	orr	r0, r0, #4096
.Ltmp384:
.LBB17_7:
	.loc	6 0 0 is_stmt 0                 @ c:/Keil_v5\ARM\PACK\Keil\STM32L5xx_DFP\1.3.0\Drivers\STM32L5xx_HAL_Driver\Src\stm32l5xx_hal_adc_ex.c:0:0
	str	r0, [r4, #88]
	movs	r0, #0
.Ltmp385:
	@DEBUG_VALUE: HAL_ADCEx_RegularStop:tmp_hal_status <- $r0
	movs	r1, #0
.Ltmp386:
	.loc	6 1295 3 is_stmt 1              @ c:/Keil_v5\ARM\PACK\Keil\STM32L5xx_DFP\1.3.0\Drivers\STM32L5xx_HAL_Driver\Src\stm32l5xx_hal_adc_ex.c:1295:3
	strb.w	r1, [r4, #84]
.Ltmp387:
	.loc	6 1299 1                        @ c:/Keil_v5\ARM\PACK\Keil\STM32L5xx_DFP\1.3.0\Drivers\STM32L5xx_HAL_Driver\Src\stm32l5xx_hal_adc_ex.c:1299:1
	pop	{r4, pc}
.Ltmp388:
.Lfunc_end17:
	.size	HAL_ADCEx_RegularStop, .Lfunc_end17-HAL_ADCEx_RegularStop
	.cfi_endproc
	.cantunwind
	.fnend
                                        @ -- End function
	.section	.text.HAL_ADCEx_RegularStop_IT,"ax",%progbits
	.hidden	HAL_ADCEx_RegularStop_IT        @ -- Begin function HAL_ADCEx_RegularStop_IT
	.globl	HAL_ADCEx_RegularStop_IT
	.p2align	2
	.type	HAL_ADCEx_RegularStop_IT,%function
	.code	16                              @ @HAL_ADCEx_RegularStop_IT
	.thumb_func
HAL_ADCEx_RegularStop_IT:
.Lfunc_begin18:
	.loc	6 1311 0                        @ c:/Keil_v5\ARM\PACK\Keil\STM32L5xx_DFP\1.3.0\Drivers\STM32L5xx_HAL_Driver\Src\stm32l5xx_hal_adc_ex.c:1311:0
	.fnstart
	.cfi_startproc
@ %bb.0:
	@DEBUG_VALUE: HAL_ADCEx_RegularStop_IT:hadc <- $r0
	.save	{r4, lr}
	push	{r4, lr}
	.cfi_def_cfa_offset 8
	.cfi_offset lr, -4
	.cfi_offset r4, -8
	mov	r4, r0
.Ltmp389:
	@DEBUG_VALUE: HAL_ADCEx_RegularStop_IT:hadc <- $r4
	.loc	6 1318 3 prologue_end           @ c:/Keil_v5\ARM\PACK\Keil\STM32L5xx_DFP\1.3.0\Drivers\STM32L5xx_HAL_Driver\Src\stm32l5xx_hal_adc_ex.c:1318:3
	ldrb.w	r0, [r0, #84]
.Ltmp390:
	.loc	6 1318 3 is_stmt 0              @ c:/Keil_v5\ARM\PACK\Keil\STM32L5xx_DFP\1.3.0\Drivers\STM32L5xx_HAL_Driver\Src\stm32l5xx_hal_adc_ex.c:1318:3
	cmp	r0, #1
	itt	eq
	moveq	r0, #2
.Ltmp391:
	.loc	6 1357 1 is_stmt 1              @ c:/Keil_v5\ARM\PACK\Keil\STM32L5xx_DFP\1.3.0\Drivers\STM32L5xx_HAL_Driver\Src\stm32l5xx_hal_adc_ex.c:1357:1
	popeq	{r4, pc}
.Ltmp392:
.LBB18_1:
	.loc	6 0 1 is_stmt 0                 @ c:/Keil_v5\ARM\PACK\Keil\STM32L5xx_DFP\1.3.0\Drivers\STM32L5xx_HAL_Driver\Src\stm32l5xx_hal_adc_ex.c:0:1
	movs	r0, #1
.Ltmp393:
	.loc	6 1318 3 is_stmt 1              @ c:/Keil_v5\ARM\PACK\Keil\STM32L5xx_DFP\1.3.0\Drivers\STM32L5xx_HAL_Driver\Src\stm32l5xx_hal_adc_ex.c:1318:3
	strb.w	r0, [r4, #84]
.Ltmp394:
	.loc	6 1321 20                       @ c:/Keil_v5\ARM\PACK\Keil\STM32L5xx_DFP\1.3.0\Drivers\STM32L5xx_HAL_Driver\Src\stm32l5xx_hal_adc_ex.c:1321:20
	mov	r0, r4
	movs	r1, #1
	bl	ADC_ConversionStop
.Ltmp395:
	@DEBUG_VALUE: HAL_ADCEx_RegularStop_IT:tmp_hal_status <- $r0
	.loc	6 1325 7                        @ c:/Keil_v5\ARM\PACK\Keil\STM32L5xx_DFP\1.3.0\Drivers\STM32L5xx_HAL_Driver\Src\stm32l5xx_hal_adc_ex.c:1325:7
	cbz	r0, .LBB18_3
.Ltmp396:
.LBB18_2:
	@DEBUG_VALUE: HAL_ADCEx_RegularStop_IT:tmp_hal_status <- $r0
	@DEBUG_VALUE: HAL_ADCEx_RegularStop_IT:tmp_hal_status <- $r0
	.loc	6 0 7 is_stmt 0                 @ c:/Keil_v5\ARM\PACK\Keil\STM32L5xx_DFP\1.3.0\Drivers\STM32L5xx_HAL_Driver\Src\stm32l5xx_hal_adc_ex.c:0:7
	movs	r1, #0
.Ltmp397:
	.loc	6 1353 3 is_stmt 1              @ c:/Keil_v5\ARM\PACK\Keil\STM32L5xx_DFP\1.3.0\Drivers\STM32L5xx_HAL_Driver\Src\stm32l5xx_hal_adc_ex.c:1353:3
	strb.w	r1, [r4, #84]
.Ltmp398:
	.loc	6 1357 1                        @ c:/Keil_v5\ARM\PACK\Keil\STM32L5xx_DFP\1.3.0\Drivers\STM32L5xx_HAL_Driver\Src\stm32l5xx_hal_adc_ex.c:1357:1
	pop	{r4, pc}
.Ltmp399:
	.p2align	2
.LBB18_3:
	@DEBUG_VALUE: HAL_ADCEx_RegularStop_IT:tmp_hal_status <- $r0
	.loc	6 1331 5                        @ c:/Keil_v5\ARM\PACK\Keil\STM32L5xx_DFP\1.3.0\Drivers\STM32L5xx_HAL_Driver\Src\stm32l5xx_hal_adc_ex.c:1331:5
	ldr	r0, [r4]
.Ltmp400:
	.loc	6 1328 5                        @ c:/Keil_v5\ARM\PACK\Keil\STM32L5xx_DFP\1.3.0\Drivers\STM32L5xx_HAL_Driver\Src\stm32l5xx_hal_adc_ex.c:1328:5
	ldr	r1, [r4, #88]
	bic	r1, r1, #256
	str	r1, [r4, #88]
	.loc	6 1331 5                        @ c:/Keil_v5\ARM\PACK\Keil\STM32L5xx_DFP\1.3.0\Drivers\STM32L5xx_HAL_Driver\Src\stm32l5xx_hal_adc_ex.c:1331:5
	ldr	r1, [r0, #4]
	bic	r1, r1, #28
	str	r1, [r0, #4]
.Ltmp401:
	@DEBUG_VALUE: LL_ADC_INJ_IsConversionOngoing:ADCx <- $r0
	.loc	7 6063 12                       @ c:/Keil_v5\ARM\PACK\Keil\STM32L5xx_DFP\1.3.0\Drivers\STM32L5xx_HAL_Driver\Inc\stm32l5xx_ll_adc.h:6063:12
	ldr	r0, [r0, #8]
.Ltmp402:
	.loc	6 1334 9                        @ c:/Keil_v5\ARM\PACK\Keil\STM32L5xx_DFP\1.3.0\Drivers\STM32L5xx_HAL_Driver\Src\stm32l5xx_hal_adc_ex.c:1334:9
	lsls	r0, r0, #28
	bmi	.LBB18_6
@ %bb.4:
.Ltmp403:
	.loc	6 1336 24                       @ c:/Keil_v5\ARM\PACK\Keil\STM32L5xx_DFP\1.3.0\Drivers\STM32L5xx_HAL_Driver\Src\stm32l5xx_hal_adc_ex.c:1336:24
	mov	r0, r4
	bl	ADC_Disable
.Ltmp404:
	@DEBUG_VALUE: HAL_ADCEx_RegularStop_IT:tmp_hal_status <- $r0
	.loc	6 1338 11                       @ c:/Keil_v5\ARM\PACK\Keil\STM32L5xx_DFP\1.3.0\Drivers\STM32L5xx_HAL_Driver\Src\stm32l5xx_hal_adc_ex.c:1338:11
	cmp	r0, #0
	bne	.LBB18_2
.Ltmp405:
@ %bb.5:
	@DEBUG_VALUE: HAL_ADCEx_RegularStop_IT:tmp_hal_status <- $r0
	.loc	6 1341 9                        @ c:/Keil_v5\ARM\PACK\Keil\STM32L5xx_DFP\1.3.0\Drivers\STM32L5xx_HAL_Driver\Src\stm32l5xx_hal_adc_ex.c:1341:9
	ldr	r0, [r4, #88]
.Ltmp406:
	.loc	6 0 9 is_stmt 0                 @ c:/Keil_v5\ARM\PACK\Keil\STM32L5xx_DFP\1.3.0\Drivers\STM32L5xx_HAL_Driver\Src\stm32l5xx_hal_adc_ex.c:0:9
	movw	r1, #4097
	.loc	6 1341 9                        @ c:/Keil_v5\ARM\PACK\Keil\STM32L5xx_DFP\1.3.0\Drivers\STM32L5xx_HAL_Driver\Src\stm32l5xx_hal_adc_ex.c:1341:9
	bics	r0, r1
	adds	r0, #1
	b	.LBB18_7
.Ltmp407:
	.p2align	2
.LBB18_6:
	.loc	6 1348 7 is_stmt 1              @ c:/Keil_v5\ARM\PACK\Keil\STM32L5xx_DFP\1.3.0\Drivers\STM32L5xx_HAL_Driver\Src\stm32l5xx_hal_adc_ex.c:1348:7
	ldr	r0, [r4, #88]
	orr	r0, r0, #4096
.Ltmp408:
.LBB18_7:
	.loc	6 0 0 is_stmt 0                 @ c:/Keil_v5\ARM\PACK\Keil\STM32L5xx_DFP\1.3.0\Drivers\STM32L5xx_HAL_Driver\Src\stm32l5xx_hal_adc_ex.c:0:0
	str	r0, [r4, #88]
	movs	r0, #0
.Ltmp409:
	@DEBUG_VALUE: HAL_ADCEx_RegularStop_IT:tmp_hal_status <- $r0
	movs	r1, #0
.Ltmp410:
	.loc	6 1353 3 is_stmt 1              @ c:/Keil_v5\ARM\PACK\Keil\STM32L5xx_DFP\1.3.0\Drivers\STM32L5xx_HAL_Driver\Src\stm32l5xx_hal_adc_ex.c:1353:3
	strb.w	r1, [r4, #84]
.Ltmp411:
	.loc	6 1357 1                        @ c:/Keil_v5\ARM\PACK\Keil\STM32L5xx_DFP\1.3.0\Drivers\STM32L5xx_HAL_Driver\Src\stm32l5xx_hal_adc_ex.c:1357:1
	pop	{r4, pc}
.Ltmp412:
.Lfunc_end18:
	.size	HAL_ADCEx_RegularStop_IT, .Lfunc_end18-HAL_ADCEx_RegularStop_IT
	.cfi_endproc
	.cantunwind
	.fnend
                                        @ -- End function
	.section	.text.HAL_ADCEx_RegularStop_DMA,"ax",%progbits
	.hidden	HAL_ADCEx_RegularStop_DMA       @ -- Begin function HAL_ADCEx_RegularStop_DMA
	.globl	HAL_ADCEx_RegularStop_DMA
	.p2align	2
	.type	HAL_ADCEx_RegularStop_DMA,%function
	.code	16                              @ @HAL_ADCEx_RegularStop_DMA
	.thumb_func
HAL_ADCEx_RegularStop_DMA:
.Lfunc_begin19:
	.loc	6 1371 0                        @ c:/Keil_v5\ARM\PACK\Keil\STM32L5xx_DFP\1.3.0\Drivers\STM32L5xx_HAL_Driver\Src\stm32l5xx_hal_adc_ex.c:1371:0
	.fnstart
	.cfi_startproc
@ %bb.0:
	@DEBUG_VALUE: HAL_ADCEx_RegularStop_DMA:hadc <- $r0
	.save	{r4, r5, r7, lr}
	push	{r4, r5, r7, lr}
	.cfi_def_cfa_offset 16
	.cfi_offset lr, -4
	.cfi_offset r7, -8
	.cfi_offset r5, -12
	.cfi_offset r4, -16
	mov	r4, r0
.Ltmp413:
	@DEBUG_VALUE: HAL_ADCEx_RegularStop_DMA:hadc <- $r4
	.loc	6 1378 3 prologue_end           @ c:/Keil_v5\ARM\PACK\Keil\STM32L5xx_DFP\1.3.0\Drivers\STM32L5xx_HAL_Driver\Src\stm32l5xx_hal_adc_ex.c:1378:3
	ldrb.w	r0, [r0, #84]
.Ltmp414:
	.loc	6 1378 3 is_stmt 0              @ c:/Keil_v5\ARM\PACK\Keil\STM32L5xx_DFP\1.3.0\Drivers\STM32L5xx_HAL_Driver\Src\stm32l5xx_hal_adc_ex.c:1378:3
	cmp	r0, #1
	itt	eq
	moveq	r0, #2
.Ltmp415:
	.loc	6 1441 1 is_stmt 1              @ c:/Keil_v5\ARM\PACK\Keil\STM32L5xx_DFP\1.3.0\Drivers\STM32L5xx_HAL_Driver\Src\stm32l5xx_hal_adc_ex.c:1441:1
	popeq	{r4, r5, r7, pc}
.Ltmp416:
.LBB19_1:
	.loc	6 0 1 is_stmt 0                 @ c:/Keil_v5\ARM\PACK\Keil\STM32L5xx_DFP\1.3.0\Drivers\STM32L5xx_HAL_Driver\Src\stm32l5xx_hal_adc_ex.c:0:1
	movs	r0, #1
.Ltmp417:
	.loc	6 1378 3 is_stmt 1              @ c:/Keil_v5\ARM\PACK\Keil\STM32L5xx_DFP\1.3.0\Drivers\STM32L5xx_HAL_Driver\Src\stm32l5xx_hal_adc_ex.c:1378:3
	strb.w	r0, [r4, #84]
.Ltmp418:
	.loc	6 1381 20                       @ c:/Keil_v5\ARM\PACK\Keil\STM32L5xx_DFP\1.3.0\Drivers\STM32L5xx_HAL_Driver\Src\stm32l5xx_hal_adc_ex.c:1381:20
	mov	r0, r4
	movs	r1, #1
	bl	ADC_ConversionStop
	mov	r5, r0
.Ltmp419:
	@DEBUG_VALUE: HAL_ADCEx_RegularStop_DMA:tmp_hal_status <- $r5
	.loc	6 1385 7                        @ c:/Keil_v5\ARM\PACK\Keil\STM32L5xx_DFP\1.3.0\Drivers\STM32L5xx_HAL_Driver\Src\stm32l5xx_hal_adc_ex.c:1385:7
	cbz	r0, .LBB19_3
.Ltmp420:
.LBB19_2:
	@DEBUG_VALUE: HAL_ADCEx_RegularStop_DMA:tmp_hal_status <- $r5
	.loc	6 0 7 is_stmt 0                 @ c:/Keil_v5\ARM\PACK\Keil\STM32L5xx_DFP\1.3.0\Drivers\STM32L5xx_HAL_Driver\Src\stm32l5xx_hal_adc_ex.c:0:7
	movs	r0, #0
.Ltmp421:
	.loc	6 1437 3 is_stmt 1              @ c:/Keil_v5\ARM\PACK\Keil\STM32L5xx_DFP\1.3.0\Drivers\STM32L5xx_HAL_Driver\Src\stm32l5xx_hal_adc_ex.c:1437:3
	strb.w	r0, [r4, #84]
.Ltmp422:
	.loc	6 1441 1                        @ c:/Keil_v5\ARM\PACK\Keil\STM32L5xx_DFP\1.3.0\Drivers\STM32L5xx_HAL_Driver\Src\stm32l5xx_hal_adc_ex.c:1441:1
	mov	r0, r5
	pop	{r4, r5, r7, pc}
.Ltmp423:
	.p2align	2
.LBB19_3:
	@DEBUG_VALUE: HAL_ADCEx_RegularStop_DMA:tmp_hal_status <- $r5
	.loc	6 1391 5                        @ c:/Keil_v5\ARM\PACK\Keil\STM32L5xx_DFP\1.3.0\Drivers\STM32L5xx_HAL_Driver\Src\stm32l5xx_hal_adc_ex.c:1391:5
	ldr	r1, [r4]
	.loc	6 1395 42                       @ c:/Keil_v5\ARM\PACK\Keil\STM32L5xx_DFP\1.3.0\Drivers\STM32L5xx_HAL_Driver\Src\stm32l5xx_hal_adc_ex.c:1395:42
	ldr	r0, [r4, #80]
	.loc	6 1388 5                        @ c:/Keil_v5\ARM\PACK\Keil\STM32L5xx_DFP\1.3.0\Drivers\STM32L5xx_HAL_Driver\Src\stm32l5xx_hal_adc_ex.c:1388:5
	ldr	r2, [r4, #88]
	bic	r2, r2, #256
	str	r2, [r4, #88]
	.loc	6 1391 5                        @ c:/Keil_v5\ARM\PACK\Keil\STM32L5xx_DFP\1.3.0\Drivers\STM32L5xx_HAL_Driver\Src\stm32l5xx_hal_adc_ex.c:1391:5
	ldr	r2, [r1, #12]
	bic	r2, r2, #1
	str	r2, [r1, #12]
	.loc	6 1395 22                       @ c:/Keil_v5\ARM\PACK\Keil\STM32L5xx_DFP\1.3.0\Drivers\STM32L5xx_HAL_Driver\Src\stm32l5xx_hal_adc_ex.c:1395:22
	bl	HAL_DMA_Abort
	mov	r5, r0
.Ltmp424:
	@DEBUG_VALUE: HAL_ADCEx_RegularStop_DMA:tmp_hal_status <- $r5
	.loc	6 1398 9                        @ c:/Keil_v5\ARM\PACK\Keil\STM32L5xx_DFP\1.3.0\Drivers\STM32L5xx_HAL_Driver\Src\stm32l5xx_hal_adc_ex.c:1398:9
	cbz	r0, .LBB19_5
.Ltmp425:
@ %bb.4:
	@DEBUG_VALUE: HAL_ADCEx_RegularStop_DMA:tmp_hal_status <- $r5
	.loc	6 1401 7                        @ c:/Keil_v5\ARM\PACK\Keil\STM32L5xx_DFP\1.3.0\Drivers\STM32L5xx_HAL_Driver\Src\stm32l5xx_hal_adc_ex.c:1401:7
	ldr	r0, [r4, #88]
	orr	r0, r0, #64
	str	r0, [r4, #88]
.Ltmp426:
.LBB19_5:
	@DEBUG_VALUE: HAL_ADCEx_RegularStop_DMA:tmp_hal_status <- $r5
	.loc	6 1405 5                        @ c:/Keil_v5\ARM\PACK\Keil\STM32L5xx_DFP\1.3.0\Drivers\STM32L5xx_HAL_Driver\Src\stm32l5xx_hal_adc_ex.c:1405:5
	ldr	r0, [r4]
	ldr	r1, [r0, #4]
	bic	r1, r1, #16
	str	r1, [r0, #4]
.Ltmp427:
	@DEBUG_VALUE: LL_ADC_INJ_IsConversionOngoing:ADCx <- $r0
	.loc	7 6063 12                       @ c:/Keil_v5\ARM\PACK\Keil\STM32L5xx_DFP\1.3.0\Drivers\STM32L5xx_HAL_Driver\Inc\stm32l5xx_ll_adc.h:6063:12
	ldr	r0, [r0, #8]
.Ltmp428:
	.loc	6 1410 9                        @ c:/Keil_v5\ARM\PACK\Keil\STM32L5xx_DFP\1.3.0\Drivers\STM32L5xx_HAL_Driver\Src\stm32l5xx_hal_adc_ex.c:1410:9
	lsls	r0, r0, #28
	bmi	.LBB19_9
.Ltmp429:
@ %bb.6:
	@DEBUG_VALUE: HAL_ADCEx_RegularStop_DMA:tmp_hal_status <- $r5
	.loc	6 0 0 is_stmt 0                 @ c:/Keil_v5\ARM\PACK\Keil\STM32L5xx_DFP\1.3.0\Drivers\STM32L5xx_HAL_Driver\Src\stm32l5xx_hal_adc_ex.c:0:0
	mov	r0, r4
	bl	ADC_Disable
.Ltmp430:
	.loc	6 1412 11 is_stmt 1             @ c:/Keil_v5\ARM\PACK\Keil\STM32L5xx_DFP\1.3.0\Drivers\STM32L5xx_HAL_Driver\Src\stm32l5xx_hal_adc_ex.c:1412:11
	cmp	r5, #0
.Ltmp431:
	@DEBUG_VALUE: HAL_ADCEx_RegularStop_DMA:tmp_hal_status <- undef
	bne	.LBB19_2
.Ltmp432:
@ %bb.7:
	.loc	6 1422 11                       @ c:/Keil_v5\ARM\PACK\Keil\STM32L5xx_DFP\1.3.0\Drivers\STM32L5xx_HAL_Driver\Src\stm32l5xx_hal_adc_ex.c:1422:11
	cmp	r0, #0
.Ltmp433:
	.loc	6 0 0 is_stmt 0                 @ c:/Keil_v5\ARM\PACK\Keil\STM32L5xx_DFP\1.3.0\Drivers\STM32L5xx_HAL_Driver\Src\stm32l5xx_hal_adc_ex.c:0:0
	mov	r5, r0
.Ltmp434:
	.loc	6 1422 11                       @ c:/Keil_v5\ARM\PACK\Keil\STM32L5xx_DFP\1.3.0\Drivers\STM32L5xx_HAL_Driver\Src\stm32l5xx_hal_adc_ex.c:1422:11
	bne	.LBB19_2
@ %bb.8:
.Ltmp435:
	.loc	6 1425 9 is_stmt 1              @ c:/Keil_v5\ARM\PACK\Keil\STM32L5xx_DFP\1.3.0\Drivers\STM32L5xx_HAL_Driver\Src\stm32l5xx_hal_adc_ex.c:1425:9
	ldr	r0, [r4, #88]
	movw	r1, #4097
	bics	r0, r1
	adds	r0, #1
	str	r0, [r4, #88]
	movs	r5, #0
.Ltmp436:
	@DEBUG_VALUE: HAL_ADCEx_RegularStop_DMA:tmp_hal_status <- $r5
	.loc	6 0 9 is_stmt 0                 @ c:/Keil_v5\ARM\PACK\Keil\STM32L5xx_DFP\1.3.0\Drivers\STM32L5xx_HAL_Driver\Src\stm32l5xx_hal_adc_ex.c:0:9
	movs	r0, #0
.Ltmp437:
	.loc	6 1437 3 is_stmt 1              @ c:/Keil_v5\ARM\PACK\Keil\STM32L5xx_DFP\1.3.0\Drivers\STM32L5xx_HAL_Driver\Src\stm32l5xx_hal_adc_ex.c:1437:3
	strb.w	r0, [r4, #84]
.Ltmp438:
	.loc	6 1441 1                        @ c:/Keil_v5\ARM\PACK\Keil\STM32L5xx_DFP\1.3.0\Drivers\STM32L5xx_HAL_Driver\Src\stm32l5xx_hal_adc_ex.c:1441:1
	mov	r0, r5
	pop	{r4, r5, r7, pc}
.Ltmp439:
	.p2align	2
.LBB19_9:
	@DEBUG_VALUE: HAL_ADCEx_RegularStop_DMA:tmp_hal_status <- $r5
	.loc	6 1432 7                        @ c:/Keil_v5\ARM\PACK\Keil\STM32L5xx_DFP\1.3.0\Drivers\STM32L5xx_HAL_Driver\Src\stm32l5xx_hal_adc_ex.c:1432:7
	ldr	r0, [r4, #88]
	orr	r0, r0, #4096
	str	r0, [r4, #88]
	@DEBUG_VALUE: HAL_ADCEx_RegularStop_DMA:tmp_hal_status <- $r5
	movs	r0, #0
.Ltmp440:
	.loc	6 1437 3                        @ c:/Keil_v5\ARM\PACK\Keil\STM32L5xx_DFP\1.3.0\Drivers\STM32L5xx_HAL_Driver\Src\stm32l5xx_hal_adc_ex.c:1437:3
	strb.w	r0, [r4, #84]
.Ltmp441:
	.loc	6 1441 1                        @ c:/Keil_v5\ARM\PACK\Keil\STM32L5xx_DFP\1.3.0\Drivers\STM32L5xx_HAL_Driver\Src\stm32l5xx_hal_adc_ex.c:1441:1
	mov	r0, r5
	pop	{r4, r5, r7, pc}
.Ltmp442:
.Lfunc_end19:
	.size	HAL_ADCEx_RegularStop_DMA, .Lfunc_end19-HAL_ADCEx_RegularStop_DMA
	.cfi_endproc
	.cantunwind
	.fnend
                                        @ -- End function
	.section	.text.HAL_ADCEx_RegularMultiModeStop_DMA,"ax",%progbits
	.hidden	HAL_ADCEx_RegularMultiModeStop_DMA @ -- Begin function HAL_ADCEx_RegularMultiModeStop_DMA
	.globl	HAL_ADCEx_RegularMultiModeStop_DMA
	.p2align	2
	.type	HAL_ADCEx_RegularMultiModeStop_DMA,%function
	.code	16                              @ @HAL_ADCEx_RegularMultiModeStop_DMA
	.thumb_func
HAL_ADCEx_RegularMultiModeStop_DMA:
.Lfunc_begin20:
	.loc	6 1458 0                        @ c:/Keil_v5\ARM\PACK\Keil\STM32L5xx_DFP\1.3.0\Drivers\STM32L5xx_HAL_Driver\Src\stm32l5xx_hal_adc_ex.c:1458:0
	.fnstart
	.cfi_startproc
@ %bb.0:
	@DEBUG_VALUE: HAL_ADCEx_RegularMultiModeStop_DMA:hadc <- $r0
	.save	{r4, r5, r6, lr}
	push	{r4, r5, r6, lr}
	.cfi_def_cfa_offset 16
	.cfi_offset lr, -4
	.cfi_offset r6, -8
	.cfi_offset r5, -12
	.cfi_offset r4, -16
	.pad	#104
	sub	sp, #104
	.cfi_def_cfa_offset 120
	mov	r4, r0
.Ltmp443:
	@DEBUG_VALUE: HAL_ADCEx_RegularMultiModeStop_DMA:hadc <- $r4
	.loc	6 1468 3 prologue_end           @ c:/Keil_v5\ARM\PACK\Keil\STM32L5xx_DFP\1.3.0\Drivers\STM32L5xx_HAL_Driver\Src\stm32l5xx_hal_adc_ex.c:1468:3
	ldrb.w	r0, [r0, #84]
.Ltmp444:
	.loc	6 1468 3 is_stmt 0              @ c:/Keil_v5\ARM\PACK\Keil\STM32L5xx_DFP\1.3.0\Drivers\STM32L5xx_HAL_Driver\Src\stm32l5xx_hal_adc_ex.c:1468:3
	cmp	r0, #1
	ittt	eq
	moveq	r0, #2
.Ltmp445:
	.loc	6 1572 1 is_stmt 1              @ c:/Keil_v5\ARM\PACK\Keil\STM32L5xx_DFP\1.3.0\Drivers\STM32L5xx_HAL_Driver\Src\stm32l5xx_hal_adc_ex.c:1572:1
	addeq	sp, #104
	popeq	{r4, r5, r6, pc}
.Ltmp446:
.LBB20_1:
	.loc	6 0 1 is_stmt 0                 @ c:/Keil_v5\ARM\PACK\Keil\STM32L5xx_DFP\1.3.0\Drivers\STM32L5xx_HAL_Driver\Src\stm32l5xx_hal_adc_ex.c:0:1
	movs	r0, #1
.Ltmp447:
	.loc	6 1468 3 is_stmt 1              @ c:/Keil_v5\ARM\PACK\Keil\STM32L5xx_DFP\1.3.0\Drivers\STM32L5xx_HAL_Driver\Src\stm32l5xx_hal_adc_ex.c:1468:3
	strb.w	r0, [r4, #84]
.Ltmp448:
	.loc	6 1472 20                       @ c:/Keil_v5\ARM\PACK\Keil\STM32L5xx_DFP\1.3.0\Drivers\STM32L5xx_HAL_Driver\Src\stm32l5xx_hal_adc_ex.c:1472:20
	mov	r0, r4
	movs	r1, #1
	bl	ADC_ConversionStop
.Ltmp449:
	@DEBUG_VALUE: HAL_ADCEx_RegularMultiModeStop_DMA:tmp_hal_status <- $r0
	.loc	6 1475 7                        @ c:/Keil_v5\ARM\PACK\Keil\STM32L5xx_DFP\1.3.0\Drivers\STM32L5xx_HAL_Driver\Src\stm32l5xx_hal_adc_ex.c:1475:7
	cbz	r0, .LBB20_3
.Ltmp450:
.LBB20_2:
	@DEBUG_VALUE: HAL_ADCEx_RegularMultiModeStop_DMA:tmp_hal_status <- $r0
	.loc	6 0 7 is_stmt 0                 @ c:/Keil_v5\ARM\PACK\Keil\STM32L5xx_DFP\1.3.0\Drivers\STM32L5xx_HAL_Driver\Src\stm32l5xx_hal_adc_ex.c:0:7
	movs	r1, #0
	strb.w	r1, [r4, #84]
	.loc	6 1572 1 is_stmt 1              @ c:/Keil_v5\ARM\PACK\Keil\STM32L5xx_DFP\1.3.0\Drivers\STM32L5xx_HAL_Driver\Src\stm32l5xx_hal_adc_ex.c:1572:1
	add	sp, #104
	pop	{r4, r5, r6, pc}
.Ltmp451:
	.p2align	2
.LBB20_3:
	@DEBUG_VALUE: HAL_ADCEx_RegularMultiModeStop_DMA:tmp_hal_status <- $r0
	.loc	6 0 1 is_stmt 0                 @ c:/Keil_v5\ARM\PACK\Keil\STM32L5xx_DFP\1.3.0\Drivers\STM32L5xx_HAL_Driver\Src\stm32l5xx_hal_adc_ex.c:0:1
	movw	r6, #33032
.Ltmp452:
	.loc	6 1481 5 is_stmt 1              @ c:/Keil_v5\ARM\PACK\Keil\STM32L5xx_DFP\1.3.0\Drivers\STM32L5xx_HAL_Driver\Src\stm32l5xx_hal_adc_ex.c:1481:5
	ldr	r0, [r4]
.Ltmp453:
	.loc	6 1478 5                        @ c:/Keil_v5\ARM\PACK\Keil\STM32L5xx_DFP\1.3.0\Drivers\STM32L5xx_HAL_Driver\Src\stm32l5xx_hal_adc_ex.c:1478:5
	ldr	r1, [r4, #88]
	movt	r6, #16898
	.loc	6 1481 5                        @ c:/Keil_v5\ARM\PACK\Keil\STM32L5xx_DFP\1.3.0\Drivers\STM32L5xx_HAL_Driver\Src\stm32l5xx_hal_adc_ex.c:1481:5
	sub.w	r2, r6, #264
	.loc	6 1478 5                        @ c:/Keil_v5\ARM\PACK\Keil\STM32L5xx_DFP\1.3.0\Drivers\STM32L5xx_HAL_Driver\Src\stm32l5xx_hal_adc_ex.c:1478:5
	bic	r1, r1, #256
	.loc	6 1481 5                        @ c:/Keil_v5\ARM\PACK\Keil\STM32L5xx_DFP\1.3.0\Drivers\STM32L5xx_HAL_Driver\Src\stm32l5xx_hal_adc_ex.c:1481:5
	cmp	r0, r2
	.loc	6 1478 5                        @ c:/Keil_v5\ARM\PACK\Keil\STM32L5xx_DFP\1.3.0\Drivers\STM32L5xx_HAL_Driver\Src\stm32l5xx_hal_adc_ex.c:1478:5
	str	r1, [r4, #88]
	.loc	6 1481 5                        @ c:/Keil_v5\ARM\PACK\Keil\STM32L5xx_DFP\1.3.0\Drivers\STM32L5xx_HAL_Driver\Src\stm32l5xx_hal_adc_ex.c:1481:5
	beq	.LBB20_6
@ %bb.4:
.Ltmp454:
	.loc	6 1486 7                        @ c:/Keil_v5\ARM\PACK\Keil\STM32L5xx_DFP\1.3.0\Drivers\STM32L5xx_HAL_Driver\Src\stm32l5xx_hal_adc_ex.c:1486:7
	ldr	r0, [r4, #88]
	orr	r0, r0, #32
.Ltmp455:
.LBB20_5:
	.loc	6 0 0 is_stmt 0                 @ c:/Keil_v5\ARM\PACK\Keil\STM32L5xx_DFP\1.3.0\Drivers\STM32L5xx_HAL_Driver\Src\stm32l5xx_hal_adc_ex.c:0:0
	str	r0, [r4, #88]
	movs	r0, #1
	movs	r1, #0
.Ltmp456:
	strb.w	r1, [r4, #84]
	.loc	6 1572 1 is_stmt 1              @ c:/Keil_v5\ARM\PACK\Keil\STM32L5xx_DFP\1.3.0\Drivers\STM32L5xx_HAL_Driver\Src\stm32l5xx_hal_adc_ex.c:1572:1
	add	sp, #104
	pop	{r4, r5, r6, pc}
	.p2align	2
.LBB20_6:
.Ltmp457:
	.loc	6 1481 5                        @ c:/Keil_v5\ARM\PACK\Keil\STM32L5xx_DFP\1.3.0\Drivers\STM32L5xx_HAL_Driver\Src\stm32l5xx_hal_adc_ex.c:1481:5
	sub.w	r0, r6, #8
	str	r0, [sp]
	.loc	6 1498 17                       @ c:/Keil_v5\ARM\PACK\Keil\STM32L5xx_DFP\1.3.0\Drivers\STM32L5xx_HAL_Driver\Src\stm32l5xx_hal_adc_ex.c:1498:17
	bl	HAL_GetTick
	.loc	6 0 0 is_stmt 0                 @ c:/Keil_v5\ARM\PACK\Keil\STM32L5xx_DFP\1.3.0\Drivers\STM32L5xx_HAL_Driver\Src\stm32l5xx_hal_adc_ex.c:0:0
	ldr	r1, [r6]
.Ltmp458:
	@DEBUG_VALUE: HAL_ADCEx_RegularMultiModeStop_DMA:tmphadcSlave_conversion_on_going <- [DW_OP_constu 2, DW_OP_shr, DW_OP_constu 1, DW_OP_and, DW_OP_stack_value] $r1
	.loc	6 1501 50 is_stmt 1             @ c:/Keil_v5\ARM\PACK\Keil\STM32L5xx_DFP\1.3.0\Drivers\STM32L5xx_HAL_Driver\Src\stm32l5xx_hal_adc_ex.c:1501:50
	ldr	r2, [r4]
.Ltmp459:
	@DEBUG_VALUE: LL_ADC_REG_IsConversionOngoing:ADCx <- $r2
	.loc	7 5880 12                       @ c:/Keil_v5\ARM\PACK\Keil\STM32L5xx_DFP\1.3.0\Drivers\STM32L5xx_HAL_Driver\Inc\stm32l5xx_ll_adc.h:5880:12
	ldr	r2, [r2, #8]
.Ltmp460:
	.loc	6 1502 12                       @ c:/Keil_v5\ARM\PACK\Keil\STM32L5xx_DFP\1.3.0\Drivers\STM32L5xx_HAL_Driver\Src\stm32l5xx_hal_adc_ex.c:1502:12
	orrs	r1, r2
.Ltmp461:
	.loc	6 1501 5                        @ c:/Keil_v5\ARM\PACK\Keil\STM32L5xx_DFP\1.3.0\Drivers\STM32L5xx_HAL_Driver\Src\stm32l5xx_hal_adc_ex.c:1501:5
	lsls	r1, r1, #29
.Ltmp462:
	@DEBUG_VALUE: LL_ADC_REG_IsConversionOngoing:ADCx <- 0
	@DEBUG_VALUE: HAL_ADCEx_RegularMultiModeStop_DMA:tickstart <- $r0
	@DEBUG_VALUE: HAL_ADCEx_RegularMultiModeStop_DMA:tmphadcSlave_conversion_on_going <- [DW_OP_constu 2, DW_OP_shr, DW_OP_constu 1, DW_OP_and, DW_OP_stack_value] undef
	bpl	.LBB20_10
.Ltmp463:
@ %bb.7:
	@DEBUG_VALUE: HAL_ADCEx_RegularMultiModeStop_DMA:tickstart <- $r0
	@DEBUG_VALUE: LL_ADC_REG_IsConversionOngoing:ADCx <- 0
	.loc	6 0 5 is_stmt 0                 @ c:/Keil_v5\ARM\PACK\Keil\STM32L5xx_DFP\1.3.0\Drivers\STM32L5xx_HAL_Driver\Src\stm32l5xx_hal_adc_ex.c:0:5
	mov	r5, r0
.Ltmp464:
	@DEBUG_VALUE: HAL_ADCEx_RegularMultiModeStop_DMA:tickstart <- $r5
	@DEBUG_VALUE: HAL_ADCEx_RegularMultiModeStop_DMA:tickstart <- $r5
	.p2align	2
.LBB20_8:                               @ =>This Inner Loop Header: Depth=1
	@DEBUG_VALUE: HAL_ADCEx_RegularMultiModeStop_DMA:tickstart <- $r5
	.loc	6 1505 12 is_stmt 1             @ c:/Keil_v5\ARM\PACK\Keil\STM32L5xx_DFP\1.3.0\Drivers\STM32L5xx_HAL_Driver\Src\stm32l5xx_hal_adc_ex.c:1505:12
	bl	HAL_GetTick
	.loc	6 1505 26 is_stmt 0             @ c:/Keil_v5\ARM\PACK\Keil\STM32L5xx_DFP\1.3.0\Drivers\STM32L5xx_HAL_Driver\Src\stm32l5xx_hal_adc_ex.c:1505:26
	subs	r0, r0, r5
.Ltmp465:
	.loc	6 1505 11                       @ c:/Keil_v5\ARM\PACK\Keil\STM32L5xx_DFP\1.3.0\Drivers\STM32L5xx_HAL_Driver\Src\stm32l5xx_hal_adc_ex.c:1505:11
	cmp	r0, #6
	bhs	.LBB20_17
.Ltmp466:
@ %bb.9:                                @   in Loop: Header=BB20_8 Depth=1
	@DEBUG_VALUE: HAL_ADCEx_RegularMultiModeStop_DMA:tickstart <- $r5
	@DEBUG_VALUE: HAL_ADCEx_RegularMultiModeStop_DMA:tmphadcSlave_conversion_on_going <- [DW_OP_constu 2, DW_OP_shr, DW_OP_constu 1, DW_OP_and, DW_OP_stack_value] undef
	@DEBUG_VALUE: LL_ADC_REG_IsConversionOngoing:ADCx <- 0
	.loc	6 0 0                           @ c:/Keil_v5\ARM\PACK\Keil\STM32L5xx_DFP\1.3.0\Drivers\STM32L5xx_HAL_Driver\Src\stm32l5xx_hal_adc_ex.c:0:0
	ldr	r0, [r6]
.Ltmp467:
	@DEBUG_VALUE: HAL_ADCEx_RegularMultiModeStop_DMA:tmphadcSlave_conversion_on_going <- [DW_OP_constu 2, DW_OP_shr, DW_OP_constu 1, DW_OP_and, DW_OP_stack_value] $r0
	.loc	6 1501 50 is_stmt 1             @ c:/Keil_v5\ARM\PACK\Keil\STM32L5xx_DFP\1.3.0\Drivers\STM32L5xx_HAL_Driver\Src\stm32l5xx_hal_adc_ex.c:1501:50
	ldr	r1, [r4]
.Ltmp468:
	@DEBUG_VALUE: LL_ADC_REG_IsConversionOngoing:ADCx <- $r1
	.loc	7 5880 12                       @ c:/Keil_v5\ARM\PACK\Keil\STM32L5xx_DFP\1.3.0\Drivers\STM32L5xx_HAL_Driver\Inc\stm32l5xx_ll_adc.h:5880:12
	ldr	r1, [r1, #8]
.Ltmp469:
	.loc	6 1502 12                       @ c:/Keil_v5\ARM\PACK\Keil\STM32L5xx_DFP\1.3.0\Drivers\STM32L5xx_HAL_Driver\Src\stm32l5xx_hal_adc_ex.c:1502:12
	orrs	r0, r1
.Ltmp470:
	.loc	6 1501 5                        @ c:/Keil_v5\ARM\PACK\Keil\STM32L5xx_DFP\1.3.0\Drivers\STM32L5xx_HAL_Driver\Src\stm32l5xx_hal_adc_ex.c:1501:5
	lsls	r0, r0, #29
	bmi	.LBB20_8
.Ltmp471:
.LBB20_10:
	.loc	6 1523 42                       @ c:/Keil_v5\ARM\PACK\Keil\STM32L5xx_DFP\1.3.0\Drivers\STM32L5xx_HAL_Driver\Src\stm32l5xx_hal_adc_ex.c:1523:42
	ldr	r0, [r4, #80]
	.loc	6 1523 22 is_stmt 0             @ c:/Keil_v5\ARM\PACK\Keil\STM32L5xx_DFP\1.3.0\Drivers\STM32L5xx_HAL_Driver\Src\stm32l5xx_hal_adc_ex.c:1523:22
	bl	HAL_DMA_Abort
.Ltmp472:
	@DEBUG_VALUE: HAL_ADCEx_RegularMultiModeStop_DMA:tmp_hal_status <- $r0
	.loc	6 1526 9 is_stmt 1              @ c:/Keil_v5\ARM\PACK\Keil\STM32L5xx_DFP\1.3.0\Drivers\STM32L5xx_HAL_Driver\Src\stm32l5xx_hal_adc_ex.c:1526:9
	cbz	r0, .LBB20_12
.Ltmp473:
@ %bb.11:
	@DEBUG_VALUE: HAL_ADCEx_RegularMultiModeStop_DMA:tmp_hal_status <- $r0
	.loc	6 1533 5                        @ c:/Keil_v5\ARM\PACK\Keil\STM32L5xx_DFP\1.3.0\Drivers\STM32L5xx_HAL_Driver\Src\stm32l5xx_hal_adc_ex.c:1533:5
	ldr	r1, [r4]
	@DEBUG_VALUE: LL_ADC_INJ_IsConversionOngoing:ADCx <- $r1
.Ltmp474:
	.loc	6 1529 7                        @ c:/Keil_v5\ARM\PACK\Keil\STM32L5xx_DFP\1.3.0\Drivers\STM32L5xx_HAL_Driver\Src\stm32l5xx_hal_adc_ex.c:1529:7
	ldr	r2, [r4, #88]
	orr	r2, r2, #64
	str	r2, [r4, #88]
.Ltmp475:
	.loc	6 1533 5                        @ c:/Keil_v5\ARM\PACK\Keil\STM32L5xx_DFP\1.3.0\Drivers\STM32L5xx_HAL_Driver\Src\stm32l5xx_hal_adc_ex.c:1533:5
	ldr	r2, [r1, #4]
	bic	r2, r2, #16
	str	r2, [r1, #4]
	movs	r1, #0
.Ltmp476:
	.loc	6 0 0 is_stmt 0                 @ c:/Keil_v5\ARM\PACK\Keil\STM32L5xx_DFP\1.3.0\Drivers\STM32L5xx_HAL_Driver\Src\stm32l5xx_hal_adc_ex.c:0:0
	strb.w	r1, [r4, #84]
	.loc	6 1572 1 is_stmt 1              @ c:/Keil_v5\ARM\PACK\Keil\STM32L5xx_DFP\1.3.0\Drivers\STM32L5xx_HAL_Driver\Src\stm32l5xx_hal_adc_ex.c:1572:1
	add	sp, #104
	pop	{r4, r5, r6, pc}
.Ltmp477:
	.p2align	2
.LBB20_12:
	@DEBUG_VALUE: HAL_ADCEx_RegularMultiModeStop_DMA:tmp_hal_status <- $r0
	.loc	6 1533 5                        @ c:/Keil_v5\ARM\PACK\Keil\STM32L5xx_DFP\1.3.0\Drivers\STM32L5xx_HAL_Driver\Src\stm32l5xx_hal_adc_ex.c:1533:5
	ldr	r0, [r4]
.Ltmp478:
	ldr	r1, [r0, #4]
	bic	r1, r1, #16
	str	r1, [r0, #4]
.Ltmp479:
	.loc	7 6063 12                       @ c:/Keil_v5\ARM\PACK\Keil\STM32L5xx_DFP\1.3.0\Drivers\STM32L5xx_HAL_Driver\Inc\stm32l5xx_ll_adc.h:6063:12
	ldr	r0, [r0, #8]
.Ltmp480:
	.loc	6 1541 11                       @ c:/Keil_v5\ARM\PACK\Keil\STM32L5xx_DFP\1.3.0\Drivers\STM32L5xx_HAL_Driver\Src\stm32l5xx_hal_adc_ex.c:1541:11
	lsls	r0, r0, #28
	bmi	.LBB20_16
@ %bb.13:
.Ltmp481:
	.loc	6 1543 27                       @ c:/Keil_v5\ARM\PACK\Keil\STM32L5xx_DFP\1.3.0\Drivers\STM32L5xx_HAL_Driver\Src\stm32l5xx_hal_adc_ex.c:1543:27
	mov	r0, r4
	bl	ADC_Disable
.Ltmp482:
	@DEBUG_VALUE: HAL_ADCEx_RegularMultiModeStop_DMA:tmp_hal_status <- $r0
	.loc	6 1544 13                       @ c:/Keil_v5\ARM\PACK\Keil\STM32L5xx_DFP\1.3.0\Drivers\STM32L5xx_HAL_Driver\Src\stm32l5xx_hal_adc_ex.c:1544:13
	cmp	r0, #0
	bne	.LBB20_2
.Ltmp483:
@ %bb.14:
	@DEBUG_VALUE: HAL_ADCEx_RegularMultiModeStop_DMA:tmp_hal_status <- $r0
	@DEBUG_VALUE: LL_ADC_INJ_IsConversionOngoing:ADCx <- 0
	.loc	7 6063 12                       @ c:/Keil_v5\ARM\PACK\Keil\STM32L5xx_DFP\1.3.0\Drivers\STM32L5xx_HAL_Driver\Inc\stm32l5xx_ll_adc.h:6063:12
	ldr	r0, [r6]
.Ltmp484:
	.loc	6 1546 15                       @ c:/Keil_v5\ARM\PACK\Keil\STM32L5xx_DFP\1.3.0\Drivers\STM32L5xx_HAL_Driver\Src\stm32l5xx_hal_adc_ex.c:1546:15
	lsls	r0, r0, #28
	bmi	.LBB20_16
.Ltmp485:
@ %bb.15:
	.loc	6 0 15 is_stmt 0                @ c:/Keil_v5\ARM\PACK\Keil\STM32L5xx_DFP\1.3.0\Drivers\STM32L5xx_HAL_Driver\Src\stm32l5xx_hal_adc_ex.c:0:15
	mov	r0, sp
.Ltmp486:
	.loc	6 1548 31 is_stmt 1             @ c:/Keil_v5\ARM\PACK\Keil\STM32L5xx_DFP\1.3.0\Drivers\STM32L5xx_HAL_Driver\Src\stm32l5xx_hal_adc_ex.c:1548:31
	bl	ADC_Disable
.Ltmp487:
	@DEBUG_VALUE: HAL_ADCEx_RegularMultiModeStop_DMA:tmp_hal_status <- $r0
	.loc	6 1553 11                       @ c:/Keil_v5\ARM\PACK\Keil\STM32L5xx_DFP\1.3.0\Drivers\STM32L5xx_HAL_Driver\Src\stm32l5xx_hal_adc_ex.c:1553:11
	cmp	r0, #0
	bne	.LBB20_2
.Ltmp488:
.LBB20_16:
	.loc	6 1557 9                        @ c:/Keil_v5\ARM\PACK\Keil\STM32L5xx_DFP\1.3.0\Drivers\STM32L5xx_HAL_Driver\Src\stm32l5xx_hal_adc_ex.c:1557:9
	ldr	r0, [r4, #88]
	movw	r1, #4097
	bics	r0, r1
	adds	r0, #1
	str	r0, [r4, #88]
	movs	r0, #0
	movs	r1, #0
.Ltmp489:
	.loc	6 0 0 is_stmt 0                 @ c:/Keil_v5\ARM\PACK\Keil\STM32L5xx_DFP\1.3.0\Drivers\STM32L5xx_HAL_Driver\Src\stm32l5xx_hal_adc_ex.c:0:0
	strb.w	r1, [r4, #84]
	.loc	6 1572 1 is_stmt 1              @ c:/Keil_v5\ARM\PACK\Keil\STM32L5xx_DFP\1.3.0\Drivers\STM32L5xx_HAL_Driver\Src\stm32l5xx_hal_adc_ex.c:1572:1
	add	sp, #104
	pop	{r4, r5, r6, pc}
	.p2align	2
.LBB20_17:
.Ltmp490:
	@DEBUG_VALUE: HAL_ADCEx_RegularMultiModeStop_DMA:tickstart <- $r5
	.loc	6 1508 9                        @ c:/Keil_v5\ARM\PACK\Keil\STM32L5xx_DFP\1.3.0\Drivers\STM32L5xx_HAL_Driver\Src\stm32l5xx_hal_adc_ex.c:1508:9
	ldr	r0, [r4, #88]
	orr	r0, r0, #16
	b	.LBB20_5
.Ltmp491:
.Lfunc_end20:
	.size	HAL_ADCEx_RegularMultiModeStop_DMA, .Lfunc_end20-HAL_ADCEx_RegularMultiModeStop_DMA
	.cfi_endproc
	.cantunwind
	.fnend
                                        @ -- End function
	.section	.text.HAL_ADCEx_InjectedConfigChannel,"ax",%progbits
	.hidden	HAL_ADCEx_InjectedConfigChannel @ -- Begin function HAL_ADCEx_InjectedConfigChannel
	.globl	HAL_ADCEx_InjectedConfigChannel
	.p2align	2
	.type	HAL_ADCEx_InjectedConfigChannel,%function
	.code	16                              @ @HAL_ADCEx_InjectedConfigChannel
	.thumb_func
HAL_ADCEx_InjectedConfigChannel:
.Lfunc_begin21:
	.loc	6 1632 0                        @ c:/Keil_v5\ARM\PACK\Keil\STM32L5xx_DFP\1.3.0\Drivers\STM32L5xx_HAL_Driver\Src\stm32l5xx_hal_adc_ex.c:1632:0
	.fnstart
	.cfi_startproc
@ %bb.0:
	@DEBUG_VALUE: HAL_ADCEx_InjectedConfigChannel:hadc <- $r0
	@DEBUG_VALUE: HAL_ADCEx_InjectedConfigChannel:sConfigInjected <- $r1
	.save	{r4, r5, r6, r7, lr}
	push	{r4, r5, r6, r7, lr}
	.cfi_def_cfa_offset 20
	.cfi_offset lr, -4
	.cfi_offset r7, -8
	.cfi_offset r6, -12
	.cfi_offset r5, -16
	.cfi_offset r4, -20
	.pad	#4
	sub	sp, #4
	.cfi_def_cfa_offset 24
	movs	r2, #0
.Ltmp492:
	@DEBUG_VALUE: HAL_ADCEx_InjectedConfigChannel:tmp_hal_status <- 0
	@DEBUG_VALUE: HAL_ADCEx_InjectedConfigChannel:hadc <- $r0
	.loc	6 1638 17 prologue_end          @ c:/Keil_v5\ARM\PACK\Keil\STM32L5xx_DFP\1.3.0\Drivers\STM32L5xx_HAL_Driver\Src\stm32l5xx_hal_adc_ex.c:1638:17
	str	r2, [sp]
.Ltmp493:
	@DEBUG_VALUE: HAL_ADCEx_InjectedConfigChannel:tmp_JSQR_ContextQueueBeingBuilt <- 0
	.loc	6 1683 3                        @ c:/Keil_v5\ARM\PACK\Keil\STM32L5xx_DFP\1.3.0\Drivers\STM32L5xx_HAL_Driver\Src\stm32l5xx_hal_adc_ex.c:1683:3
	ldrb.w	r2, [r0, #84]
.Ltmp494:
	.loc	6 1683 3 is_stmt 0              @ c:/Keil_v5\ARM\PACK\Keil\STM32L5xx_DFP\1.3.0\Drivers\STM32L5xx_HAL_Driver\Src\stm32l5xx_hal_adc_ex.c:1683:3
	cmp	r2, #1
	@DEBUG_VALUE: HAL_ADCEx_InjectedConfigChannel:sConfigInjected <- $r1
	bne	.LBB21_2
.Ltmp495:
@ %bb.1:
	@DEBUG_VALUE: HAL_ADCEx_InjectedConfigChannel:sConfigInjected <- $r1
	@DEBUG_VALUE: HAL_ADCEx_InjectedConfigChannel:hadc <- $r0
	@DEBUG_VALUE: HAL_ADCEx_InjectedConfigChannel:tmp_JSQR_ContextQueueBeingBuilt <- 0
	@DEBUG_VALUE: HAL_ADCEx_InjectedConfigChannel:tmp_hal_status <- 0
	.loc	6 0 3                           @ c:/Keil_v5\ARM\PACK\Keil\STM32L5xx_DFP\1.3.0\Drivers\STM32L5xx_HAL_Driver\Src\stm32l5xx_hal_adc_ex.c:0:3
	mov.w	r12, #2
	.loc	6 2063 1 is_stmt 1              @ c:/Keil_v5\ARM\PACK\Keil\STM32L5xx_DFP\1.3.0\Drivers\STM32L5xx_HAL_Driver\Src\stm32l5xx_hal_adc_ex.c:2063:1
	mov	r0, r12
.Ltmp496:
	@DEBUG_VALUE: HAL_ADCEx_InjectedConfigChannel:hadc <- [DW_OP_LLVM_entry_value 1] $r0
	add	sp, #4
	pop	{r4, r5, r6, r7, pc}
.Ltmp497:
	.p2align	2
.LBB21_2:
	@DEBUG_VALUE: HAL_ADCEx_InjectedConfigChannel:sConfigInjected <- $r1
	@DEBUG_VALUE: HAL_ADCEx_InjectedConfigChannel:hadc <- $r0
	@DEBUG_VALUE: HAL_ADCEx_InjectedConfigChannel:tmp_JSQR_ContextQueueBeingBuilt <- 0
	@DEBUG_VALUE: HAL_ADCEx_InjectedConfigChannel:tmp_hal_status <- 0
	.loc	6 1706 19                       @ c:/Keil_v5\ARM\PACK\Keil\STM32L5xx_DFP\1.3.0\Drivers\STM32L5xx_HAL_Driver\Src\stm32l5xx_hal_adc_ex.c:1706:19
	ldr	r2, [r0, #16]
	movs	r3, #1
.Ltmp498:
	.loc	6 1683 3                        @ c:/Keil_v5\ARM\PACK\Keil\STM32L5xx_DFP\1.3.0\Drivers\STM32L5xx_HAL_Driver\Src\stm32l5xx_hal_adc_ex.c:1683:3
	strb.w	r3, [r0, #84]
.Ltmp499:
	.loc	6 1706 54                       @ c:/Keil_v5\ARM\PACK\Keil\STM32L5xx_DFP\1.3.0\Drivers\STM32L5xx_HAL_Driver\Src\stm32l5xx_hal_adc_ex.c:1706:54
	cbz	r2, .LBB21_4
.Ltmp500:
@ %bb.3:
	@DEBUG_VALUE: HAL_ADCEx_InjectedConfigChannel:sConfigInjected <- $r1
	@DEBUG_VALUE: HAL_ADCEx_InjectedConfigChannel:hadc <- $r0
	@DEBUG_VALUE: HAL_ADCEx_InjectedConfigChannel:tmp_JSQR_ContextQueueBeingBuilt <- 0
	@DEBUG_VALUE: HAL_ADCEx_InjectedConfigChannel:tmp_hal_status <- 0
	.loc	6 1707 25                       @ c:/Keil_v5\ARM\PACK\Keil\STM32L5xx_DFP\1.3.0\Drivers\STM32L5xx_HAL_Driver\Src\stm32l5xx_hal_adc_ex.c:1707:25
	ldr	r5, [r1, #24]
.Ltmp501:
	.loc	6 1706 7                        @ c:/Keil_v5\ARM\PACK\Keil\STM32L5xx_DFP\1.3.0\Drivers\STM32L5xx_HAL_Driver\Src\stm32l5xx_hal_adc_ex.c:1706:7
	cmp	r5, #1
	bne	.LBB21_8
.Ltmp502:
.LBB21_4:
	@DEBUG_VALUE: HAL_ADCEx_InjectedConfigChannel:sConfigInjected <- $r1
	@DEBUG_VALUE: HAL_ADCEx_InjectedConfigChannel:hadc <- $r0
	@DEBUG_VALUE: HAL_ADCEx_InjectedConfigChannel:tmp_JSQR_ContextQueueBeingBuilt <- 0
	@DEBUG_VALUE: HAL_ADCEx_InjectedConfigChannel:tmp_hal_status <- 0
	.loc	6 1716 26                       @ c:/Keil_v5\ARM\PACK\Keil\STM32L5xx_DFP\1.3.0\Drivers\STM32L5xx_HAL_Driver\Src\stm32l5xx_hal_adc_ex.c:1716:26
	ldr	r2, [r1, #4]
.Ltmp503:
	.loc	6 1716 9 is_stmt 0              @ c:/Keil_v5\ARM\PACK\Keil\STM32L5xx_DFP\1.3.0\Drivers\STM32L5xx_HAL_Driver\Src\stm32l5xx_hal_adc_ex.c:1716:9
	cmp	r2, #8
	bne	.LBB21_15
.Ltmp504:
@ %bb.5:
	@DEBUG_VALUE: HAL_ADCEx_InjectedConfigChannel:sConfigInjected <- $r1
	@DEBUG_VALUE: HAL_ADCEx_InjectedConfigChannel:hadc <- $r0
	@DEBUG_VALUE: HAL_ADCEx_InjectedConfigChannel:tmp_JSQR_ContextQueueBeingBuilt <- 0
	@DEBUG_VALUE: HAL_ADCEx_InjectedConfigChannel:tmp_hal_status <- 0
	.loc	6 0 0                           @ c:/Keil_v5\ARM\PACK\Keil\STM32L5xx_DFP\1.3.0\Drivers\STM32L5xx_HAL_Driver\Src\stm32l5xx_hal_adc_ex.c:0:0
	ldr	r2, [r1]
	.loc	6 1723 28 is_stmt 1             @ c:/Keil_v5\ARM\PACK\Keil\STM32L5xx_DFP\1.3.0\Drivers\STM32L5xx_HAL_Driver\Src\stm32l5xx_hal_adc_ex.c:1723:28
	ldr	r3, [r1, #32]
	mov.w	r6, #7936
	.loc	6 0 0 is_stmt 0                 @ c:/Keil_v5\ARM\PACK\Keil\STM32L5xx_DFP\1.3.0\Drivers\STM32L5xx_HAL_Driver\Src\stm32l5xx_hal_adc_ex.c:0:0
	and.w	r2, r6, r2, lsr #18
.Ltmp505:
	.loc	6 1723 11                       @ c:/Keil_v5\ARM\PACK\Keil\STM32L5xx_DFP\1.3.0\Drivers\STM32L5xx_HAL_Driver\Src\stm32l5xx_hal_adc_ex.c:1723:11
	cbz	r3, .LBB21_7
.Ltmp506:
@ %bb.6:
	@DEBUG_VALUE: HAL_ADCEx_InjectedConfigChannel:sConfigInjected <- $r1
	@DEBUG_VALUE: HAL_ADCEx_InjectedConfigChannel:hadc <- $r0
	@DEBUG_VALUE: HAL_ADCEx_InjectedConfigChannel:tmp_JSQR_ContextQueueBeingBuilt <- 0
	@DEBUG_VALUE: HAL_ADCEx_InjectedConfigChannel:tmp_hal_status <- 0
	.loc	6 1727 63 is_stmt 1             @ c:/Keil_v5\ARM\PACK\Keil\STM32L5xx_DFP\1.3.0\Drivers\STM32L5xx_HAL_Driver\Src\stm32l5xx_hal_adc_ex.c:1727:63
	ldr	r6, [r1, #36]
	.loc	6 1726 86                       @ c:/Keil_v5\ARM\PACK\Keil\STM32L5xx_DFP\1.3.0\Drivers\STM32L5xx_HAL_Driver\Src\stm32l5xx_hal_adc_ex.c:1726:86
	and	r3, r3, #60
	.loc	6 1726 44 is_stmt 0             @ c:/Keil_v5\ARM\PACK\Keil\STM32L5xx_DFP\1.3.0\Drivers\STM32L5xx_HAL_Driver\Src\stm32l5xx_hal_adc_ex.c:1726:44
	orrs	r3, r6
	.loc	6 1727 44 is_stmt 1             @ c:/Keil_v5\ARM\PACK\Keil\STM32L5xx_DFP\1.3.0\Drivers\STM32L5xx_HAL_Driver\Src\stm32l5xx_hal_adc_ex.c:1727:44
	orrs	r2, r3
.Ltmp507:
	@DEBUG_VALUE: HAL_ADCEx_InjectedConfigChannel:tmp_JSQR_ContextQueueBeingBuilt <- $r2
.LBB21_7:
	@DEBUG_VALUE: HAL_ADCEx_InjectedConfigChannel:sConfigInjected <- $r1
	@DEBUG_VALUE: HAL_ADCEx_InjectedConfigChannel:hadc <- $r0
	@DEBUG_VALUE: HAL_ADCEx_InjectedConfigChannel:tmp_hal_status <- 0
	@DEBUG_VALUE: HAL_ADCEx_InjectedConfigChannel:tmp_JSQR_ContextQueueBeingBuilt <- $r2
	.loc	6 1735 7                        @ c:/Keil_v5\ARM\PACK\Keil\STM32L5xx_DFP\1.3.0\Drivers\STM32L5xx_HAL_Driver\Src\stm32l5xx_hal_adc_ex.c:1735:7
	ldr	r3, [r0]
	movw	r5, #8192
	ldr	r6, [r3, #76]
	movt	r5, #33288
	ands	r6, r5
	orrs	r6, r2
	str	r6, [r3, #76]
	.loc	6 1737 42                       @ c:/Keil_v5\ARM\PACK\Keil\STM32L5xx_DFP\1.3.0\Drivers\STM32L5xx_HAL_Driver\Src\stm32l5xx_hal_adc_ex.c:1737:42
	str	r2, [r0, #96]
	b	.LBB21_15
.Ltmp508:
	.p2align	2
.LBB21_8:
	@DEBUG_VALUE: HAL_ADCEx_InjectedConfigChannel:sConfigInjected <- $r1
	@DEBUG_VALUE: HAL_ADCEx_InjectedConfigChannel:hadc <- $r0
	@DEBUG_VALUE: HAL_ADCEx_InjectedConfigChannel:tmp_JSQR_ContextQueueBeingBuilt <- 0
	@DEBUG_VALUE: HAL_ADCEx_InjectedConfigChannel:tmp_hal_status <- 0
	.loc	6 1753 31                       @ c:/Keil_v5\ARM\PACK\Keil\STM32L5xx_DFP\1.3.0\Drivers\STM32L5xx_HAL_Driver\Src\stm32l5xx_hal_adc_ex.c:1753:31
	ldr	r4, [r0, #100]
.Ltmp509:
	.loc	6 1753 9 is_stmt 0              @ c:/Keil_v5\ARM\PACK\Keil\STM32L5xx_DFP\1.3.0\Drivers\STM32L5xx_HAL_Driver\Src\stm32l5xx_hal_adc_ex.c:1753:9
	cbz	r4, .LBB21_10
.Ltmp510:
@ %bb.9:
	@DEBUG_VALUE: HAL_ADCEx_InjectedConfigChannel:sConfigInjected <- $r1
	@DEBUG_VALUE: HAL_ADCEx_InjectedConfigChannel:hadc <- $r0
	@DEBUG_VALUE: HAL_ADCEx_InjectedConfigChannel:tmp_JSQR_ContextQueueBeingBuilt <- 0
	@DEBUG_VALUE: HAL_ADCEx_InjectedConfigChannel:tmp_hal_status <- 0
	.loc	6 1801 40 is_stmt 1             @ c:/Keil_v5\ARM\PACK\Keil\STM32L5xx_DFP\1.3.0\Drivers\STM32L5xx_HAL_Driver\Src\stm32l5xx_hal_adc_ex.c:1801:40
	ldr	r3, [r0, #96]
	movs	r2, #0
	b	.LBB21_13
.Ltmp511:
	.p2align	2
.LBB21_10:
	@DEBUG_VALUE: HAL_ADCEx_InjectedConfigChannel:sConfigInjected <- $r1
	@DEBUG_VALUE: HAL_ADCEx_InjectedConfigChannel:hadc <- $r0
	@DEBUG_VALUE: HAL_ADCEx_InjectedConfigChannel:tmp_JSQR_ContextQueueBeingBuilt <- 0
	@DEBUG_VALUE: HAL_ADCEx_InjectedConfigChannel:tmp_hal_status <- 0
	.loc	6 1773 28                       @ c:/Keil_v5\ARM\PACK\Keil\STM32L5xx_DFP\1.3.0\Drivers\STM32L5xx_HAL_Driver\Src\stm32l5xx_hal_adc_ex.c:1773:28
	ldr	r3, [r1, #32]
	.loc	6 0 0 is_stmt 0                 @ c:/Keil_v5\ARM\PACK\Keil\STM32L5xx_DFP\1.3.0\Drivers\STM32L5xx_HAL_Driver\Src\stm32l5xx_hal_adc_ex.c:0:0
	subs	r2, r5, #1
.Ltmp512:
	.loc	6 1773 11                       @ c:/Keil_v5\ARM\PACK\Keil\STM32L5xx_DFP\1.3.0\Drivers\STM32L5xx_HAL_Driver\Src\stm32l5xx_hal_adc_ex.c:1773:11
	cbz	r3, .LBB21_12
.Ltmp513:
@ %bb.11:
	@DEBUG_VALUE: HAL_ADCEx_InjectedConfigChannel:sConfigInjected <- $r1
	@DEBUG_VALUE: HAL_ADCEx_InjectedConfigChannel:hadc <- $r0
	@DEBUG_VALUE: HAL_ADCEx_InjectedConfigChannel:tmp_JSQR_ContextQueueBeingBuilt <- 0
	@DEBUG_VALUE: HAL_ADCEx_InjectedConfigChannel:tmp_hal_status <- 0
	.loc	6 1776 86 is_stmt 1             @ c:/Keil_v5\ARM\PACK\Keil\STM32L5xx_DFP\1.3.0\Drivers\STM32L5xx_HAL_Driver\Src\stm32l5xx_hal_adc_ex.c:1776:86
	and	r3, r3, #60
	.loc	6 1777 63                       @ c:/Keil_v5\ARM\PACK\Keil\STM32L5xx_DFP\1.3.0\Drivers\STM32L5xx_HAL_Driver\Src\stm32l5xx_hal_adc_ex.c:1777:63
	ldr	r6, [r1, #36]
	.loc	6 1776 44                       @ c:/Keil_v5\ARM\PACK\Keil\STM32L5xx_DFP\1.3.0\Drivers\STM32L5xx_HAL_Driver\Src\stm32l5xx_hal_adc_ex.c:1776:44
	orrs	r2, r3
	.loc	6 1777 44                       @ c:/Keil_v5\ARM\PACK\Keil\STM32L5xx_DFP\1.3.0\Drivers\STM32L5xx_HAL_Driver\Src\stm32l5xx_hal_adc_ex.c:1777:44
	orrs	r2, r6
.Ltmp514:
	@DEBUG_VALUE: HAL_ADCEx_InjectedConfigChannel:tmp_JSQR_ContextQueueBeingBuilt <- $r2
.LBB21_12:
	@DEBUG_VALUE: HAL_ADCEx_InjectedConfigChannel:sConfigInjected <- $r1
	@DEBUG_VALUE: HAL_ADCEx_InjectedConfigChannel:hadc <- $r0
	@DEBUG_VALUE: HAL_ADCEx_InjectedConfigChannel:tmp_hal_status <- 0
	.loc	6 0 44 is_stmt 0                @ c:/Keil_v5\ARM\PACK\Keil\STM32L5xx_DFP\1.3.0\Drivers\STM32L5xx_HAL_Driver\Src\stm32l5xx_hal_adc_ex.c:0:44
	movs	r3, #0
	.loc	6 1796 39 is_stmt 1             @ c:/Keil_v5\ARM\PACK\Keil\STM32L5xx_DFP\1.3.0\Drivers\STM32L5xx_HAL_Driver\Src\stm32l5xx_hal_adc_ex.c:1796:39
	mov	r4, r5
.Ltmp515:
.LBB21_13:
	@DEBUG_VALUE: HAL_ADCEx_InjectedConfigChannel:sConfigInjected <- $r1
	@DEBUG_VALUE: HAL_ADCEx_InjectedConfigChannel:hadc <- $r0
	@DEBUG_VALUE: HAL_ADCEx_InjectedConfigChannel:tmp_hal_status <- 0
	@DEBUG_VALUE: HAL_ADCEx_InjectedConfigChannel:tmp_JSQR_ContextQueueBeingBuilt <- $r2
	.loc	6 1793 40                       @ c:/Keil_v5\ARM\PACK\Keil\STM32L5xx_DFP\1.3.0\Drivers\STM32L5xx_HAL_Driver\Src\stm32l5xx_hal_adc_ex.c:1793:40
	ldrd	r6, r5, [r1]
	ubfx	r6, r6, #26, #5
	.loc	6 1790 41                       @ c:/Keil_v5\ARM\PACK\Keil\STM32L5xx_DFP\1.3.0\Drivers\STM32L5xx_HAL_Driver\Src\stm32l5xx_hal_adc_ex.c:1790:41
	and	r5, r5, #31
	.loc	6 1793 40                       @ c:/Keil_v5\ARM\PACK\Keil\STM32L5xx_DFP\1.3.0\Drivers\STM32L5xx_HAL_Driver\Src\stm32l5xx_hal_adc_ex.c:1793:40
	lsls	r6, r5
	.loc	6 1793 37 is_stmt 0             @ c:/Keil_v5\ARM\PACK\Keil\STM32L5xx_DFP\1.3.0\Drivers\STM32L5xx_HAL_Driver\Src\stm32l5xx_hal_adc_ex.c:1793:37
	orrs	r2, r6
.Ltmp516:
	@DEBUG_VALUE: HAL_ADCEx_InjectedConfigChannel:tmp_JSQR_ContextQueueBeingBuilt <- $r2
	.loc	6 1796 39 is_stmt 1             @ c:/Keil_v5\ARM\PACK\Keil\STM32L5xx_DFP\1.3.0\Drivers\STM32L5xx_HAL_Driver\Src\stm32l5xx_hal_adc_ex.c:1796:39
	subs	r6, r4, #1
	.loc	6 1801 40                       @ c:/Keil_v5\ARM\PACK\Keil\STM32L5xx_DFP\1.3.0\Drivers\STM32L5xx_HAL_Driver\Src\stm32l5xx_hal_adc_ex.c:1801:40
	orr.w	r2, r2, r3
.Ltmp517:
	strd	r2, r6, [r0, #96]
	.loc	6 1805 9                        @ c:/Keil_v5\ARM\PACK\Keil\STM32L5xx_DFP\1.3.0\Drivers\STM32L5xx_HAL_Driver\Src\stm32l5xx_hal_adc_ex.c:1805:9
	bne	.LBB21_15
.Ltmp518:
@ %bb.14:
	@DEBUG_VALUE: HAL_ADCEx_InjectedConfigChannel:sConfigInjected <- $r1
	@DEBUG_VALUE: HAL_ADCEx_InjectedConfigChannel:hadc <- $r0
	@DEBUG_VALUE: HAL_ADCEx_InjectedConfigChannel:tmp_hal_status <- 0
	.loc	6 1807 7                        @ c:/Keil_v5\ARM\PACK\Keil\STM32L5xx_DFP\1.3.0\Drivers\STM32L5xx_HAL_Driver\Src\stm32l5xx_hal_adc_ex.c:1807:7
	ldr	r3, [r0]
	movw	r5, #8192
	ldr	r6, [r3, #76]
	movt	r5, #33288
	ands	r6, r5
	orrs	r2, r6
	str	r2, [r3, #76]
.Ltmp519:
.LBB21_15:
	@DEBUG_VALUE: HAL_ADCEx_InjectedConfigChannel:sConfigInjected <- $r1
	@DEBUG_VALUE: HAL_ADCEx_InjectedConfigChannel:hadc <- $r0
	@DEBUG_VALUE: HAL_ADCEx_InjectedConfigChannel:tmp_hal_status <- 0
	.loc	6 1818 44                       @ c:/Keil_v5\ARM\PACK\Keil\STM32L5xx_DFP\1.3.0\Drivers\STM32L5xx_HAL_Driver\Src\stm32l5xx_hal_adc_ex.c:1818:44
	ldr	r3, [r0]
.Ltmp520:
	@DEBUG_VALUE: LL_ADC_INJ_IsConversionOngoing:ADCx <- $r3
	.loc	7 6063 12                       @ c:/Keil_v5\ARM\PACK\Keil\STM32L5xx_DFP\1.3.0\Drivers\STM32L5xx_HAL_Driver\Inc\stm32l5xx_ll_adc.h:6063:12
	ldr	r2, [r3, #8]
.Ltmp521:
	.loc	6 1818 7                        @ c:/Keil_v5\ARM\PACK\Keil\STM32L5xx_DFP\1.3.0\Drivers\STM32L5xx_HAL_Driver\Src\stm32l5xx_hal_adc_ex.c:1818:7
	lsls	r2, r2, #28
	bmi	.LBB21_20
.Ltmp522:
@ %bb.16:
	@DEBUG_VALUE: HAL_ADCEx_InjectedConfigChannel:sConfigInjected <- $r1
	@DEBUG_VALUE: HAL_ADCEx_InjectedConfigChannel:hadc <- $r0
	@DEBUG_VALUE: HAL_ADCEx_InjectedConfigChannel:tmp_hal_status <- 0
	.loc	6 0 0 is_stmt 0                 @ c:/Keil_v5\ARM\PACK\Keil\STM32L5xx_DFP\1.3.0\Drivers\STM32L5xx_HAL_Driver\Src\stm32l5xx_hal_adc_ex.c:0:0
	ldr	r2, [r3, #12]
	.loc	6 1821 26 is_stmt 1             @ c:/Keil_v5\ARM\PACK\Keil\STM32L5xx_DFP\1.3.0\Drivers\STM32L5xx_HAL_Driver\Src\stm32l5xx_hal_adc_ex.c:1821:26
	ldrb	r6, [r1, #29]
	.loc	6 0 0 is_stmt 0                 @ c:/Keil_v5\ARM\PACK\Keil\STM32L5xx_DFP\1.3.0\Drivers\STM32L5xx_HAL_Driver\Src\stm32l5xx_hal_adc_ex.c:0:0
	ldrb	r5, [r1, #30]
	bic	r2, r2, #3145728
.Ltmp523:
	.loc	6 1821 9                        @ c:/Keil_v5\ARM\PACK\Keil\STM32L5xx_DFP\1.3.0\Drivers\STM32L5xx_HAL_Driver\Src\stm32l5xx_hal_adc_ex.c:1821:9
	cmp	r6, #0
.Ltmp524:
	.loc	6 0 0                           @ c:/Keil_v5\ARM\PACK\Keil\STM32L5xx_DFP\1.3.0\Drivers\STM32L5xx_HAL_Driver\Src\stm32l5xx_hal_adc_ex.c:0:0
	lsl.w	r6, r5, #21
.Ltmp525:
	.loc	6 1821 9                        @ c:/Keil_v5\ARM\PACK\Keil\STM32L5xx_DFP\1.3.0\Drivers\STM32L5xx_HAL_Driver\Src\stm32l5xx_hal_adc_ex.c:1821:9
	beq	.LBB21_18
.Ltmp526:
@ %bb.17:
	@DEBUG_VALUE: HAL_ADCEx_InjectedConfigChannel:sConfigInjected <- $r1
	@DEBUG_VALUE: HAL_ADCEx_InjectedConfigChannel:hadc <- $r0
	@DEBUG_VALUE: HAL_ADCEx_InjectedConfigChannel:tmp_hal_status <- 0
	.loc	6 1832 7 is_stmt 1              @ c:/Keil_v5\ARM\PACK\Keil\STM32L5xx_DFP\1.3.0\Drivers\STM32L5xx_HAL_Driver\Src\stm32l5xx_hal_adc_ex.c:1832:7
	orrs	r2, r6
	b	.LBB21_19
.Ltmp527:
	.p2align	2
.LBB21_18:
	@DEBUG_VALUE: HAL_ADCEx_InjectedConfigChannel:sConfigInjected <- $r1
	@DEBUG_VALUE: HAL_ADCEx_InjectedConfigChannel:hadc <- $r0
	@DEBUG_VALUE: HAL_ADCEx_InjectedConfigChannel:tmp_hal_status <- 0
	.loc	6 1823 7                        @ c:/Keil_v5\ARM\PACK\Keil\STM32L5xx_DFP\1.3.0\Drivers\STM32L5xx_HAL_Driver\Src\stm32l5xx_hal_adc_ex.c:1823:7
	ldrb	r5, [r1, #28]
	orrs	r2, r6
	orr.w	r2, r2, r5, lsl #20
.Ltmp528:
.LBB21_19:
	@DEBUG_VALUE: HAL_ADCEx_InjectedConfigChannel:sConfigInjected <- $r1
	@DEBUG_VALUE: HAL_ADCEx_InjectedConfigChannel:hadc <- $r0
	@DEBUG_VALUE: HAL_ADCEx_InjectedConfigChannel:tmp_hal_status <- 0
	.loc	6 0 0 is_stmt 0                 @ c:/Keil_v5\ARM\PACK\Keil\STM32L5xx_DFP\1.3.0\Drivers\STM32L5xx_HAL_Driver\Src\stm32l5xx_hal_adc_ex.c:0:0
	str	r2, [r3, #12]
.Ltmp529:
.LBB21_20:
	@DEBUG_VALUE: HAL_ADCEx_InjectedConfigChannel:sConfigInjected <- $r1
	@DEBUG_VALUE: HAL_ADCEx_InjectedConfigChannel:hadc <- $r0
	@DEBUG_VALUE: HAL_ADCEx_InjectedConfigChannel:tmp_hal_status <- 0
	@DEBUG_VALUE: LL_ADC_REG_IsConversionOngoing:ADCx <- $r3
	.loc	7 5880 12 is_stmt 1             @ c:/Keil_v5\ARM\PACK\Keil\STM32L5xx_DFP\1.3.0\Drivers\STM32L5xx_HAL_Driver\Inc\stm32l5xx_ll_adc.h:5880:12
	ldr	r2, [r3, #8]
.Ltmp530:
	@DEBUG_VALUE: LL_ADC_INJ_IsConversionOngoing:ADCx <- $r3
	@DEBUG_VALUE: HAL_ADCEx_InjectedConfigChannel:tmp_adc_is_conversion_on_going_regular <- [DW_OP_constu 1, DW_OP_and, DW_OP_stack_value] undef
	.loc	7 6063 12                       @ c:/Keil_v5\ARM\PACK\Keil\STM32L5xx_DFP\1.3.0\Drivers\STM32L5xx_HAL_Driver\Inc\stm32l5xx_ll_adc.h:6063:12
	ldr	r6, [r3, #8]
	.loc	7 6063 11 is_stmt 0             @ c:/Keil_v5\ARM\PACK\Keil\STM32L5xx_DFP\1.3.0\Drivers\STM32L5xx_HAL_Driver\Inc\stm32l5xx_ll_adc.h:6063:11
	lsrs	r6, r6, #3
.Ltmp531:
	@DEBUG_VALUE: HAL_ADCEx_InjectedConfigChannel:tmp_adc_is_conversion_on_going_injected <- [DW_OP_constu 1, DW_OP_and, DW_OP_stack_value] $r6
	.loc	6 1850 7 is_stmt 1              @ c:/Keil_v5\ARM\PACK\Keil\STM32L5xx_DFP\1.3.0\Drivers\STM32L5xx_HAL_Driver\Src\stm32l5xx_hal_adc_ex.c:1850:7
	orr.w	r2, r6, r2, lsr #2
	lsls	r2, r2, #31
	bne	.LBB21_26
.Ltmp532:
@ %bb.21:
	@DEBUG_VALUE: HAL_ADCEx_InjectedConfigChannel:tmp_adc_is_conversion_on_going_injected <- [DW_OP_constu 1, DW_OP_and, DW_OP_stack_value] $r6
	@DEBUG_VALUE: HAL_ADCEx_InjectedConfigChannel:sConfigInjected <- $r1
	@DEBUG_VALUE: HAL_ADCEx_InjectedConfigChannel:hadc <- $r0
	@DEBUG_VALUE: HAL_ADCEx_InjectedConfigChannel:tmp_hal_status <- 0
	.loc	6 1855 27                       @ c:/Keil_v5\ARM\PACK\Keil\STM32L5xx_DFP\1.3.0\Drivers\STM32L5xx_HAL_Driver\Src\stm32l5xx_hal_adc_ex.c:1855:27
	ldr	r2, [r1, #32]
	.loc	6 1856 9                        @ c:/Keil_v5\ARM\PACK\Keil\STM32L5xx_DFP\1.3.0\Drivers\STM32L5xx_HAL_Driver\Src\stm32l5xx_hal_adc_ex.c:1856:9
	cbz	r2, .LBB21_27
.Ltmp533:
@ %bb.22:
	@DEBUG_VALUE: HAL_ADCEx_InjectedConfigChannel:tmp_adc_is_conversion_on_going_injected <- [DW_OP_constu 1, DW_OP_and, DW_OP_stack_value] $r6
	@DEBUG_VALUE: HAL_ADCEx_InjectedConfigChannel:sConfigInjected <- $r1
	@DEBUG_VALUE: HAL_ADCEx_InjectedConfigChannel:hadc <- $r0
	@DEBUG_VALUE: HAL_ADCEx_InjectedConfigChannel:tmp_hal_status <- 0
	.loc	6 1856 30 is_stmt 0             @ c:/Keil_v5\ARM\PACK\Keil\STM32L5xx_DFP\1.3.0\Drivers\STM32L5xx_HAL_Driver\Src\stm32l5xx_hal_adc_ex.c:1856:30
	ldr	r2, [r1, #36]
.Ltmp534:
	.loc	6 1855 9 is_stmt 1              @ c:/Keil_v5\ARM\PACK\Keil\STM32L5xx_DFP\1.3.0\Drivers\STM32L5xx_HAL_Driver\Src\stm32l5xx_hal_adc_ex.c:1855:9
	cbz	r2, .LBB21_27
.Ltmp535:
@ %bb.23:
	@DEBUG_VALUE: HAL_ADCEx_InjectedConfigChannel:tmp_adc_is_conversion_on_going_injected <- [DW_OP_constu 1, DW_OP_and, DW_OP_stack_value] $r6
	@DEBUG_VALUE: HAL_ADCEx_InjectedConfigChannel:sConfigInjected <- $r1
	@DEBUG_VALUE: HAL_ADCEx_InjectedConfigChannel:hadc <- $r0
	@DEBUG_VALUE: HAL_ADCEx_InjectedConfigChannel:tmp_hal_status <- 0
	.loc	6 1871 28                       @ c:/Keil_v5\ARM\PACK\Keil\STM32L5xx_DFP\1.3.0\Drivers\STM32L5xx_HAL_Driver\Src\stm32l5xx_hal_adc_ex.c:1871:28
	ldrb	r2, [r1, #29]
.Ltmp536:
	.loc	6 1871 11 is_stmt 0             @ c:/Keil_v5\ARM\PACK\Keil\STM32L5xx_DFP\1.3.0\Drivers\STM32L5xx_HAL_Driver\Src\stm32l5xx_hal_adc_ex.c:1871:11
	cmp	r2, #1
	bne	.LBB21_29
.Ltmp537:
@ %bb.24:
	@DEBUG_VALUE: HAL_ADCEx_InjectedConfigChannel:tmp_adc_is_conversion_on_going_injected <- [DW_OP_constu 1, DW_OP_and, DW_OP_stack_value] $r6
	@DEBUG_VALUE: HAL_ADCEx_InjectedConfigChannel:sConfigInjected <- $r1
	@DEBUG_VALUE: HAL_ADCEx_InjectedConfigChannel:hadc <- $r0
	@DEBUG_VALUE: HAL_ADCEx_InjectedConfigChannel:tmp_hal_status <- 0
	.loc	6 1874 9 is_stmt 1              @ c:/Keil_v5\ARM\PACK\Keil\STM32L5xx_DFP\1.3.0\Drivers\STM32L5xx_HAL_Driver\Src\stm32l5xx_hal_adc_ex.c:1874:9
	ldr	r2, [r0, #88]
	mov.w	r12, #1
.Ltmp538:
	@DEBUG_VALUE: HAL_ADCEx_InjectedConfigChannel:tmp_hal_status <- 1
	orr	r2, r2, #32
	str	r2, [r0, #88]
.Ltmp539:
	@DEBUG_VALUE: HAL_ADCEx_InjectedConfigChannel:tmp_hal_status <- $r12
	.loc	6 1884 26                       @ c:/Keil_v5\ARM\PACK\Keil\STM32L5xx_DFP\1.3.0\Drivers\STM32L5xx_HAL_Driver\Src\stm32l5xx_hal_adc_ex.c:1884:26
	ldrb.w	r6, [r1, #40]
.Ltmp540:
	.loc	6 0 0 is_stmt 0                 @ c:/Keil_v5\ARM\PACK\Keil\STM32L5xx_DFP\1.3.0\Drivers\STM32L5xx_HAL_Driver\Src\stm32l5xx_hal_adc_ex.c:0:0
	ldr	r2, [r3, #16]
.Ltmp541:
	.loc	6 1884 9                        @ c:/Keil_v5\ARM\PACK\Keil\STM32L5xx_DFP\1.3.0\Drivers\STM32L5xx_HAL_Driver\Src\stm32l5xx_hal_adc_ex.c:1884:9
	cmp	r6, #1
	beq	.LBB21_32
.Ltmp542:
.LBB21_25:
	@DEBUG_VALUE: HAL_ADCEx_InjectedConfigChannel:tmp_hal_status <- $r12
	@DEBUG_VALUE: HAL_ADCEx_InjectedConfigChannel:sConfigInjected <- $r1
	@DEBUG_VALUE: HAL_ADCEx_InjectedConfigChannel:hadc <- $r0
	.loc	6 1909 7 is_stmt 1              @ c:/Keil_v5\ARM\PACK\Keil\STM32L5xx_DFP\1.3.0\Drivers\STM32L5xx_HAL_Driver\Src\stm32l5xx_hal_adc_ex.c:1909:7
	bic	r2, r2, #2
	b	.LBB21_33
.Ltmp543:
	.p2align	2
.LBB21_26:
	@DEBUG_VALUE: HAL_ADCEx_InjectedConfigChannel:tmp_adc_is_conversion_on_going_injected <- [DW_OP_constu 1, DW_OP_and, DW_OP_stack_value] $r6
	@DEBUG_VALUE: LL_ADC_INJ_IsConversionOngoing:ADCx <- $r3
	@DEBUG_VALUE: LL_ADC_REG_IsConversionOngoing:ADCx <- $r3
	@DEBUG_VALUE: HAL_ADCEx_InjectedConfigChannel:sConfigInjected <- $r1
	@DEBUG_VALUE: HAL_ADCEx_InjectedConfigChannel:hadc <- $r0
	@DEBUG_VALUE: HAL_ADCEx_InjectedConfigChannel:tmp_hal_status <- 0
	.loc	6 0 7 is_stmt 0                 @ c:/Keil_v5\ARM\PACK\Keil\STM32L5xx_DFP\1.3.0\Drivers\STM32L5xx_HAL_Driver\Src\stm32l5xx_hal_adc_ex.c:0:7
	mov.w	r12, #0
	b	.LBB21_46
.Ltmp544:
	.p2align	2
.LBB21_27:
	@DEBUG_VALUE: HAL_ADCEx_InjectedConfigChannel:tmp_adc_is_conversion_on_going_injected <- [DW_OP_constu 1, DW_OP_and, DW_OP_stack_value] $r6
	@DEBUG_VALUE: HAL_ADCEx_InjectedConfigChannel:sConfigInjected <- $r1
	@DEBUG_VALUE: HAL_ADCEx_InjectedConfigChannel:hadc <- $r0
	@DEBUG_VALUE: HAL_ADCEx_InjectedConfigChannel:tmp_hal_status <- 0
	.loc	6 1858 28 is_stmt 1             @ c:/Keil_v5\ARM\PACK\Keil\STM32L5xx_DFP\1.3.0\Drivers\STM32L5xx_HAL_Driver\Src\stm32l5xx_hal_adc_ex.c:1858:28
	ldrb	r6, [r1, #29]
.Ltmp545:
	.loc	6 0 0 is_stmt 0                 @ c:/Keil_v5\ARM\PACK\Keil\STM32L5xx_DFP\1.3.0\Drivers\STM32L5xx_HAL_Driver\Src\stm32l5xx_hal_adc_ex.c:0:0
	ldr	r2, [r3, #12]
.Ltmp546:
	.loc	6 1858 11                       @ c:/Keil_v5\ARM\PACK\Keil\STM32L5xx_DFP\1.3.0\Drivers\STM32L5xx_HAL_Driver\Src\stm32l5xx_hal_adc_ex.c:1858:11
	cmp	r6, #1
	bne	.LBB21_30
.Ltmp547:
@ %bb.28:
	@DEBUG_VALUE: HAL_ADCEx_InjectedConfigChannel:sConfigInjected <- $r1
	@DEBUG_VALUE: HAL_ADCEx_InjectedConfigChannel:hadc <- $r0
	@DEBUG_VALUE: HAL_ADCEx_InjectedConfigChannel:tmp_hal_status <- 0
	.loc	6 1860 9 is_stmt 1              @ c:/Keil_v5\ARM\PACK\Keil\STM32L5xx_DFP\1.3.0\Drivers\STM32L5xx_HAL_Driver\Src\stm32l5xx_hal_adc_ex.c:1860:9
	orr	r2, r2, #33554432
	b	.LBB21_31
.Ltmp548:
	.p2align	2
.LBB21_29:
	@DEBUG_VALUE: HAL_ADCEx_InjectedConfigChannel:tmp_adc_is_conversion_on_going_injected <- [DW_OP_constu 1, DW_OP_and, DW_OP_stack_value] $r6
	@DEBUG_VALUE: HAL_ADCEx_InjectedConfigChannel:sConfigInjected <- $r1
	@DEBUG_VALUE: HAL_ADCEx_InjectedConfigChannel:hadc <- $r0
	@DEBUG_VALUE: HAL_ADCEx_InjectedConfigChannel:tmp_hal_status <- 0
	.loc	6 1880 9                        @ c:/Keil_v5\ARM\PACK\Keil\STM32L5xx_DFP\1.3.0\Drivers\STM32L5xx_HAL_Driver\Src\stm32l5xx_hal_adc_ex.c:1880:9
	ldr	r2, [r3, #12]
.Ltmp549:
.LBB21_30:
	@DEBUG_VALUE: HAL_ADCEx_InjectedConfigChannel:sConfigInjected <- $r1
	@DEBUG_VALUE: HAL_ADCEx_InjectedConfigChannel:hadc <- $r0
	@DEBUG_VALUE: HAL_ADCEx_InjectedConfigChannel:tmp_hal_status <- 0
	.loc	6 0 0 is_stmt 0                 @ c:/Keil_v5\ARM\PACK\Keil\STM32L5xx_DFP\1.3.0\Drivers\STM32L5xx_HAL_Driver\Src\stm32l5xx_hal_adc_ex.c:0:0
	bic	r2, r2, #33554432
.Ltmp550:
.LBB21_31:
	@DEBUG_VALUE: HAL_ADCEx_InjectedConfigChannel:sConfigInjected <- $r1
	@DEBUG_VALUE: HAL_ADCEx_InjectedConfigChannel:hadc <- $r0
	@DEBUG_VALUE: HAL_ADCEx_InjectedConfigChannel:tmp_hal_status <- 0
	mov.w	r12, #0
	str	r2, [r3, #12]
.Ltmp551:
	@DEBUG_VALUE: HAL_ADCEx_InjectedConfigChannel:tmp_hal_status <- $r12
	.loc	6 1884 26 is_stmt 1             @ c:/Keil_v5\ARM\PACK\Keil\STM32L5xx_DFP\1.3.0\Drivers\STM32L5xx_HAL_Driver\Src\stm32l5xx_hal_adc_ex.c:1884:26
	ldrb.w	r6, [r1, #40]
	.loc	6 0 0 is_stmt 0                 @ c:/Keil_v5\ARM\PACK\Keil\STM32L5xx_DFP\1.3.0\Drivers\STM32L5xx_HAL_Driver\Src\stm32l5xx_hal_adc_ex.c:0:0
	ldr	r2, [r3, #16]
.Ltmp552:
	.loc	6 1884 9                        @ c:/Keil_v5\ARM\PACK\Keil\STM32L5xx_DFP\1.3.0\Drivers\STM32L5xx_HAL_Driver\Src\stm32l5xx_hal_adc_ex.c:1884:9
	cmp	r6, #1
	bne	.LBB21_25
.Ltmp553:
.LBB21_32:
	@DEBUG_VALUE: HAL_ADCEx_InjectedConfigChannel:tmp_hal_status <- $r12
	@DEBUG_VALUE: HAL_ADCEx_InjectedConfigChannel:sConfigInjected <- $r1
	@DEBUG_VALUE: HAL_ADCEx_InjectedConfigChannel:hadc <- $r0
	.loc	6 1897 7 is_stmt 1              @ c:/Keil_v5\ARM\PACK\Keil\STM32L5xx_DFP\1.3.0\Drivers\STM32L5xx_HAL_Driver\Src\stm32l5xx_hal_adc_ex.c:1897:7
	ldrd	r6, r5, [r1, #44]
	bic	r2, r2, #510
	orrs	r2, r6
	orrs	r2, r5
	orr	r2, r2, #2
.Ltmp554:
.LBB21_33:
	@DEBUG_VALUE: HAL_ADCEx_InjectedConfigChannel:tmp_hal_status <- $r12
	@DEBUG_VALUE: HAL_ADCEx_InjectedConfigChannel:sConfigInjected <- $r1
	@DEBUG_VALUE: HAL_ADCEx_InjectedConfigChannel:hadc <- $r0
	.loc	6 0 0 is_stmt 0                 @ c:/Keil_v5\ARM\PACK\Keil\STM32L5xx_DFP\1.3.0\Drivers\STM32L5xx_HAL_Driver\Src\stm32l5xx_hal_adc_ex.c:0:0
	str	r2, [r3, #16]
.Ltmp555:
	ldr	r4, [r1]
	@DEBUG_VALUE: LL_ADC_SetChannelSamplingTime:Channel <- $r4
	@DEBUG_VALUE: LL_ADC_SetChannelSamplingTime:Channel <- $r4
	movs	r6, #4
	ubfx	r7, r4, #25, #1
	@DEBUG_VALUE: LL_ADC_SetChannelSamplingTime:preg <- undef
	@DEBUG_VALUE: LL_ADC_SetChannelSamplingTime:preg <- undef
	add.w	r2, r3, #20
	and.w	lr, r6, r4, lsr #23
	ubfx	r4, r4, #20, #5
	.loc	6 1913 26 is_stmt 1             @ c:/Keil_v5\ARM\PACK\Keil\STM32L5xx_DFP\1.3.0\Drivers\STM32L5xx_HAL_Driver\Src\stm32l5xx_hal_adc_ex.c:1913:26
	ldr	r5, [r1, #8]
	@DEBUG_VALUE: LL_ADC_SetChannelSamplingTime:ADCx <- $r3
	@DEBUG_VALUE: LL_ADC_SetChannelSamplingTime:ADCx <- $r3
	.loc	6 0 0 is_stmt 0                 @ c:/Keil_v5\ARM\PACK\Keil\STM32L5xx_DFP\1.3.0\Drivers\STM32L5xx_HAL_Driver\Src\stm32l5xx_hal_adc_ex.c:0:0
	ldr.w	r6, [r2, r7, lsl #2]
	movs	r7, #7
	lsls	r7, r4
.Ltmp556:
	.loc	6 1913 9                        @ c:/Keil_v5\ARM\PACK\Keil\STM32L5xx_DFP\1.3.0\Drivers\STM32L5xx_HAL_Driver\Src\stm32l5xx_hal_adc_ex.c:1913:9
	cmp.w	r5, #-2147483648
.Ltmp557:
	.loc	6 0 0                           @ c:/Keil_v5\ARM\PACK\Keil\STM32L5xx_DFP\1.3.0\Drivers\STM32L5xx_HAL_Driver\Src\stm32l5xx_hal_adc_ex.c:0:0
	bic.w	r6, r6, r7
.Ltmp558:
	.loc	6 1913 9                        @ c:/Keil_v5\ARM\PACK\Keil\STM32L5xx_DFP\1.3.0\Drivers\STM32L5xx_HAL_Driver\Src\stm32l5xx_hal_adc_ex.c:1913:9
	bne	.LBB21_35
.Ltmp559:
@ %bb.34:
	@DEBUG_VALUE: HAL_ADCEx_InjectedConfigChannel:tmp_hal_status <- $r12
	@DEBUG_VALUE: LL_ADC_SetChannelSamplingTime:ADCx <- $r3
	@DEBUG_VALUE: HAL_ADCEx_InjectedConfigChannel:sConfigInjected <- $r1
	@DEBUG_VALUE: HAL_ADCEx_InjectedConfigChannel:hadc <- $r0
	@DEBUG_VALUE: LL_ADC_SetChannelSamplingTime:SamplingTime <- 0
	.loc	7 4475 3 is_stmt 1              @ c:/Keil_v5\ARM\PACK\Keil\STM32L5xx_DFP\1.3.0\Drivers\STM32L5xx_HAL_Driver\Inc\stm32l5xx_ll_adc.h:4475:3
	str.w	r6, [r2, lr]
.Ltmp560:
	@DEBUG_VALUE: LL_ADC_SetSamplingTimeCommonConfig:SamplingTimeCommonConfig <- -2147483648
	@DEBUG_VALUE: LL_ADC_SetSamplingTimeCommonConfig:ADCx <- $r3
	.loc	7 2940 3                        @ c:/Keil_v5\ARM\PACK\Keil\STM32L5xx_DFP\1.3.0\Drivers\STM32L5xx_HAL_Driver\Inc\stm32l5xx_ll_adc.h:2940:3
	ldr	r2, [r2]
	orr	r2, r2, #-2147483648
	b	.LBB21_36
.Ltmp561:
	.p2align	2
.LBB21_35:
	@DEBUG_VALUE: HAL_ADCEx_InjectedConfigChannel:tmp_hal_status <- $r12
	@DEBUG_VALUE: LL_ADC_SetChannelSamplingTime:ADCx <- $r3
	@DEBUG_VALUE: HAL_ADCEx_InjectedConfigChannel:sConfigInjected <- $r1
	@DEBUG_VALUE: HAL_ADCEx_InjectedConfigChannel:hadc <- $r0
	@DEBUG_VALUE: LL_ADC_SetChannelSamplingTime:SamplingTime <- $r5
	.loc	7 4475 3                        @ c:/Keil_v5\ARM\PACK\Keil\STM32L5xx_DFP\1.3.0\Drivers\STM32L5xx_HAL_Driver\Inc\stm32l5xx_ll_adc.h:4475:3
	lsl.w	r4, r5, r4
	orrs	r4, r6
	str.w	r4, [r2, lr]
.Ltmp562:
	@DEBUG_VALUE: LL_ADC_SetSamplingTimeCommonConfig:SamplingTimeCommonConfig <- 0
	@DEBUG_VALUE: LL_ADC_SetSamplingTimeCommonConfig:ADCx <- $r3
	.loc	7 2940 3                        @ c:/Keil_v5\ARM\PACK\Keil\STM32L5xx_DFP\1.3.0\Drivers\STM32L5xx_HAL_Driver\Inc\stm32l5xx_ll_adc.h:2940:3
	ldr	r2, [r2]
	bic	r2, r2, #-2147483648
.Ltmp563:
.LBB21_36:
	@DEBUG_VALUE: HAL_ADCEx_InjectedConfigChannel:tmp_hal_status <- $r12
	@DEBUG_VALUE: HAL_ADCEx_InjectedConfigChannel:sConfigInjected <- $r1
	@DEBUG_VALUE: HAL_ADCEx_InjectedConfigChannel:hadc <- $r0
	.loc	6 0 0 is_stmt 0                 @ c:/Keil_v5\ARM\PACK\Keil\STM32L5xx_DFP\1.3.0\Drivers\STM32L5xx_HAL_Driver\Src\stm32l5xx_hal_adc_ex.c:0:0
	str	r2, [r3, #20]
.Ltmp564:
	@DEBUG_VALUE: HAL_ADCEx_InjectedConfigChannel:tmpOffsetShifted <- undef
	.loc	6 1936 26 is_stmt 1             @ c:/Keil_v5\ARM\PACK\Keil\STM32L5xx_DFP\1.3.0\Drivers\STM32L5xx_HAL_Driver\Src\stm32l5xx_hal_adc_ex.c:1936:26
	ldrd	r5, r2, [r1, #16]
.Ltmp565:
	.loc	6 1934 24                       @ c:/Keil_v5\ARM\PACK\Keil\STM32L5xx_DFP\1.3.0\Drivers\STM32L5xx_HAL_Driver\Src\stm32l5xx_hal_adc_ex.c:1934:24
	ldr	r6, [r3, #12]
	.loc	6 1936 9                        @ c:/Keil_v5\ARM\PACK\Keil\STM32L5xx_DFP\1.3.0\Drivers\STM32L5xx_HAL_Driver\Src\stm32l5xx_hal_adc_ex.c:1936:9
	cmp	r5, #4
	bne	.LBB21_45
.Ltmp566:
@ %bb.37:
	@DEBUG_VALUE: HAL_ADCEx_InjectedConfigChannel:tmp_hal_status <- $r12
	@DEBUG_VALUE: HAL_ADCEx_InjectedConfigChannel:sConfigInjected <- $r1
	@DEBUG_VALUE: HAL_ADCEx_InjectedConfigChannel:hadc <- $r0
	.loc	7 2835 21                       @ c:/Keil_v5\ARM\PACK\Keil\STM32L5xx_DFP\1.3.0\Drivers\STM32L5xx_HAL_Driver\Inc\stm32l5xx_ll_adc.h:2835:21
	ldr	r2, [r3, #96]
.Ltmp567:
	@DEBUG_VALUE: LL_ADC_GetOffsetChannel:preg <- [DW_OP_plus_uconst 96, DW_OP_stack_value] $r3
	@DEBUG_VALUE: LL_ADC_GetOffsetChannel:Offsety <- 0
	@DEBUG_VALUE: LL_ADC_GetOffsetChannel:ADCx <- $r3
	.loc	7 2835 21 is_stmt 0             @ c:/Keil_v5\ARM\PACK\Keil\STM32L5xx_DFP\1.3.0\Drivers\STM32L5xx_HAL_Driver\Inc\stm32l5xx_ll_adc.h:2835:21
	ldr	r2, [r3, #96]
.Ltmp568:
	.loc	6 1948 14 is_stmt 1             @ c:/Keil_v5\ARM\PACK\Keil\STM32L5xx_DFP\1.3.0\Drivers\STM32L5xx_HAL_Driver\Src\stm32l5xx_hal_adc_ex.c:1948:14
	ldr	r4, [r1]
	.loc	6 1947 11                       @ c:/Keil_v5\ARM\PACK\Keil\STM32L5xx_DFP\1.3.0\Drivers\STM32L5xx_HAL_Driver\Src\stm32l5xx_hal_adc_ex.c:1947:11
	ubfx	r6, r2, #26, #5
	.loc	6 1948 14                       @ c:/Keil_v5\ARM\PACK\Keil\STM32L5xx_DFP\1.3.0\Drivers\STM32L5xx_HAL_Driver\Src\stm32l5xx_hal_adc_ex.c:1948:14
	rbit	r5, r4
	mov	r2, r4
	clz	r5, r5
	ubfx	lr, r4, #26, #5
	bfc	r2, #19, #13
	mov	r4, r5
	cmp	r2, #0
	it	eq
	moveq	r4, lr
.Ltmp569:
	.loc	6 1947 11                       @ c:/Keil_v5\ARM\PACK\Keil\STM32L5xx_DFP\1.3.0\Drivers\STM32L5xx_HAL_Driver\Src\stm32l5xx_hal_adc_ex.c:1947:11
	cmp	r6, r4
	movw	r4, #65535
	movt	r4, #7
	@DEBUG_VALUE: LL_ADC_GetOffsetChannel:preg <- [DW_OP_plus_uconst 96, DW_OP_stack_value] $r3
	@DEBUG_VALUE: LL_ADC_GetOffsetChannel:Offsety <- 0
	@DEBUG_VALUE: LL_ADC_GetOffsetChannel:ADCx <- $r3
	bne	.LBB21_39
.Ltmp570:
@ %bb.38:
	@DEBUG_VALUE: HAL_ADCEx_InjectedConfigChannel:tmp_hal_status <- $r12
	@DEBUG_VALUE: HAL_ADCEx_InjectedConfigChannel:sConfigInjected <- $r1
	@DEBUG_VALUE: HAL_ADCEx_InjectedConfigChannel:hadc <- $r0
	@DEBUG_VALUE: LL_ADC_SetOffsetState:ADCx <- $r3
	@DEBUG_VALUE: LL_ADC_SetOffsetState:Offsety <- 0
	@DEBUG_VALUE: LL_ADC_SetOffsetState:OffsetState <- 0
	.loc	7 2894 3                        @ c:/Keil_v5\ARM\PACK\Keil\STM32L5xx_DFP\1.3.0\Drivers\STM32L5xx_HAL_Driver\Inc\stm32l5xx_ll_adc.h:2894:3
	ldr	r2, [r3, #96]
	bic	r2, r2, #-2147483648
	str	r2, [r3, #96]
.Ltmp571:
	.loc	6 1953 14                       @ c:/Keil_v5\ARM\PACK\Keil\STM32L5xx_DFP\1.3.0\Drivers\STM32L5xx_HAL_Driver\Src\stm32l5xx_hal_adc_ex.c:1953:14
	ldr	r5, [r1]
	and.w	r2, r5, r4
	ubfx	lr, r5, #26, #5
	rbit	r5, r5
	clz	r5, r5
	@DEBUG_VALUE: LL_ADC_SetOffsetState:preg <- [DW_OP_plus_uconst 96, DW_OP_stack_value] $r3
.Ltmp572:
.LBB21_39:
	@DEBUG_VALUE: HAL_ADCEx_InjectedConfigChannel:tmp_hal_status <- $r12
	@DEBUG_VALUE: HAL_ADCEx_InjectedConfigChannel:sConfigInjected <- $r1
	@DEBUG_VALUE: HAL_ADCEx_InjectedConfigChannel:hadc <- $r0
	@DEBUG_VALUE: LL_ADC_GetOffsetChannel:ADCx <- $r3
	@DEBUG_VALUE: LL_ADC_GetOffsetChannel:Offsety <- 1
	.loc	7 2835 21                       @ c:/Keil_v5\ARM\PACK\Keil\STM32L5xx_DFP\1.3.0\Drivers\STM32L5xx_HAL_Driver\Inc\stm32l5xx_ll_adc.h:2835:21
	ldr	r6, [r3, #100]
.Ltmp573:
	@DEBUG_VALUE: LL_ADC_GetOffsetChannel:preg <- [DW_OP_plus_uconst 100, DW_OP_stack_value] $r3
	@DEBUG_VALUE: LL_ADC_GetOffsetChannel:preg <- [DW_OP_plus_uconst 96, DW_OP_plus_uconst 4, DW_OP_stack_value] $r3
	@DEBUG_VALUE: LL_ADC_GetOffsetChannel:Offsety <- 1
	@DEBUG_VALUE: LL_ADC_GetOffsetChannel:ADCx <- $r3
	.loc	7 2835 21 is_stmt 0             @ c:/Keil_v5\ARM\PACK\Keil\STM32L5xx_DFP\1.3.0\Drivers\STM32L5xx_HAL_Driver\Inc\stm32l5xx_ll_adc.h:2835:21
	ldr	r6, [r3, #100]
.Ltmp574:
	.loc	6 1953 14 is_stmt 1             @ c:/Keil_v5\ARM\PACK\Keil\STM32L5xx_DFP\1.3.0\Drivers\STM32L5xx_HAL_Driver\Src\stm32l5xx_hal_adc_ex.c:1953:14
	cmp	r2, #0
	.loc	6 1952 11                       @ c:/Keil_v5\ARM\PACK\Keil\STM32L5xx_DFP\1.3.0\Drivers\STM32L5xx_HAL_Driver\Src\stm32l5xx_hal_adc_ex.c:1952:11
	ubfx	r6, r6, #26, #5
	.loc	6 1953 14                       @ c:/Keil_v5\ARM\PACK\Keil\STM32L5xx_DFP\1.3.0\Drivers\STM32L5xx_HAL_Driver\Src\stm32l5xx_hal_adc_ex.c:1953:14
	mov	r7, r5
	it	eq
	moveq	r7, lr
.Ltmp575:
	.loc	6 1952 11                       @ c:/Keil_v5\ARM\PACK\Keil\STM32L5xx_DFP\1.3.0\Drivers\STM32L5xx_HAL_Driver\Src\stm32l5xx_hal_adc_ex.c:1952:11
	cmp	r6, r7
	bne	.LBB21_41
.Ltmp576:
@ %bb.40:
	@DEBUG_VALUE: HAL_ADCEx_InjectedConfigChannel:tmp_hal_status <- $r12
	@DEBUG_VALUE: HAL_ADCEx_InjectedConfigChannel:sConfigInjected <- $r1
	@DEBUG_VALUE: HAL_ADCEx_InjectedConfigChannel:hadc <- $r0
	@DEBUG_VALUE: LL_ADC_SetOffsetState:ADCx <- $r3
	@DEBUG_VALUE: LL_ADC_SetOffsetState:Offsety <- 1
	@DEBUG_VALUE: LL_ADC_SetOffsetState:OffsetState <- 0
	.loc	7 2894 3                        @ c:/Keil_v5\ARM\PACK\Keil\STM32L5xx_DFP\1.3.0\Drivers\STM32L5xx_HAL_Driver\Inc\stm32l5xx_ll_adc.h:2894:3
	ldr	r2, [r3, #100]
	bic	r2, r2, #-2147483648
	str	r2, [r3, #100]
.Ltmp577:
	.loc	6 1958 14                       @ c:/Keil_v5\ARM\PACK\Keil\STM32L5xx_DFP\1.3.0\Drivers\STM32L5xx_HAL_Driver\Src\stm32l5xx_hal_adc_ex.c:1958:14
	ldr	r5, [r1]
	and.w	r2, r5, r4
	ubfx	lr, r5, #26, #5
	rbit	r5, r5
	clz	r5, r5
	@DEBUG_VALUE: LL_ADC_SetOffsetState:preg <- [DW_OP_plus_uconst 96, DW_OP_plus_uconst 4, DW_OP_stack_value] $r3
.Ltmp578:
.LBB21_41:
	@DEBUG_VALUE: HAL_ADCEx_InjectedConfigChannel:tmp_hal_status <- $r12
	@DEBUG_VALUE: HAL_ADCEx_InjectedConfigChannel:sConfigInjected <- $r1
	@DEBUG_VALUE: HAL_ADCEx_InjectedConfigChannel:hadc <- $r0
	@DEBUG_VALUE: LL_ADC_GetOffsetChannel:ADCx <- $r3
	@DEBUG_VALUE: LL_ADC_GetOffsetChannel:Offsety <- 2
	.loc	7 2835 21                       @ c:/Keil_v5\ARM\PACK\Keil\STM32L5xx_DFP\1.3.0\Drivers\STM32L5xx_HAL_Driver\Inc\stm32l5xx_ll_adc.h:2835:21
	ldr	r6, [r3, #104]
.Ltmp579:
	@DEBUG_VALUE: LL_ADC_GetOffsetChannel:preg <- [DW_OP_plus_uconst 104, DW_OP_stack_value] $r3
	@DEBUG_VALUE: LL_ADC_GetOffsetChannel:preg <- [DW_OP_plus_uconst 96, DW_OP_plus_uconst 8, DW_OP_stack_value] $r3
	@DEBUG_VALUE: LL_ADC_GetOffsetChannel:Offsety <- 2
	@DEBUG_VALUE: LL_ADC_GetOffsetChannel:ADCx <- $r3
	.loc	7 2835 21 is_stmt 0             @ c:/Keil_v5\ARM\PACK\Keil\STM32L5xx_DFP\1.3.0\Drivers\STM32L5xx_HAL_Driver\Inc\stm32l5xx_ll_adc.h:2835:21
	ldr	r6, [r3, #104]
.Ltmp580:
	.loc	6 1958 14 is_stmt 1             @ c:/Keil_v5\ARM\PACK\Keil\STM32L5xx_DFP\1.3.0\Drivers\STM32L5xx_HAL_Driver\Src\stm32l5xx_hal_adc_ex.c:1958:14
	cmp	r2, #0
	.loc	6 1957 11                       @ c:/Keil_v5\ARM\PACK\Keil\STM32L5xx_DFP\1.3.0\Drivers\STM32L5xx_HAL_Driver\Src\stm32l5xx_hal_adc_ex.c:1957:11
	ubfx	r6, r6, #26, #5
	.loc	6 1958 14                       @ c:/Keil_v5\ARM\PACK\Keil\STM32L5xx_DFP\1.3.0\Drivers\STM32L5xx_HAL_Driver\Src\stm32l5xx_hal_adc_ex.c:1958:14
	mov	r7, r5
	it	eq
	moveq	r7, lr
.Ltmp581:
	.loc	6 1957 11                       @ c:/Keil_v5\ARM\PACK\Keil\STM32L5xx_DFP\1.3.0\Drivers\STM32L5xx_HAL_Driver\Src\stm32l5xx_hal_adc_ex.c:1957:11
	cmp	r6, r7
	bne	.LBB21_43
.Ltmp582:
@ %bb.42:
	@DEBUG_VALUE: HAL_ADCEx_InjectedConfigChannel:tmp_hal_status <- $r12
	@DEBUG_VALUE: HAL_ADCEx_InjectedConfigChannel:sConfigInjected <- $r1
	@DEBUG_VALUE: HAL_ADCEx_InjectedConfigChannel:hadc <- $r0
	@DEBUG_VALUE: LL_ADC_SetOffsetState:ADCx <- $r3
	@DEBUG_VALUE: LL_ADC_SetOffsetState:Offsety <- 2
	@DEBUG_VALUE: LL_ADC_SetOffsetState:OffsetState <- 0
	.loc	7 2894 3                        @ c:/Keil_v5\ARM\PACK\Keil\STM32L5xx_DFP\1.3.0\Drivers\STM32L5xx_HAL_Driver\Inc\stm32l5xx_ll_adc.h:2894:3
	ldr	r2, [r3, #104]
	bic	r2, r2, #-2147483648
	str	r2, [r3, #104]
.Ltmp583:
	.loc	6 1963 14                       @ c:/Keil_v5\ARM\PACK\Keil\STM32L5xx_DFP\1.3.0\Drivers\STM32L5xx_HAL_Driver\Src\stm32l5xx_hal_adc_ex.c:1963:14
	ldr	r5, [r1]
	and.w	r2, r5, r4
	ubfx	lr, r5, #26, #5
	rbit	r4, r5
	clz	r5, r4
	@DEBUG_VALUE: LL_ADC_SetOffsetState:preg <- [DW_OP_plus_uconst 96, DW_OP_plus_uconst 8, DW_OP_stack_value] $r3
.Ltmp584:
.LBB21_43:
	@DEBUG_VALUE: HAL_ADCEx_InjectedConfigChannel:tmp_hal_status <- $r12
	@DEBUG_VALUE: HAL_ADCEx_InjectedConfigChannel:sConfigInjected <- $r1
	@DEBUG_VALUE: HAL_ADCEx_InjectedConfigChannel:hadc <- $r0
	@DEBUG_VALUE: LL_ADC_GetOffsetChannel:ADCx <- $r3
	@DEBUG_VALUE: LL_ADC_GetOffsetChannel:Offsety <- 3
	.loc	7 2835 21                       @ c:/Keil_v5\ARM\PACK\Keil\STM32L5xx_DFP\1.3.0\Drivers\STM32L5xx_HAL_Driver\Inc\stm32l5xx_ll_adc.h:2835:21
	ldr	r4, [r3, #108]
.Ltmp585:
	@DEBUG_VALUE: LL_ADC_GetOffsetChannel:preg <- [DW_OP_plus_uconst 108, DW_OP_stack_value] $r3
	@DEBUG_VALUE: LL_ADC_GetOffsetChannel:preg <- [DW_OP_plus_uconst 96, DW_OP_plus_uconst 12, DW_OP_stack_value] $r3
	@DEBUG_VALUE: LL_ADC_GetOffsetChannel:Offsety <- 3
	@DEBUG_VALUE: LL_ADC_GetOffsetChannel:ADCx <- $r3
	.loc	7 2835 21 is_stmt 0             @ c:/Keil_v5\ARM\PACK\Keil\STM32L5xx_DFP\1.3.0\Drivers\STM32L5xx_HAL_Driver\Inc\stm32l5xx_ll_adc.h:2835:21
	ldr	r4, [r3, #108]
.Ltmp586:
	.loc	6 1963 14 is_stmt 1             @ c:/Keil_v5\ARM\PACK\Keil\STM32L5xx_DFP\1.3.0\Drivers\STM32L5xx_HAL_Driver\Src\stm32l5xx_hal_adc_ex.c:1963:14
	cmp	r2, #0
	it	eq
	moveq	r5, lr
	.loc	6 1962 11                       @ c:/Keil_v5\ARM\PACK\Keil\STM32L5xx_DFP\1.3.0\Drivers\STM32L5xx_HAL_Driver\Src\stm32l5xx_hal_adc_ex.c:1962:11
	ubfx	r4, r4, #26, #5
.Ltmp587:
	.loc	6 1962 11 is_stmt 0             @ c:/Keil_v5\ARM\PACK\Keil\STM32L5xx_DFP\1.3.0\Drivers\STM32L5xx_HAL_Driver\Src\stm32l5xx_hal_adc_ex.c:1962:11
	cmp	r4, r5
	bne	.LBB21_46
.Ltmp588:
@ %bb.44:
	@DEBUG_VALUE: HAL_ADCEx_InjectedConfigChannel:tmp_hal_status <- $r12
	@DEBUG_VALUE: HAL_ADCEx_InjectedConfigChannel:sConfigInjected <- $r1
	@DEBUG_VALUE: HAL_ADCEx_InjectedConfigChannel:hadc <- $r0
	@DEBUG_VALUE: LL_ADC_SetOffsetState:ADCx <- $r3
	@DEBUG_VALUE: LL_ADC_SetOffsetState:Offsety <- 3
	@DEBUG_VALUE: LL_ADC_SetOffsetState:OffsetState <- 0
	.loc	7 2894 3 is_stmt 1              @ c:/Keil_v5\ARM\PACK\Keil\STM32L5xx_DFP\1.3.0\Drivers\STM32L5xx_HAL_Driver\Inc\stm32l5xx_ll_adc.h:2894:3
	ldr	r2, [r3, #108]
	bic	r2, r2, #-2147483648
	str	r2, [r3, #108]
.Ltmp589:
	@DEBUG_VALUE: LL_ADC_SetOffsetState:preg <- [DW_OP_plus_uconst 96, DW_OP_plus_uconst 12, DW_OP_stack_value] $r3
	.loc	7 0 3 is_stmt 0                 @ c:/Keil_v5\ARM\PACK\Keil\STM32L5xx_DFP\1.3.0\Drivers\STM32L5xx_HAL_Driver\Inc\stm32l5xx_ll_adc.h:0:3
	b	.LBB21_46
.Ltmp590:
	.p2align	2
.LBB21_45:
	@DEBUG_VALUE: HAL_ADCEx_InjectedConfigChannel:tmp_hal_status <- $r12
	@DEBUG_VALUE: HAL_ADCEx_InjectedConfigChannel:sConfigInjected <- $r1
	@DEBUG_VALUE: HAL_ADCEx_InjectedConfigChannel:hadc <- $r0
	movs	r7, #6
	.loc	6 1934 24 is_stmt 1             @ c:/Keil_v5\ARM\PACK\Keil\STM32L5xx_DFP\1.3.0\Drivers\STM32L5xx_HAL_Driver\Src\stm32l5xx_hal_adc_ex.c:1934:24
	and.w	r7, r7, r6, lsr #2
.Ltmp591:
	.loc	7 2762 25                       @ c:/Keil_v5\ARM\PACK\Keil\STM32L5xx_DFP\1.3.0\Drivers\STM32L5xx_HAL_Driver\Inc\stm32l5xx_ll_adc.h:2762:25
	add.w	r6, r3, r5, lsl #2
.Ltmp592:
	@DEBUG_VALUE: LL_ADC_SetOffset:preg <- [DW_OP_plus_uconst 96, DW_OP_stack_value] $r6
	.loc	6 1939 96                       @ c:/Keil_v5\ARM\PACK\Keil\STM32L5xx_DFP\1.3.0\Drivers\STM32L5xx_HAL_Driver\Src\stm32l5xx_hal_adc_ex.c:1939:96
	ldr	r5, [r1]
.Ltmp593:
	@DEBUG_VALUE: LL_ADC_SetOffset:OffsetLevel <- undef
	@DEBUG_VALUE: LL_ADC_SetOffset:Offsety <- undef
	@DEBUG_VALUE: LL_ADC_SetOffset:ADCx <- $r3
	@DEBUG_VALUE: LL_ADC_SetOffset:Channel <- $r5
	.loc	7 2764 3                        @ c:/Keil_v5\ARM\PACK\Keil\STM32L5xx_DFP\1.3.0\Drivers\STM32L5xx_HAL_Driver\Inc\stm32l5xx_ll_adc.h:2764:3
	ldr	r4, [r6, #96]
.Ltmp594:
	@DEBUG_VALUE: LL_ADC_SetOffset:preg <- [DW_OP_plus_uconst 96, DW_OP_stack_value] $r6
	.loc	6 1934 24                       @ c:/Keil_v5\ARM\PACK\Keil\STM32L5xx_DFP\1.3.0\Drivers\STM32L5xx_HAL_Driver\Src\stm32l5xx_hal_adc_ex.c:1934:24
	lsls	r2, r7
.Ltmp595:
	@DEBUG_VALUE: HAL_ADCEx_InjectedConfigChannel:tmpOffsetShifted <- $r2
	.loc	6 0 24 is_stmt 0                @ c:/Keil_v5\ARM\PACK\Keil\STM32L5xx_DFP\1.3.0\Drivers\STM32L5xx_HAL_Driver\Src\stm32l5xx_hal_adc_ex.c:0:24
	movw	r7, #61440
	movt	r7, #1023
.Ltmp596:
	.loc	7 2764 3 is_stmt 1              @ c:/Keil_v5\ARM\PACK\Keil\STM32L5xx_DFP\1.3.0\Drivers\STM32L5xx_HAL_Driver\Inc\stm32l5xx_ll_adc.h:2764:3
	and	r5, r5, #2080374784
.Ltmp597:
	ands	r7, r4
	@DEBUG_VALUE: LL_ADC_SetOffset:ADCx <- $r3
.Ltmp598:
	@DEBUG_VALUE: LL_ADC_SetOffset:Channel <- $r5
	@DEBUG_VALUE: LL_ADC_SetOffset:preg <- [DW_OP_plus_uconst 96, DW_OP_stack_value] $r6
	orrs	r2, r5
.Ltmp599:
	orrs	r2, r7
	orr	r2, r2, #-2147483648
	str	r2, [r6, #96]
.Ltmp600:
.LBB21_46:
	@DEBUG_VALUE: HAL_ADCEx_InjectedConfigChannel:sConfigInjected <- $r1
	@DEBUG_VALUE: HAL_ADCEx_InjectedConfigChannel:hadc <- $r0
	@DEBUG_VALUE: HAL_ADCEx_InjectedConfigChannel:tmp_hal_status <- $r12
	@DEBUG_VALUE: LL_ADC_IsEnabled:ADCx <- $r3
	.loc	7 5758 12                       @ c:/Keil_v5\ARM\PACK\Keil\STM32L5xx_DFP\1.3.0\Drivers\STM32L5xx_HAL_Driver\Inc\stm32l5xx_ll_adc.h:5758:12
	ldr	r2, [r3, #8]
.Ltmp601:
	.loc	6 1975 7                        @ c:/Keil_v5\ARM\PACK\Keil\STM32L5xx_DFP\1.3.0\Drivers\STM32L5xx_HAL_Driver\Src\stm32l5xx_hal_adc_ex.c:1975:7
	lsls	r2, r2, #31
	bne.w	.LBB21_62
.Ltmp602:
@ %bb.47:
	@DEBUG_VALUE: HAL_ADCEx_InjectedConfigChannel:tmp_hal_status <- $r12
	@DEBUG_VALUE: HAL_ADCEx_InjectedConfigChannel:sConfigInjected <- $r1
	@DEBUG_VALUE: HAL_ADCEx_InjectedConfigChannel:hadc <- $r0
	.loc	6 1978 66                       @ c:/Keil_v5\ARM\PACK\Keil\STM32L5xx_DFP\1.3.0\Drivers\STM32L5xx_HAL_Driver\Src\stm32l5xx_hal_adc_ex.c:1978:66
	ldr.w	lr, [r1]
	.loc	6 1978 100 is_stmt 0            @ c:/Keil_v5\ARM\PACK\Keil\STM32L5xx_DFP\1.3.0\Drivers\STM32L5xx_HAL_Driver\Src\stm32l5xx_hal_adc_ex.c:1978:100
	ldr	r7, [r1, #12]
.Ltmp603:
	@DEBUG_VALUE: LL_ADC_SetChannelSingleDiff:Channel <- $lr
	@DEBUG_VALUE: LL_ADC_SetChannelSingleDiff:ADCx <- $r3
	@DEBUG_VALUE: LL_ADC_SetChannelSingleDiff:SingleDiff <- $r7
	.loc	6 0 100                         @ c:/Keil_v5\ARM\PACK\Keil\STM32L5xx_DFP\1.3.0\Drivers\STM32L5xx_HAL_Driver\Src\stm32l5xx_hal_adc_ex.c:0:100
	movw	r5, #65535
.Ltmp604:
	.loc	7 4617 3 is_stmt 1              @ c:/Keil_v5\ARM\PACK\Keil\STM32L5xx_DFP\1.3.0\Drivers\STM32L5xx_HAL_Driver\Inc\stm32l5xx_ll_adc.h:4617:3
	ldr.w	r6, [r3, #176]
	mov	r2, lr
	and	r4, r7, #24
	movt	r5, #7
	bfc	r2, #19, #13
	lsr.w	r4, r5, r4
	movs	r5, #0
	bics	r6, r2
	and.w	r4, r4, lr
	movt	r5, #16511
	orrs	r4, r6
.Ltmp605:
	.loc	6 1982 9                        @ c:/Keil_v5\ARM\PACK\Keil\STM32L5xx_DFP\1.3.0\Drivers\STM32L5xx_HAL_Driver\Src\stm32l5xx_hal_adc_ex.c:1982:9
	cmp	r7, r5
.Ltmp606:
	.loc	7 4617 3                        @ c:/Keil_v5\ARM\PACK\Keil\STM32L5xx_DFP\1.3.0\Drivers\STM32L5xx_HAL_Driver\Inc\stm32l5xx_ll_adc.h:4617:3
	str.w	r4, [r3, #176]
.Ltmp607:
	@DEBUG_VALUE: LL_ADC_SetChannelSingleDiff:Channel <- $lr
	@DEBUG_VALUE: LL_ADC_SetChannelSingleDiff:ADCx <- $r3
	.loc	6 1982 9                        @ c:/Keil_v5\ARM\PACK\Keil\STM32L5xx_DFP\1.3.0\Drivers\STM32L5xx_HAL_Driver\Src\stm32l5xx_hal_adc_ex.c:1982:9
	bne	.LBB21_54
.Ltmp608:
@ %bb.48:
	@DEBUG_VALUE: HAL_ADCEx_InjectedConfigChannel:tmp_hal_status <- $r12
	@DEBUG_VALUE: HAL_ADCEx_InjectedConfigChannel:sConfigInjected <- $r1
	@DEBUG_VALUE: HAL_ADCEx_InjectedConfigChannel:hadc <- $r0
	.loc	6 1986 48                       @ c:/Keil_v5\ARM\PACK\Keil\STM32L5xx_DFP\1.3.0\Drivers\STM32L5xx_HAL_Driver\Src\stm32l5xx_hal_adc_ex.c:1986:48
	cbz	r2, .LBB21_51
.Ltmp609:
@ %bb.49:
	@DEBUG_VALUE: HAL_ADCEx_InjectedConfigChannel:tmp_hal_status <- $r12
	@DEBUG_VALUE: HAL_ADCEx_InjectedConfigChannel:sConfigInjected <- $r1
	@DEBUG_VALUE: HAL_ADCEx_InjectedConfigChannel:hadc <- $r0
	@DEBUG_VALUE: __CLZ:value <- undef
	.file	8 "c:/Keil_v5\\ARM\\PACK\\ARM\\CMSIS\\5.8.0\\CMSIS\\Core\\Include" "cmsis_armclang.h"
	.loc	8 306 7                         @ c:/Keil_v5\ARM\PACK\ARM\CMSIS\5.8.0\CMSIS\Core\Include\cmsis_armclang.h:306:7
	rbit	r2, lr
	clz	r2, r2
.Ltmp610:
	.loc	6 1986 48                       @ c:/Keil_v5\ARM\PACK\Keil\STM32L5xx_DFP\1.3.0\Drivers\STM32L5xx_HAL_Driver\Src\stm32l5xx_hal_adc_ex.c:1986:48
	adds	r2, #1
	and	r7, r2, #30
.Ltmp611:
	@DEBUG_VALUE: __CLZ:value <- undef
	@DEBUG_VALUE: __CLZ:value <- undef
	@DEBUG_VALUE: __CLZ:value <- undef
	@DEBUG_VALUE: __CLZ:value <- undef
	cmp	r7, #9
	and	r2, r2, #31
.Ltmp612:
	@DEBUG_VALUE: __CLZ:value <- undef
	@DEBUG_VALUE: __CLZ:value <- undef
	bhi	.LBB21_52
.Ltmp613:
.LBB21_50:
	@DEBUG_VALUE: HAL_ADCEx_InjectedConfigChannel:tmp_hal_status <- $r12
	@DEBUG_VALUE: HAL_ADCEx_InjectedConfigChannel:sConfigInjected <- $r1
	@DEBUG_VALUE: HAL_ADCEx_InjectedConfigChannel:hadc <- $r0
	.loc	6 0 48 is_stmt 0                @ c:/Keil_v5\ARM\PACK\Keil\STM32L5xx_DFP\1.3.0\Drivers\STM32L5xx_HAL_Driver\Src\stm32l5xx_hal_adc_ex.c:0:48
	movs	r7, #1
	.loc	6 1986 48                       @ c:/Keil_v5\ARM\PACK\Keil\STM32L5xx_DFP\1.3.0\Drivers\STM32L5xx_HAL_Driver\Src\stm32l5xx_hal_adc_ex.c:1986:48
	add.w	r6, r2, r2, lsl #1
	lsl.w	r2, r7, r2
	orr.w	r2, r2, r6, lsl #20
	b	.LBB21_53
.Ltmp614:
	.p2align	2
.LBB21_51:
	@DEBUG_VALUE: HAL_ADCEx_InjectedConfigChannel:tmp_hal_status <- $r12
	@DEBUG_VALUE: HAL_ADCEx_InjectedConfigChannel:sConfigInjected <- $r1
	@DEBUG_VALUE: HAL_ADCEx_InjectedConfigChannel:hadc <- $r0
	.loc	6 0 48                          @ c:/Keil_v5\ARM\PACK\Keil\STM32L5xx_DFP\1.3.0\Drivers\STM32L5xx_HAL_Driver\Src\stm32l5xx_hal_adc_ex.c:0:48
	movs	r2, #1
	.loc	6 1986 48                       @ c:/Keil_v5\ARM\PACK\Keil\STM32L5xx_DFP\1.3.0\Drivers\STM32L5xx_HAL_Driver\Src\stm32l5xx_hal_adc_ex.c:1986:48
	add.w	r2, r2, lr, lsr #26
	and	r7, r2, #30
	cmp	r7, #10
	and	r2, r2, #31
	blo	.LBB21_50
.Ltmp615:
.LBB21_52:
	@DEBUG_VALUE: HAL_ADCEx_InjectedConfigChannel:tmp_hal_status <- $r12
	@DEBUG_VALUE: HAL_ADCEx_InjectedConfigChannel:sConfigInjected <- $r1
	@DEBUG_VALUE: HAL_ADCEx_InjectedConfigChannel:hadc <- $r0
	add.w	r7, r2, r2, lsl #1
	movs	r5, #0
	movt	r5, #65056
	movs	r6, #1
	add.w	r7, r5, r7, lsl #20
	lsl.w	r2, r6, r2
	orrs	r2, r7
	orr	r2, r2, #33554432
.Ltmp616:
.LBB21_53:
	@DEBUG_VALUE: HAL_ADCEx_InjectedConfigChannel:tmp_hal_status <- $r12
	@DEBUG_VALUE: HAL_ADCEx_InjectedConfigChannel:sConfigInjected <- $r1
	@DEBUG_VALUE: HAL_ADCEx_InjectedConfigChannel:hadc <- $r0
	.loc	7 4473 25 is_stmt 1             @ c:/Keil_v5\ARM\PACK\Keil\STM32L5xx_DFP\1.3.0\Drivers\STM32L5xx_HAL_Driver\Inc\stm32l5xx_ll_adc.h:4473:25
	ubfx	r7, r2, #25, #1
.Ltmp617:
	@DEBUG_VALUE: LL_ADC_SetChannelSamplingTime:Channel <- $r2
	@DEBUG_VALUE: LL_ADC_SetChannelSamplingTime:ADCx <- $r3
	.loc	7 4475 3                        @ c:/Keil_v5\ARM\PACK\Keil\STM32L5xx_DFP\1.3.0\Drivers\STM32L5xx_HAL_Driver\Inc\stm32l5xx_ll_adc.h:4475:3
	ubfx	r2, r2, #20, #5
.Ltmp618:
	.loc	7 4473 25                       @ c:/Keil_v5\ARM\PACK\Keil\STM32L5xx_DFP\1.3.0\Drivers\STM32L5xx_HAL_Driver\Inc\stm32l5xx_ll_adc.h:4473:25
	add.w	r7, r3, r7, lsl #2
.Ltmp619:
	@DEBUG_VALUE: LL_ADC_SetChannelSamplingTime:preg <- [DW_OP_plus_uconst 20, DW_OP_stack_value] $r7
	.loc	6 1987 116                      @ c:/Keil_v5\ARM\PACK\Keil\STM32L5xx_DFP\1.3.0\Drivers\STM32L5xx_HAL_Driver\Src\stm32l5xx_hal_adc_ex.c:1987:116
	ldr	r6, [r1, #8]
.Ltmp620:
	@DEBUG_VALUE: LL_ADC_SetChannelSamplingTime:SamplingTime <- $r6
	.loc	7 4475 3                        @ c:/Keil_v5\ARM\PACK\Keil\STM32L5xx_DFP\1.3.0\Drivers\STM32L5xx_HAL_Driver\Inc\stm32l5xx_ll_adc.h:4475:3
	ldr	r5, [r7, #20]
	@DEBUG_VALUE: LL_ADC_SetChannelSamplingTime:preg <- [DW_OP_plus_uconst 20, DW_OP_stack_value] $r7
.Ltmp621:
	@DEBUG_VALUE: LL_ADC_SetChannelSamplingTime:Channel <- $r2
	@DEBUG_VALUE: LL_ADC_SetChannelSamplingTime:ADCx <- $r3
	.loc	7 0 3 is_stmt 0                 @ c:/Keil_v5\ARM\PACK\Keil\STM32L5xx_DFP\1.3.0\Drivers\STM32L5xx_HAL_Driver\Inc\stm32l5xx_ll_adc.h:0:3
	movs	r4, #7
	.loc	7 4475 3                        @ c:/Keil_v5\ARM\PACK\Keil\STM32L5xx_DFP\1.3.0\Drivers\STM32L5xx_HAL_Driver\Inc\stm32l5xx_ll_adc.h:4475:3
	lsls	r4, r2
	bics	r5, r4
	lsl.w	r2, r6, r2
.Ltmp622:
	orrs	r2, r5
	str	r2, [r7, #20]
.Ltmp623:
	.loc	6 1996 9 is_stmt 1              @ c:/Keil_v5\ARM\PACK\Keil\STM32L5xx_DFP\1.3.0\Drivers\STM32L5xx_HAL_Driver\Src\stm32l5xx_hal_adc_ex.c:1996:9
	ldr.w	lr, [r1]
.Ltmp624:
.LBB21_54:
	@DEBUG_VALUE: HAL_ADCEx_InjectedConfigChannel:tmp_hal_status <- $r12
	@DEBUG_VALUE: HAL_ADCEx_InjectedConfigChannel:sConfigInjected <- $r1
	@DEBUG_VALUE: HAL_ADCEx_InjectedConfigChannel:hadc <- $r0
	.loc	6 0 9 is_stmt 0                 @ c:/Keil_v5\ARM\PACK\Keil\STM32L5xx_DFP\1.3.0\Drivers\STM32L5xx_HAL_Driver\Src\stm32l5xx_hal_adc_ex.c:0:9
	movs	r1, #0
.Ltmp625:
	@DEBUG_VALUE: HAL_ADCEx_InjectedConfigChannel:sConfigInjected <- [DW_OP_LLVM_entry_value 1] $r1
	movt	r1, #32776
	.loc	6 1996 9                        @ c:/Keil_v5\ARM\PACK\Keil\STM32L5xx_DFP\1.3.0\Drivers\STM32L5xx_HAL_Driver\Src\stm32l5xx_hal_adc_ex.c:1996:9
	tst.w	lr, r1
	beq	.LBB21_62
.Ltmp626:
@ %bb.55:
	@DEBUG_VALUE: HAL_ADCEx_InjectedConfigChannel:tmp_hal_status <- $r12
	@DEBUG_VALUE: HAL_ADCEx_InjectedConfigChannel:hadc <- $r0
	@DEBUG_VALUE: HAL_ADCEx_InjectedConfigChannel:sConfigInjected <- [DW_OP_LLVM_entry_value 1] $r1
	.loc	6 0 9                           @ c:/Keil_v5\ARM\PACK\Keil\STM32L5xx_DFP\1.3.0\Drivers\STM32L5xx_HAL_Driver\Src\stm32l5xx_hal_adc_ex.c:0:9
	movw	r1, #33544
	movw	r2, #64768
	movw	r4, #65024
	movt	r1, #16898
	movt	r2, #65535
	movt	r4, #65535
.Ltmp627:
	@DEBUG_VALUE: LL_ADC_IsEnabled:ADCx <- undef
	.loc	7 5758 12 is_stmt 1             @ c:/Keil_v5\ARM\PACK\Keil\STM32L5xx_DFP\1.3.0\Drivers\STM32L5xx_HAL_Driver\Inc\stm32l5xx_ll_adc.h:5758:12
	ldr	r2, [r1, r2]
.Ltmp628:
	.loc	7 5758 12 is_stmt 0             @ c:/Keil_v5\ARM\PACK\Keil\STM32L5xx_DFP\1.3.0\Drivers\STM32L5xx_HAL_Driver\Inc\stm32l5xx_ll_adc.h:5758:12
	ldr	r4, [r1, r4]
.Ltmp629:
	.loc	6 2001 11 is_stmt 1             @ c:/Keil_v5\ARM\PACK\Keil\STM32L5xx_DFP\1.3.0\Drivers\STM32L5xx_HAL_Driver\Src\stm32l5xx_hal_adc_ex.c:2001:11
	orrs	r2, r4
.Ltmp630:
	.loc	6 2001 11 is_stmt 0             @ c:/Keil_v5\ARM\PACK\Keil\STM32L5xx_DFP\1.3.0\Drivers\STM32L5xx_HAL_Driver\Src\stm32l5xx_hal_adc_ex.c:2001:11
	lsls	r2, r2, #31
	@DEBUG_VALUE: LL_ADC_IsEnabled:ADCx <- undef
	bne	.LBB21_61
.Ltmp631:
@ %bb.56:
	@DEBUG_VALUE: HAL_ADCEx_InjectedConfigChannel:tmp_hal_status <- $r12
	@DEBUG_VALUE: HAL_ADCEx_InjectedConfigChannel:hadc <- $r0
	@DEBUG_VALUE: HAL_ADCEx_InjectedConfigChannel:sConfigInjected <- [DW_OP_LLVM_entry_value 1] $r1
	.loc	7 2431 21 is_stmt 1             @ c:/Keil_v5\ARM\PACK\Keil\STM32L5xx_DFP\1.3.0\Drivers\STM32L5xx_HAL_Driver\Inc\stm32l5xx_ll_adc.h:2431:21
	ldr	r4, [r1]
	movs	r2, #0
	movt	r2, #51026
.Ltmp632:
	.loc	6 2007 74                       @ c:/Keil_v5\ARM\PACK\Keil\STM32L5xx_DFP\1.3.0\Drivers\STM32L5xx_HAL_Driver\Src\stm32l5xx_hal_adc_ex.c:2007:74
	cmp	lr, r2
.Ltmp633:
	@DEBUG_VALUE: LL_ADC_GetCommonPathInternalCh:ADCxy_COMMON <- undef
	.loc	7 2431 21                       @ c:/Keil_v5\ARM\PACK\Keil\STM32L5xx_DFP\1.3.0\Drivers\STM32L5xx_HAL_Driver\Inc\stm32l5xx_ll_adc.h:2431:21
	and	r2, r4, #29360128
.Ltmp634:
	@DEBUG_VALUE: HAL_ADCEx_InjectedConfigChannel:tmp_config_internal_channel <- $r2
	.loc	7 0 21 is_stmt 0                @ c:/Keil_v5\ARM\PACK\Keil\STM32L5xx_DFP\1.3.0\Drivers\STM32L5xx_HAL_Driver\Inc\stm32l5xx_ll_adc.h:0:21
	it	eq
	andseq	r5, r4, #8388608
	beq	.LBB21_63
.Ltmp635:
@ %bb.57:
	@DEBUG_VALUE: HAL_ADCEx_InjectedConfigChannel:tmp_hal_status <- $r12
	@DEBUG_VALUE: HAL_ADCEx_InjectedConfigChannel:tmp_config_internal_channel <- $r2
	@DEBUG_VALUE: HAL_ADCEx_InjectedConfigChannel:hadc <- $r0
	@DEBUG_VALUE: HAL_ADCEx_InjectedConfigChannel:sConfigInjected <- [DW_OP_LLVM_entry_value 1] $r1
	movs	r5, #0
	movt	r5, #52100
.Ltmp636:
	.loc	6 2025 73 is_stmt 1             @ c:/Keil_v5\ARM\PACK\Keil\STM32L5xx_DFP\1.3.0\Drivers\STM32L5xx_HAL_Driver\Src\stm32l5xx_hal_adc_ex.c:2025:73
	cmp	lr, r5
	it	eq
	andseq	r5, r4, #16777216
	beq	.LBB21_69
.Ltmp637:
@ %bb.58:
	@DEBUG_VALUE: HAL_ADCEx_InjectedConfigChannel:tmp_hal_status <- $r12
	@DEBUG_VALUE: HAL_ADCEx_InjectedConfigChannel:tmp_config_internal_channel <- $r2
	@DEBUG_VALUE: HAL_ADCEx_InjectedConfigChannel:hadc <- $r0
	@DEBUG_VALUE: HAL_ADCEx_InjectedConfigChannel:sConfigInjected <- [DW_OP_LLVM_entry_value 1] $r1
	.loc	6 0 73 is_stmt 0                @ c:/Keil_v5\ARM\PACK\Keil\STM32L5xx_DFP\1.3.0\Drivers\STM32L5xx_HAL_Driver\Src\stm32l5xx_hal_adc_ex.c:0:73
	sub.w	r5, r1, #776
.Ltmp638:
	.loc	6 2032 76 is_stmt 1             @ c:/Keil_v5\ARM\PACK\Keil\STM32L5xx_DFP\1.3.0\Drivers\STM32L5xx_HAL_Driver\Src\stm32l5xx_hal_adc_ex.c:2032:76
	cmp	r3, r5
	bne	.LBB21_62
.Ltmp639:
@ %bb.59:
	@DEBUG_VALUE: HAL_ADCEx_InjectedConfigChannel:tmp_hal_status <- $r12
	@DEBUG_VALUE: HAL_ADCEx_InjectedConfigChannel:tmp_config_internal_channel <- $r2
	@DEBUG_VALUE: HAL_ADCEx_InjectedConfigChannel:hadc <- $r0
	@DEBUG_VALUE: HAL_ADCEx_InjectedConfigChannel:sConfigInjected <- [DW_OP_LLVM_entry_value 1] $r1
	.loc	6 0 76 is_stmt 0                @ c:/Keil_v5\ARM\PACK\Keil\STM32L5xx_DFP\1.3.0\Drivers\STM32L5xx_HAL_Driver\Src\stm32l5xx_hal_adc_ex.c:0:76
	movs	r3, #1
	movt	r3, #32768
	.loc	6 2032 76                       @ c:/Keil_v5\ARM\PACK\Keil\STM32L5xx_DFP\1.3.0\Drivers\STM32L5xx_HAL_Driver\Src\stm32l5xx_hal_adc_ex.c:2032:76
	cmp	lr, r3
	it	eq
	andseq	r3, r4, #4194304
	bne	.LBB21_62
.Ltmp640:
@ %bb.60:
	@DEBUG_VALUE: HAL_ADCEx_InjectedConfigChannel:tmp_hal_status <- $r12
	@DEBUG_VALUE: HAL_ADCEx_InjectedConfigChannel:tmp_config_internal_channel <- $r2
	@DEBUG_VALUE: HAL_ADCEx_InjectedConfigChannel:hadc <- $r0
	@DEBUG_VALUE: HAL_ADCEx_InjectedConfigChannel:sConfigInjected <- [DW_OP_LLVM_entry_value 1] $r1
	@DEBUG_VALUE: LL_ADC_SetCommonPathInternalCh:PathInternal <- [DW_OP_constu 4194304, DW_OP_or, DW_OP_stack_value] $r2
	.loc	7 2338 3 is_stmt 1              @ c:/Keil_v5\ARM\PACK\Keil\STM32L5xx_DFP\1.3.0\Drivers\STM32L5xx_HAL_Driver\Inc\stm32l5xx_ll_adc.h:2338:3
	ldr	r3, [r1]
	bic	r3, r3, #29360128
	orrs	r2, r3
.Ltmp641:
	orr	r2, r2, #4194304
	str	r2, [r1]
.Ltmp642:
	@DEBUG_VALUE: LL_ADC_SetCommonPathInternalCh:ADCxy_COMMON <- undef
	.loc	7 0 3 is_stmt 0                 @ c:/Keil_v5\ARM\PACK\Keil\STM32L5xx_DFP\1.3.0\Drivers\STM32L5xx_HAL_Driver\Inc\stm32l5xx_ll_adc.h:0:3
	b	.LBB21_62
.Ltmp643:
	.p2align	2
.LBB21_61:
	@DEBUG_VALUE: HAL_ADCEx_InjectedConfigChannel:tmp_hal_status <- $r12
	@DEBUG_VALUE: HAL_ADCEx_InjectedConfigChannel:hadc <- $r0
	@DEBUG_VALUE: HAL_ADCEx_InjectedConfigChannel:sConfigInjected <- [DW_OP_LLVM_entry_value 1] $r1
	.loc	6 2050 9 is_stmt 1              @ c:/Keil_v5\ARM\PACK\Keil\STM32L5xx_DFP\1.3.0\Drivers\STM32L5xx_HAL_Driver\Src\stm32l5xx_hal_adc_ex.c:2050:9
	ldr	r1, [r0, #88]
	mov.w	r12, #1
.Ltmp644:
	@DEBUG_VALUE: HAL_ADCEx_InjectedConfigChannel:tmp_hal_status <- 1
	orr	r1, r1, #32
	str	r1, [r0, #88]
.Ltmp645:
.LBB21_62:
	@DEBUG_VALUE: HAL_ADCEx_InjectedConfigChannel:hadc <- $r0
	@DEBUG_VALUE: HAL_ADCEx_InjectedConfigChannel:tmp_hal_status <- $r12
	.loc	6 0 9 is_stmt 0                 @ c:/Keil_v5\ARM\PACK\Keil\STM32L5xx_DFP\1.3.0\Drivers\STM32L5xx_HAL_Driver\Src\stm32l5xx_hal_adc_ex.c:0:9
	movs	r1, #0
.Ltmp646:
	.loc	6 2059 3 is_stmt 1              @ c:/Keil_v5\ARM\PACK\Keil\STM32L5xx_DFP\1.3.0\Drivers\STM32L5xx_HAL_Driver\Src\stm32l5xx_hal_adc_ex.c:2059:3
	strb.w	r1, [r0, #84]
.Ltmp647:
	.loc	6 2063 1                        @ c:/Keil_v5\ARM\PACK\Keil\STM32L5xx_DFP\1.3.0\Drivers\STM32L5xx_HAL_Driver\Src\stm32l5xx_hal_adc_ex.c:2063:1
	mov	r0, r12
.Ltmp648:
	@DEBUG_VALUE: HAL_ADCEx_InjectedConfigChannel:hadc <- [DW_OP_LLVM_entry_value 1] $r0
	add	sp, #4
	pop	{r4, r5, r6, r7, pc}
.Ltmp649:
	.p2align	2
.LBB21_63:
	@DEBUG_VALUE: HAL_ADCEx_InjectedConfigChannel:tmp_hal_status <- $r12
	@DEBUG_VALUE: HAL_ADCEx_InjectedConfigChannel:tmp_config_internal_channel <- $r2
	@DEBUG_VALUE: HAL_ADCEx_InjectedConfigChannel:hadc <- $r0
	@DEBUG_VALUE: HAL_ADCEx_InjectedConfigChannel:sConfigInjected <- [DW_OP_LLVM_entry_value 1] $r1
	.loc	6 2009 15                       @ c:/Keil_v5\ARM\PACK\Keil\STM32L5xx_DFP\1.3.0\Drivers\STM32L5xx_HAL_Driver\Src\stm32l5xx_hal_adc_ex.c:2009:15
	sub.w	r7, r1, #776
.Ltmp650:
	.loc	6 2009 15 is_stmt 0             @ c:/Keil_v5\ARM\PACK\Keil\STM32L5xx_DFP\1.3.0\Drivers\STM32L5xx_HAL_Driver\Src\stm32l5xx_hal_adc_ex.c:2009:15
	cmp	r3, r7
	bne	.LBB21_62
.Ltmp651:
@ %bb.64:
	@DEBUG_VALUE: HAL_ADCEx_InjectedConfigChannel:tmp_hal_status <- $r12
	@DEBUG_VALUE: HAL_ADCEx_InjectedConfigChannel:tmp_config_internal_channel <- $r2
	@DEBUG_VALUE: HAL_ADCEx_InjectedConfigChannel:hadc <- $r0
	@DEBUG_VALUE: HAL_ADCEx_InjectedConfigChannel:sConfigInjected <- [DW_OP_LLVM_entry_value 1] $r1
	@DEBUG_VALUE: LL_ADC_SetCommonPathInternalCh:PathInternal <- [DW_OP_constu 8388608, DW_OP_or, DW_OP_stack_value] $r2
	.loc	7 2338 3 is_stmt 1              @ c:/Keil_v5\ARM\PACK\Keil\STM32L5xx_DFP\1.3.0\Drivers\STM32L5xx_HAL_Driver\Inc\stm32l5xx_ll_adc.h:2338:3
	ldr	r3, [r1]
	bic	r3, r3, #29360128
	orrs	r2, r3
.Ltmp652:
	orr	r2, r2, #8388608
	str	r2, [r1]
.Ltmp653:
	.loc	6 2018 76                       @ c:/Keil_v5\ARM\PACK\Keil\STM32L5xx_DFP\1.3.0\Drivers\STM32L5xx_HAL_Driver\Src\stm32l5xx_hal_adc_ex.c:2018:76
	movw	r1, :lower16:SystemCoreClock
	movt	r1, :upper16:SystemCoreClock
	ldr	r1, [r1]
	movw	r2, #11619
	.loc	6 2018 92 is_stmt 0             @ c:/Keil_v5\ARM\PACK\Keil\STM32L5xx_DFP\1.3.0\Drivers\STM32L5xx_HAL_Driver\Src\stm32l5xx_hal_adc_ex.c:2018:92
	lsrs	r1, r1, #6
	movt	r2, #1342
	umull	r1, r2, r1, r2
	lsrs	r1, r2, #6
	.loc	6 2018 73                       @ c:/Keil_v5\ARM\PACK\Keil\STM32L5xx_DFP\1.3.0\Drivers\STM32L5xx_HAL_Driver\Src\stm32l5xx_hal_adc_ex.c:2018:73
	add.w	r1, r1, r1, lsl #1
	lsls	r1, r1, #2
	.loc	6 0 0                           @ c:/Keil_v5\ARM\PACK\Keil\STM32L5xx_DFP\1.3.0\Drivers\STM32L5xx_HAL_Driver\Src\stm32l5xx_hal_adc_ex.c:0:0
	str	r1, [sp]
	.loc	6 2019 19 is_stmt 1             @ c:/Keil_v5\ARM\PACK\Keil\STM32L5xx_DFP\1.3.0\Drivers\STM32L5xx_HAL_Driver\Src\stm32l5xx_hal_adc_ex.c:2019:19
	ldr	r1, [sp]
	.loc	6 2019 13 is_stmt 0             @ c:/Keil_v5\ARM\PACK\Keil\STM32L5xx_DFP\1.3.0\Drivers\STM32L5xx_HAL_Driver\Src\stm32l5xx_hal_adc_ex.c:2019:13
	cmp	r1, #0
	@DEBUG_VALUE: LL_ADC_SetCommonPathInternalCh:ADCxy_COMMON <- undef
	beq	.LBB21_62
.Ltmp654:
.LBB21_65:                              @ =>This Inner Loop Header: Depth=1
	@DEBUG_VALUE: HAL_ADCEx_InjectedConfigChannel:tmp_hal_status <- $r12
	@DEBUG_VALUE: HAL_ADCEx_InjectedConfigChannel:hadc <- $r0
	@DEBUG_VALUE: HAL_ADCEx_InjectedConfigChannel:sConfigInjected <- [DW_OP_LLVM_entry_value 1] $r1
	.loc	6 2021 30 is_stmt 1             @ c:/Keil_v5\ARM\PACK\Keil\STM32L5xx_DFP\1.3.0\Drivers\STM32L5xx_HAL_Driver\Src\stm32l5xx_hal_adc_ex.c:2021:30
	ldr	r1, [sp]
	subs	r1, #1
	str	r1, [sp]
.Ltmp655:
	.loc	6 2019 19                       @ c:/Keil_v5\ARM\PACK\Keil\STM32L5xx_DFP\1.3.0\Drivers\STM32L5xx_HAL_Driver\Src\stm32l5xx_hal_adc_ex.c:2019:19
	ldr	r1, [sp]
	.loc	6 2019 13 is_stmt 0             @ c:/Keil_v5\ARM\PACK\Keil\STM32L5xx_DFP\1.3.0\Drivers\STM32L5xx_HAL_Driver\Src\stm32l5xx_hal_adc_ex.c:2019:13
	cmp	r1, #0
	beq	.LBB21_62
.Ltmp656:
@ %bb.66:                               @   in Loop: Header=BB21_65 Depth=1
	@DEBUG_VALUE: HAL_ADCEx_InjectedConfigChannel:tmp_hal_status <- $r12
	@DEBUG_VALUE: HAL_ADCEx_InjectedConfigChannel:hadc <- $r0
	@DEBUG_VALUE: HAL_ADCEx_InjectedConfigChannel:sConfigInjected <- [DW_OP_LLVM_entry_value 1] $r1
	.loc	6 2021 30 is_stmt 1             @ c:/Keil_v5\ARM\PACK\Keil\STM32L5xx_DFP\1.3.0\Drivers\STM32L5xx_HAL_Driver\Src\stm32l5xx_hal_adc_ex.c:2021:30
	ldr	r1, [sp]
	subs	r1, #1
	str	r1, [sp]
.Ltmp657:
	.loc	6 2019 19                       @ c:/Keil_v5\ARM\PACK\Keil\STM32L5xx_DFP\1.3.0\Drivers\STM32L5xx_HAL_Driver\Src\stm32l5xx_hal_adc_ex.c:2019:19
	ldr	r1, [sp]
	.loc	6 2019 13 is_stmt 0             @ c:/Keil_v5\ARM\PACK\Keil\STM32L5xx_DFP\1.3.0\Drivers\STM32L5xx_HAL_Driver\Src\stm32l5xx_hal_adc_ex.c:2019:13
	cmp	r1, #0
	beq	.LBB21_62
.Ltmp658:
@ %bb.67:                               @   in Loop: Header=BB21_65 Depth=1
	@DEBUG_VALUE: HAL_ADCEx_InjectedConfigChannel:tmp_hal_status <- $r12
	@DEBUG_VALUE: HAL_ADCEx_InjectedConfigChannel:hadc <- $r0
	@DEBUG_VALUE: HAL_ADCEx_InjectedConfigChannel:sConfigInjected <- [DW_OP_LLVM_entry_value 1] $r1
	.loc	6 2021 30 is_stmt 1             @ c:/Keil_v5\ARM\PACK\Keil\STM32L5xx_DFP\1.3.0\Drivers\STM32L5xx_HAL_Driver\Src\stm32l5xx_hal_adc_ex.c:2021:30
	ldr	r1, [sp]
	subs	r1, #1
	str	r1, [sp]
.Ltmp659:
	.loc	6 2019 19                       @ c:/Keil_v5\ARM\PACK\Keil\STM32L5xx_DFP\1.3.0\Drivers\STM32L5xx_HAL_Driver\Src\stm32l5xx_hal_adc_ex.c:2019:19
	ldr	r1, [sp]
	.loc	6 2019 13 is_stmt 0             @ c:/Keil_v5\ARM\PACK\Keil\STM32L5xx_DFP\1.3.0\Drivers\STM32L5xx_HAL_Driver\Src\stm32l5xx_hal_adc_ex.c:2019:13
	cmp	r1, #0
	beq	.LBB21_62
.Ltmp660:
@ %bb.68:                               @   in Loop: Header=BB21_65 Depth=1
	@DEBUG_VALUE: HAL_ADCEx_InjectedConfigChannel:tmp_hal_status <- $r12
	@DEBUG_VALUE: HAL_ADCEx_InjectedConfigChannel:hadc <- $r0
	@DEBUG_VALUE: HAL_ADCEx_InjectedConfigChannel:sConfigInjected <- [DW_OP_LLVM_entry_value 1] $r1
	.loc	6 2021 30 is_stmt 1             @ c:/Keil_v5\ARM\PACK\Keil\STM32L5xx_DFP\1.3.0\Drivers\STM32L5xx_HAL_Driver\Src\stm32l5xx_hal_adc_ex.c:2021:30
	ldr	r1, [sp]
	subs	r1, #1
.Ltmp661:
	.loc	6 0 0 is_stmt 0                 @ c:/Keil_v5\ARM\PACK\Keil\STM32L5xx_DFP\1.3.0\Drivers\STM32L5xx_HAL_Driver\Src\stm32l5xx_hal_adc_ex.c:0:0
	str	r1, [sp]
	.loc	6 2019 19 is_stmt 1             @ c:/Keil_v5\ARM\PACK\Keil\STM32L5xx_DFP\1.3.0\Drivers\STM32L5xx_HAL_Driver\Src\stm32l5xx_hal_adc_ex.c:2019:19
	ldr	r1, [sp]
	.loc	6 2019 13 is_stmt 0             @ c:/Keil_v5\ARM\PACK\Keil\STM32L5xx_DFP\1.3.0\Drivers\STM32L5xx_HAL_Driver\Src\stm32l5xx_hal_adc_ex.c:2019:13
	cmp	r1, #0
	@DEBUG_VALUE: LL_ADC_SetCommonPathInternalCh:ADCxy_COMMON <- undef
	bne	.LBB21_65
	b	.LBB21_62
.Ltmp662:
	.p2align	2
.LBB21_69:
	@DEBUG_VALUE: HAL_ADCEx_InjectedConfigChannel:tmp_hal_status <- $r12
	@DEBUG_VALUE: HAL_ADCEx_InjectedConfigChannel:tmp_config_internal_channel <- $r2
	@DEBUG_VALUE: HAL_ADCEx_InjectedConfigChannel:hadc <- $r0
	@DEBUG_VALUE: HAL_ADCEx_InjectedConfigChannel:sConfigInjected <- [DW_OP_LLVM_entry_value 1] $r1
	.loc	6 2027 15 is_stmt 1             @ c:/Keil_v5\ARM\PACK\Keil\STM32L5xx_DFP\1.3.0\Drivers\STM32L5xx_HAL_Driver\Src\stm32l5xx_hal_adc_ex.c:2027:15
	sub.w	r7, r1, #776
.Ltmp663:
	.loc	6 2027 15 is_stmt 0             @ c:/Keil_v5\ARM\PACK\Keil\STM32L5xx_DFP\1.3.0\Drivers\STM32L5xx_HAL_Driver\Src\stm32l5xx_hal_adc_ex.c:2027:15
	cmp	r3, r7
	bne	.LBB21_62
.Ltmp664:
@ %bb.70:
	@DEBUG_VALUE: HAL_ADCEx_InjectedConfigChannel:tmp_hal_status <- $r12
	@DEBUG_VALUE: HAL_ADCEx_InjectedConfigChannel:tmp_config_internal_channel <- $r2
	@DEBUG_VALUE: HAL_ADCEx_InjectedConfigChannel:hadc <- $r0
	@DEBUG_VALUE: HAL_ADCEx_InjectedConfigChannel:sConfigInjected <- [DW_OP_LLVM_entry_value 1] $r1
	@DEBUG_VALUE: LL_ADC_SetCommonPathInternalCh:PathInternal <- [DW_OP_constu 16777216, DW_OP_or, DW_OP_stack_value] $r2
	.loc	7 2338 3 is_stmt 1              @ c:/Keil_v5\ARM\PACK\Keil\STM32L5xx_DFP\1.3.0\Drivers\STM32L5xx_HAL_Driver\Inc\stm32l5xx_ll_adc.h:2338:3
	ldr	r3, [r1]
	bic	r3, r3, #29360128
	orrs	r2, r3
.Ltmp665:
	orr	r2, r2, #16777216
	str	r2, [r1]
.Ltmp666:
	@DEBUG_VALUE: LL_ADC_SetCommonPathInternalCh:ADCxy_COMMON <- undef
	.loc	7 0 3 is_stmt 0                 @ c:/Keil_v5\ARM\PACK\Keil\STM32L5xx_DFP\1.3.0\Drivers\STM32L5xx_HAL_Driver\Inc\stm32l5xx_ll_adc.h:0:3
	b	.LBB21_62
.Ltmp667:
.Lfunc_end21:
	.size	HAL_ADCEx_InjectedConfigChannel, .Lfunc_end21-HAL_ADCEx_InjectedConfigChannel
	.cfi_endproc
	.cantunwind
	.fnend
                                        @ -- End function
	.section	.text.HAL_ADCEx_MultiModeConfigChannel,"ax",%progbits
	.hidden	HAL_ADCEx_MultiModeConfigChannel @ -- Begin function HAL_ADCEx_MultiModeConfigChannel
	.globl	HAL_ADCEx_MultiModeConfigChannel
	.p2align	2
	.type	HAL_ADCEx_MultiModeConfigChannel,%function
	.code	16                              @ @HAL_ADCEx_MultiModeConfigChannel
	.thumb_func
HAL_ADCEx_MultiModeConfigChannel:
.Lfunc_begin22:
	.loc	6 2083 0 is_stmt 1              @ c:/Keil_v5\ARM\PACK\Keil\STM32L5xx_DFP\1.3.0\Drivers\STM32L5xx_HAL_Driver\Src\stm32l5xx_hal_adc_ex.c:2083:0
	.fnstart
	.cfi_startproc
@ %bb.0:
	@DEBUG_VALUE: HAL_ADCEx_MultiModeConfigChannel:hadc <- $r0
	@DEBUG_VALUE: HAL_ADCEx_MultiModeConfigChannel:hadc <- $r0
	@DEBUG_VALUE: HAL_ADCEx_MultiModeConfigChannel:multimode <- $r1
	.save	{r4, r5, r6, lr}
	push	{r4, r5, r6, lr}
	.cfi_def_cfa_offset 16
	.cfi_offset lr, -4
	.cfi_offset r6, -8
	.cfi_offset r5, -12
	.cfi_offset r4, -16
.Ltmp668:
	@DEBUG_VALUE: HAL_ADCEx_MultiModeConfigChannel:tmp_hal_status <- 0
	.loc	6 2099 3 prologue_end           @ c:/Keil_v5\ARM\PACK\Keil\STM32L5xx_DFP\1.3.0\Drivers\STM32L5xx_HAL_Driver\Src\stm32l5xx_hal_adc_ex.c:2099:3
	ldrb.w	r2, [r0, #84]
.Ltmp669:
	.loc	6 2099 3 is_stmt 0              @ c:/Keil_v5\ARM\PACK\Keil\STM32L5xx_DFP\1.3.0\Drivers\STM32L5xx_HAL_Driver\Src\stm32l5xx_hal_adc_ex.c:2099:3
	cmp	r2, #1
	@DEBUG_VALUE: HAL_ADCEx_MultiModeConfigChannel:multimode <- $r1
	itt	eq
	moveq	r0, #2
.Ltmp670:
	@DEBUG_VALUE: HAL_ADCEx_MultiModeConfigChannel:hadc <- [DW_OP_LLVM_entry_value 1] $r0
	.loc	6 2183 1 is_stmt 1              @ c:/Keil_v5\ARM\PACK\Keil\STM32L5xx_DFP\1.3.0\Drivers\STM32L5xx_HAL_Driver\Src\stm32l5xx_hal_adc_ex.c:2183:1
	popeq	{r4, r5, r6, pc}
.Ltmp671:
.LBB22_1:
	@DEBUG_VALUE: HAL_ADCEx_MultiModeConfigChannel:multimode <- $r1
	@DEBUG_VALUE: HAL_ADCEx_MultiModeConfigChannel:hadc <- [DW_OP_LLVM_entry_value 1] $r0
	@DEBUG_VALUE: HAL_ADCEx_MultiModeConfigChannel:tmp_hal_status <- 0
	.loc	6 0 1 is_stmt 0                 @ c:/Keil_v5\ARM\PACK\Keil\STM32L5xx_DFP\1.3.0\Drivers\STM32L5xx_HAL_Driver\Src\stm32l5xx_hal_adc_ex.c:0:1
	movw	r2, #33544
	movt	r2, #16898
	.loc	6 2101 3 is_stmt 1              @ c:/Keil_v5\ARM\PACK\Keil\STM32L5xx_DFP\1.3.0\Drivers\STM32L5xx_HAL_Driver\Src\stm32l5xx_hal_adc_ex.c:2101:3
	ldr	r3, [r0]
	sub.w	r4, r2, #776
.Ltmp672:
	@DEBUG_VALUE: HAL_ADCEx_MultiModeConfigChannel:tmphadcSlave <- [DW_OP_LLVM_fragment 0 32] undef
	.loc	6 2103 7                        @ c:/Keil_v5\ARM\PACK\Keil\STM32L5xx_DFP\1.3.0\Drivers\STM32L5xx_HAL_Driver\Src\stm32l5xx_hal_adc_ex.c:2103:7
	cmp	r3, r4
	bne	.LBB22_6
.Ltmp673:
@ %bb.2:
	@DEBUG_VALUE: HAL_ADCEx_MultiModeConfigChannel:multimode <- $r1
	@DEBUG_VALUE: HAL_ADCEx_MultiModeConfigChannel:hadc <- [DW_OP_LLVM_entry_value 1] $r0
	@DEBUG_VALUE: HAL_ADCEx_MultiModeConfigChannel:tmp_hal_status <- 0
	@DEBUG_VALUE: LL_ADC_REG_IsConversionOngoing:ADCx <- undef
	.loc	6 0 7 is_stmt 0                 @ c:/Keil_v5\ARM\PACK\Keil\STM32L5xx_DFP\1.3.0\Drivers\STM32L5xx_HAL_Driver\Src\stm32l5xx_hal_adc_ex.c:0:7
	movw	r12, #65024
	movw	r5, #64768
	movt	r12, #65535
	movt	r5, #65535
.Ltmp674:
	.loc	7 5880 12 is_stmt 1             @ c:/Keil_v5\ARM\PACK\Keil\STM32L5xx_DFP\1.3.0\Drivers\STM32L5xx_HAL_Driver\Inc\stm32l5xx_ll_adc.h:5880:12
	ldr.w	r4, [r2, r12]
.Ltmp675:
	@DEBUG_VALUE: HAL_ADCEx_MultiModeConfigChannel:tmphadcSlave_conversion_on_going <- [DW_OP_constu 2, DW_OP_shr, DW_OP_constu 1, DW_OP_and, DW_OP_stack_value] $r4
	.loc	7 5880 12 is_stmt 0             @ c:/Keil_v5\ARM\PACK\Keil\STM32L5xx_DFP\1.3.0\Drivers\STM32L5xx_HAL_Driver\Inc\stm32l5xx_ll_adc.h:5880:12
	ldr	r3, [r2, r5]
.Ltmp676:
	.loc	6 2121 7 is_stmt 1              @ c:/Keil_v5\ARM\PACK\Keil\STM32L5xx_DFP\1.3.0\Drivers\STM32L5xx_HAL_Driver\Src\stm32l5xx_hal_adc_ex.c:2121:7
	orrs	r3, r4
	lsls	r3, r3, #29
	@DEBUG_VALUE: LL_ADC_REG_IsConversionOngoing:ADCx <- undef
.Ltmp677:
	@DEBUG_VALUE: HAL_ADCEx_MultiModeConfigChannel:tmphadcSlave <- [DW_OP_LLVM_fragment 0 32] undef
	bmi	.LBB22_6
.Ltmp678:
@ %bb.3:
	@DEBUG_VALUE: HAL_ADCEx_MultiModeConfigChannel:tmphadcSlave_conversion_on_going <- [DW_OP_constu 2, DW_OP_shr, DW_OP_constu 1, DW_OP_and, DW_OP_stack_value] $r4
	@DEBUG_VALUE: HAL_ADCEx_MultiModeConfigChannel:multimode <- $r1
	@DEBUG_VALUE: HAL_ADCEx_MultiModeConfigChannel:hadc <- [DW_OP_LLVM_entry_value 1] $r0
	@DEBUG_VALUE: HAL_ADCEx_MultiModeConfigChannel:tmp_hal_status <- 0
	.loc	6 2129 20                       @ c:/Keil_v5\ARM\PACK\Keil\STM32L5xx_DFP\1.3.0\Drivers\STM32L5xx_HAL_Driver\Src\stm32l5xx_hal_adc_ex.c:2129:20
	ldr.w	lr, [r1]
	.loc	6 0 0 is_stmt 0                 @ c:/Keil_v5\ARM\PACK\Keil\STM32L5xx_DFP\1.3.0\Drivers\STM32L5xx_HAL_Driver\Src\stm32l5xx_hal_adc_ex.c:0:0
	ldr	r3, [r2]
.Ltmp679:
	.loc	6 2129 9                        @ c:/Keil_v5\ARM\PACK\Keil\STM32L5xx_DFP\1.3.0\Drivers\STM32L5xx_HAL_Driver\Src\stm32l5xx_hal_adc_ex.c:2129:9
	cmp.w	lr, #0
.Ltmp680:
	@DEBUG_VALUE: HAL_ADCEx_MultiModeConfigChannel:tmpADC_Common <- undef
	.loc	6 0 0                           @ c:/Keil_v5\ARM\PACK\Keil\STM32L5xx_DFP\1.3.0\Drivers\STM32L5xx_HAL_Driver\Src\stm32l5xx_hal_adc_ex.c:0:0
	bic	r4, r3, #57344
.Ltmp681:
	.loc	6 2129 9                        @ c:/Keil_v5\ARM\PACK\Keil\STM32L5xx_DFP\1.3.0\Drivers\STM32L5xx_HAL_Driver\Src\stm32l5xx_hal_adc_ex.c:2129:9
	beq	.LBB22_7
.Ltmp682:
@ %bb.4:
	@DEBUG_VALUE: HAL_ADCEx_MultiModeConfigChannel:multimode <- $r1
	@DEBUG_VALUE: HAL_ADCEx_MultiModeConfigChannel:hadc <- [DW_OP_LLVM_entry_value 1] $r0
	@DEBUG_VALUE: HAL_ADCEx_MultiModeConfigChannel:tmp_hal_status <- 0
	.loc	6 2131 7 is_stmt 1              @ c:/Keil_v5\ARM\PACK\Keil\STM32L5xx_DFP\1.3.0\Drivers\STM32L5xx_HAL_Driver\Src\stm32l5xx_hal_adc_ex.c:2131:7
	ldr	r3, [r1, #4]
	ldrb.w	r6, [r0, #48]
	orrs	r3, r4
	orr.w	r3, r3, r6, lsl #13
	str	r3, [r2]
.Ltmp683:
	.loc	7 5758 12                       @ c:/Keil_v5\ARM\PACK\Keil\STM32L5xx_DFP\1.3.0\Drivers\STM32L5xx_HAL_Driver\Inc\stm32l5xx_ll_adc.h:5758:12
	ldr	r3, [r2, r5]
.Ltmp684:
	@DEBUG_VALUE: LL_ADC_IsEnabled:ADCx <- undef
	.loc	7 5758 12 is_stmt 0             @ c:/Keil_v5\ARM\PACK\Keil\STM32L5xx_DFP\1.3.0\Drivers\STM32L5xx_HAL_Driver\Inc\stm32l5xx_ll_adc.h:5758:12
	ldr.w	r6, [r2, r12]
.Ltmp685:
	.loc	6 2145 11 is_stmt 1             @ c:/Keil_v5\ARM\PACK\Keil\STM32L5xx_DFP\1.3.0\Drivers\STM32L5xx_HAL_Driver\Src\stm32l5xx_hal_adc_ex.c:2145:11
	orrs	r3, r6
.Ltmp686:
	.loc	6 2145 11 is_stmt 0             @ c:/Keil_v5\ARM\PACK\Keil\STM32L5xx_DFP\1.3.0\Drivers\STM32L5xx_HAL_Driver\Src\stm32l5xx_hal_adc_ex.c:2145:11
	lsls	r3, r3, #31
	@DEBUG_VALUE: LL_ADC_IsEnabled:ADCx <- undef
	bne	.LBB22_10
.Ltmp687:
@ %bb.5:
	@DEBUG_VALUE: HAL_ADCEx_MultiModeConfigChannel:multimode <- $r1
	@DEBUG_VALUE: HAL_ADCEx_MultiModeConfigChannel:hadc <- [DW_OP_LLVM_entry_value 1] $r0
	@DEBUG_VALUE: HAL_ADCEx_MultiModeConfigChannel:tmp_hal_status <- 0
	.loc	6 2147 9 is_stmt 1              @ c:/Keil_v5\ARM\PACK\Keil\STM32L5xx_DFP\1.3.0\Drivers\STM32L5xx_HAL_Driver\Src\stm32l5xx_hal_adc_ex.c:2147:9
	ldr	r3, [r2]
	ldr	r1, [r1, #8]
.Ltmp688:
	@DEBUG_VALUE: HAL_ADCEx_MultiModeConfigChannel:multimode <- [DW_OP_LLVM_entry_value 1] $r1
	.loc	6 0 9 is_stmt 0                 @ c:/Keil_v5\ARM\PACK\Keil\STM32L5xx_DFP\1.3.0\Drivers\STM32L5xx_HAL_Driver\Src\stm32l5xx_hal_adc_ex.c:0:9
	movw	r6, #3871
	.loc	6 2147 9                        @ c:/Keil_v5\ARM\PACK\Keil\STM32L5xx_DFP\1.3.0\Drivers\STM32L5xx_HAL_Driver\Src\stm32l5xx_hal_adc_ex.c:2147:9
	bics	r3, r6
	orr.w	r1, r1, lr
	orrs	r1, r3
	b	.LBB22_9
.Ltmp689:
	.p2align	2
.LBB22_6:
	@DEBUG_VALUE: HAL_ADCEx_MultiModeConfigChannel:multimode <- $r1
	@DEBUG_VALUE: HAL_ADCEx_MultiModeConfigChannel:hadc <- [DW_OP_LLVM_entry_value 1] $r0
	@DEBUG_VALUE: HAL_ADCEx_MultiModeConfigChannel:tmp_hal_status <- 0
	.loc	6 0 0                           @ c:/Keil_v5\ARM\PACK\Keil\STM32L5xx_DFP\1.3.0\Drivers\STM32L5xx_HAL_Driver\Src\stm32l5xx_hal_adc_ex.c:0:0
	ldr	r1, [r0, #88]
.Ltmp690:
	@DEBUG_VALUE: HAL_ADCEx_MultiModeConfigChannel:multimode <- [DW_OP_LLVM_entry_value 1] $r1
	orr	r1, r1, #32
	str	r1, [r0, #88]
	movs	r1, #1
.Ltmp691:
	@DEBUG_VALUE: HAL_ADCEx_MultiModeConfigChannel:tmp_hal_status <- 1
	movs	r2, #0
	strb.w	r2, [r0, #84]
	.loc	6 2183 1 is_stmt 1              @ c:/Keil_v5\ARM\PACK\Keil\STM32L5xx_DFP\1.3.0\Drivers\STM32L5xx_HAL_Driver\Src\stm32l5xx_hal_adc_ex.c:2183:1
	mov	r0, r1
	pop	{r4, r5, r6, pc}
.Ltmp692:
	.p2align	2
.LBB22_7:
	@DEBUG_VALUE: HAL_ADCEx_MultiModeConfigChannel:multimode <- $r1
	@DEBUG_VALUE: HAL_ADCEx_MultiModeConfigChannel:hadc <- [DW_OP_LLVM_entry_value 1] $r0
	@DEBUG_VALUE: HAL_ADCEx_MultiModeConfigChannel:tmp_hal_status <- 0
	.loc	6 2157 7                        @ c:/Keil_v5\ARM\PACK\Keil\STM32L5xx_DFP\1.3.0\Drivers\STM32L5xx_HAL_Driver\Src\stm32l5xx_hal_adc_ex.c:2157:7
	str	r4, [r2]
.Ltmp693:
	.loc	7 5758 12                       @ c:/Keil_v5\ARM\PACK\Keil\STM32L5xx_DFP\1.3.0\Drivers\STM32L5xx_HAL_Driver\Inc\stm32l5xx_ll_adc.h:5758:12
	ldr	r1, [r2, r5]
.Ltmp694:
	@DEBUG_VALUE: HAL_ADCEx_MultiModeConfigChannel:multimode <- [DW_OP_LLVM_entry_value 1] $r1
	@DEBUG_VALUE: LL_ADC_IsEnabled:ADCx <- undef
	.loc	7 5758 12 is_stmt 0             @ c:/Keil_v5\ARM\PACK\Keil\STM32L5xx_DFP\1.3.0\Drivers\STM32L5xx_HAL_Driver\Inc\stm32l5xx_ll_adc.h:5758:12
	ldr.w	r3, [r2, r12]
.Ltmp695:
	.loc	6 2162 11 is_stmt 1             @ c:/Keil_v5\ARM\PACK\Keil\STM32L5xx_DFP\1.3.0\Drivers\STM32L5xx_HAL_Driver\Src\stm32l5xx_hal_adc_ex.c:2162:11
	orrs	r1, r3
.Ltmp696:
	.loc	6 2162 11 is_stmt 0             @ c:/Keil_v5\ARM\PACK\Keil\STM32L5xx_DFP\1.3.0\Drivers\STM32L5xx_HAL_Driver\Src\stm32l5xx_hal_adc_ex.c:2162:11
	lsls	r1, r1, #31
	@DEBUG_VALUE: LL_ADC_IsEnabled:ADCx <- undef
	bne	.LBB22_10
.Ltmp697:
@ %bb.8:
	@DEBUG_VALUE: HAL_ADCEx_MultiModeConfigChannel:multimode <- [DW_OP_LLVM_entry_value 1] $r1
	@DEBUG_VALUE: HAL_ADCEx_MultiModeConfigChannel:hadc <- [DW_OP_LLVM_entry_value 1] $r0
	@DEBUG_VALUE: HAL_ADCEx_MultiModeConfigChannel:tmp_hal_status <- 0
	.loc	6 2164 9 is_stmt 1              @ c:/Keil_v5\ARM\PACK\Keil\STM32L5xx_DFP\1.3.0\Drivers\STM32L5xx_HAL_Driver\Src\stm32l5xx_hal_adc_ex.c:2164:9
	ldr	r1, [r2]
	movw	r3, #3871
	bics	r1, r3
.Ltmp698:
.LBB22_9:
	@DEBUG_VALUE: HAL_ADCEx_MultiModeConfigChannel:multimode <- [DW_OP_LLVM_entry_value 1] $r1
	@DEBUG_VALUE: HAL_ADCEx_MultiModeConfigChannel:hadc <- [DW_OP_LLVM_entry_value 1] $r0
	@DEBUG_VALUE: HAL_ADCEx_MultiModeConfigChannel:tmp_hal_status <- 0
	.loc	6 0 0 is_stmt 0                 @ c:/Keil_v5\ARM\PACK\Keil\STM32L5xx_DFP\1.3.0\Drivers\STM32L5xx_HAL_Driver\Src\stm32l5xx_hal_adc_ex.c:0:0
	str	r1, [r2]
.Ltmp699:
.LBB22_10:
	@DEBUG_VALUE: HAL_ADCEx_MultiModeConfigChannel:hadc <- [DW_OP_LLVM_entry_value 1] $r0
	@DEBUG_VALUE: HAL_ADCEx_MultiModeConfigChannel:tmp_hal_status <- 0
	movs	r1, #0
	movs	r2, #0
	strb.w	r2, [r0, #84]
	.loc	6 2183 1 is_stmt 1              @ c:/Keil_v5\ARM\PACK\Keil\STM32L5xx_DFP\1.3.0\Drivers\STM32L5xx_HAL_Driver\Src\stm32l5xx_hal_adc_ex.c:2183:1
	mov	r0, r1
	pop	{r4, r5, r6, pc}
.Ltmp700:
.Lfunc_end22:
	.size	HAL_ADCEx_MultiModeConfigChannel, .Lfunc_end22-HAL_ADCEx_MultiModeConfigChannel
	.cfi_endproc
	.cantunwind
	.fnend
                                        @ -- End function
	.section	.text.HAL_ADCEx_EnableInjectedQueue,"ax",%progbits
	.hidden	HAL_ADCEx_EnableInjectedQueue   @ -- Begin function HAL_ADCEx_EnableInjectedQueue
	.globl	HAL_ADCEx_EnableInjectedQueue
	.p2align	2
	.type	HAL_ADCEx_EnableInjectedQueue,%function
	.code	16                              @ @HAL_ADCEx_EnableInjectedQueue
	.thumb_func
HAL_ADCEx_EnableInjectedQueue:
.Lfunc_begin23:
	.loc	6 2196 0                        @ c:/Keil_v5\ARM\PACK\Keil\STM32L5xx_DFP\1.3.0\Drivers\STM32L5xx_HAL_Driver\Src\stm32l5xx_hal_adc_ex.c:2196:0
	.fnstart
	.cfi_startproc
@ %bb.0:
	@DEBUG_VALUE: HAL_ADCEx_EnableInjectedQueue:hadc <- $r0
	@DEBUG_VALUE: HAL_ADCEx_EnableInjectedQueue:hadc <- $r0
	.loc	6 2204 81 prologue_end          @ c:/Keil_v5\ARM\PACK\Keil\STM32L5xx_DFP\1.3.0\Drivers\STM32L5xx_HAL_Driver\Src\stm32l5xx_hal_adc_ex.c:2204:81
	ldr	r1, [r0]
.Ltmp701:
	@DEBUG_VALUE: LL_ADC_REG_IsConversionOngoing:ADCx <- $r1
	.loc	7 5880 12                       @ c:/Keil_v5\ARM\PACK\Keil\STM32L5xx_DFP\1.3.0\Drivers\STM32L5xx_HAL_Driver\Inc\stm32l5xx_ll_adc.h:5880:12
	ldr	r2, [r1, #8]
.Ltmp702:
	@DEBUG_VALUE: LL_ADC_INJ_IsConversionOngoing:ADCx <- $r1
	@DEBUG_VALUE: HAL_ADCEx_EnableInjectedQueue:tmp_adc_is_conversion_on_going_regular <- [DW_OP_constu 1, DW_OP_and, DW_OP_stack_value] undef
	.loc	7 6063 12                       @ c:/Keil_v5\ARM\PACK\Keil\STM32L5xx_DFP\1.3.0\Drivers\STM32L5xx_HAL_Driver\Inc\stm32l5xx_ll_adc.h:6063:12
	ldr	r3, [r1, #8]
	.loc	7 6063 11 is_stmt 0             @ c:/Keil_v5\ARM\PACK\Keil\STM32L5xx_DFP\1.3.0\Drivers\STM32L5xx_HAL_Driver\Inc\stm32l5xx_ll_adc.h:6063:11
	lsrs	r3, r3, #3
.Ltmp703:
	@DEBUG_VALUE: HAL_ADCEx_EnableInjectedQueue:tmp_adc_is_conversion_on_going_injected <- [DW_OP_constu 1, DW_OP_and, DW_OP_stack_value] $r3
	.loc	6 2209 7 is_stmt 1              @ c:/Keil_v5\ARM\PACK\Keil\STM32L5xx_DFP\1.3.0\Drivers\STM32L5xx_HAL_Driver\Src\stm32l5xx_hal_adc_ex.c:2209:7
	orr.w	r2, r3, r2, lsr #2
	lsls	r2, r2, #31
	itt	ne
	movne	r0, #1
.Ltmp704:
	@DEBUG_VALUE: HAL_ADCEx_EnableInjectedQueue:hadc <- [DW_OP_LLVM_entry_value 1] $r0
	@DEBUG_VALUE: HAL_ADCEx_EnableInjectedQueue:tmp_hal_status <- $r0
	.loc	6 2224 3                        @ c:/Keil_v5\ARM\PACK\Keil\STM32L5xx_DFP\1.3.0\Drivers\STM32L5xx_HAL_Driver\Src\stm32l5xx_hal_adc_ex.c:2224:3
	bxne	lr
.Ltmp705:
.LBB23_1:
	@DEBUG_VALUE: HAL_ADCEx_EnableInjectedQueue:tmp_adc_is_conversion_on_going_injected <- [DW_OP_constu 1, DW_OP_and, DW_OP_stack_value] $r3
	@DEBUG_VALUE: HAL_ADCEx_EnableInjectedQueue:tmp_hal_status <- $r0
	@DEBUG_VALUE: HAL_ADCEx_EnableInjectedQueue:hadc <- [DW_OP_LLVM_entry_value 1] $r0
	.loc	6 2212 5                        @ c:/Keil_v5\ARM\PACK\Keil\STM32L5xx_DFP\1.3.0\Drivers\STM32L5xx_HAL_Driver\Src\stm32l5xx_hal_adc_ex.c:2212:5
	ldr	r2, [r1, #12]
	bic	r2, r2, #-2147483648
	str	r2, [r1, #12]
	.loc	6 2215 5                        @ c:/Keil_v5\ARM\PACK\Keil\STM32L5xx_DFP\1.3.0\Drivers\STM32L5xx_HAL_Driver\Src\stm32l5xx_hal_adc_ex.c:2215:5
	ldr	r1, [r0, #88]
	bic	r1, r1, #16384
	str	r1, [r0, #88]
	movs	r0, #0
.Ltmp706:
	@DEBUG_VALUE: HAL_ADCEx_EnableInjectedQueue:tmp_hal_status <- 0
	@DEBUG_VALUE: HAL_ADCEx_EnableInjectedQueue:tmp_hal_status <- $r0
	.loc	6 2224 3                        @ c:/Keil_v5\ARM\PACK\Keil\STM32L5xx_DFP\1.3.0\Drivers\STM32L5xx_HAL_Driver\Src\stm32l5xx_hal_adc_ex.c:2224:3
	bx	lr
.Ltmp707:
.Lfunc_end23:
	.size	HAL_ADCEx_EnableInjectedQueue, .Lfunc_end23-HAL_ADCEx_EnableInjectedQueue
	.cfi_endproc
	.cantunwind
	.fnend
                                        @ -- End function
	.section	.text.HAL_ADCEx_DisableInjectedQueue,"ax",%progbits
	.hidden	HAL_ADCEx_DisableInjectedQueue  @ -- Begin function HAL_ADCEx_DisableInjectedQueue
	.globl	HAL_ADCEx_DisableInjectedQueue
	.p2align	2
	.type	HAL_ADCEx_DisableInjectedQueue,%function
	.code	16                              @ @HAL_ADCEx_DisableInjectedQueue
	.thumb_func
HAL_ADCEx_DisableInjectedQueue:
.Lfunc_begin24:
	.loc	6 2237 0                        @ c:/Keil_v5\ARM\PACK\Keil\STM32L5xx_DFP\1.3.0\Drivers\STM32L5xx_HAL_Driver\Src\stm32l5xx_hal_adc_ex.c:2237:0
	.fnstart
	.cfi_startproc
@ %bb.0:
	@DEBUG_VALUE: HAL_ADCEx_DisableInjectedQueue:hadc <- $r0
	@DEBUG_VALUE: HAL_ADCEx_DisableInjectedQueue:hadc <- $r0
	.loc	6 2245 81 prologue_end          @ c:/Keil_v5\ARM\PACK\Keil\STM32L5xx_DFP\1.3.0\Drivers\STM32L5xx_HAL_Driver\Src\stm32l5xx_hal_adc_ex.c:2245:81
	ldr	r0, [r0]
.Ltmp708:
	@DEBUG_VALUE: HAL_ADCEx_DisableInjectedQueue:hadc <- [DW_OP_LLVM_entry_value 1] $r0
	@DEBUG_VALUE: LL_ADC_REG_IsConversionOngoing:ADCx <- $r0
	.loc	7 5880 12                       @ c:/Keil_v5\ARM\PACK\Keil\STM32L5xx_DFP\1.3.0\Drivers\STM32L5xx_HAL_Driver\Inc\stm32l5xx_ll_adc.h:5880:12
	ldr	r1, [r0, #8]
.Ltmp709:
	@DEBUG_VALUE: LL_ADC_INJ_IsConversionOngoing:ADCx <- $r0
	@DEBUG_VALUE: HAL_ADCEx_DisableInjectedQueue:tmp_adc_is_conversion_on_going_regular <- [DW_OP_constu 1, DW_OP_and, DW_OP_stack_value] undef
	.loc	7 6063 12                       @ c:/Keil_v5\ARM\PACK\Keil\STM32L5xx_DFP\1.3.0\Drivers\STM32L5xx_HAL_Driver\Inc\stm32l5xx_ll_adc.h:6063:12
	ldr	r2, [r0, #8]
	.loc	7 6063 11 is_stmt 0             @ c:/Keil_v5\ARM\PACK\Keil\STM32L5xx_DFP\1.3.0\Drivers\STM32L5xx_HAL_Driver\Inc\stm32l5xx_ll_adc.h:6063:11
	lsrs	r2, r2, #3
.Ltmp710:
	@DEBUG_VALUE: HAL_ADCEx_DisableInjectedQueue:tmp_adc_is_conversion_on_going_injected <- [DW_OP_constu 1, DW_OP_and, DW_OP_stack_value] $r2
	.loc	6 2250 7 is_stmt 1              @ c:/Keil_v5\ARM\PACK\Keil\STM32L5xx_DFP\1.3.0\Drivers\STM32L5xx_HAL_Driver\Src\stm32l5xx_hal_adc_ex.c:2250:7
	orr.w	r1, r2, r1, lsr #2
	lsls	r1, r1, #31
	itt	ne
	movne	r0, #1
.Ltmp711:
	@DEBUG_VALUE: HAL_ADCEx_DisableInjectedQueue:tmp_hal_status <- $r0
	.loc	6 2261 3                        @ c:/Keil_v5\ARM\PACK\Keil\STM32L5xx_DFP\1.3.0\Drivers\STM32L5xx_HAL_Driver\Src\stm32l5xx_hal_adc_ex.c:2261:3
	bxne	lr
.Ltmp712:
.LBB24_1:
	@DEBUG_VALUE: HAL_ADCEx_DisableInjectedQueue:tmp_adc_is_conversion_on_going_injected <- [DW_OP_constu 1, DW_OP_and, DW_OP_stack_value] $r2
	@DEBUG_VALUE: HAL_ADCEx_DisableInjectedQueue:tmp_hal_status <- $r0
	@DEBUG_VALUE: HAL_ADCEx_DisableInjectedQueue:hadc <- [DW_OP_LLVM_entry_value 1] $r0
	@DEBUG_VALUE: LL_ADC_INJ_SetQueueMode:ADCx <- $r0
	@DEBUG_VALUE: LL_ADC_INJ_SetQueueMode:QueueMode <- -2147483648
	.loc	7 4129 3                        @ c:/Keil_v5\ARM\PACK\Keil\STM32L5xx_DFP\1.3.0\Drivers\STM32L5xx_HAL_Driver\Inc\stm32l5xx_ll_adc.h:4129:3
	ldr	r1, [r0, #12]
	movw	r2, #65535
.Ltmp713:
	.loc	7 0 3 is_stmt 0                 @ c:/Keil_v5\ARM\PACK\Keil\STM32L5xx_DFP\1.3.0\Drivers\STM32L5xx_HAL_Driver\Inc\stm32l5xx_ll_adc.h:0:3
	movt	r2, #32735
	.loc	7 4129 3                        @ c:/Keil_v5\ARM\PACK\Keil\STM32L5xx_DFP\1.3.0\Drivers\STM32L5xx_HAL_Driver\Inc\stm32l5xx_ll_adc.h:4129:3
	ands	r1, r2
	add.w	r1, r1, #-2147483648
	str	r1, [r0, #12]
	movs	r0, #0
.Ltmp714:
	@DEBUG_VALUE: HAL_ADCEx_DisableInjectedQueue:tmp_hal_status <- 0
	@DEBUG_VALUE: HAL_ADCEx_DisableInjectedQueue:tmp_hal_status <- $r0
	.loc	6 2261 3 is_stmt 1              @ c:/Keil_v5\ARM\PACK\Keil\STM32L5xx_DFP\1.3.0\Drivers\STM32L5xx_HAL_Driver\Src\stm32l5xx_hal_adc_ex.c:2261:3
	bx	lr
.Ltmp715:
.Lfunc_end24:
	.size	HAL_ADCEx_DisableInjectedQueue, .Lfunc_end24-HAL_ADCEx_DisableInjectedQueue
	.cfi_endproc
	.cantunwind
	.fnend
                                        @ -- End function
	.section	.text.HAL_ADCEx_DisableVoltageRegulator,"ax",%progbits
	.hidden	HAL_ADCEx_DisableVoltageRegulator @ -- Begin function HAL_ADCEx_DisableVoltageRegulator
	.globl	HAL_ADCEx_DisableVoltageRegulator
	.p2align	2
	.type	HAL_ADCEx_DisableVoltageRegulator,%function
	.code	16                              @ @HAL_ADCEx_DisableVoltageRegulator
	.thumb_func
HAL_ADCEx_DisableVoltageRegulator:
.Lfunc_begin25:
	.loc	6 2274 0                        @ c:/Keil_v5\ARM\PACK\Keil\STM32L5xx_DFP\1.3.0\Drivers\STM32L5xx_HAL_Driver\Src\stm32l5xx_hal_adc_ex.c:2274:0
	.fnstart
	.cfi_startproc
@ %bb.0:
	@DEBUG_VALUE: HAL_ADCEx_DisableVoltageRegulator:hadc <- $r0
	@DEBUG_VALUE: HAL_ADCEx_DisableVoltageRegulator:hadc <- $r0
	.loc	6 2281 30 prologue_end          @ c:/Keil_v5\ARM\PACK\Keil\STM32L5xx_DFP\1.3.0\Drivers\STM32L5xx_HAL_Driver\Src\stm32l5xx_hal_adc_ex.c:2281:30
	ldr	r0, [r0]
.Ltmp716:
	@DEBUG_VALUE: HAL_ADCEx_DisableVoltageRegulator:hadc <- [DW_OP_LLVM_entry_value 1] $r0
	@DEBUG_VALUE: LL_ADC_IsEnabled:ADCx <- $r0
	.loc	7 5758 12                       @ c:/Keil_v5\ARM\PACK\Keil\STM32L5xx_DFP\1.3.0\Drivers\STM32L5xx_HAL_Driver\Inc\stm32l5xx_ll_adc.h:5758:12
	ldr	r1, [r0, #8]
.Ltmp717:
	.loc	6 2281 7                        @ c:/Keil_v5\ARM\PACK\Keil\STM32L5xx_DFP\1.3.0\Drivers\STM32L5xx_HAL_Driver\Src\stm32l5xx_hal_adc_ex.c:2281:7
	lsls	r1, r1, #31
	itt	ne
	movne	r0, #1
.Ltmp718:
	@DEBUG_VALUE: HAL_ADCEx_DisableVoltageRegulator:tmp_hal_status <- $r0
	.loc	6 2291 3                        @ c:/Keil_v5\ARM\PACK\Keil\STM32L5xx_DFP\1.3.0\Drivers\STM32L5xx_HAL_Driver\Src\stm32l5xx_hal_adc_ex.c:2291:3
	bxne	lr
.Ltmp719:
.LBB25_1:
	@DEBUG_VALUE: HAL_ADCEx_DisableVoltageRegulator:tmp_hal_status <- $r0
	@DEBUG_VALUE: HAL_ADCEx_DisableVoltageRegulator:hadc <- [DW_OP_LLVM_entry_value 1] $r0
	@DEBUG_VALUE: LL_ADC_DisableInternalRegulator:ADCx <- $r0
	.loc	7 5687 3                        @ c:/Keil_v5\ARM\PACK\Keil\STM32L5xx_DFP\1.3.0\Drivers\STM32L5xx_HAL_Driver\Inc\stm32l5xx_ll_adc.h:5687:3
	ldr	r1, [r0, #8]
	movw	r2, #65472
	movt	r2, #28671
	ands	r1, r2
	str	r1, [r0, #8]
	movs	r0, #0
.Ltmp720:
	@DEBUG_VALUE: HAL_ADCEx_DisableVoltageRegulator:tmp_hal_status <- 0
	@DEBUG_VALUE: HAL_ADCEx_DisableVoltageRegulator:tmp_hal_status <- $r0
	.loc	6 2291 3                        @ c:/Keil_v5\ARM\PACK\Keil\STM32L5xx_DFP\1.3.0\Drivers\STM32L5xx_HAL_Driver\Src\stm32l5xx_hal_adc_ex.c:2291:3
	bx	lr
.Ltmp721:
.Lfunc_end25:
	.size	HAL_ADCEx_DisableVoltageRegulator, .Lfunc_end25-HAL_ADCEx_DisableVoltageRegulator
	.cfi_endproc
	.cantunwind
	.fnend
                                        @ -- End function
	.section	.text.HAL_ADCEx_EnterADCDeepPowerDownMode,"ax",%progbits
	.hidden	HAL_ADCEx_EnterADCDeepPowerDownMode @ -- Begin function HAL_ADCEx_EnterADCDeepPowerDownMode
	.globl	HAL_ADCEx_EnterADCDeepPowerDownMode
	.p2align	2
	.type	HAL_ADCEx_EnterADCDeepPowerDownMode,%function
	.code	16                              @ @HAL_ADCEx_EnterADCDeepPowerDownMode
	.thumb_func
HAL_ADCEx_EnterADCDeepPowerDownMode:
.Lfunc_begin26:
	.loc	6 2311 0                        @ c:/Keil_v5\ARM\PACK\Keil\STM32L5xx_DFP\1.3.0\Drivers\STM32L5xx_HAL_Driver\Src\stm32l5xx_hal_adc_ex.c:2311:0
	.fnstart
	.cfi_startproc
@ %bb.0:
	@DEBUG_VALUE: HAL_ADCEx_EnterADCDeepPowerDownMode:hadc <- $r0
	@DEBUG_VALUE: HAL_ADCEx_EnterADCDeepPowerDownMode:hadc <- $r0
	.loc	6 2318 30 prologue_end          @ c:/Keil_v5\ARM\PACK\Keil\STM32L5xx_DFP\1.3.0\Drivers\STM32L5xx_HAL_Driver\Src\stm32l5xx_hal_adc_ex.c:2318:30
	ldr	r0, [r0]
.Ltmp722:
	@DEBUG_VALUE: HAL_ADCEx_EnterADCDeepPowerDownMode:hadc <- [DW_OP_LLVM_entry_value 1] $r0
	@DEBUG_VALUE: LL_ADC_IsEnabled:ADCx <- $r0
	.loc	7 5758 12                       @ c:/Keil_v5\ARM\PACK\Keil\STM32L5xx_DFP\1.3.0\Drivers\STM32L5xx_HAL_Driver\Inc\stm32l5xx_ll_adc.h:5758:12
	ldr	r1, [r0, #8]
.Ltmp723:
	.loc	6 2318 7                        @ c:/Keil_v5\ARM\PACK\Keil\STM32L5xx_DFP\1.3.0\Drivers\STM32L5xx_HAL_Driver\Src\stm32l5xx_hal_adc_ex.c:2318:7
	lsls	r1, r1, #31
	itt	ne
	movne	r0, #1
.Ltmp724:
	@DEBUG_VALUE: HAL_ADCEx_EnterADCDeepPowerDownMode:tmp_hal_status <- $r0
	.loc	6 2328 3                        @ c:/Keil_v5\ARM\PACK\Keil\STM32L5xx_DFP\1.3.0\Drivers\STM32L5xx_HAL_Driver\Src\stm32l5xx_hal_adc_ex.c:2328:3
	bxne	lr
.Ltmp725:
.LBB26_1:
	@DEBUG_VALUE: HAL_ADCEx_EnterADCDeepPowerDownMode:tmp_hal_status <- $r0
	@DEBUG_VALUE: HAL_ADCEx_EnterADCDeepPowerDownMode:hadc <- [DW_OP_LLVM_entry_value 1] $r0
	@DEBUG_VALUE: LL_ADC_EnableDeepPowerDown:ADCx <- $r0
	.loc	7 5615 3                        @ c:/Keil_v5\ARM\PACK\Keil\STM32L5xx_DFP\1.3.0\Drivers\STM32L5xx_HAL_Driver\Inc\stm32l5xx_ll_adc.h:5615:3
	ldr	r1, [r0, #8]
	movw	r2, #65472
	movt	r2, #24575
	ands	r1, r2
	add.w	r1, r1, #536870912
	str	r1, [r0, #8]
	movs	r0, #0
.Ltmp726:
	@DEBUG_VALUE: HAL_ADCEx_EnterADCDeepPowerDownMode:tmp_hal_status <- 0
	@DEBUG_VALUE: HAL_ADCEx_EnterADCDeepPowerDownMode:tmp_hal_status <- $r0
	.loc	6 2328 3                        @ c:/Keil_v5\ARM\PACK\Keil\STM32L5xx_DFP\1.3.0\Drivers\STM32L5xx_HAL_Driver\Src\stm32l5xx_hal_adc_ex.c:2328:3
	bx	lr
.Ltmp727:
.Lfunc_end26:
	.size	HAL_ADCEx_EnterADCDeepPowerDownMode, .Lfunc_end26-HAL_ADCEx_EnterADCDeepPowerDownMode
	.cfi_endproc
	.cantunwind
	.fnend
                                        @ -- End function
	.file	9 "c:/Keil_v5\\ARM\\PACK\\Keil\\STM32L5xx_DFP\\1.3.0\\Drivers\\STM32L5xx_HAL_Driver\\Inc" "stm32l5xx_hal_adc.h"
	.file	10 "c:/Keil_v5\\ARM\\PACK\\Keil\\STM32L5xx_DFP\\1.3.0\\Drivers\\STM32L5xx_HAL_Driver\\Inc" "stm32l5xx_hal_adc_ex.h"
	.section	".note.GNU-stack","",%progbits
	.eabi_attribute	30, 2	@ Tag_ABI_optimization_goals
	.ARM_attribute	16, 1	@ Tag_AV_eba