	.text
	.syntax unified
	.eabi_attribute	67, "2.09"	@ Tag_conformance
	.cpu	cortex-m33
	.eabi_attribute	6, 17	@ Tag_CPU_arch
	.eabi_attribute	7, 77	@ Tag_CPU_arch_profile
	.eabi_attribute	8, 0	@ Tag_ARM_ISA_use
	.eabi_attribute	9, 3	@ Tag_THUMB_ISA_use
	.fpu	fpv5-sp-d16
	.eabi_attribute	27, 1	@ Tag_ABI_HardFP_use
	.eabi_attribute	36, 1	@ Tag_FP_HP_extension
	.eabi_attribute	46, 1	@ Tag_DSP_extension
	.eabi_attribute	34, 1	@ Tag_CPU_unaligned_access
	.eabi_attribute	17, 1	@ Tag_ABI_PCS_GOT_use
	.eabi_attribute	20, 2	@ Tag_ABI_FP_denormal
	.eabi_attribute	21, 0	@ Tag_ABI_FP_exceptions
	.eabi_attribute	23, 1	@ Tag_ABI_FP_number_model
	.eabi_attribute	24, 1	@ Tag_ABI_align_needed
	.eabi_attribute	25, 1	@ Tag_ABI_align_preserved
	.eabi_attribute	28, 1	@ Tag_ABI_VFP_args
	.eabi_attribute	38, 1	@ Tag_ABI_FP_16bit_format
	.eabi_attribute	18, 2	@ Tag_ABI_PCS_wchar_t
	.eabi_attribute	26, 1	@ Tag_ABI_enum_size
	.eabi_attribute	14, 0	@ Tag_ABI_PCS_R9_use
	.file	"stm32l5xx_hal_tim.c"
	.file	1 "c:/Keil_v5\\ARM\\PACK\\Keil\\STM32L5xx_DFP\\1.3.0\\Drivers\\STM32L5xx_HAL_Driver\\Inc" "stm32l5xx_hal_def.h"
	.file	2 "c:/Keil_v5\\ARM\\PACK\\Keil\\STM32L5xx_DFP\\1.3.0\\Drivers\\STM32L5xx_HAL_Driver\\Inc" "stm32l5xx_hal_tim.h"
	.file	3 "c:/Keil_v5\\ARM\\PACK\\Keil\\STM32L5xx_DFP\\1.3.0\\Drivers\\STM32L5xx_HAL_Driver\\Inc" "stm32l5xx_hal_dma.h"
	.file	4 "c:/Keil_v5\\ARM\\PACK\\Keil\\STM32L5xx_DFP\\1.3.0\\Drivers\\CMSIS\\Device\\ST\\STM32L5xx\\Include" "stm32l5xx.h"
	.file	5 "c:\\Keil_v5\\ARM\\ARMCLANG\\Bin\\..\\include" "stdint.h"
	.file	6 "c:/Keil_v5\\ARM\\PACK\\Keil\\STM32L5xx_DFP\\1.3.0\\Drivers\\CMSIS\\Device\\ST\\STM32L5xx\\Include" "stm32l552xx.h"
	.section	.text.HAL_TIM_Base_Init,"ax",%progbits
	.hidden	HAL_TIM_Base_Init               @ -- Begin function HAL_TIM_Base_Init
	.globl	HAL_TIM_Base_Init
	.p2align	2
	.type	HAL_TIM_Base_Init,%function
	.code	16                              @ @HAL_TIM_Base_Init
	.thumb_func
HAL_TIM_Base_Init:
.Lfunc_begin0:
	.file	7 "c:/Keil_v5\\ARM\\PACK\\Keil\\STM32L5xx_DFP\\1.3.0\\Drivers\\STM32L5xx_HAL_Driver\\Src" "stm32l5xx_hal_tim.c"
	.loc	7 270 0                         @ c:/Keil_v5\ARM\PACK\Keil\STM32L5xx_DFP\1.3.0\Drivers\STM32L5xx_HAL_Driver\Src\stm32l5xx_hal_tim.c:270:0
	.fnstart
	.cfi_sections .debug_frame
	.cfi_startproc
@ %bb.0:
	@DEBUG_VALUE: HAL_TIM_Base_Init:htim <- $r0
	@DEBUG_VALUE: HAL_TIM_Base_Init:htim <- $r0
	.loc	7 272 7 prologue_end            @ c:/Keil_v5\ARM\PACK\Keil\STM32L5xx_DFP\1.3.0\Drivers\STM32L5xx_HAL_Driver\Src\stm32l5xx_hal_tim.c:272:7
	cmp	r0, #0
	itt	eq
	moveq	r0, #1
.Ltmp0:
	@DEBUG_VALUE: HAL_TIM_Base_Init:htim <- [DW_OP_LLVM_entry_value 1] $r0
	.loc	7 321 1                         @ c:/Keil_v5\ARM\PACK\Keil\STM32L5xx_DFP\1.3.0\Drivers\STM32L5xx_HAL_Driver\Src\stm32l5xx_hal_tim.c:321:1
	bxeq	lr
.Ltmp1:
.LBB0_1:
	@DEBUG_VALUE: HAL_TIM_Base_Init:htim <- [DW_OP_LLVM_entry_value 1] $r0
	.save	{r4, lr}
	push	{r4, lr}
	.cfi_def_cfa_offset 8
	.cfi_offset lr, -4
	.cfi_offset r4, -8
	mov	r4, r0
.Ltmp2:
	@DEBUG_VALUE: HAL_TIM_Base_Init:htim <- $r4
	.loc	7 283 13                        @ c:/Keil_v5\ARM\PACK\Keil\STM32L5xx_DFP\1.3.0\Drivers\STM32L5xx_HAL_Driver\Src\stm32l5xx_hal_tim.c:283:13
	ldrb.w	r0, [r0, #61]
.Ltmp3:
	.loc	7 283 7 is_stmt 0               @ c:/Keil_v5\ARM\PACK\Keil\STM32L5xx_DFP\1.3.0\Drivers\STM32L5xx_HAL_Driver\Src\stm32l5xx_hal_tim.c:283:7
	cbnz	r0, .LBB0_3
.Ltmp4:
@ %bb.2:
	@DEBUG_VALUE: HAL_TIM_Base_Init:htim <- $r4
	.loc	7 0 7                           @ c:/Keil_v5\ARM\PACK\Keil\STM32L5xx_DFP\1.3.0\Drivers\STM32L5xx_HAL_Driver\Src\stm32l5xx_hal_tim.c:0:7
	movs	r0, #0
.Ltmp5:
	.loc	7 286 16 is_stmt 1              @ c:/Keil_v5\ARM\PACK\Keil\STM32L5xx_DFP\1.3.0\Drivers\STM32L5xx_HAL_Driver\Src\stm32l5xx_hal_tim.c:286:16
	strb.w	r0, [r4, #60]
	.loc	7 300 5                         @ c:/Keil_v5\ARM\PACK\Keil\STM32L5xx_DFP\1.3.0\Drivers\STM32L5xx_HAL_Driver\Src\stm32l5xx_hal_tim.c:300:5
	mov	r0, r4
	bl	HAL_TIM_Base_MspInit
.Ltmp6:
.LBB0_3:
	@DEBUG_VALUE: HAL_TIM_Base_Init:htim <- $r4
	.loc	7 0 5 is_stmt 0                 @ c:/Keil_v5\ARM\PACK\Keil\STM32L5xx_DFP\1.3.0\Drivers\STM32L5xx_HAL_Driver\Src\stm32l5xx_hal_tim.c:0:5
	movs	r0, #2
	.loc	7 305 15 is_stmt 1              @ c:/Keil_v5\ARM\PACK\Keil\STM32L5xx_DFP\1.3.0\Drivers\STM32L5xx_HAL_Driver\Src\stm32l5xx_hal_tim.c:305:15
	strb.w	r0, [r4, #61]
	.loc	7 308 28                        @ c:/Keil_v5\ARM\PACK\Keil\STM32L5xx_DFP\1.3.0\Drivers\STM32L5xx_HAL_Driver\Src\stm32l5xx_hal_tim.c:308:28
	ldr	r0, [r4]
	.loc	7 308 45 is_stmt 0              @ c:/Keil_v5\ARM\PACK\Keil\STM32L5xx_DFP\1.3.0\Drivers\STM32L5xx_HAL_Driver\Src\stm32l5xx_hal_tim.c:308:45
	adds	r1, r4, #4
	.loc	7 308 3                         @ c:/Keil_v5\ARM\PACK\Keil\STM32L5xx_DFP\1.3.0\Drivers\STM32L5xx_HAL_Driver\Src\stm32l5xx_hal_tim.c:308:3
	bl	TIM_Base_SetConfig
	movs	r0, #1
	.loc	7 311 23 is_stmt 1              @ c:/Keil_v5\ARM\PACK\Keil\STM32L5xx_DFP\1.3.0\Drivers\STM32L5xx_HAL_Driver\Src\stm32l5xx_hal_tim.c:311:23
	strb.w	r0, [r4, #72]
.Ltmp7:
	.loc	7 314 3                         @ c:/Keil_v5\ARM\PACK\Keil\STM32L5xx_DFP\1.3.0\Drivers\STM32L5xx_HAL_Driver\Src\stm32l5xx_hal_tim.c:314:3
	strb.w	r0, [r4, #62]
	strb.w	r0, [r4, #63]
	strb.w	r0, [r4, #64]
	strb.w	r0, [r4, #65]
	strb.w	r0, [r4, #66]
	strb.w	r0, [r4, #67]
.Ltmp8:
	.loc	7 315 3                         @ c:/Keil_v5\ARM\PACK\Keil\STM32L5xx_DFP\1.3.0\Drivers\STM32L5xx_HAL_Driver\Src\stm32l5xx_hal_tim.c:315:3
	strb.w	r0, [r4, #68]
	strb.w	r0, [r4, #69]
	strb.w	r0, [r4, #70]
	strb.w	r0, [r4, #71]
.Ltmp9:
	.loc	7 318 15                        @ c:/Keil_v5\ARM\PACK\Keil\STM32L5xx_DFP\1.3.0\Drivers\STM32L5xx_HAL_Driver\Src\stm32l5xx_hal_tim.c:318:15
	strb.w	r0, [r4, #61]
	movs	r0, #0
	pop	{r4, pc}
.Ltmp10:
.Lfunc_end0:
	.size	HAL_TIM_Base_Init, .Lfunc_end0-HAL_TIM_Base_Init
	.cfi_endproc
	.cantunwind
	.fnend
                                        @ -- End function
	.section	.text.HAL_TIM_Base_MspInit,"ax",%progbits
	.hidden	HAL_TIM_Base_MspInit            @ -- Begin function HAL_TIM_Base_MspInit
	.weak	HAL_TIM_Base_MspInit
	.p2align	2
	.type	HAL_TIM_Base_MspInit,%function
	.code	16                              @ @HAL_TIM_Base_MspInit
	.thumb_func
HAL_TIM_Base_MspInit:
.Lfunc_begin1:
	.loc	7 372 0                         @ c:/Keil_v5\ARM\PACK\Keil\STM32L5xx_DFP\1.3.0\Drivers\STM32L5xx_HAL_Driver\Src\stm32l5xx_hal_tim.c:372:0
	.fnstart
	.cfi_startproc
@ %bb.0:
	@DEBUG_VALUE: HAL_TIM_Base_MspInit:htim <- $r0
	.loc	7 379 1 prologue_end            @ c:/Keil_v5\ARM\PACK\Keil\STM32L5xx_DFP\1.3.0\Drivers\STM32L5xx_HAL_Driver\Src\stm32l5xx_hal_tim.c:379:1
	bx	lr
.Ltmp11:
.Lfunc_end1:
	.size	HAL_TIM_Base_MspInit, .Lfunc_end1-HAL_TIM_Base_MspInit
	.cfi_endproc
	.cantunwind
	.fnend
                                        @ -- End function
	.section	.text.TIM_Base_SetConfig,"ax",%progbits
	.hidden	TIM_Base_SetConfig              @ -- Begin function TIM_Base_SetConfig
	.globl	TIM_Base_SetConfig
	.p2align	2
	.type	TIM_Base_SetConfig,%function
	.code	16                              @ @TIM_Base_SetConfig
	.thumb_func
TIM_Base_SetConfig:
.Lfunc_begin2:
	.loc	7 6698 0                        @ c:/Keil_v5\ARM\PACK\Keil\STM32L5xx_DFP\1.3.0\Drivers\STM32L5xx_HAL_Driver\Src\stm32l5xx_hal_tim.c:6698:0
	.fnstart
	.cfi_startproc
@ %bb.0:
	@DEBUG_VALUE: TIM_Base_SetConfig:TIMx <- $r0
	@DEBUG_VALUE: TIM_Base_SetConfig:TIMx <- $r0
	@DEBUG_VALUE: TIM_Base_SetConfig:Structure <- $r1
	.save	{r7, lr}
	push	{r7, lr}
	.cfi_def_cfa_offset 8
	.cfi_offset lr, -4
	.cfi_offset r7, -8
	movw	r3, #3071
.Ltmp12:
	.loc	7 6700 18 prologue_end          @ c:/Keil_v5\ARM\PACK\Keil\STM32L5xx_DFP\1.3.0\Drivers\STM32L5xx_HAL_Driver\Src\stm32l5xx_hal_tim.c:6700:18
	ldr	r2, [r0]
.Ltmp13:
	@DEBUG_VALUE: TIM_Base_SetConfig:tmpcr1 <- $r2
	.loc	7 0 18 is_stmt 0                @ c:/Keil_v5\ARM\PACK\Keil\STM32L5xx_DFP\1.3.0\Drivers\STM32L5xx_HAL_Driver\Src\stm32l5xx_hal_tim.c:0:18
	movt	r3, #16384
.Ltmp14:
	.loc	7 6703 7 is_stmt 1              @ c:/Keil_v5\ARM\PACK\Keil\STM32L5xx_DFP\1.3.0\Drivers\STM32L5xx_HAL_Driver\Src\stm32l5xx_hal_tim.c:6703:7
	cmp	r0, r3
	@DEBUG_VALUE: TIM_Base_SetConfig:Structure <- $r1
	bgt	.LBB2_9
.Ltmp15:
@ %bb.1:
	@DEBUG_VALUE: TIM_Base_SetConfig:tmpcr1 <- $r2
	@DEBUG_VALUE: TIM_Base_SetConfig:Structure <- $r1
	@DEBUG_VALUE: TIM_Base_SetConfig:TIMx <- $r0
	cmp.w	r0, #1073741824
	beq	.LBB2_12
.Ltmp16:
@ %bb.2:
	@DEBUG_VALUE: TIM_Base_SetConfig:tmpcr1 <- $r2
	@DEBUG_VALUE: TIM_Base_SetConfig:Structure <- $r1
	@DEBUG_VALUE: TIM_Base_SetConfig:TIMx <- $r0
	.loc	7 0 7 is_stmt 0                 @ c:/Keil_v5\ARM\PACK\Keil\STM32L5xx_DFP\1.3.0\Drivers\STM32L5xx_HAL_Driver\Src\stm32l5xx_hal_tim.c:0:7
	movw	r3, #1024
	movt	r3, #16384
	.loc	7 6703 7                        @ c:/Keil_v5\ARM\PACK\Keil\STM32L5xx_DFP\1.3.0\Drivers\STM32L5xx_HAL_Driver\Src\stm32l5xx_hal_tim.c:6703:7
	cmp	r0, r3
	beq	.LBB2_12
.Ltmp17:
@ %bb.3:
	@DEBUG_VALUE: TIM_Base_SetConfig:tmpcr1 <- $r2
	@DEBUG_VALUE: TIM_Base_SetConfig:Structure <- $r1
	@DEBUG_VALUE: TIM_Base_SetConfig:TIMx <- $r0
	.loc	7 0 7                           @ c:/Keil_v5\ARM\PACK\Keil\STM32L5xx_DFP\1.3.0\Drivers\STM32L5xx_HAL_Driver\Src\stm32l5xx_hal_tim.c:0:7
	movw	r3, #2048
	movt	r3, #16384
	.loc	7 6703 7                        @ c:/Keil_v5\ARM\PACK\Keil\STM32L5xx_DFP\1.3.0\Drivers\STM32L5xx_HAL_Driver\Src\stm32l5xx_hal_tim.c:6703:7
	cmp	r0, r3
	beq	.LBB2_12
.Ltmp18:
.LBB2_4:
	@DEBUG_VALUE: TIM_Base_SetConfig:tmpcr1 <- $r2
	@DEBUG_VALUE: TIM_Base_SetConfig:Structure <- $r1
	@DEBUG_VALUE: TIM_Base_SetConfig:TIMx <- $r0
	@DEBUG_VALUE: TIM_Base_SetConfig:tmpcr1 <- $r2
	.loc	7 0 7                           @ c:/Keil_v5\ARM\PACK\Keil\STM32L5xx_DFP\1.3.0\Drivers\STM32L5xx_HAL_Driver\Src\stm32l5xx_hal_tim.c:0:7
	movw	r3, #11263
	movt	r3, #16385
.Ltmp19:
	.loc	7 6710 7 is_stmt 1              @ c:/Keil_v5\ARM\PACK\Keil\STM32L5xx_DFP\1.3.0\Drivers\STM32L5xx_HAL_Driver\Src\stm32l5xx_hal_tim.c:6710:7
	cmp	r0, r3
	ble	.LBB2_13
.Ltmp20:
.LBB2_5:
	@DEBUG_VALUE: TIM_Base_SetConfig:tmpcr1 <- $r2
	@DEBUG_VALUE: TIM_Base_SetConfig:Structure <- $r1
	@DEBUG_VALUE: TIM_Base_SetConfig:TIMx <- $r0
	.loc	7 0 7 is_stmt 0                 @ c:/Keil_v5\ARM\PACK\Keil\STM32L5xx_DFP\1.3.0\Drivers\STM32L5xx_HAL_Driver\Src\stm32l5xx_hal_tim.c:0:7
	movw	r3, #16383
	movt	r3, #16385
	.loc	7 6710 7                        @ c:/Keil_v5\ARM\PACK\Keil\STM32L5xx_DFP\1.3.0\Drivers\STM32L5xx_HAL_Driver\Src\stm32l5xx_hal_tim.c:6710:7
	cmp	r0, r3
	ble	.LBB2_16
.Ltmp21:
@ %bb.6:
	@DEBUG_VALUE: TIM_Base_SetConfig:tmpcr1 <- $r2
	@DEBUG_VALUE: TIM_Base_SetConfig:Structure <- $r1
	@DEBUG_VALUE: TIM_Base_SetConfig:TIMx <- $r0
	.loc	7 0 7                           @ c:/Keil_v5\ARM\PACK\Keil\STM32L5xx_DFP\1.3.0\Drivers\STM32L5xx_HAL_Driver\Src\stm32l5xx_hal_tim.c:0:7
	movw	r3, #16384
	movt	r3, #16385
	.loc	7 6710 7                        @ c:/Keil_v5\ARM\PACK\Keil\STM32L5xx_DFP\1.3.0\Drivers\STM32L5xx_HAL_Driver\Src\stm32l5xx_hal_tim.c:6710:7
	cmp	r0, r3
	beq	.LBB2_20
.Ltmp22:
@ %bb.7:
	@DEBUG_VALUE: TIM_Base_SetConfig:tmpcr1 <- $r2
	@DEBUG_VALUE: TIM_Base_SetConfig:Structure <- $r1
	@DEBUG_VALUE: TIM_Base_SetConfig:TIMx <- $r0
	.loc	7 0 7                           @ c:/Keil_v5\ARM\PACK\Keil\STM32L5xx_DFP\1.3.0\Drivers\STM32L5xx_HAL_Driver\Src\stm32l5xx_hal_tim.c:0:7
	movw	r3, #18432
	movt	r3, #16385
	.loc	7 6710 7                        @ c:/Keil_v5\ARM\PACK\Keil\STM32L5xx_DFP\1.3.0\Drivers\STM32L5xx_HAL_Driver\Src\stm32l5xx_hal_tim.c:6710:7
	cmp	r0, r3
	beq	.LBB2_20
.Ltmp23:
@ %bb.8:
	@DEBUG_VALUE: TIM_Base_SetConfig:tmpcr1 <- $r2
	@DEBUG_VALUE: TIM_Base_SetConfig:Structure <- $r1
	@DEBUG_VALUE: TIM_Base_SetConfig:TIMx <- $r0
	.loc	7 0 7                           @ c:/Keil_v5\ARM\PACK\Keil\STM32L5xx_DFP\1.3.0\Drivers\STM32L5xx_HAL_Driver\Src\stm32l5xx_hal_tim.c:0:7
	movw	r3, #17408
	movt	r3, #16385
	.loc	7 6710 7                        @ c:/Keil_v5\ARM\PACK\Keil\STM32L5xx_DFP\1.3.0\Drivers\STM32L5xx_HAL_Driver\Src\stm32l5xx_hal_tim.c:6710:7
	cmp	r0, r3
	beq	.LBB2_20
	b	.LBB2_21
.Ltmp24:
	.p2align	2
.LBB2_9:
	@DEBUG_VALUE: TIM_Base_SetConfig:tmpcr1 <- $r2
	@DEBUG_VALUE: TIM_Base_SetConfig:Structure <- $r1
	@DEBUG_VALUE: TIM_Base_SetConfig:TIMx <- $r0
	.loc	7 0 7                           @ c:/Keil_v5\ARM\PACK\Keil\STM32L5xx_DFP\1.3.0\Drivers\STM32L5xx_HAL_Driver\Src\stm32l5xx_hal_tim.c:0:7
	movw	r3, #3072
	movt	r3, #16384
.Ltmp25:
	.loc	7 6703 7 is_stmt 1              @ c:/Keil_v5\ARM\PACK\Keil\STM32L5xx_DFP\1.3.0\Drivers\STM32L5xx_HAL_Driver\Src\stm32l5xx_hal_tim.c:6703:7
	cmp	r0, r3
	beq	.LBB2_12
.Ltmp26:
@ %bb.10:
	@DEBUG_VALUE: TIM_Base_SetConfig:tmpcr1 <- $r2
	@DEBUG_VALUE: TIM_Base_SetConfig:Structure <- $r1
	@DEBUG_VALUE: TIM_Base_SetConfig:TIMx <- $r0
	.loc	7 0 7 is_stmt 0                 @ c:/Keil_v5\ARM\PACK\Keil\STM32L5xx_DFP\1.3.0\Drivers\STM32L5xx_HAL_Driver\Src\stm32l5xx_hal_tim.c:0:7
	movw	r3, #13312
	movt	r3, #16385
	.loc	7 6703 7                        @ c:/Keil_v5\ARM\PACK\Keil\STM32L5xx_DFP\1.3.0\Drivers\STM32L5xx_HAL_Driver\Src\stm32l5xx_hal_tim.c:6703:7
	cmp	r0, r3
	beq	.LBB2_12
.Ltmp27:
@ %bb.11:
	@DEBUG_VALUE: TIM_Base_SetConfig:tmpcr1 <- $r2
	@DEBUG_VALUE: TIM_Base_SetConfig:Structure <- $r1
	@DEBUG_VALUE: TIM_Base_SetConfig:TIMx <- $r0
	.loc	7 0 7                           @ c:/Keil_v5\ARM\PACK\Keil\STM32L5xx_DFP\1.3.0\Drivers\STM32L5xx_HAL_Driver\Src\stm32l5xx_hal_tim.c:0:7
	movw	r3, #11264
	movt	r3, #16385
	.loc	7 6703 7                        @ c:/Keil_v5\ARM\PACK\Keil\STM32L5xx_DFP\1.3.0\Drivers\STM32L5xx_HAL_Driver\Src\stm32l5xx_hal_tim.c:6703:7
	cmp	r0, r3
	bne	.LBB2_4
.Ltmp28:
.LBB2_12:
	@DEBUG_VALUE: TIM_Base_SetConfig:tmpcr1 <- $r2
	@DEBUG_VALUE: TIM_Base_SetConfig:Structure <- $r1
	@DEBUG_VALUE: TIM_Base_SetConfig:TIMx <- $r0
	.loc	7 6707 26 is_stmt 1             @ c:/Keil_v5\ARM\PACK\Keil\STM32L5xx_DFP\1.3.0\Drivers\STM32L5xx_HAL_Driver\Src\stm32l5xx_hal_tim.c:6707:26
	ldr	r3, [r1, #4]
	.loc	7 6706 12                       @ c:/Keil_v5\ARM\PACK\Keil\STM32L5xx_DFP\1.3.0\Drivers\STM32L5xx_HAL_Driver\Src\stm32l5xx_hal_tim.c:6706:12
	bic	r2, r2, #112
.Ltmp29:
	@DEBUG_VALUE: TIM_Base_SetConfig:tmpcr1 <- $r2
	.loc	7 6707 12                       @ c:/Keil_v5\ARM\PACK\Keil\STM32L5xx_DFP\1.3.0\Drivers\STM32L5xx_HAL_Driver\Src\stm32l5xx_hal_tim.c:6707:12
	orrs	r2, r3
.Ltmp30:
	@DEBUG_VALUE: TIM_Base_SetConfig:tmpcr1 <- $r2
	@DEBUG_VALUE: TIM_Base_SetConfig:tmpcr1 <- $r2
	.loc	7 0 12 is_stmt 0                @ c:/Keil_v5\ARM\PACK\Keil\STM32L5xx_DFP\1.3.0\Drivers\STM32L5xx_HAL_Driver\Src\stm32l5xx_hal_tim.c:0:12
	movw	r3, #11263
	movt	r3, #16385
.Ltmp31:
	.loc	7 6710 7 is_stmt 1              @ c:/Keil_v5\ARM\PACK\Keil\STM32L5xx_DFP\1.3.0\Drivers\STM32L5xx_HAL_Driver\Src\stm32l5xx_hal_tim.c:6710:7
	cmp	r0, r3
	bgt	.LBB2_5
.Ltmp32:
.LBB2_13:
	@DEBUG_VALUE: TIM_Base_SetConfig:tmpcr1 <- $r2
	@DEBUG_VALUE: TIM_Base_SetConfig:Structure <- $r1
	@DEBUG_VALUE: TIM_Base_SetConfig:TIMx <- $r0
	.loc	7 0 7 is_stmt 0                 @ c:/Keil_v5\ARM\PACK\Keil\STM32L5xx_DFP\1.3.0\Drivers\STM32L5xx_HAL_Driver\Src\stm32l5xx_hal_tim.c:0:7
	movw	r3, #2047
	movt	r3, #16384
	.loc	7 6710 7                        @ c:/Keil_v5\ARM\PACK\Keil\STM32L5xx_DFP\1.3.0\Drivers\STM32L5xx_HAL_Driver\Src\stm32l5xx_hal_tim.c:6710:7
	cmp	r0, r3
	bgt	.LBB2_18
.Ltmp33:
@ %bb.14:
	@DEBUG_VALUE: TIM_Base_SetConfig:tmpcr1 <- $r2
	@DEBUG_VALUE: TIM_Base_SetConfig:Structure <- $r1
	@DEBUG_VALUE: TIM_Base_SetConfig:TIMx <- $r0
	cmp.w	r0, #1073741824
	beq	.LBB2_20
.Ltmp34:
@ %bb.15:
	@DEBUG_VALUE: TIM_Base_SetConfig:tmpcr1 <- $r2
	@DEBUG_VALUE: TIM_Base_SetConfig:Structure <- $r1
	@DEBUG_VALUE: TIM_Base_SetConfig:TIMx <- $r0
	.loc	7 0 7                           @ c:/Keil_v5\ARM\PACK\Keil\STM32L5xx_DFP\1.3.0\Drivers\STM32L5xx_HAL_Driver\Src\stm32l5xx_hal_tim.c:0:7
	movw	r3, #1024
	movt	r3, #16384
	.loc	7 6710 7                        @ c:/Keil_v5\ARM\PACK\Keil\STM32L5xx_DFP\1.3.0\Drivers\STM32L5xx_HAL_Driver\Src\stm32l5xx_hal_tim.c:6710:7
	cmp	r0, r3
	beq	.LBB2_20
	b	.LBB2_21
.Ltmp35:
	.p2align	2
.LBB2_16:
	@DEBUG_VALUE: TIM_Base_SetConfig:tmpcr1 <- $r2
	@DEBUG_VALUE: TIM_Base_SetConfig:Structure <- $r1
	@DEBUG_VALUE: TIM_Base_SetConfig:TIMx <- $r0
	.loc	7 0 7                           @ c:/Keil_v5\ARM\PACK\Keil\STM32L5xx_DFP\1.3.0\Drivers\STM32L5xx_HAL_Driver\Src\stm32l5xx_hal_tim.c:0:7
	movw	r3, #11264
	movt	r3, #16385
	.loc	7 6710 7                        @ c:/Keil_v5\ARM\PACK\Keil\STM32L5xx_DFP\1.3.0\Drivers\STM32L5xx_HAL_Driver\Src\stm32l5xx_hal_tim.c:6710:7
	cmp	r0, r3
	beq	.LBB2_20
.Ltmp36:
@ %bb.17:
	@DEBUG_VALUE: TIM_Base_SetConfig:tmpcr1 <- $r2
	@DEBUG_VALUE: TIM_Base_SetConfig:Structure <- $r1
	@DEBUG_VALUE: TIM_Base_SetConfig:TIMx <- $r0
	.loc	7 0 7                           @ c:/Keil_v5\ARM\PACK\Keil\STM32L5xx_DFP\1.3.0\Drivers\STM32L5xx_HAL_Driver\Src\stm32l5xx_hal_tim.c:0:7
	movw	r3, #13312
	movt	r3, #16385
	.loc	7 6710 7                        @ c:/Keil_v5\ARM\PACK\Keil\STM32L5xx_DFP\1.3.0\Drivers\STM32L5xx_HAL_Driver\Src\stm32l5xx_hal_tim.c:6710:7
	cmp	r0, r3
	beq	.LBB2_20
	b	.LBB2_21
.Ltmp37:
	.p2align	2
.LBB2_18:
	@DEBUG_VALUE: TIM_Base_SetConfig:tmpcr1 <- $r2
	@DEBUG_VALUE: TIM_Base_SetConfig:Structure <- $r1
	@DEBUG_VALUE: TIM_Base_SetConfig:TIMx <- $r0
	.loc	7 0 7                           @ c:/Keil_v5\ARM\PACK\Keil\STM32L5xx_DFP\1.3.0\Drivers\STM32L5xx_HAL_Driver\Src\stm32l5xx_hal_tim.c:0:7
	movw	r3, #2048
	movt	r3, #16384
	.loc	7 6710 7                        @ c:/Keil_v5\ARM\PACK\Keil\STM32L5xx_DFP\1.3.0\Drivers\STM32L5xx_HAL_Driver\Src\stm32l5xx_hal_tim.c:6710:7
	cmp	r0, r3
	beq	.LBB2_20
.Ltmp38:
@ %bb.19:
	@DEBUG_VALUE: TIM_Base_SetConfig:tmpcr1 <- $r2
	@DEBUG_VALUE: TIM_Base_SetConfig:Structure <- $r1
	@DEBUG_VALUE: TIM_Base_SetConfig:TIMx <- $r0
	.loc	7 0 7                           @ c:/Keil_v5\ARM\PACK\Keil\STM32L5xx_DFP\1.3.0\Drivers\STM32L5xx_HAL_Driver\Src\stm32l5xx_hal_tim.c:0:7
	movw	r3, #3072
	movt	r3, #16384
	.loc	7 6710 7                        @ c:/Keil_v5\ARM\PACK\Keil\STM32L5xx_DFP\1.3.0\Drivers\STM32L5xx_HAL_Driver\Src\stm32l5xx_hal_tim.c:6710:7
	cmp	r0, r3
	bne	.LBB2_21
.Ltmp39:
.LBB2_20:
	@DEBUG_VALUE: TIM_Base_SetConfig:tmpcr1 <- $r2
	@DEBUG_VALUE: TIM_Base_SetConfig:Structure <- $r1
	@DEBUG_VALUE: TIM_Base_SetConfig:TIMx <- $r0
	.loc	7 6714 36 is_stmt 1             @ c:/Keil_v5\ARM\PACK\Keil\STM32L5xx_DFP\1.3.0\Drivers\STM32L5xx_HAL_Driver\Src\stm32l5xx_hal_tim.c:6714:36
	ldr	r3, [r1, #12]
	.loc	7 6713 12                       @ c:/Keil_v5\ARM\PACK\Keil\STM32L5xx_DFP\1.3.0\Drivers\STM32L5xx_HAL_Driver\Src\stm32l5xx_hal_tim.c:6713:12
	bic	r2, r2, #768
.Ltmp40:
	@DEBUG_VALUE: TIM_Base_SetConfig:tmpcr1 <- $r2
	.loc	7 6714 12                       @ c:/Keil_v5\ARM\PACK\Keil\STM32L5xx_DFP\1.3.0\Drivers\STM32L5xx_HAL_Driver\Src\stm32l5xx_hal_tim.c:6714:12
	orrs	r2, r3
.Ltmp41:
	@DEBUG_VALUE: TIM_Base_SetConfig:tmpcr1 <- $r2
.LBB2_21:
	@DEBUG_VALUE: TIM_Base_SetConfig:tmpcr1 <- $r2
	@DEBUG_VALUE: TIM_Base_SetConfig:Structure <- $r1
	@DEBUG_VALUE: TIM_Base_SetConfig:TIMx <- $r0
	@DEBUG_VALUE: TIM_Base_SetConfig:tmpcr1 <- $r2
	.loc	7 6718 3                        @ c:/Keil_v5\ARM\PACK\Keil\STM32L5xx_DFP\1.3.0\Drivers\STM32L5xx_HAL_Driver\Src\stm32l5xx_hal_tim.c:6718:3
	ldr	r3, [r1, #20]
	bic	lr, r2, #128
	.loc	7 6723 36                       @ c:/Keil_v5\ARM\PACK\Keil\STM32L5xx_DFP\1.3.0\Drivers\STM32L5xx_HAL_Driver\Src\stm32l5xx_hal_tim.c:6723:36
	ldr	r2, [r1, #8]
.Ltmp42:
	.loc	7 6718 3                        @ c:/Keil_v5\ARM\PACK\Keil\STM32L5xx_DFP\1.3.0\Drivers\STM32L5xx_HAL_Driver\Src\stm32l5xx_hal_tim.c:6718:3
	orr.w	r3, r3, lr
.Ltmp43:
	@DEBUG_VALUE: TIM_Base_SetConfig:tmpcr1 <- $r3
	.loc	7 6726 26                       @ c:/Keil_v5\ARM\PACK\Keil\STM32L5xx_DFP\1.3.0\Drivers\STM32L5xx_HAL_Driver\Src\stm32l5xx_hal_tim.c:6726:26
	ldr.w	r12, [r1]
	.loc	7 6720 13                       @ c:/Keil_v5\ARM\PACK\Keil\STM32L5xx_DFP\1.3.0\Drivers\STM32L5xx_HAL_Driver\Src\stm32l5xx_hal_tim.c:6720:13
	str	r3, [r0]
	.loc	7 6723 13                       @ c:/Keil_v5\ARM\PACK\Keil\STM32L5xx_DFP\1.3.0\Drivers\STM32L5xx_HAL_Driver\Src\stm32l5xx_hal_tim.c:6723:13
	str	r2, [r0, #44]
.Ltmp44:
	.loc	7 6728 7                        @ c:/Keil_v5\ARM\PACK\Keil\STM32L5xx_DFP\1.3.0\Drivers\STM32L5xx_HAL_Driver\Src\stm32l5xx_hal_tim.c:6728:7
	sub.w	r2, r0, #1073741824
	sub.w	r2, r2, #76800
	ror.w	r2, r2, #10
	cmp	r2, #7
.Ltmp45:
	.loc	7 6726 13                       @ c:/Keil_v5\ARM\PACK\Keil\STM32L5xx_DFP\1.3.0\Drivers\STM32L5xx_HAL_Driver\Src\stm32l5xx_hal_tim.c:6726:13
	str.w	r12, [r0, #40]
.Ltmp46:
	.loc	7 6728 7                        @ c:/Keil_v5\ARM\PACK\Keil\STM32L5xx_DFP\1.3.0\Drivers\STM32L5xx_HAL_Driver\Src\stm32l5xx_hal_tim.c:6728:7
	bhi	.LBB2_23
.Ltmp47:
@ %bb.22:
	@DEBUG_VALUE: TIM_Base_SetConfig:tmpcr1 <- $r3
	@DEBUG_VALUE: TIM_Base_SetConfig:Structure <- $r1
	@DEBUG_VALUE: TIM_Base_SetConfig:TIMx <- $r0
	.loc	7 0 7 is_stmt 0                 @ c:/Keil_v5\ARM\PACK\Keil\STM32L5xx_DFP\1.3.0\Drivers\STM32L5xx_HAL_Driver\Src\stm32l5xx_hal_tim.c:0:7
	movs	r3, #1
.Ltmp48:
	lsl.w	r2, r3, r2
	tst.w	r2, #229
.Ltmp49:
	.loc	7 6731 28 is_stmt 1             @ c:/Keil_v5\ARM\PACK\Keil\STM32L5xx_DFP\1.3.0\Drivers\STM32L5xx_HAL_Driver\Src\stm32l5xx_hal_tim.c:6731:28
	itt	ne
	ldrne	r1, [r1, #16]
.Ltmp50:
	@DEBUG_VALUE: TIM_Base_SetConfig:Structure <- [DW_OP_LLVM_entry_value 1] $r1
	.loc	7 6731 15 is_stmt 0             @ c:/Keil_v5\ARM\PACK\Keil\STM32L5xx_DFP\1.3.0\Drivers\STM32L5xx_HAL_Driver\Src\stm32l5xx_hal_tim.c:6731:15
	strne	r1, [r0, #48]
.Ltmp51:
.LBB2_23:
	@DEBUG_VALUE: TIM_Base_SetConfig:TIMx <- $r0
	.loc	7 0 15                          @ c:/Keil_v5\ARM\PACK\Keil\STM32L5xx_DFP\1.3.0\Drivers\STM32L5xx_HAL_Driver\Src\stm32l5xx_hal_tim.c:0:15
	movs	r1, #1
	.loc	7 6736 13 is_stmt 1             @ c:/Keil_v5\ARM\PACK\Keil\STM32L5xx_DFP\1.3.0\Drivers\STM32L5xx_HAL_Driver\Src\stm32l5xx_hal_tim.c:6736:13
	str	r1, [r0, #20]
	.loc	7 6737 1                        @ c:/Keil_v5\ARM\PACK\Keil\STM32L5xx_DFP\1.3.0\Drivers\STM32L5xx_HAL_Driver\Src\stm32l5xx_hal_tim.c:6737:1
	pop	{r7, pc}
.Ltmp52:
.Lfunc_end2:
	.size	TIM_Base_SetConfig, .Lfunc_end2-TIM_Base_SetConfig
	.cfi_endproc
	.cantunwind
	.fnend
                                        @ -- End function
	.section	.text.HAL_TIM_Base_DeInit,"ax",%progbits
	.hidden	HAL_TIM_Base_DeInit             @ -- Begin function HAL_TIM_Base_DeInit
	.globl	HAL_TIM_Base_DeInit
	.p2align	2
	.type	HAL_TIM_Base_DeInit,%function
	.code	16                              @ @HAL_TIM_Base_DeInit
	.thumb_func
HAL_TIM_Base_DeInit:
.Lfunc_begin3:
	.loc	7 329 0                         @ c:/Keil_v5\ARM\PACK\Keil\STM32L5xx_DFP\1.3.0\Drivers\STM32L5xx_HAL_Driver\Src\stm32l5xx_hal_tim.c:329:0
	.fnstart
	.cfi_startproc
@ %bb.0:
	@DEBUG_VALUE: HAL_TIM_Base_DeInit:htim <- $r0
	.save	{r4, lr}
	push	{r4, lr}
	.cfi_def_cfa_offset 8
	.cfi_offset lr, -4
	.cfi_offset r4, -8
	mov	r4, r0
.Ltmp53:
	@DEBUG_VALUE: HAL_TIM_Base_DeInit:htim <- $r4
	movs	r0, #2
	@DEBUG_VALUE: HAL_TIM_Base_DeInit:htim <- $r4
.Ltmp54:
	.loc	7 333 15 prologue_end           @ c:/Keil_v5\ARM\PACK\Keil\STM32L5xx_DFP\1.3.0\Drivers\STM32L5xx_HAL_Driver\Src\stm32l5xx_hal_tim.c:333:15
	strb.w	r0, [r4, #61]
.Ltmp55:
	.loc	7 336 3                         @ c:/Keil_v5\ARM\PACK\Keil\STM32L5xx_DFP\1.3.0\Drivers\STM32L5xx_HAL_Driver\Src\stm32l5xx_hal_tim.c:336:3
	ldr	r0, [r4]
	movw	r2, #4369
	ldr	r1, [r0, #32]
.Ltmp56:
	.loc	7 336 3 is_stmt 0               @ c:/Keil_v5\ARM\PACK\Keil\STM32L5xx_DFP\1.3.0\Drivers\STM32L5xx_HAL_Driver\Src\stm32l5xx_hal_tim.c:336:3
	tst	r1, r2
	bne	.LBB3_3
.Ltmp57:
@ %bb.1:
	@DEBUG_VALUE: HAL_TIM_Base_DeInit:htim <- $r4
	.loc	7 336 3                         @ c:/Keil_v5\ARM\PACK\Keil\STM32L5xx_DFP\1.3.0\Drivers\STM32L5xx_HAL_Driver\Src\stm32l5xx_hal_tim.c:336:3
	ldr	r1, [r0, #32]
	movw	r2, #1092
.Ltmp58:
	.loc	7 336 3                         @ c:/Keil_v5\ARM\PACK\Keil\STM32L5xx_DFP\1.3.0\Drivers\STM32L5xx_HAL_Driver\Src\stm32l5xx_hal_tim.c:336:3
	tst	r1, r2
	bne	.LBB3_3
.Ltmp59:
@ %bb.2:
	@DEBUG_VALUE: HAL_TIM_Base_DeInit:htim <- $r4
	.loc	7 336 3                         @ c:/Keil_v5\ARM\PACK\Keil\STM32L5xx_DFP\1.3.0\Drivers\STM32L5xx_HAL_Driver\Src\stm32l5xx_hal_tim.c:336:3
	ldr	r1, [r0]
	bic	r1, r1, #1
	str	r1, [r0]
.Ltmp60:
.LBB3_3:
	@DEBUG_VALUE: HAL_TIM_Base_DeInit:htim <- $r4
	.loc	7 347 3 is_stmt 1               @ c:/Keil_v5\ARM\PACK\Keil\STM32L5xx_DFP\1.3.0\Drivers\STM32L5xx_HAL_Driver\Src\stm32l5xx_hal_tim.c:347:3
	mov	r0, r4
	bl	HAL_TIM_Base_MspDeInit
	movs	r1, #0
	.loc	7 363 3                         @ c:/Keil_v5\ARM\PACK\Keil\STM32L5xx_DFP\1.3.0\Drivers\STM32L5xx_HAL_Driver\Src\stm32l5xx_hal_tim.c:363:3
	movs	r0, #0
	.loc	7 351 23                        @ c:/Keil_v5\ARM\PACK\Keil\STM32L5xx_DFP\1.3.0\Drivers\STM32L5xx_HAL_Driver\Src\stm32l5xx_hal_tim.c:351:23
	strb.w	r1, [r4, #72]
.Ltmp61:
	.loc	7 354 3                         @ c:/Keil_v5\ARM\PACK\Keil\STM32L5xx_DFP\1.3.0\Drivers\STM32L5xx_HAL_Driver\Src\stm32l5xx_hal_tim.c:354:3
	strb.w	r1, [r4, #62]
	strb.w	r1, [r4, #63]
	strb.w	r1, [r4, #64]
	strb.w	r1, [r4, #65]
	strb.w	r1, [r4, #66]
	strb.w	r1, [r4, #67]
.Ltmp62:
	.loc	7 355 3                         @ c:/Keil_v5\ARM\PACK\Keil\STM32L5xx_DFP\1.3.0\Drivers\STM32L5xx_HAL_Driver\Src\stm32l5xx_hal_tim.c:355:3
	strb.w	r1, [r4, #68]
	strb.w	r1, [r4, #69]
	strb.w	r1, [r4, #70]
	strb.w	r1, [r4, #71]
.Ltmp63:
	.loc	7 358 15                        @ c:/Keil_v5\ARM\PACK\Keil\STM32L5xx_DFP\1.3.0\Drivers\STM32L5xx_HAL_Driver\Src\stm32l5xx_hal_tim.c:358:15
	strb.w	r1, [r4, #61]
.Ltmp64:
	.loc	7 361 3                         @ c:/Keil_v5\ARM\PACK\Keil\STM32L5xx_DFP\1.3.0\Drivers\STM32L5xx_HAL_Driver\Src\stm32l5xx_hal_tim.c:361:3
	strb.w	r1, [r4, #60]
.Ltmp65:
	.loc	7 363 3                         @ c:/Keil_v5\ARM\PACK\Keil\STM32L5xx_DFP\1.3.0\Drivers\STM32L5xx_HAL_Driver\Src\stm32l5xx_hal_tim.c:363:3
	pop	{r4, pc}
.Ltmp66:
.Lfunc_end3:
	.size	HAL_TIM_Base_DeInit, .Lfunc_end3-HAL_TIM_Base_DeInit
	.cfi_endproc
	.cantunwind
	.fnend
                                        @ -- End function
	.section	.text.HAL_TIM_Base_MspDeInit,"ax",%progbits
	.hidden	HAL_TIM_Base_MspDeInit          @ -- Begin function HAL_TIM_Base_MspDeInit
	.weak	HAL_TIM_Base_MspDeInit
	.p2align	2
	.type	HAL_TIM_Base_MspDeInit,%function
	.code	16                              @ @HAL_TIM_Base_MspDeInit
	.thumb_func
HAL_TIM_Base_MspDeInit:
.Lfunc_begin4:
	.loc	7 387 0                         @ c:/Keil_v5\ARM\PACK\Keil\STM32L5xx_DFP\1.3.0\Drivers\STM32L5xx_HAL_Driver\Src\stm32l5xx_hal_tim.c:387:0
	.fnstart
	.cfi_startproc
@ %bb.0:
	@DEBUG_VALUE: HAL_TIM_Base_MspDeInit:htim <- $r0
	.loc	7 394 1 prologue_end            @ c:/Keil_v5\ARM\PACK\Keil\STM32L5xx_DFP\1.3.0\Drivers\STM32L5xx_HAL_Driver\Src\stm32l5xx_hal_tim.c:394:1
	bx	lr
.Ltmp67:
.Lfunc_end4:
	.size	HAL_TIM_Base_MspDeInit, .Lfunc_end4-HAL_TIM_Base_MspDeInit
	.cfi_endproc
	.cantunwind
	.fnend
                                        @ -- End function
	.section	.text.HAL_TIM_Base_Start,"ax",%progbits
	.hidden	HAL_TIM_Base_Start              @ -- Begin function HAL_TIM_Base_Start
	.globl	HAL_TIM_Base_Start
	.p2align	2
	.type	HAL_TIM_Base_Start,%function
	.code	16                              @ @HAL_TIM_Base_Start
	.thumb_func
HAL_TIM_Base_Start:
.Lfunc_begin5:
	.loc	7 403 0                         @ c:/Keil_v5\ARM\PACK\Keil\STM32L5xx_DFP\1.3.0\Drivers\STM32L5xx_HAL_Driver\Src\stm32l5xx_hal_tim.c:403:0
	.fnstart
	.cfi_startproc
@ %bb.0:
	@DEBUG_VALUE: HAL_TIM_Base_Start:htim <- $r0
	@DEBUG_VALUE: HAL_TIM_Base_Start:htim <- $r0
	.loc	7 410 13 prologue_end           @ c:/Keil_v5\ARM\PACK\Keil\STM32L5xx_DFP\1.3.0\Drivers\STM32L5xx_HAL_Driver\Src\stm32l5xx_hal_tim.c:410:13
	ldrb.w	r1, [r0, #61]
.Ltmp68:
	.loc	7 410 7 is_stmt 0               @ c:/Keil_v5\ARM\PACK\Keil\STM32L5xx_DFP\1.3.0\Drivers\STM32L5xx_HAL_Driver\Src\stm32l5xx_hal_tim.c:410:7
	cmp	r1, #1
	itt	ne
	movne	r0, #1
.Ltmp69:
	@DEBUG_VALUE: HAL_TIM_Base_Start:htim <- [DW_OP_LLVM_entry_value 1] $r0
	.loc	7 434 1 is_stmt 1               @ c:/Keil_v5\ARM\PACK\Keil\STM32L5xx_DFP\1.3.0\Drivers\STM32L5xx_HAL_Driver\Src\stm32l5xx_hal_tim.c:434:1
	bxne	lr
.Ltmp70:
.LBB5_1:
	@DEBUG_VALUE: HAL_TIM_Base_Start:htim <- [DW_OP_LLVM_entry_value 1] $r0
	.loc	7 0 1 is_stmt 0                 @ c:/Keil_v5\ARM\PACK\Keil\STM32L5xx_DFP\1.3.0\Drivers\STM32L5xx_HAL_Driver\Src\stm32l5xx_hal_tim.c:0:1
	movs	r1, #2
	.loc	7 416 15 is_stmt 1              @ c:/Keil_v5\ARM\PACK\Keil\STM32L5xx_DFP\1.3.0\Drivers\STM32L5xx_HAL_Driver\Src\stm32l5xx_hal_tim.c:416:15
	strb.w	r1, [r0, #61]
.Ltmp71:
	.loc	7 419 7                         @ c:/Keil_v5\ARM\PACK\Keil\STM32L5xx_DFP\1.3.0\Drivers\STM32L5xx_HAL_Driver\Src\stm32l5xx_hal_tim.c:419:7
	ldr	r1, [r0]
	movw	r0, #3071
	movt	r0, #16384
	cmp	r1, r0
	ble	.LBB5_5
.Ltmp72:
@ %bb.2:
	@DEBUG_VALUE: HAL_TIM_Base_Start:htim <- [DW_OP_LLVM_entry_value 1] $r0
	.loc	7 0 7 is_stmt 0                 @ c:/Keil_v5\ARM\PACK\Keil\STM32L5xx_DFP\1.3.0\Drivers\STM32L5xx_HAL_Driver\Src\stm32l5xx_hal_tim.c:0:7
	movw	r0, #13311
	movt	r0, #16385
	.loc	7 419 7                         @ c:/Keil_v5\ARM\PACK\Keil\STM32L5xx_DFP\1.3.0\Drivers\STM32L5xx_HAL_Driver\Src\stm32l5xx_hal_tim.c:419:7
	cmp	r1, r0
	bgt	.LBB5_8
.Ltmp73:
@ %bb.3:
	@DEBUG_VALUE: HAL_TIM_Base_Start:htim <- [DW_OP_LLVM_entry_value 1] $r0
	.loc	7 0 7                           @ c:/Keil_v5\ARM\PACK\Keil\STM32L5xx_DFP\1.3.0\Drivers\STM32L5xx_HAL_Driver\Src\stm32l5xx_hal_tim.c:0:7
	movw	r0, #3072
	movt	r0, #16384
	.loc	7 419 7                         @ c:/Keil_v5\ARM\PACK\Keil\STM32L5xx_DFP\1.3.0\Drivers\STM32L5xx_HAL_Driver\Src\stm32l5xx_hal_tim.c:419:7
	cmp	r1, r0
	beq	.LBB5_10
.Ltmp74:
@ %bb.4:
	@DEBUG_VALUE: HAL_TIM_Base_Start:htim <- [DW_OP_LLVM_entry_value 1] $r0
	.loc	7 0 7                           @ c:/Keil_v5\ARM\PACK\Keil\STM32L5xx_DFP\1.3.0\Drivers\STM32L5xx_HAL_Driver\Src\stm32l5xx_hal_tim.c:0:7
	movw	r0, #11264
	movt	r0, #16385
	.loc	7 419 7                         @ c:/Keil_v5\ARM\PACK\Keil\STM32L5xx_DFP\1.3.0\Drivers\STM32L5xx_HAL_Driver\Src\stm32l5xx_hal_tim.c:419:7
	cmp	r1, r0
	beq	.LBB5_10
	b	.LBB5_12
.Ltmp75:
	.p2align	2
.LBB5_5:
	@DEBUG_VALUE: HAL_TIM_Base_Start:htim <- [DW_OP_LLVM_entry_value 1] $r0
	cmp.w	r1, #1073741824
	beq	.LBB5_10
.Ltmp76:
@ %bb.6:
	@DEBUG_VALUE: HAL_TIM_Base_Start:htim <- [DW_OP_LLVM_entry_value 1] $r0
	.loc	7 0 7                           @ c:/Keil_v5\ARM\PACK\Keil\STM32L5xx_DFP\1.3.0\Drivers\STM32L5xx_HAL_Driver\Src\stm32l5xx_hal_tim.c:0:7
	movw	r0, #1024
	movt	r0, #16384
	.loc	7 419 7                         @ c:/Keil_v5\ARM\PACK\Keil\STM32L5xx_DFP\1.3.0\Drivers\STM32L5xx_HAL_Driver\Src\stm32l5xx_hal_tim.c:419:7
	cmp	r1, r0
	beq	.LBB5_10
.Ltmp77:
@ %bb.7:
	@DEBUG_VALUE: HAL_TIM_Base_Start:htim <- [DW_OP_LLVM_entry_value 1] $r0
	.loc	7 0 7                           @ c:/Keil_v5\ARM\PACK\Keil\STM32L5xx_DFP\1.3.0\Drivers\STM32L5xx_HAL_Driver\Src\stm32l5xx_hal_tim.c:0:7
	movw	r0, #2048
	movt	r0, #16384
	.loc	7 419 7                         @ c:/Keil_v5\ARM\PACK\Keil\STM32L5xx_DFP\1.3.0\Drivers\STM32L5xx_HAL_Driver\Src\stm32l5xx_hal_tim.c:419:7
	cmp	r1, r0
	beq	.LBB5_10
	b	.LBB5_12
.Ltmp78:
	.p2align	2
.LBB5_8:
	@DEBUG_VALUE: HAL_TIM_Base_Start:htim <- [DW_OP_LLVM_entry_value 1] $r0
	.loc	7 0 7                           @ c:/Keil_v5\ARM\PACK\Keil\STM32L5xx_DFP\1.3.0\Drivers\STM32L5xx_HAL_Driver\Src\stm32l5xx_hal_tim.c:0:7
	movw	r0, #16384
	movt	r0, #16385
	.loc	7 419 7                         @ c:/Keil_v5\ARM\PACK\Keil\STM32L5xx_DFP\1.3.0\Drivers\STM32L5xx_HAL_Driver\Src\stm32l5xx_hal_tim.c:419:7
	cmp	r1, r0
	beq	.LBB5_10
.Ltmp79:
@ %bb.9:
	@DEBUG_VALUE: HAL_TIM_Base_Start:htim <- [DW_OP_LLVM_entry_value 1] $r0
	.loc	7 0 7                           @ c:/Keil_v5\ARM\PACK\Keil\STM32L5xx_DFP\1.3.0\Drivers\STM32L5xx_HAL_Driver\Src\stm32l5xx_hal_tim.c:0:7
	movw	r0, #13312
	movt	r0, #16385
	.loc	7 419 7                         @ c:/Keil_v5\ARM\PACK\Keil\STM32L5xx_DFP\1.3.0\Drivers\STM32L5xx_HAL_Driver\Src\stm32l5xx_hal_tim.c:419:7
	cmp	r1, r0
	bne	.LBB5_12
.Ltmp80:
.LBB5_10:
	@DEBUG_VALUE: HAL_TIM_Base_Start:htim <- [DW_OP_LLVM_entry_value 1] $r0
	.loc	7 421 31 is_stmt 1              @ c:/Keil_v5\ARM\PACK\Keil\STM32L5xx_DFP\1.3.0\Drivers\STM32L5xx_HAL_Driver\Src\stm32l5xx_hal_tim.c:421:31
	ldr	r0, [r1, #8]
	movs	r2, #7
	movt	r2, #1
	.loc	7 421 36 is_stmt 0              @ c:/Keil_v5\ARM\PACK\Keil\STM32L5xx_DFP\1.3.0\Drivers\STM32L5xx_HAL_Driver\Src\stm32l5xx_hal_tim.c:421:36
	ands	r2, r0
.Ltmp81:
	@DEBUG_VALUE: HAL_TIM_Base_Start:tmpsmcr <- $r2
	.loc	7 422 10 is_stmt 1              @ c:/Keil_v5\ARM\PACK\Keil\STM32L5xx_DFP\1.3.0\Drivers\STM32L5xx_HAL_Driver\Src\stm32l5xx_hal_tim.c:422:10
	cmp	r2, #6
	mov.w	r0, #0
	it	ne
	cmpne.w	r2, #65536
	bne	.LBB5_12
.Ltmp82:
@ %bb.11:
	@DEBUG_VALUE: HAL_TIM_Base_Start:tmpsmcr <- $r2
	@DEBUG_VALUE: HAL_TIM_Base_Start:htim <- [DW_OP_LLVM_entry_value 1] $r0
	.loc	7 434 1                         @ c:/Keil_v5\ARM\PACK\Keil\STM32L5xx_DFP\1.3.0\Drivers\STM32L5xx_HAL_Driver\Src\stm32l5xx_hal_tim.c:434:1
	bx	lr
.Ltmp83:
	.p2align	2
.LBB5_12:
	@DEBUG_VALUE: HAL_TIM_Base_Start:htim <- [DW_OP_LLVM_entry_value 1] $r0
	.loc	7 0 0 is_stmt 0                 @ c:/Keil_v5\ARM\PACK\Keil\STM32L5xx_DFP\1.3.0\Drivers\STM32L5xx_HAL_Driver\Src\stm32l5xx_hal_tim.c:0:0
	ldr	r0, [r1]
	orr	r0, r0, #1
	str	r0, [r1]
	movs	r0, #0
.Ltmp84:
	.loc	7 434 1                         @ c:/Keil_v5\ARM\PACK\Keil\STM32L5xx_DFP\1.3.0\Drivers\STM32L5xx_HAL_Driver\Src\stm32l5xx_hal_tim.c:434:1
	bx	lr
.Ltmp85:
.Lfunc_end5:
	.size	HAL_TIM_Base_Start, .Lfunc_end5-HAL_TIM_Base_Start
	.cfi_endproc
	.cantunwind
	.fnend
                                        @ -- End function
	.section	.text.HAL_TIM_Base_Stop,"ax",%progbits
	.hidden	HAL_TIM_Base_Stop               @ -- Begin function HAL_TIM_Base_Stop
	.globl	HAL_TIM_Base_Stop
	.p2align	2
	.type	HAL_TIM_Base_Stop,%function
	.code	16                              @ @HAL_TIM_Base_Stop
	.thumb_func
HAL_TIM_Base_Stop:
.Lfunc_begin6:
	.loc	7 442 0 is_stmt 1               @ c:/Keil_v5\ARM\PACK\Keil\STM32L5xx_DFP\1.3.0\Drivers\STM32L5xx_HAL_Driver\Src\stm32l5xx_hal_tim.c:442:0
	.fnstart
	.cfi_startproc
@ %bb.0:
	@DEBUG_VALUE: HAL_TIM_Base_Stop:htim <- $r0
	mov	r1, r0
.Ltmp86:
	@DEBUG_VALUE: HAL_TIM_Base_Stop:htim <- $r1
	.loc	7 447 3 prologue_end            @ c:/Keil_v5\ARM\PACK\Keil\STM32L5xx_DFP\1.3.0\Drivers\STM32L5xx_HAL_Driver\Src\stm32l5xx_hal_tim.c:447:3
	ldr	r0, [r0]
	movw	r3, #4369
	ldr	r2, [r0, #32]
.Ltmp87:
	.loc	7 447 3 is_stmt 0               @ c:/Keil_v5\ARM\PACK\Keil\STM32L5xx_DFP\1.3.0\Drivers\STM32L5xx_HAL_Driver\Src\stm32l5xx_hal_tim.c:447:3
	tst	r2, r3
	beq	.LBB6_2
.Ltmp88:
.LBB6_1:
	@DEBUG_VALUE: HAL_TIM_Base_Stop:htim <- $r1
	.loc	7 0 3                           @ c:/Keil_v5\ARM\PACK\Keil\STM32L5xx_DFP\1.3.0\Drivers\STM32L5xx_HAL_Driver\Src\stm32l5xx_hal_tim.c:0:3
	movs	r2, #1
	.loc	7 453 3 is_stmt 1               @ c:/Keil_v5\ARM\PACK\Keil\STM32L5xx_DFP\1.3.0\Drivers\STM32L5xx_HAL_Driver\Src\stm32l5xx_hal_tim.c:453:3
	movs	r0, #0
	.loc	7 450 15                        @ c:/Keil_v5\ARM\PACK\Keil\STM32L5xx_DFP\1.3.0\Drivers\STM32L5xx_HAL_Driver\Src\stm32l5xx_hal_tim.c:450:15
	strb.w	r2, [r1, #61]
	.loc	7 453 3                         @ c:/Keil_v5\ARM\PACK\Keil\STM32L5xx_DFP\1.3.0\Drivers\STM32L5xx_HAL_Driver\Src\stm32l5xx_hal_tim.c:453:3
	bx	lr
.Ltmp89:
	.p2align	2
.LBB6_2:
	@DEBUG_VALUE: HAL_TIM_Base_Stop:htim <- $r1
	.loc	7 447 3                         @ c:/Keil_v5\ARM\PACK\Keil\STM32L5xx_DFP\1.3.0\Drivers\STM32L5xx_HAL_Driver\Src\stm32l5xx_hal_tim.c:447:3
	ldr	r2, [r0, #32]
	movw	r3, #1092
.Ltmp90:
	.loc	7 447 3 is_stmt 0               @ c:/Keil_v5\ARM\PACK\Keil\STM32L5xx_DFP\1.3.0\Drivers\STM32L5xx_HAL_Driver\Src\stm32l5xx_hal_tim.c:447:3
	tst	r2, r3
	bne	.LBB6_1
.Ltmp91:
@ %bb.3:
	@DEBUG_VALUE: HAL_TIM_Base_Stop:htim <- $r1
	.loc	7 447 3                         @ c:/Keil_v5\ARM\PACK\Keil\STM32L5xx_DFP\1.3.0\Drivers\STM32L5xx_HAL_Driver\Src\stm32l5xx_hal_tim.c:447:3
	ldr	r2, [r0]
	bic	r2, r2, #1
	str	r2, [r0]
	movs	r2, #1
.Ltmp92:
	.loc	7 453 3 is_stmt 1               @ c:/Keil_v5\ARM\PACK\Keil\STM32L5xx_DFP\1.3.0\Drivers\STM32L5xx_HAL_Driver\Src\stm32l5xx_hal_tim.c:453:3
	movs	r0, #0
	.loc	7 450 15                        @ c:/Keil_v5\ARM\PACK\Keil\STM32L5xx_DFP\1.3.0\Drivers\STM32L5xx_HAL_Driver\Src\stm32l5xx_hal_tim.c:450:15
	strb.w	r2, [r1, #61]
	.loc	7 453 3                         @ c:/Keil_v5\ARM\PACK\Keil\STM32L5xx_DFP\1.3.0\Drivers\STM32L5xx_HAL_Driver\Src\stm32l5xx_hal_tim.c:453:3
	bx	lr
.Ltmp93:
.Lfunc_end6:
	.size	HAL_TIM_Base_Stop, .Lfunc_end6-HAL_TIM_Base_Stop
	.cfi_endproc
	.cantunwind
	.fnend
                                        @ -- End function
	.section	.text.HAL_TIM_Base_Start_IT,"ax",%progbits
	.hidden	HAL_TIM_Base_Start_IT           @ -- Begin function HAL_TIM_Base_Start_IT
	.globl	HAL_TIM_Base_Start_IT
	.p2align	2
	.type	HAL_TIM_Base_Start_IT,%function
	.code	16                              @ @HAL_TIM_Base_Start_IT
	.thumb_func
HAL_TIM_Base_Start_IT:
.Lfunc_begin7:
	.loc	7 462 0                         @ c:/Keil_v5\ARM\PACK\Keil\STM32L5xx_DFP\1.3.0\Drivers\STM32L5xx_HAL_Driver\Src\stm32l5xx_hal_tim.c:462:0
	.fnstart
	.cfi_startproc
@ %bb.0:
	@DEBUG_VALUE: HAL_TIM_Base_Start_IT:htim <- $r0
	@DEBUG_VALUE: HAL_TIM_Base_Start_IT:htim <- $r0
	.loc	7 469 13 prologue_end           @ c:/Keil_v5\ARM\PACK\Keil\STM32L5xx_DFP\1.3.0\Drivers\STM32L5xx_HAL_Driver\Src\stm32l5xx_hal_tim.c:469:13
	ldrb.w	r1, [r0, #61]
.Ltmp94:
	.loc	7 469 7 is_stmt 0               @ c:/Keil_v5\ARM\PACK\Keil\STM32L5xx_DFP\1.3.0\Drivers\STM32L5xx_HAL_Driver\Src\stm32l5xx_hal_tim.c:469:7
	cmp	r1, #1
	itt	ne
	movne	r0, #1
.Ltmp95:
	@DEBUG_VALUE: HAL_TIM_Base_Start_IT:htim <- [DW_OP_LLVM_entry_value 1] $r0
	.loc	7 496 1 is_stmt 1               @ c:/Keil_v5\ARM\PACK\Keil\STM32L5xx_DFP\1.3.0\Drivers\STM32L5xx_HAL_Driver\Src\stm32l5xx_hal_tim.c:496:1
	bxne	lr
.Ltmp96:
.LBB7_1:
	@DEBUG_VALUE: HAL_TIM_Base_Start_IT:htim <- [DW_OP_LLVM_entry_value 1] $r0
	.loc	7 0 1 is_stmt 0                 @ c:/Keil_v5\ARM\PACK\Keil\STM32L5xx_DFP\1.3.0\Drivers\STM32L5xx_HAL_Driver\Src\stm32l5xx_hal_tim.c:0:1
	movs	r1, #2
	.loc	7 475 15 is_stmt 1              @ c:/Keil_v5\ARM\PACK\Keil\STM32L5xx_DFP\1.3.0\Drivers\STM32L5xx_HAL_Driver\Src\stm32l5xx_hal_tim.c:475:15
	strb.w	r1, [r0, #61]
	.loc	7 478 3                         @ c:/Keil_v5\ARM\PACK\Keil\STM32L5xx_DFP\1.3.0\Drivers\STM32L5xx_HAL_Driver\Src\stm32l5xx_hal_tim.c:478:3
	ldr	r1, [r0]
	movw	r2, #3071
	ldr	r0, [r1, #12]
	movt	r2, #16384
.Ltmp97:
	.loc	7 481 7                         @ c:/Keil_v5\ARM\PACK\Keil\STM32L5xx_DFP\1.3.0\Drivers\STM32L5xx_HAL_Driver\Src\stm32l5xx_hal_tim.c:481:7
	cmp	r1, r2
.Ltmp98:
	.loc	7 478 3                         @ c:/Keil_v5\ARM\PACK\Keil\STM32L5xx_DFP\1.3.0\Drivers\STM32L5xx_HAL_Driver\Src\stm32l5xx_hal_tim.c:478:3
	orr	r0, r0, #1
	str	r0, [r1, #12]
.Ltmp99:
	.loc	7 481 7                         @ c:/Keil_v5\ARM\PACK\Keil\STM32L5xx_DFP\1.3.0\Drivers\STM32L5xx_HAL_Driver\Src\stm32l5xx_hal_tim.c:481:7
	ble	.LBB7_5
.Ltmp100:
@ %bb.2:
	@DEBUG_VALUE: HAL_TIM_Base_Start_IT:htim <- [DW_OP_LLVM_entry_value 1] $r0
	.loc	7 0 7 is_stmt 0                 @ c:/Keil_v5\ARM\PACK\Keil\STM32L5xx_DFP\1.3.0\Drivers\STM32L5xx_HAL_Driver\Src\stm32l5xx_hal_tim.c:0:7
	movw	r0, #13311
	movt	r0, #16385
	.loc	7 481 7                         @ c:/Keil_v5\ARM\PACK\Keil\STM32L5xx_DFP\1.3.0\Drivers\STM32L5xx_HAL_Driver\Src\stm32l5xx_hal_tim.c:481:7
	cmp	r1, r0
	bgt	.LBB7_8
.Ltmp101:
@ %bb.3:
	@DEBUG_VALUE: HAL_TIM_Base_Start_IT:htim <- [DW_OP_LLVM_entry_value 1] $r0
	.loc	7 0 7                           @ c:/Keil_v5\ARM\PACK\Keil\STM32L5xx_DFP\1.3.0\Drivers\STM32L5xx_HAL_Driver\Src\stm32l5xx_hal_tim.c:0:7
	movw	r0, #3072
	movt	r0, #16384
	.loc	7 481 7                         @ c:/Keil_v5\ARM\PACK\Keil\STM32L5xx_DFP\1.3.0\Drivers\STM32L5xx_HAL_Driver\Src\stm32l5xx_hal_tim.c:481:7
	cmp	r1, r0
	beq	.LBB7_10
.Ltmp102:
@ %bb.4:
	@DEBUG_VALUE: HAL_TIM_Base_Start_IT:htim <- [DW_OP_LLVM_entry_value 1] $r0
	.loc	7 0 7                           @ c:/Keil_v5\ARM\PACK\Keil\STM32L5xx_DFP\1.3.0\Drivers\STM32L5xx_HAL_Driver\Src\stm32l5xx_hal_tim.c:0:7
	movw	r0, #11264
	movt	r0, #16385
	.loc	7 481 7                         @ c:/Keil_v5\ARM\PACK\Keil\STM32L5xx_DFP\1.3.0\Drivers\STM32L5xx_HAL_Driver\Src\stm32l5xx_hal_tim.c:481:7
	cmp	r1, r0
	beq	.LBB7_10
	b	.LBB7_12
.Ltmp103:
	.p2align	2
.LBB7_5:
	@DEBUG_VALUE: HAL_TIM_Base_Start_IT:htim <- [DW_OP_LLVM_entry_value 1] $r0
	cmp.w	r1, #1073741824
	beq	.LBB7_10
.Ltmp104:
@ %bb.6:
	@DEBUG_VALUE: HAL_TIM_Base_Start_IT:htim <- [DW_OP_LLVM_entry_value 1] $r0
	.loc	7 0 7                           @ c:/Keil_v5\ARM\PACK\Keil\STM32L5xx_DFP\1.3.0\Drivers\STM32L5xx_HAL_Driver\Src\stm32l5xx_hal_tim.c:0:7
	movw	r0, #1024
	movt	r0, #16384
	.loc	7 481 7                         @ c:/Keil_v5\ARM\PACK\Keil\STM32L5xx_DFP\1.3.0\Drivers\STM32L5xx_HAL_Driver\Src\stm32l5xx_hal_tim.c:481:7
	cmp	r1, r0
	beq	.LBB7_10
.Ltmp105:
@ %bb.7:
	@DEBUG_VALUE: HAL_TIM_Base_Start_IT:htim <- [DW_OP_LLVM_entry_value 1] $r0
	.loc	7 0 7                           @ c:/Keil_v5\ARM\PACK\Keil\STM32L5xx_DFP\1.3.0\Drivers\STM32L5xx_HAL_Driver\Src\stm32l5xx_hal_tim.c:0:7
	movw	r0, #2048
	movt	r0, #16384
	.loc	7 481 7                         @ c:/Keil_v5\ARM\PACK\Keil\STM32L5xx_DFP\1.3.0\Drivers\STM32L5xx_HAL_Driver\Src\stm32l5xx_hal_tim.c:481:7
	cmp	r1, r0
	beq	.LBB7_10
	b	.LBB7_12
.Ltmp106:
	.p2align	2
.LBB7_8:
	@DEBUG_VALUE: HAL_TIM_Base_Start_IT:htim <- [DW_OP_LLVM_entry_value 1] $r0
	.loc	7 0 7                           @ c:/Keil_v5\ARM\PACK\Keil\STM32L5xx_DFP\1.3.0\Drivers\STM32L5xx_HAL_Driver\Src\stm32l5xx_hal_tim.c:0:7
	movw	r0, #16384
	movt	r0, #16385
	.loc	7 481 7                         @ c:/Keil_v5\ARM\PACK\Keil\STM32L5xx_DFP\1.3.0\Drivers\STM32L5xx_HAL_Driver\Src\stm32l5xx_hal_tim.c:481:7
	cmp	r1, r0
	beq	.LBB7_10
.Ltmp107:
@ %bb.9:
	@DEBUG_VALUE: HAL_TIM_Base_Start_IT:htim <- [DW_OP_LLVM_entry_value 1] $r0
	.loc	7 0 7                           @ c:/Keil_v5\ARM\PACK\Keil\STM32L5xx_DFP\1.3.0\Drivers\STM32L5xx_HAL_Driver\Src\stm32l5xx_hal_tim.c:0:7
	movw	r0, #13312
	movt	r0, #16385
	.loc	7 481 7                         @ c:/Keil_v5\ARM\PACK\Keil\STM32L5xx_DFP\1.3.0\Drivers\STM32L5xx_HAL_Driver\Src\stm32l5xx_hal_tim.c:481:7
	cmp	r1, r0
	bne	.LBB7_12
.Ltmp108:
.LBB7_10:
	@DEBUG_VALUE: HAL_TIM_Base_Start_IT:htim <- [DW_OP_LLVM_entry_value 1] $r0
	.loc	7 483 31 is_stmt 1              @ c:/Keil_v5\ARM\PACK\Keil\STM32L5xx_DFP\1.3.0\Drivers\STM32L5xx_HAL_Driver\Src\stm32l5xx_hal_tim.c:483:31
	ldr	r0, [r1, #8]
	movs	r2, #7
	movt	r2, #1
	.loc	7 483 36 is_stmt 0              @ c:/Keil_v5\ARM\PACK\Keil\STM32L5xx_DFP\1.3.0\Drivers\STM32L5xx_HAL_Driver\Src\stm32l5xx_hal_tim.c:483:36
	ands	r2, r0
.Ltmp109:
	@DEBUG_VALUE: HAL_TIM_Base_Start_IT:tmpsmcr <- $r2
	.loc	7 484 10 is_stmt 1              @ c:/Keil_v5\ARM\PACK\Keil\STM32L5xx_DFP\1.3.0\Drivers\STM32L5xx_HAL_Driver\Src\stm32l5xx_hal_tim.c:484:10
	cmp	r2, #6
	mov.w	r0, #0
	it	ne
	cmpne.w	r2, #65536
	bne	.LBB7_12
.Ltmp110:
@ %bb.11:
	@DEBUG_VALUE: HAL_TIM_Base_Start_IT:tmpsmcr <- $r2
	@DEBUG_VALUE: HAL_TIM_Base_Start_IT:htim <- [DW_OP_LLVM_entry_value 1] $r0
	.loc	7 496 1                         @ c:/Keil_v5\ARM\PACK\Keil\STM32L5xx_DFP\1.3.0\Drivers\STM32L5xx_HAL_Driver\Src\stm32l5xx_hal_tim.c:496:1
	bx	lr
.Ltmp111:
	.p2align	2
.LBB7_12:
	@DEBUG_VALUE: HAL_TIM_Base_Start_IT:htim <- [DW_OP_LLVM_entry_value 1] $r0
	.loc	7 0 0 is_stmt 0                 @ c:/Keil_v5\ARM\PACK\Keil\STM32L5xx_DFP\1.3.0\Drivers\STM32L5xx_HAL_Driver\Src\stm32l5xx_hal_tim.c:0:0
	ldr	r0, [r1]
	orr	r0, r0, #1
	str	r0, [r1]
	movs	r0, #0
.Ltmp112:
	.loc	7 496 1                         @ c:/Keil_v5\ARM\PACK\Keil\STM32L5xx_DFP\1.3.0\Drivers\STM32L5xx_HAL_Driver\Src\stm32l5xx_hal_tim.c:496:1
	bx	lr
.Ltmp113:
.Lfunc_end7:
	.size	HAL_TIM_Base_Start_IT, .Lfunc_end7-HAL_TIM_Base_Start_IT
	.cfi_endproc
	.cantunwind
	.fnend
                                        @ -- End function
	.section	.text.HAL_TIM_Base_Stop_IT,"ax",%progbits
	.hidden	HAL_TIM_Base_Stop_IT            @ -- Begin function HAL_TIM_Base_Stop_IT
	.globl	HAL_TIM_Base_Stop_IT
	.p2align	2
	.type	HAL_TIM_Base_Stop_IT,%function
	.code	16                              @ @HAL_TIM_Base_Stop_IT
	.thumb_func
HAL_TIM_Base_Stop_IT:
.Lfunc_begin8:
	.loc	7 504 0 is_stmt 1               @ c:/Keil_v5\ARM\PACK\Keil\STM32L5xx_DFP\1.3.0\Drivers\STM32L5xx_HAL_Driver\Src\stm32l5xx_hal_tim.c:504:0
	.fnstart
	.cfi_startproc
@ %bb.0:
	@DEBUG_VALUE: HAL_TIM_Base_Stop_IT:htim <- $r0
	mov	r1, r0
.Ltmp114:
	@DEBUG_VALUE: HAL_TIM_Base_Stop_IT:htim <- $r1
	.loc	7 509 3 prologue_end            @ c:/Keil_v5\ARM\PACK\Keil\STM32L5xx_DFP\1.3.0\Drivers\STM32L5xx_HAL_Driver\Src\stm32l5xx_hal_tim.c:509:3
	ldr	r0, [r0]
	movw	r3, #4369
	ldr	r2, [r0, #12]
	bic	r2, r2, #1
	str	r2, [r0, #12]
.Ltmp115:
	.loc	7 512 3                         @ c:/Keil_v5\ARM\PACK\Keil\STM32L5xx_DFP\1.3.0\Drivers\STM32L5xx_HAL_Driver\Src\stm32l5xx_hal_tim.c:512:3
	ldr	r2, [r0, #32]
.Ltmp116:
	.loc	7 512 3 is_stmt 0               @ c:/Keil_v5\ARM\PACK\Keil\STM32L5xx_DFP\1.3.0\Drivers\STM32L5xx_HAL_Driver\Src\stm32l5xx_hal_tim.c:512:3
	tst	r2, r3
	beq	.LBB8_2
.Ltmp117:
.LBB8_1:
	@DEBUG_VALUE: HAL_TIM_Base_Stop_IT:htim <- $r1
	.loc	7 0 3                           @ c:/Keil_v5\ARM\PACK\Keil\STM32L5xx_DFP\1.3.0\Drivers\STM32L5xx_HAL_Driver\Src\stm32l5xx_hal_tim.c:0:3
	movs	r2, #1
	.loc	7 518 3 is_stmt 1               @ c:/Keil_v5\ARM\PACK\Keil\STM32L5xx_DFP\1.3.0\Drivers\STM32L5xx_HAL_Driver\Src\stm32l5xx_hal_tim.c:518:3
	movs	r0, #0
	.loc	7 515 15                        @ c:/Keil_v5\ARM\PACK\Keil\STM32L5xx_DFP\1.3.0\Drivers\STM32L5xx_HAL_Driver\Src\stm32l5xx_hal_tim.c:515:15
	strb.w	r2, [r1, #61]
	.loc	7 518 3                         @ c:/Keil_v5\ARM\PACK\Keil\STM32L5xx_DFP\1.3.0\Drivers\STM32L5xx_HAL_Driver\Src\stm32l5xx_hal_tim.c:518:3
	bx	lr
.Ltmp118:
	.p2align	2
.LBB8_2:
	@DEBUG_VALUE: HAL_TIM_Base_Stop_IT:htim <- $r1
	.loc	7 512 3                         @ c:/Keil_v5\ARM\PACK\Keil\STM32L5xx_DFP\1.3.0\Drivers\STM32L5xx_HAL_Driver\Src\stm32l5xx_hal_tim.c:512:3
	ldr	r2, [r0, #32]
	movw	r3, #1092
.Ltmp119:
	.loc	7 512 3 is_stmt 0               @ c:/Keil_v5\ARM\PACK\Keil\STM32L5xx_DFP\1.3.0\Drivers\STM32L5xx_HAL_Driver\Src\stm32l5xx_hal_tim.c:512:3
	tst	r2, r3
	bne	.LBB8_1
.Ltmp120:
@ %bb.3:
	@DEBUG_VALUE: HAL_TIM_Base_Stop_IT:htim <- $r1
	.loc	7 512 3                         @ c:/Keil_v5\ARM\PACK\Keil\STM32L5xx_DFP\1.3.0\Drivers\STM32L5xx_HAL_Driver\Src\stm32l5xx_hal_tim.c:512:3
	ldr	r2, [r0]
	bic	r2, r2, #1
	str	r2, [r0]
	movs	r2, #1
.Ltmp121:
	.loc	7 518 3 is_stmt 1               @ c:/Keil_v5\ARM\PACK\Keil\STM32L5xx_DFP\1.3.0\Drivers\STM32L5xx_HAL_Driver\Src\stm32l5xx_hal_tim.c:518:3
	movs	r0, #0
	.loc	7 515 15                        @ c:/Keil_v5\ARM\PACK\Keil\STM32L5xx_DFP\1.3.0\Drivers\STM32L5xx_HAL_Driver\Src\stm32l5xx_hal_tim.c:515:15
	strb.w	r2, [r1, #61]
	.loc	7 518 3                         @ c:/Keil_v5\ARM\PACK\Keil\STM32L5xx_DFP\1.3.0\Drivers\STM32L5xx_HAL_Driver\Src\stm32l5xx_hal_tim.c:518:3
	bx	lr
.Ltmp122:
.Lfunc_end8:
	.size	HAL_TIM_Base_Stop_IT, .Lfunc_end8-HAL_TIM_Base_Stop_IT
	.cfi_endproc
	.cantunwind
	.fnend
                                        @ -- End function
	.section	.text.HAL_TIM_Base_Start_DMA,"ax",%progbits
	.hidden	HAL_TIM_Base_Start_DMA          @ -- Begin function HAL_TIM_Base_Start_DMA
	.globl	HAL_TIM_Base_Start_DMA
	.p2align	2
	.type	HAL_TIM_Base_Start_DMA,%function
	.code	16                              @ @HAL_TIM_Base_Start_DMA
	.thumb_func
HAL_TIM_Base_Start_DMA:
.Lfunc_begin9:
	.loc	7 529 0                         @ c:/Keil_v5\ARM\PACK\Keil\STM32L5xx_DFP\1.3.0\Drivers\STM32L5xx_HAL_Driver\Src\stm32l5xx_hal_tim.c:529:0
	.fnstart
	.cfi_startproc
@ %bb.0:
	@DEBUG_VALUE: HAL_TIM_Base_Start_DMA:htim <- $r0
	@DEBUG_VALUE: HAL_TIM_Base_Start_DMA:pData <- $r1
	@DEBUG_VALUE: HAL_TIM_Base_Start_DMA:Length <- $r2
	.save	{r4, lr}
	push	{r4, lr}
	.cfi_def_cfa_offset 8
	.cfi_offset lr, -4
	.cfi_offset r4, -8
	mov	r4, r0
.Ltmp123:
	@DEBUG_VALUE: HAL_TIM_Base_Start_DMA:Length <- undef
	@DEBUG_VALUE: HAL_TIM_Base_Start_DMA:htim <- $r4
	.loc	7 536 13 prologue_end           @ c:/Keil_v5\ARM\PACK\Keil\STM32L5xx_DFP\1.3.0\Drivers\STM32L5xx_HAL_Driver\Src\stm32l5xx_hal_tim.c:536:13
	ldrb.w	r0, [r0, #61]
.Ltmp124:
	@DEBUG_VALUE: HAL_TIM_Base_Start_DMA:Length <- $r2
	.loc	7 536 7 is_stmt 0               @ c:/Keil_v5\ARM\PACK\Keil\STM32L5xx_DFP\1.3.0\Drivers\STM32L5xx_HAL_Driver\Src\stm32l5xx_hal_tim.c:536:7
	cmp	r0, #2
	@DEBUG_VALUE: HAL_TIM_Base_Start_DMA:pData <- $r1
	itt	eq
	moveq	r0, #2
	.loc	7 588 1 is_stmt 1               @ c:/Keil_v5\ARM\PACK\Keil\STM32L5xx_DFP\1.3.0\Drivers\STM32L5xx_HAL_Driver\Src\stm32l5xx_hal_tim.c:588:1
	popeq	{r4, pc}
.Ltmp125:
.LBB9_1:
	@DEBUG_VALUE: HAL_TIM_Base_Start_DMA:Length <- $r2
	@DEBUG_VALUE: HAL_TIM_Base_Start_DMA:pData <- $r1
	@DEBUG_VALUE: HAL_TIM_Base_Start_DMA:Length <- $r2
	@DEBUG_VALUE: HAL_TIM_Base_Start_DMA:Length <- $r2
	.loc	7 540 18                        @ c:/Keil_v5\ARM\PACK\Keil\STM32L5xx_DFP\1.3.0\Drivers\STM32L5xx_HAL_Driver\Src\stm32l5xx_hal_tim.c:540:18
	ldrb.w	r0, [r4, #61]
.Ltmp126:
	.loc	7 540 12 is_stmt 0              @ c:/Keil_v5\ARM\PACK\Keil\STM32L5xx_DFP\1.3.0\Drivers\STM32L5xx_HAL_Driver\Src\stm32l5xx_hal_tim.c:540:12
	cmp	r0, #1
	bne	.LBB9_5
.Ltmp127:
@ %bb.2:
	@DEBUG_VALUE: HAL_TIM_Base_Start_DMA:Length <- $r2
	@DEBUG_VALUE: HAL_TIM_Base_Start_DMA:pData <- $r1
	.loc	7 0 12                          @ c:/Keil_v5\ARM\PACK\Keil\STM32L5xx_DFP\1.3.0\Drivers\STM32L5xx_HAL_Driver\Src\stm32l5xx_hal_tim.c:0:12
	mov	r3, r2
.Ltmp128:
	@DEBUG_VALUE: HAL_TIM_Base_Start_DMA:Length <- $r3
	@DEBUG_VALUE: HAL_TIM_Base_Start_DMA:Length <- $r3
	@DEBUG_VALUE: HAL_TIM_Base_Start_DMA:Length <- $r3
	.loc	7 542 25 is_stmt 1              @ c:/Keil_v5\ARM\PACK\Keil\STM32L5xx_DFP\1.3.0\Drivers\STM32L5xx_HAL_Driver\Src\stm32l5xx_hal_tim.c:542:25
	cbnz	r1, .LBB9_4
.Ltmp129:
@ %bb.3:
	@DEBUG_VALUE: HAL_TIM_Base_Start_DMA:Length <- $r3
	@DEBUG_VALUE: HAL_TIM_Base_Start_DMA:pData <- $r1
	cbnz	r3, .LBB9_5
.Ltmp130:
.LBB9_4:
	@DEBUG_VALUE: HAL_TIM_Base_Start_DMA:Length <- $r3
	@DEBUG_VALUE: HAL_TIM_Base_Start_DMA:pData <- $r1
	@DEBUG_VALUE: HAL_TIM_Base_Start_DMA:Length <- $r3
	.loc	7 0 25 is_stmt 0                @ c:/Keil_v5\ARM\PACK\Keil\STM32L5xx_DFP\1.3.0\Drivers\STM32L5xx_HAL_Driver\Src\stm32l5xx_hal_tim.c:0:25
	movs	r0, #2
.Ltmp131:
	.loc	7 548 19 is_stmt 1              @ c:/Keil_v5\ARM\PACK\Keil\STM32L5xx_DFP\1.3.0\Drivers\STM32L5xx_HAL_Driver\Src\stm32l5xx_hal_tim.c:548:19
	strb.w	r0, [r4, #61]
.Ltmp132:
	.loc	7 557 3                         @ c:/Keil_v5\ARM\PACK\Keil\STM32L5xx_DFP\1.3.0\Drivers\STM32L5xx_HAL_Driver\Src\stm32l5xx_hal_tim.c:557:3
	ldr	r0, [r4, #32]
	.loc	7 557 51 is_stmt 0              @ c:/Keil_v5\ARM\PACK\Keil\STM32L5xx_DFP\1.3.0\Drivers\STM32L5xx_HAL_Driver\Src\stm32l5xx_hal_tim.c:557:51
	movw	r2, :lower16:TIM_DMAPeriodElapsedCplt
	movt	r2, :upper16:TIM_DMAPeriodElapsedCplt
	str	r2, [r0, #44]
	.loc	7 558 3 is_stmt 1               @ c:/Keil_v5\ARM\PACK\Keil\STM32L5xx_DFP\1.3.0\Drivers\STM32L5xx_HAL_Driver\Src\stm32l5xx_hal_tim.c:558:3
	ldr	r0, [r4, #32]
	.loc	7 558 55 is_stmt 0              @ c:/Keil_v5\ARM\PACK\Keil\STM32L5xx_DFP\1.3.0\Drivers\STM32L5xx_HAL_Driver\Src\stm32l5xx_hal_tim.c:558:55
	movw	r2, :lower16:TIM_DMAPeriodElapsedHalfCplt
	movt	r2, :upper16:TIM_DMAPeriodElapsedHalfCplt
	str	r2, [r0, #48]
	.loc	7 561 3 is_stmt 1               @ c:/Keil_v5\ARM\PACK\Keil\STM32L5xx_DFP\1.3.0\Drivers\STM32L5xx_HAL_Driver\Src\stm32l5xx_hal_tim.c:561:3
	ldr	r0, [r4, #32]
	.loc	7 561 52 is_stmt 0              @ c:/Keil_v5\ARM\PACK\Keil\STM32L5xx_DFP\1.3.0\Drivers\STM32L5xx_HAL_Driver\Src\stm32l5xx_hal_tim.c:561:52
	movw	r2, :lower16:TIM_DMAError
	movt	r2, :upper16:TIM_DMAError
.Ltmp133:
	.loc	7 564 89 is_stmt 1              @ c:/Keil_v5\ARM\PACK\Keil\STM32L5xx_DFP\1.3.0\Drivers\STM32L5xx_HAL_Driver\Src\stm32l5xx_hal_tim.c:564:89
	ldr.w	r12, [r4]
.Ltmp134:
	.loc	7 561 52                        @ c:/Keil_v5\ARM\PACK\Keil\STM32L5xx_DFP\1.3.0\Drivers\STM32L5xx_HAL_Driver\Src\stm32l5xx_hal_tim.c:561:52
	str	r2, [r0, #60]
.Ltmp135:
	.loc	7 564 24                        @ c:/Keil_v5\ARM\PACK\Keil\STM32L5xx_DFP\1.3.0\Drivers\STM32L5xx_HAL_Driver\Src\stm32l5xx_hal_tim.c:564:24
	ldr	r0, [r4, #32]
	.loc	7 564 99 is_stmt 0              @ c:/Keil_v5\ARM\PACK\Keil\STM32L5xx_DFP\1.3.0\Drivers\STM32L5xx_HAL_Driver\Src\stm32l5xx_hal_tim.c:564:99
	add.w	r2, r12, #44
	.loc	7 564 7                         @ c:/Keil_v5\ARM\PACK\Keil\STM32L5xx_DFP\1.3.0\Drivers\STM32L5xx_HAL_Driver\Src\stm32l5xx_hal_tim.c:564:7
	bl	HAL_DMA_Start_IT
.Ltmp136:
	@DEBUG_VALUE: HAL_TIM_Base_Start_DMA:pData <- [DW_OP_LLVM_entry_value 1] $r1
	.loc	7 564 7                         @ c:/Keil_v5\ARM\PACK\Keil\STM32L5xx_DFP\1.3.0\Drivers\STM32L5xx_HAL_Driver\Src\stm32l5xx_hal_tim.c:564:7
	cbz	r0, .LBB9_7
.Ltmp137:
.LBB9_5:
	.loc	7 0 7                           @ c:/Keil_v5\ARM\PACK\Keil\STM32L5xx_DFP\1.3.0\Drivers\STM32L5xx_HAL_Driver\Src\stm32l5xx_hal_tim.c:0:7
	movs	r0, #1
.LBB9_6:
	.loc	7 588 1 is_stmt 1               @ c:/Keil_v5\ARM\PACK\Keil\STM32L5xx_DFP\1.3.0\Drivers\STM32L5xx_HAL_Driver\Src\stm32l5xx_hal_tim.c:588:1
	pop	{r4, pc}
	.p2align	2
.LBB9_7:
.Ltmp138:
	@DEBUG_VALUE: HAL_TIM_Base_Start_DMA:pData <- [DW_OP_LLVM_entry_value 1] $r1
	.loc	7 570 3                         @ c:/Keil_v5\ARM\PACK\Keil\STM32L5xx_DFP\1.3.0\Drivers\STM32L5xx_HAL_Driver\Src\stm32l5xx_hal_tim.c:570:3
	ldr	r1, [r4]
	movw	r2, #3071
	ldr	r0, [r1, #12]
	movt	r2, #16384
	orr	r0, r0, #256
.Ltmp139:
	.loc	7 573 7                         @ c:/Keil_v5\ARM\PACK\Keil\STM32L5xx_DFP\1.3.0\Drivers\STM32L5xx_HAL_Driver\Src\stm32l5xx_hal_tim.c:573:7
	cmp	r1, r2
.Ltmp140:
	.loc	7 570 3                         @ c:/Keil_v5\ARM\PACK\Keil\STM32L5xx_DFP\1.3.0\Drivers\STM32L5xx_HAL_Driver\Src\stm32l5xx_hal_tim.c:570:3
	str	r0, [r1, #12]
.Ltmp141:
	.loc	7 573 7                         @ c:/Keil_v5\ARM\PACK\Keil\STM32L5xx_DFP\1.3.0\Drivers\STM32L5xx_HAL_Driver\Src\stm32l5xx_hal_tim.c:573:7
	ble	.LBB9_11
.Ltmp142:
@ %bb.8:
	@DEBUG_VALUE: HAL_TIM_Base_Start_DMA:pData <- [DW_OP_LLVM_entry_value 1] $r1
	.loc	7 0 7 is_stmt 0                 @ c:/Keil_v5\ARM\PACK\Keil\STM32L5xx_DFP\1.3.0\Drivers\STM32L5xx_HAL_Driver\Src\stm32l5xx_hal_tim.c:0:7
	movw	r0, #13311
	movt	r0, #16385
	.loc	7 573 7                         @ c:/Keil_v5\ARM\PACK\Keil\STM32L5xx_DFP\1.3.0\Drivers\STM32L5xx_HAL_Driver\Src\stm32l5xx_hal_tim.c:573:7
	cmp	r1, r0
	bgt	.LBB9_14
.Ltmp143:
@ %bb.9:
	@DEBUG_VALUE: HAL_TIM_Base_Start_DMA:pData <- [DW_OP_LLVM_entry_value 1] $r1
	.loc	7 0 7                           @ c:/Keil_v5\ARM\PACK\Keil\STM32L5xx_DFP\1.3.0\Drivers\STM32L5xx_HAL_Driver\Src\stm32l5xx_hal_tim.c:0:7
	movw	r0, #3072
	movt	r0, #16384
	.loc	7 573 7                         @ c:/Keil_v5\ARM\PACK\Keil\STM32L5xx_DFP\1.3.0\Drivers\STM32L5xx_HAL_Driver\Src\stm32l5xx_hal_tim.c:573:7
	cmp	r1, r0
	beq	.LBB9_18
.Ltmp144:
@ %bb.10:
	@DEBUG_VALUE: HAL_TIM_Base_Start_DMA:pData <- [DW_OP_LLVM_entry_value 1] $r1
	.loc	7 0 7                           @ c:/Keil_v5\ARM\PACK\Keil\STM32L5xx_DFP\1.3.0\Drivers\STM32L5xx_HAL_Driver\Src\stm32l5xx_hal_tim.c:0:7
	movw	r0, #11264
	b	.LBB9_16
.Ltmp145:
	.p2align	2
.LBB9_11:
	@DEBUG_VALUE: HAL_TIM_Base_Start_DMA:pData <- [DW_OP_LLVM_entry_value 1] $r1
	.loc	7 573 7                         @ c:/Keil_v5\ARM\PACK\Keil\STM32L5xx_DFP\1.3.0\Drivers\STM32L5xx_HAL_Driver\Src\stm32l5xx_hal_tim.c:573:7
	cmp.w	r1, #1073741824
	beq	.LBB9_18
.Ltmp146:
@ %bb.12:
	@DEBUG_VALUE: HAL_TIM_Base_Start_DMA:pData <- [DW_OP_LLVM_entry_value 1] $r1
	.loc	7 0 7                           @ c:/Keil_v5\ARM\PACK\Keil\STM32L5xx_DFP\1.3.0\Drivers\STM32L5xx_HAL_Driver\Src\stm32l5xx_hal_tim.c:0:7
	movw	r0, #1024
	movt	r0, #16384
	.loc	7 573 7                         @ c:/Keil_v5\ARM\PACK\Keil\STM32L5xx_DFP\1.3.0\Drivers\STM32L5xx_HAL_Driver\Src\stm32l5xx_hal_tim.c:573:7
	cmp	r1, r0
	beq	.LBB9_18
.Ltmp147:
@ %bb.13:
	@DEBUG_VALUE: HAL_TIM_Base_Start_DMA:pData <- [DW_OP_LLVM_entry_value 1] $r1
	.loc	7 0 7                           @ c:/Keil_v5\ARM\PACK\Keil\STM32L5xx_DFP\1.3.0\Drivers\STM32L5xx_HAL_Driver\Src\stm32l5xx_hal_tim.c:0:7
	movw	r0, #2048
	movt	r0, #16384
	b	.LBB9_17
.Ltmp148:
	.p2align	2
.LBB9_14:
	@DEBUG_VALUE: HAL_TIM_Base_Start_DMA:pData <- [DW_OP_LLVM_entry_value 1] $r1
	movw	r0, #16384
	movt	r0, #16385
	.loc	7 573 7                         @ c:/Keil_v5\ARM\PACK\Keil\STM32L5xx_DFP\1.3.0\Drivers\STM32L5xx_HAL_Driver\Src\stm32l5xx_hal_tim.c:573:7
	cmp	r1, r0
	beq	.LBB9_18
.Ltmp149:
@ %bb.15:
	@DEBUG_VALUE: HAL_TIM_Base_Start_DMA:pData <- [DW_OP_LLVM_entry_value 1] $r1
	.loc	7 0 7                           @ c:/Keil_v5\ARM\PACK\Keil\STM32L5xx_DFP\1.3.0\Drivers\STM32L5xx_HAL_Driver\Src\stm32l5xx_hal_tim.c:0:7
	movw	r0, #13312
.Ltmp150:
.LBB9_16:
	@DEBUG_VALUE: HAL_TIM_Base_Start_DMA:pData <- [DW_OP_LLVM_entry_value 1] $r1
	movt	r0, #16385
.Ltmp151:
.LBB9_17:
	@DEBUG_VALUE: HAL_TIM_Base_Start_DMA:pData <- [DW_OP_LLVM_entry_value 1] $r1
	.loc	7 573 7                         @ c:/Keil_v5\ARM\PACK\Keil\STM32L5xx_DFP\1.3.0\Drivers\STM32L5xx_HAL_Driver\Src\stm32l5xx_hal_tim.c:573:7
	cmp	r1, r0
	bne	.LBB9_19
.Ltmp152:
.LBB9_18:
	@DEBUG_VALUE: HAL_TIM_Base_Start_DMA:pData <- [DW_OP_LLVM_entry_value 1] $r1
	.loc	7 575 31 is_stmt 1              @ c:/Keil_v5\ARM\PACK\Keil\STM32L5xx_DFP\1.3.0\Drivers\STM32L5xx_HAL_Driver\Src\stm32l5xx_hal_tim.c:575:31
	ldr	r0, [r1, #8]
	movs	r2, #7
	movt	r2, #1
	.loc	7 575 36 is_stmt 0              @ c:/Keil_v5\ARM\PACK\Keil\STM32L5xx_DFP\1.3.0\Drivers\STM32L5xx_HAL_Driver\Src\stm32l5xx_hal_tim.c:575:36
	ands	r2, r0
.Ltmp153:
	@DEBUG_VALUE: HAL_TIM_Base_Start_DMA:tmpsmcr <- $r2
	.loc	7 576 10 is_stmt 1              @ c:/Keil_v5\ARM\PACK\Keil\STM32L5xx_DFP\1.3.0\Drivers\STM32L5xx_HAL_Driver\Src\stm32l5xx_hal_tim.c:576:10
	cmp	r2, #6
	mov.w	r0, #0
	it	ne
	cmpne.w	r2, #65536
	beq	.LBB9_6
.Ltmp154:
.LBB9_19:
	@DEBUG_VALUE: HAL_TIM_Base_Start_DMA:pData <- [DW_OP_LLVM_entry_value 1] $r1
	.loc	7 0 0 is_stmt 0                 @ c:/Keil_v5\ARM\PACK\Keil\STM32L5xx_DFP\1.3.0\Drivers\STM32L5xx_HAL_Driver\Src\stm32l5xx_hal_tim.c:0:0
	ldr	r0, [r1]
	orr	r0, r0, #1
	str	r0, [r1]
	movs	r0, #0
.Ltmp155:
	.loc	7 588 1 is_stmt 1               @ c:/Keil_v5\ARM\PACK\Keil\STM32L5xx_DFP\1.3.0\Drivers\STM32L5xx_HAL_Driver\Src\stm32l5xx_hal_tim.c:588:1
	pop	{r4, pc}
.Ltmp156:
.Lfunc_end9:
	.size	HAL_TIM_Base_Start_DMA, .Lfunc_end9-HAL_TIM_Base_Start_DMA
	.cfi_endproc
	.cantunwind
	.fnend
                                        @ -- End function
	.section	.text.TIM_DMAPeriodElapsedCplt,"ax",%progbits
	.p2align	2                               @ -- Begin function TIM_DMAPeriodElapsedCplt
	.type	TIM_DMAPeriodElapsedCplt,%function
	.code	16                              @ @TIM_DMAPeriodElapsedCplt
	.thumb_func
TIM_DMAPeriodElapsedCplt:
.Lfunc_begin10:
	.loc	7 6623 0                        @ c:/Keil_v5\ARM\PACK\Keil\STM32L5xx_DFP\1.3.0\Drivers\STM32L5xx_HAL_Driver\Src\stm32l5xx_hal_tim.c:6623:0
	.fnstart
	.cfi_startproc
@ %bb.0:
	@DEBUG_VALUE: TIM_DMAPeriodElapsedCplt:hdma <- $r0
	@DEBUG_VALUE: TIM_DMAPeriodElapsedCplt:hdma <- $r0
	.loc	7 6624 79 prologue_end          @ c:/Keil_v5\ARM\PACK\Keil\STM32L5xx_DFP\1.3.0\Drivers\STM32L5xx_HAL_Driver\Src\stm32l5xx_hal_tim.c:6624:79
	ldr	r0, [r0, #40]
.Ltmp157:
	@DEBUG_VALUE: TIM_DMAPeriodElapsedCplt:hdma <- [DW_OP_LLVM_entry_value 1] $r0
	@DEBUG_VALUE: TIM_DMAPeriodElapsedCplt:htim <- $r0
	.loc	7 6626 7                        @ c:/Keil_v5\ARM\PACK\Keil\STM32L5xx_DFP\1.3.0\Drivers\STM32L5xx_HAL_Driver\Src\stm32l5xx_hal_tim.c:6626:7
	ldr	r1, [r0, #32]
	.loc	7 6626 43 is_stmt 0             @ c:/Keil_v5\ARM\PACK\Keil\STM32L5xx_DFP\1.3.0\Drivers\STM32L5xx_HAL_Driver\Src\stm32l5xx_hal_tim.c:6626:43
	ldr	r1, [r1, #28]
.Ltmp158:
	.loc	7 6626 7                        @ c:/Keil_v5\ARM\PACK\Keil\STM32L5xx_DFP\1.3.0\Drivers\STM32L5xx_HAL_Driver\Src\stm32l5xx_hal_tim.c:6626:7
	cmp	r1, #0
	itt	eq
	moveq	r1, #1
.Ltmp159:
	.loc	7 6628 17 is_stmt 1             @ c:/Keil_v5\ARM\PACK\Keil\STM32L5xx_DFP\1.3.0\Drivers\STM32L5xx_HAL_Driver\Src\stm32l5xx_hal_tim.c:6628:17
	strbeq.w	r1, [r0, #61]
.Ltmp160:
	.loc	7 6634 3                        @ c:/Keil_v5\ARM\PACK\Keil\STM32L5xx_DFP\1.3.0\Drivers\STM32L5xx_HAL_Driver\Src\stm32l5xx_hal_tim.c:6634:3
	b	HAL_TIM_PeriodElapsedCallback
.Ltmp161:
.Lfunc_end10:
	.size	TIM_DMAPeriodElapsedCplt, .Lfunc_end10-TIM_DMAPeriodElapsedCplt
	.cfi_endproc
	.cantunwind
	.fnend
                                        @ -- End function
	.section	.text.TIM_DMAPeriodElapsedHalfCplt,"ax",%progbits
	.p2align	2                               @ -- Begin function TIM_DMAPeriodElapsedHalfCplt
	.type	TIM_DMAPeriodElapsedHalfCplt,%function
	.code	16                              @ @TIM_DMAPeriodElapsedHalfCplt
	.thumb_func
TIM_DMAPeriodElapsedHalfCplt:
.Lfunc_begin11:
	.loc	7 6644 0                        @ c:/Keil_v5\ARM\PACK\Keil\STM32L5xx_DFP\1.3.0\Drivers\STM32L5xx_HAL_Driver\Src\stm32l5xx_hal_tim.c:6644:0
	.fnstart
	.cfi_startproc
@ %bb.0:
	@DEBUG_VALUE: TIM_DMAPeriodElapsedHalfCplt:hdma <- $r0
	@DEBUG_VALUE: TIM_DMAPeriodElapsedHalfCplt:hdma <- $r0
	.loc	7 6645 79 prologue_end          @ c:/Keil_v5\ARM\PACK\Keil\STM32L5xx_DFP\1.3.0\Drivers\STM32L5xx_HAL_Driver\Src\stm32l5xx_hal_tim.c:6645:79
	ldr	r0, [r0, #40]
.Ltmp162:
	@DEBUG_VALUE: TIM_DMAPeriodElapsedHalfCplt:hdma <- [DW_OP_LLVM_entry_value 1] $r0
	@DEBUG_VALUE: TIM_DMAPeriodElapsedHalfCplt:htim <- $r0
	.loc	7 6650 3                        @ c:/Keil_v5\ARM\PACK\Keil\STM32L5xx_DFP\1.3.0\Drivers\STM32L5xx_HAL_Driver\Src\stm32l5xx_hal_tim.c:6650:3
	b	HAL_TIM_PeriodElapsedHalfCpltCallback
.Ltmp163:
.Lfunc_end11:
	.size	TIM_DMAPeriodElapsedHalfCplt, .Lfunc_end11-TIM_DMAPeriodElapsedHalfCplt
	.cfi_endproc
	.cantunwind
	.fnend
                                        @ -- End function
	.section	.text.TIM_DMAError,"ax",%progbits
	.hidden	TIM_DMAError                    @ -- Begin function TIM_DMAError
	.globl	TIM_DMAError
	.p2align	2
	.type	TIM_DMAError,%function
	.code	16                              @ @TIM_DMAError
	.thumb_func
TIM_DMAError:
.Lfunc_begin12:
	.loc	7 6380 0                        @ c:/Keil_v5\ARM\PACK\Keil\STM32L5xx_DFP\1.3.0\Drivers\STM32L5xx_HAL_Driver\Src\stm32l5xx_hal_tim.c:6380:0
	.fnstart
	.cfi_startproc
@ %bb.0:
	@DEBUG_VALUE: TIM_DMAError:hdma <- $r0
	@DEBUG_VALUE: TIM_DMAError:hdma <- $r0
	.save	{r4, lr}
	push	{r4, lr}
	.cfi_def_cfa_offset 8
	.cfi_offset lr, -4
	.cfi_offset r4, -8
.Ltmp164:
	.loc	7 6381 79 prologue_end          @ c:/Keil_v5\ARM\PACK\Keil\STM32L5xx_DFP\1.3.0\Drivers\STM32L5xx_HAL_Driver\Src\stm32l5xx_hal_tim.c:6381:79
	ldr	r4, [r0, #40]
.Ltmp165:
	@DEBUG_VALUE: TIM_DMAError:htim <- $r4
	.loc	7 6383 15                       @ c:/Keil_v5\ARM\PACK\Keil\STM32L5xx_DFP\1.3.0\Drivers\STM32L5xx_HAL_Driver\Src\stm32l5xx_hal_tim.c:6383:15
	ldr	r1, [r4, #36]
.Ltmp166:
	.loc	7 6383 7 is_stmt 0              @ c:/Keil_v5\ARM\PACK\Keil\STM32L5xx_DFP\1.3.0\Drivers\STM32L5xx_HAL_Driver\Src\stm32l5xx_hal_tim.c:6383:7
	cmp	r1, r0
	beq	.LBB12_5
.Ltmp167:
@ %bb.1:
	@DEBUG_VALUE: TIM_DMAError:htim <- $r4
	@DEBUG_VALUE: TIM_DMAError:hdma <- $r0
	.loc	7 6388 20 is_stmt 1             @ c:/Keil_v5\ARM\PACK\Keil\STM32L5xx_DFP\1.3.0\Drivers\STM32L5xx_HAL_Driver\Src\stm32l5xx_hal_tim.c:6388:20
	ldr	r1, [r4, #40]
.Ltmp168:
	.loc	7 6388 12 is_stmt 0             @ c:/Keil_v5\ARM\PACK\Keil\STM32L5xx_DFP\1.3.0\Drivers\STM32L5xx_HAL_Driver\Src\stm32l5xx_hal_tim.c:6388:12
	cmp	r1, r0
	beq	.LBB12_6
.Ltmp169:
@ %bb.2:
	@DEBUG_VALUE: TIM_DMAError:htim <- $r4
	@DEBUG_VALUE: TIM_DMAError:hdma <- $r0
	.loc	7 6393 20 is_stmt 1             @ c:/Keil_v5\ARM\PACK\Keil\STM32L5xx_DFP\1.3.0\Drivers\STM32L5xx_HAL_Driver\Src\stm32l5xx_hal_tim.c:6393:20
	ldr	r1, [r4, #44]
.Ltmp170:
	.loc	7 6393 12 is_stmt 0             @ c:/Keil_v5\ARM\PACK\Keil\STM32L5xx_DFP\1.3.0\Drivers\STM32L5xx_HAL_Driver\Src\stm32l5xx_hal_tim.c:6393:12
	cmp	r1, r0
	beq	.LBB12_7
.Ltmp171:
@ %bb.3:
	@DEBUG_VALUE: TIM_DMAError:htim <- $r4
	@DEBUG_VALUE: TIM_DMAError:hdma <- $r0
	.loc	7 6398 20 is_stmt 1             @ c:/Keil_v5\ARM\PACK\Keil\STM32L5xx_DFP\1.3.0\Drivers\STM32L5xx_HAL_Driver\Src\stm32l5xx_hal_tim.c:6398:20
	ldr	r1, [r4, #48]
.Ltmp172:
	.loc	7 6398 12 is_stmt 0             @ c:/Keil_v5\ARM\PACK\Keil\STM32L5xx_DFP\1.3.0\Drivers\STM32L5xx_HAL_Driver\Src\stm32l5xx_hal_tim.c:6398:12
	cmp	r1, r0
	beq	.LBB12_8
.Ltmp173:
@ %bb.4:
	@DEBUG_VALUE: TIM_DMAError:htim <- $r4
	@DEBUG_VALUE: TIM_DMAError:hdma <- $r0
	.loc	7 0 12                          @ c:/Keil_v5\ARM\PACK\Keil\STM32L5xx_DFP\1.3.0\Drivers\STM32L5xx_HAL_Driver\Src\stm32l5xx_hal_tim.c:0:12
	movs	r0, #1
.Ltmp174:
	@DEBUG_VALUE: TIM_DMAError:hdma <- [DW_OP_LLVM_entry_value 1] $r0
	.loc	7 6405 17 is_stmt 1             @ c:/Keil_v5\ARM\PACK\Keil\STM32L5xx_DFP\1.3.0\Drivers\STM32L5xx_HAL_Driver\Src\stm32l5xx_hal_tim.c:6405:17
	strb.w	r0, [r4, #61]
	b	.LBB12_9
.Ltmp175:
	.p2align	2
.LBB12_5:
	@DEBUG_VALUE: TIM_DMAError:htim <- $r4
	@DEBUG_VALUE: TIM_DMAError:hdma <- $r0
	.loc	7 0 17 is_stmt 0                @ c:/Keil_v5\ARM\PACK\Keil\STM32L5xx_DFP\1.3.0\Drivers\STM32L5xx_HAL_Driver\Src\stm32l5xx_hal_tim.c:0:17
	movs	r0, #1
.Ltmp176:
	@DEBUG_VALUE: TIM_DMAError:hdma <- [DW_OP_LLVM_entry_value 1] $r0
	.loc	7 6385 19 is_stmt 1             @ c:/Keil_v5\ARM\PACK\Keil\STM32L5xx_DFP\1.3.0\Drivers\STM32L5xx_HAL_Driver\Src\stm32l5xx_hal_tim.c:6385:19
	strb	r0, [r4, #28]
	.loc	7 6386 5                        @ c:/Keil_v5\ARM\PACK\Keil\STM32L5xx_DFP\1.3.0\Drivers\STM32L5xx_HAL_Driver\Src\stm32l5xx_hal_tim.c:6386:5
	strb.w	r0, [r4, #62]
	.loc	7 6387 3                        @ c:/Keil_v5\ARM\PACK\Keil\STM32L5xx_DFP\1.3.0\Drivers\STM32L5xx_HAL_Driver\Src\stm32l5xx_hal_tim.c:6387:3
	b	.LBB12_9
.Ltmp177:
	.p2align	2
.LBB12_6:
	@DEBUG_VALUE: TIM_DMAError:htim <- $r4
	@DEBUG_VALUE: TIM_DMAError:hdma <- $r0
	.loc	7 0 3 is_stmt 0                 @ c:/Keil_v5\ARM\PACK\Keil\STM32L5xx_DFP\1.3.0\Drivers\STM32L5xx_HAL_Driver\Src\stm32l5xx_hal_tim.c:0:3
	movs	r0, #2
.Ltmp178:
	@DEBUG_VALUE: TIM_DMAError:hdma <- [DW_OP_LLVM_entry_value 1] $r0
	.loc	7 6390 19 is_stmt 1             @ c:/Keil_v5\ARM\PACK\Keil\STM32L5xx_DFP\1.3.0\Drivers\STM32L5xx_HAL_Driver\Src\stm32l5xx_hal_tim.c:6390:19
	strb	r0, [r4, #28]
	movs	r0, #1
	.loc	7 6391 5                        @ c:/Keil_v5\ARM\PACK\Keil\STM32L5xx_DFP\1.3.0\Drivers\STM32L5xx_HAL_Driver\Src\stm32l5xx_hal_tim.c:6391:5
	strb.w	r0, [r4, #63]
	.loc	7 6392 3                        @ c:/Keil_v5\ARM\PACK\Keil\STM32L5xx_DFP\1.3.0\Drivers\STM32L5xx_HAL_Driver\Src\stm32l5xx_hal_tim.c:6392:3
	b	.LBB12_9
.Ltmp179:
	.p2align	2
.LBB12_7:
	@DEBUG_VALUE: TIM_DMAError:htim <- $r4
	@DEBUG_VALUE: TIM_DMAError:hdma <- $r0
	.loc	7 0 3 is_stmt 0                 @ c:/Keil_v5\ARM\PACK\Keil\STM32L5xx_DFP\1.3.0\Drivers\STM32L5xx_HAL_Driver\Src\stm32l5xx_hal_tim.c:0:3
	movs	r0, #4
.Ltmp180:
	@DEBUG_VALUE: TIM_DMAError:hdma <- [DW_OP_LLVM_entry_value 1] $r0
	.loc	7 6395 19 is_stmt 1             @ c:/Keil_v5\ARM\PACK\Keil\STM32L5xx_DFP\1.3.0\Drivers\STM32L5xx_HAL_Driver\Src\stm32l5xx_hal_tim.c:6395:19
	strb	r0, [r4, #28]
	movs	r0, #1
	.loc	7 6396 5                        @ c:/Keil_v5\ARM\PACK\Keil\STM32L5xx_DFP\1.3.0\Drivers\STM32L5xx_HAL_Driver\Src\stm32l5xx_hal_tim.c:6396:5
	strb.w	r0, [r4, #64]
	.loc	7 6397 3                        @ c:/Keil_v5\ARM\PACK\Keil\STM32L5xx_DFP\1.3.0\Drivers\STM32L5xx_HAL_Driver\Src\stm32l5xx_hal_tim.c:6397:3
	b	.LBB12_9
.Ltmp181:
	.p2align	2
.LBB12_8:
	@DEBUG_VALUE: TIM_DMAError:htim <- $r4
	@DEBUG_VALUE: TIM_DMAError:hdma <- $r0
	.loc	7 0 3 is_stmt 0                 @ c:/Keil_v5\ARM\PACK\Keil\STM32L5xx_DFP\1.3.0\Drivers\STM32L5xx_HAL_Driver\Src\stm32l5xx_hal_tim.c:0:3
	movs	r0, #8
.Ltmp182:
	@DEBUG_VALUE: TIM_DMAError:hdma <- [DW_OP_LLVM_entry_value 1] $r0
	.loc	7 6400 19 is_stmt 1             @ c:/Keil_v5\ARM\PACK\Keil\STM32L5xx_DFP\1.3.0\Drivers\STM32L5xx_HAL_Driver\Src\stm32l5xx_hal_tim.c:6400:19
	strb	r0, [r4, #28]
	movs	r0, #1
	.loc	7 6401 5                        @ c:/Keil_v5\ARM\PACK\Keil\STM32L5xx_DFP\1.3.0\Drivers\STM32L5xx_HAL_Driver\Src\stm32l5xx_hal_tim.c:6401:5
	strb.w	r0, [r4, #65]
.Ltmp183:
.LBB12_9:
	@DEBUG_VALUE: TIM_DMAError:htim <- $r4
	@DEBUG_VALUE: TIM_DMAError:hdma <- [DW_OP_LLVM_entry_value 1] $r0
	.loc	7 6411 3                        @ c:/Keil_v5\ARM\PACK\Keil\STM32L5xx_DFP\1.3.0\Drivers\STM32L5xx_HAL_Driver\Src\stm32l5xx_hal_tim.c:6411:3
	mov	r0, r4
	bl	HAL_TIM_ErrorCallback
	movs	r0, #0
	.loc	7 6414 17                       @ c:/Keil_v5\ARM\PACK\Keil\STM32L5xx_DFP\1.3.0\Drivers\STM32L5xx_HAL_Driver\Src\stm32l5xx_hal_tim.c:6414:17
	strb	r0, [r4, #28]
	.loc	7 6415 1                        @ c:/Keil_v5\ARM\PACK\Keil\STM32L5xx_DFP\1.3.0\Drivers\STM32L5xx_HAL_Driver\Src\stm32l5xx_hal_tim.c:6415:1
	pop	{r4, pc}
.Ltmp184:
.Lfunc_end12:
	.size	TIM_DMAError, .Lfunc_end12-TIM_DMAError
	.cfi_endproc
	.cantunwind
	.fnend
                                        @ -- End function
	.section	.text.HAL_TIM_Base_Stop_DMA,"ax",%progbits
	.hidden	HAL_TIM_Base_Stop_DMA           @ -- Begin function HAL_TIM_Base_Stop_DMA
	.globl	HAL_TIM_Base_Stop_DMA
	.p2align	2
	.type	HAL_TIM_Base_Stop_DMA,%function
	.code	16                              @ @HAL_TIM_Base_Stop_DMA
	.thumb_func
HAL_TIM_Base_Stop_DMA:
.Lfunc_begin13:
	.loc	7 596 0                         @ c:/Keil_v5\ARM\PACK\Keil\STM32L5xx_DFP\1.3.0\Drivers\STM32L5xx_HAL_Driver\Src\stm32l5xx_hal_tim.c:596:0
	.fnstart
	.cfi_startproc
@ %bb.0:
	@DEBUG_VALUE: HAL_TIM_Base_Stop_DMA:htim <- $r0
	.save	{r4, lr}
	push	{r4, lr}
	.cfi_def_cfa_offset 8
	.cfi_offset lr, -4
	.cfi_offset r4, -8
.Ltmp185:
	.loc	7 601 3 prologue_end            @ c:/Keil_v5\ARM\PACK\Keil\STM32L5xx_DFP\1.3.0\Drivers\STM32L5xx_HAL_Driver\Src\stm32l5xx_hal_tim.c:601:3
	ldr	r1, [r0]
	mov	r4, r0
.Ltmp186:
	@DEBUG_VALUE: HAL_TIM_Base_Stop_DMA:htim <- $r4
	.loc	7 603 26                        @ c:/Keil_v5\ARM\PACK\Keil\STM32L5xx_DFP\1.3.0\Drivers\STM32L5xx_HAL_Driver\Src\stm32l5xx_hal_tim.c:603:26
	ldr	r0, [r0, #32]
	.loc	7 601 3                         @ c:/Keil_v5\ARM\PACK\Keil\STM32L5xx_DFP\1.3.0\Drivers\STM32L5xx_HAL_Driver\Src\stm32l5xx_hal_tim.c:601:3
	ldr	r2, [r1, #12]
	bic	r2, r2, #256
	str	r2, [r1, #12]
	.loc	7 603 9                         @ c:/Keil_v5\ARM\PACK\Keil\STM32L5xx_DFP\1.3.0\Drivers\STM32L5xx_HAL_Driver\Src\stm32l5xx_hal_tim.c:603:9
	bl	HAL_DMA_Abort_IT
.Ltmp187:
	.loc	7 606 3                         @ c:/Keil_v5\ARM\PACK\Keil\STM32L5xx_DFP\1.3.0\Drivers\STM32L5xx_HAL_Driver\Src\stm32l5xx_hal_tim.c:606:3
	ldr	r0, [r4]
	movw	r2, #4369
	ldr	r1, [r0, #32]
.Ltmp188:
	.loc	7 606 3 is_stmt 0               @ c:/Keil_v5\ARM\PACK\Keil\STM32L5xx_DFP\1.3.0\Drivers\STM32L5xx_HAL_Driver\Src\stm32l5xx_hal_tim.c:606:3
	tst	r1, r2
	beq	.LBB13_2
.Ltmp189:
.LBB13_1:
	@DEBUG_VALUE: HAL_TIM_Base_Stop_DMA:htim <- $r4
	.loc	7 0 3                           @ c:/Keil_v5\ARM\PACK\Keil\STM32L5xx_DFP\1.3.0\Drivers\STM32L5xx_HAL_Driver\Src\stm32l5xx_hal_tim.c:0:3
	movs	r1, #1
	.loc	7 612 3 is_stmt 1               @ c:/Keil_v5\ARM\PACK\Keil\STM32L5xx_DFP\1.3.0\Drivers\STM32L5xx_HAL_Driver\Src\stm32l5xx_hal_tim.c:612:3
	movs	r0, #0
	.loc	7 609 15                        @ c:/Keil_v5\ARM\PACK\Keil\STM32L5xx_DFP\1.3.0\Drivers\STM32L5xx_HAL_Driver\Src\stm32l5xx_hal_tim.c:609:15
	strb.w	r1, [r4, #61]
	.loc	7 612 3                         @ c:/Keil_v5\ARM\PACK\Keil\STM32L5xx_DFP\1.3.0\Drivers\STM32L5xx_HAL_Driver\Src\stm32l5xx_hal_tim.c:612:3
	pop	{r4, pc}
.Ltmp190:
	.p2align	2
.LBB13_2:
	@DEBUG_VALUE: HAL_TIM_Base_Stop_DMA:htim <- $r4
	.loc	7 606 3                         @ c:/Keil_v5\ARM\PACK\Keil\STM32L5xx_DFP\1.3.0\Drivers\STM32L5xx_HAL_Driver\Src\stm32l5xx_hal_tim.c:606:3
	ldr	r1, [r0, #32]
	movw	r2, #1092
.Ltmp191:
	.loc	7 606 3 is_stmt 0               @ c:/Keil_v5\ARM\PACK\Keil\STM32L5xx_DFP\1.3.0\Drivers\STM32L5xx_HAL_Driver\Src\stm32l5xx_hal_tim.c:606:3
	tst	r1, r2
	bne	.LBB13_1
.Ltmp192:
@ %bb.3:
	@DEBUG_VALUE: HAL_TIM_Base_Stop_DMA:htim <- $r4
	.loc	7 606 3                         @ c:/Keil_v5\ARM\PACK\Keil\STM32L5xx_DFP\1.3.0\Drivers\STM32L5xx_HAL_Driver\Src\stm32l5xx_hal_tim.c:606:3
	ldr	r1, [r0]
	bic	r1, r1, #1
	str	r1, [r0]
	movs	r1, #1
.Ltmp193:
	.loc	7 612 3 is_stmt 1               @ c:/Keil_v5\ARM\PACK\Keil\STM32L5xx_DFP\1.3.0\Drivers\STM32L5xx_HAL_Driver\Src\stm32l5xx_hal_tim.c:612:3
	movs	r0, #0
	.loc	7 609 15                        @ c:/Keil_v5\ARM\PACK\Keil\STM32L5xx_DFP\1.3.0\Drivers\STM32L5xx_HAL_Driver\Src\stm32l5xx_hal_tim.c:609:15
	strb.w	r1, [r4, #61]
	.loc	7 612 3                         @ c:/Keil_v5\ARM\PACK\Keil\STM32L5xx_DFP\1.3.0\Drivers\STM32L5xx_HAL_Driver\Src\stm32l5xx_hal_tim.c:612:3
	pop	{r4, pc}
.Ltmp194:
.Lfunc_end13:
	.size	HAL_TIM_Base_Stop_DMA, .Lfunc_end13-HAL_TIM_Base_Stop_DMA
	.cfi_endproc
	.cantunwind
	.fnend
                                        @ -- End function
	.section	.text.HAL_TIM_OC_Init,"ax",%progbits
	.hidden	HAL_TIM_OC_Init                 @ -- Begin function HAL_TIM_OC_Init
	.globl	HAL_TIM_OC_Init
	.p2align	2
	.type	HAL_TIM_OC_Init,%function
	.code	16                              @ @HAL_TIM_OC_Init
	.thumb_func
HAL_TIM_OC_Init:
.Lfunc_begin14:
	.loc	7 651 0                         @ c:/Keil_v5\ARM\PACK\Keil\STM32L5xx_DFP\1.3.0\Drivers\STM32L5xx_HAL_Driver\Src\stm32l5xx_hal_tim.c:651:0
	.fnstart
	.cfi_startproc
@ %bb.0:
	@DEBUG_VALUE: HAL_TIM_OC_Init:htim <- $r0
	@DEBUG_VALUE: HAL_TIM_OC_Init:htim <- $r0
	.loc	7 653 7 prologue_end            @ c:/Keil_v5\ARM\PACK\Keil\STM32L5xx_DFP\1.3.0\Drivers\STM32L5xx_HAL_Driver\Src\stm32l5xx_hal_tim.c:653:7
	cmp	r0, #0
	itt	eq
	moveq	r0, #1
.Ltmp195:
	@DEBUG_VALUE: HAL_TIM_OC_Init:htim <- [DW_OP_LLVM_entry_value 1] $r0
	.loc	7 702 1                         @ c:/Keil_v5\ARM\PACK\Keil\STM32L5xx_DFP\1.3.0\Drivers\STM32L5xx_HAL_Driver\Src\stm32l5xx_hal_tim.c:702:1
	bxeq	lr
.Ltmp196:
.LBB14_1:
	@DEBUG_VALUE: HAL_TIM_OC_Init:htim <- [DW_OP_LLVM_entry_value 1] $r0
	.save	{r4, lr}
	push	{r4, lr}
	.cfi_def_cfa_offset 8
	.cfi_offset lr, -4
	.cfi_offset r4, -8
	mov	r4, r0
.Ltmp197:
	@DEBUG_VALUE: HAL_TIM_OC_Init:htim <- $r4
	.loc	7 664 13                        @ c:/Keil_v5\ARM\PACK\Keil\STM32L5xx_DFP\1.3.0\Drivers\STM32L5xx_HAL_Driver\Src\stm32l5xx_hal_tim.c:664:13
	ldrb.w	r0, [r0, #61]
.Ltmp198:
	.loc	7 664 7 is_stmt 0               @ c:/Keil_v5\ARM\PACK\Keil\STM32L5xx_DFP\1.3.0\Drivers\STM32L5xx_HAL_Driver\Src\stm32l5xx_hal_tim.c:664:7
	cbnz	r0, .LBB14_3
.Ltmp199:
@ %bb.2:
	@DEBUG_VALUE: HAL_TIM_OC_Init:htim <- $r4
	.loc	7 0 7                           @ c:/Keil_v5\ARM\PACK\Keil\STM32L5xx_DFP\1.3.0\Drivers\STM32L5xx_HAL_Driver\Src\stm32l5xx_hal_tim.c:0:7
	movs	r0, #0
.Ltmp200:
	.loc	7 667 16 is_stmt 1              @ c:/Keil_v5\ARM\PACK\Keil\STM32L5xx_DFP\1.3.0\Drivers\STM32L5xx_HAL_Driver\Src\stm32l5xx_hal_tim.c:667:16
	strb.w	r0, [r4, #60]
	.loc	7 681 5                         @ c:/Keil_v5\ARM\PACK\Keil\STM32L5xx_DFP\1.3.0\Drivers\STM32L5xx_HAL_Driver\Src\stm32l5xx_hal_tim.c:681:5
	mov	r0, r4
	bl	HAL_TIM_OC_MspInit
.Ltmp201:
.LBB14_3:
	@DEBUG_VALUE: HAL_TIM_OC_Init:htim <- $r4
	.loc	7 0 5 is_stmt 0                 @ c:/Keil_v5\ARM\PACK\Keil\STM32L5xx_DFP\1.3.0\Drivers\STM32L5xx_HAL_Driver\Src\stm32l5xx_hal_tim.c:0:5
	movs	r0, #2
	.loc	7 686 15 is_stmt 1              @ c:/Keil_v5\ARM\PACK\Keil\STM32L5xx_DFP\1.3.0\Drivers\STM32L5xx_HAL_Driver\Src\stm32l5xx_hal_tim.c:686:15
	strb.w	r0, [r4, #61]
	.loc	7 689 28                        @ c:/Keil_v5\ARM\PACK\Keil\STM32L5xx_DFP\1.3.0\Drivers\STM32L5xx_HAL_Driver\Src\stm32l5xx_hal_tim.c:689:28
	ldr	r0, [r4]
	.loc	7 689 46 is_stmt 0              @ c:/Keil_v5\ARM\PACK\Keil\STM32L5xx_DFP\1.3.0\Drivers\STM32L5xx_HAL_Driver\Src\stm32l5xx_hal_tim.c:689:46
	adds	r1, r4, #4
	.loc	7 689 3                         @ c:/Keil_v5\ARM\PACK\Keil\STM32L5xx_DFP\1.3.0\Drivers\STM32L5xx_HAL_Driver\Src\stm32l5xx_hal_tim.c:689:3
	bl	TIM_Base_SetConfig
	movs	r0, #1
	.loc	7 692 23 is_stmt 1              @ c:/Keil_v5\ARM\PACK\Keil\STM32L5xx_DFP\1.3.0\Drivers\STM32L5xx_HAL_Driver\Src\stm32l5xx_hal_tim.c:692:23
	strb.w	r0, [r4, #72]
.Ltmp202:
	.loc	7 695 3                         @ c:/Keil_v5\ARM\PACK\Keil\STM32L5xx_DFP\1.3.0\Drivers\STM32L5xx_HAL_Driver\Src\stm32l5xx_hal_tim.c:695:3
	strb.w	r0, [r4, #62]
	strb.w	r0, [r4, #63]
	strb.w	r0, [r4, #64]
	strb.w	r0, [r4, #65]
	strb.w	r0, [r4, #66]
	strb.w	r0, [r4, #67]
.Ltmp203:
	.loc	7 696 3                         @ c:/Keil_v5\ARM\PACK\Keil\STM32L5xx_DFP\1.3.0\Drivers\STM32L5xx_HAL_Driver\Src\stm32l5xx_hal_tim.c:696:3
	strb.w	r0, [r4, #68]
	strb.w	r0, [r4, #69]
	strb.w	r0, [r4, #70]
	strb.w	r0, [r4, #71]
.Ltmp204:
	.loc	7 699 15                        @ c:/Keil_v5\ARM\PACK\Keil\STM32L5xx_DFP\1.3.0\Drivers\STM32L5xx_HAL_Driver\Src\stm32l5xx_hal_tim.c:699:15
	strb.w	r0, [r4, #61]
	movs	r0, #0
	pop	{r4, pc}
.Ltmp205:
.Lfunc_end14:
	.size	HAL_TIM_OC_Init, .Lfunc_end14-HAL_TIM_OC_Init
	.cfi_endproc
	.cantunwind
	.fnend
                                        @ -- End function
	.section	.text.HAL_TIM_OC_MspInit,"ax",%progbits
	.hidden	HAL_TIM_OC_MspInit              @ -- Begin function HAL_TIM_OC_MspInit
	.weak	HAL_TIM_OC_MspInit
	.p2align	2
	.type	HAL_TIM_OC_MspInit,%function
	.code	16                              @ @HAL_TIM_OC_MspInit
	.thumb_func
HAL_TIM_OC_MspInit:
.Lfunc_begin15:
	.loc	7 753 0                         @ c:/Keil_v5\ARM\PACK\Keil\STM32L5xx_DFP\1.3.0\Drivers\STM32L5xx_HAL_Driver\Src\stm32l5xx_hal_tim.c:753:0
	.fnstart
	.cfi_startproc
@ %bb.0:
	@DEBUG_VALUE: HAL_TIM_OC_MspInit:htim <- $r0
	.loc	7 760 1 prologue_end            @ c:/Keil_v5\ARM\PACK\Keil\STM32L5xx_DFP\1.3.0\Drivers\STM32L5xx_HAL_Driver\Src\stm32l5xx_hal_tim.c:760:1
	bx	lr
.Ltmp206:
.Lfunc_end15:
	.size	HAL_TIM_OC_MspInit, .Lfunc_end15-HAL_TIM_OC_MspInit
	.cfi_endproc
	.cantunwind
	.fnend
                                        @ -- End function
	.section	.text.HAL_TIM_OC_DeInit,"ax",%progbits
	.hidden	HAL_TIM_OC_DeInit               @ -- Begin function HAL_TIM_OC_DeInit
	.globl	HAL_TIM_OC_DeInit
	.p2align	2
	.type	HAL_TIM_OC_DeInit,%function
	.code	16                              @ @HAL_TIM_OC_DeInit
	.thumb_func
HAL_TIM_OC_DeInit:
.Lfunc_begin16:
	.loc	7 710 0                         @ c:/Keil_v5\ARM\PACK\Keil\STM32L5xx_DFP\1.3.0\Drivers\STM32L5xx_HAL_Driver\Src\stm32l5xx_hal_tim.c:710:0
	.fnstart
	.cfi_startproc
@ %bb.0:
	@DEBUG_VALUE: HAL_TIM_OC_DeInit:htim <- $r0
	.save	{r4, lr}
	push	{r4, lr}
	.cfi_def_cfa_offset 8
	.cfi_offset lr, -4
	.cfi_offset r4, -8
	mov	r4, r0
.Ltmp207:
	@DEBUG_VALUE: HAL_TIM_OC_DeInit:htim <- $r4
	movs	r0, #2
	@DEBUG_VALUE: HAL_TIM_OC_DeInit:htim <- $r4
.Ltmp208:
	.loc	7 714 15 prologue_end           @ c:/Keil_v5\ARM\PACK\Keil\STM32L5xx_DFP\1.3.0\Drivers\STM32L5xx_HAL_Driver\Src\stm32l5xx_hal_tim.c:714:15
	strb.w	r0, [r4, #61]
.Ltmp209:
	.loc	7 717 3                         @ c:/Keil_v5\ARM\PACK\Keil\STM32L5xx_DFP\1.3.0\Drivers\STM32L5xx_HAL_Driver\Src\stm32l5xx_hal_tim.c:717:3
	ldr	r0, [r4]
	movw	r2, #4369
	ldr	r1, [r0, #32]
.Ltmp210:
	.loc	7 717 3 is_stmt 0               @ c:/Keil_v5\ARM\PACK\Keil\STM32L5xx_DFP\1.3.0\Drivers\STM32L5xx_HAL_Driver\Src\stm32l5xx_hal_tim.c:717:3
	tst	r1, r2
	bne	.LBB16_3
.Ltmp211:
@ %bb.1:
	@DEBUG_VALUE: HAL_TIM_OC_DeInit:htim <- $r4
	.loc	7 717 3                         @ c:/Keil_v5\ARM\PACK\Keil\STM32L5xx_DFP\1.3.0\Drivers\STM32L5xx_HAL_Driver\Src\stm32l5xx_hal_tim.c:717:3
	ldr	r1, [r0, #32]
	movw	r2, #1092
.Ltmp212:
	.loc	7 717 3                         @ c:/Keil_v5\ARM\PACK\Keil\STM32L5xx_DFP\1.3.0\Drivers\STM32L5xx_HAL_Driver\Src\stm32l5xx_hal_tim.c:717:3
	tst	r1, r2
	bne	.LBB16_3
.Ltmp213:
@ %bb.2:
	@DEBUG_VALUE: HAL_TIM_OC_DeInit:htim <- $r4
	.loc	7 717 3                         @ c:/Keil_v5\ARM\PACK\Keil\STM32L5xx_DFP\1.3.0\Drivers\STM32L5xx_HAL_Driver\Src\stm32l5xx_hal_tim.c:717:3
	ldr	r1, [r0]
	bic	r1, r1, #1
	str	r1, [r0]
.Ltmp214:
.LBB16_3:
	@DEBUG_VALUE: HAL_TIM_OC_DeInit:htim <- $r4
	.loc	7 728 3 is_stmt 1               @ c:/Keil_v5\ARM\PACK\Keil\STM32L5xx_DFP\1.3.0\Drivers\STM32L5xx_HAL_Driver\Src\stm32l5xx_hal_tim.c:728:3
	mov	r0, r4
	bl	HAL_TIM_OC_MspDeInit
	movs	r1, #0
	.loc	7 744 3                         @ c:/Keil_v5\ARM\PACK\Keil\STM32L5xx_DFP\1.3.0\Drivers\STM32L5xx_HAL_Driver\Src\stm32l5xx_hal_tim.c:744:3
	movs	r0, #0
	.loc	7 732 23                        @ c:/Keil_v5\ARM\PACK\Keil\STM32L5xx_DFP\1.3.0\Drivers\STM32L5xx_HAL_Driver\Src\stm32l5xx_hal_tim.c:732:23
	strb.w	r1, [r4, #72]
.Ltmp215:
	.loc	7 735 3                         @ c:/Keil_v5\ARM\PACK\Keil\STM32L5xx_DFP\1.3.0\Drivers\STM32L5xx_HAL_Driver\Src\stm32l5xx_hal_tim.c:735:3
	strb.w	r1, [r4, #62]
	strb.w	r1, [r4, #63]
	strb.w	r1, [r4, #64]
	strb.w	r1, [r4, #65]
	strb.w	r1, [r4, #66]
	strb.w	r1, [r4, #67]
.Ltmp216:
	.loc	7 736 3                         @ c:/Keil_v5\ARM\PACK\Keil\STM32L5xx_DFP\1.3.0\Drivers\STM32L5xx_HAL_Driver\Src\stm32l5xx_hal_tim.c:736:3
	strb.w	r1, [r4, #68]
	strb.w	r1, [r4, #69]
	strb.w	r1, [r4, #70]
	strb.w	r1, [r4, #71]
.Ltmp217:
	.loc	7 739 15                        @ c:/Keil_v5\ARM\PACK\Keil\STM32L5xx_DFP\1.3.0\Drivers\STM32L5xx_HAL_Driver\Src\stm32l5xx_hal_tim.c:739:15
	strb.w	r1, [r4, #61]
.Ltmp218:
	.loc	7 742 3                         @ c:/Keil_v5\ARM\PACK\Keil\STM32L5xx_DFP\1.3.0\Drivers\STM32L5xx_HAL_Driver\Src\stm32l5xx_hal_tim.c:742:3
	strb.w	r1, [r4, #60]
.Ltmp219:
	.loc	7 744 3                         @ c:/Keil_v5\ARM\PACK\Keil\STM32L5xx_DFP\1.3.0\Drivers\STM32L5xx_HAL_Driver\Src\stm32l5xx_hal_tim.c:744:3
	pop	{r4, pc}
.Ltmp220:
.Lfunc_end16:
	.size	HAL_TIM_OC_DeInit, .Lfunc_end16-HAL_TIM_OC_DeInit
	.cfi_endproc
	.cantunwind
	.fnend
                                        @ -- End function
	.section	.text.HAL_TIM_OC_MspDeInit,"ax",%progbits
	.hidden	HAL_TIM_OC_MspDeInit            @ -- Begin function HAL_TIM_OC_MspDeInit
	.weak	HAL_TIM_OC_MspDeInit
	.p2align	2
	.type	HAL_TIM_OC_MspDeInit,%function
	.code	16                              @ @HAL_TIM_OC_MspDeInit
	.thumb_func
HAL_TIM_OC_MspDeInit:
.Lfunc_begin17:
	.loc	7 768 0                         @ c:/Keil_v5\ARM\PACK\Keil\STM32L5xx_DFP\1.3.0\Drivers\STM32L5xx_HAL_Driver\Src\stm32l5xx_hal_tim.c:768:0
	.fnstart
	.cfi_startproc
@ %bb.0:
	@DEBUG_VALUE: HAL_TIM_OC_MspDeInit:htim <- $r0
	.loc	7 775 1 prologue_end            @ c:/Keil_v5\ARM\PACK\Keil\STM32L5xx_DFP\1.3.0\Drivers\STM32L5xx_HAL_Driver\Src\stm32l5xx_hal_tim.c:775:1
	bx	lr
.Ltmp221:
.Lfunc_end17:
	.size	HAL_TIM_OC_MspDeInit, .Lfunc_end17-HAL_TIM_OC_MspDeInit
	.cfi_endproc
	.cantunwind
	.fnend
                                        @ -- End function
	.section	.text.HAL_TIM_OC_Start,"ax",%progbits
	.hidden	HAL_TIM_OC_Start                @ -- Begin function HAL_TIM_OC_Start
	.globl	HAL_TIM_OC_Start
	.p2align	2
	.type	HAL_TIM_OC_Start,%function
	.code	16                              @ @HAL_TIM_OC_Start
	.thumb_func
HAL_TIM_OC_Start:
.Lfunc_begin18:
	.loc	7 791 0                         @ c:/Keil_v5\ARM\PACK\Keil\STM32L5xx_DFP\1.3.0\Drivers\STM32L5xx_HAL_Driver\Src\stm32l5xx_hal_tim.c:791:0
	.fnstart
	.cfi_startproc
@ %bb.0:
	@DEBUG_VALUE: HAL_TIM_OC_Start:htim <- $r0
	@DEBUG_VALUE: HAL_TIM_OC_Start:Channel <- $r1
	@DEBUG_VALUE: HAL_TIM_OC_Start:Channel <- $r1
	@DEBUG_VALUE: HAL_TIM_OC_Start:htim <- $r0
	.loc	7 798 7 prologue_end            @ c:/Keil_v5\ARM\PACK\Keil\STM32L5xx_DFP\1.3.0\Drivers\STM32L5xx_HAL_Driver\Src\stm32l5xx_hal_tim.c:798:7
	cbz	r1, .LBB18_5
.Ltmp222:
@ %bb.1:
	@DEBUG_VALUE: HAL_TIM_OC_Start:Channel <- $r1
	@DEBUG_VALUE: HAL_TIM_OC_Start:htim <- $r0
	subs	r2, r1, #4
	ror.w	r2, r2, #2
	cmp	r2, #3
	bhi	.LBB18_7
.Ltmp223:
@ %bb.2:
	@DEBUG_VALUE: HAL_TIM_OC_Start:Channel <- $r1
	@DEBUG_VALUE: HAL_TIM_OC_Start:htim <- $r0
	.loc	7 0 7 is_stmt 0                 @ c:/Keil_v5\ARM\PACK\Keil\STM32L5xx_DFP\1.3.0\Drivers\STM32L5xx_HAL_Driver\Src\stm32l5xx_hal_tim.c:0:7
.LCPI18_0:
	tbb	[pc, r2]
.Ltmp224:
@ %bb.3:
.LJTI18_0:
	.byte	(.LBB18_4-(.LCPI18_0+4))/2
	.byte	(.LBB18_8-(.LCPI18_0+4))/2
	.byte	(.LBB18_9-(.LCPI18_0+4))/2
	.byte	(.LBB18_10-(.LCPI18_0+4))/2
	.p2align	1
	.p2align	2
.LBB18_4:
.Ltmp225:
	@DEBUG_VALUE: HAL_TIM_OC_Start:Channel <- $r1
	@DEBUG_VALUE: HAL_TIM_OC_Start:htim <- $r0
	.loc	7 798 7                         @ c:/Keil_v5\ARM\PACK\Keil\STM32L5xx_DFP\1.3.0\Drivers\STM32L5xx_HAL_Driver\Src\stm32l5xx_hal_tim.c:798:7
	add.w	r3, r0, #63
	b	.LBB18_11
.Ltmp226:
	.p2align	2
.LBB18_5:
	@DEBUG_VALUE: HAL_TIM_OC_Start:Channel <- $r1
	@DEBUG_VALUE: HAL_TIM_OC_Start:htim <- $r0
	ldrb.w	r2, [r0, #62]
.Ltmp227:
	.loc	7 798 7                         @ c:/Keil_v5\ARM\PACK\Keil\STM32L5xx_DFP\1.3.0\Drivers\STM32L5xx_HAL_Driver\Src\stm32l5xx_hal_tim.c:798:7
	cmp	r2, #1
	itt	ne
	movne	r0, #1
.Ltmp228:
	@DEBUG_VALUE: HAL_TIM_OC_Start:htim <- [DW_OP_LLVM_entry_value 1] $r0
	.loc	7 831 1 is_stmt 1               @ c:/Keil_v5\ARM\PACK\Keil\STM32L5xx_DFP\1.3.0\Drivers\STM32L5xx_HAL_Driver\Src\stm32l5xx_hal_tim.c:831:1
	bxne	lr
.Ltmp229:
.LBB18_6:
	@DEBUG_VALUE: HAL_TIM_OC_Start:Channel <- $r1
	@DEBUG_VALUE: HAL_TIM_OC_Start:htim <- [DW_OP_LLVM_entry_value 1] $r0
	.loc	7 0 1 is_stmt 0                 @ c:/Keil_v5\ARM\PACK\Keil\STM32L5xx_DFP\1.3.0\Drivers\STM32L5xx_HAL_Driver\Src\stm32l5xx_hal_tim.c:0:1
	movs	r2, #2
	.loc	7 804 3 is_stmt 1               @ c:/Keil_v5\ARM\PACK\Keil\STM32L5xx_DFP\1.3.0\Drivers\STM32L5xx_HAL_Driver\Src\stm32l5xx_hal_tim.c:804:3
	strb.w	r2, [r0, #62]
	b	.LBB18_20
.Ltmp230:
	.p2align	2
.LBB18_7:
	@DEBUG_VALUE: HAL_TIM_OC_Start:Channel <- $r1
	@DEBUG_VALUE: HAL_TIM_OC_Start:htim <- $r0
	.loc	7 798 7                         @ c:/Keil_v5\ARM\PACK\Keil\STM32L5xx_DFP\1.3.0\Drivers\STM32L5xx_HAL_Driver\Src\stm32l5xx_hal_tim.c:798:7
	add.w	r3, r0, #67
	b	.LBB18_11
.Ltmp231:
	.p2align	2
.LBB18_8:
	@DEBUG_VALUE: HAL_TIM_OC_Start:Channel <- $r1
	@DEBUG_VALUE: HAL_TIM_OC_Start:htim <- $r0
	add.w	r3, r0, #64
	b	.LBB18_11
.Ltmp232:
	.p2align	2
.LBB18_9:
	@DEBUG_VALUE: HAL_TIM_OC_Start:Channel <- $r1
	@DEBUG_VALUE: HAL_TIM_OC_Start:htim <- $r0
	add.w	r3, r0, #65
	b	.LBB18_11
.Ltmp233:
	.p2align	2
.LBB18_10:
	@DEBUG_VALUE: HAL_TIM_OC_Start:Channel <- $r1
	@DEBUG_VALUE: HAL_TIM_OC_Start:htim <- $r0
	add.w	r3, r0, #66
.Ltmp234:
.LBB18_11:
	@DEBUG_VALUE: HAL_TIM_OC_Start:Channel <- $r1
	@DEBUG_VALUE: HAL_TIM_OC_Start:htim <- $r0
	ldrb	r3, [r3]
.Ltmp235:
	.loc	7 798 7 is_stmt 0               @ c:/Keil_v5\ARM\PACK\Keil\STM32L5xx_DFP\1.3.0\Drivers\STM32L5xx_HAL_Driver\Src\stm32l5xx_hal_tim.c:798:7
	cmp	r3, #1
	itt	ne
	movne	r0, #1
.Ltmp236:
	@DEBUG_VALUE: HAL_TIM_OC_Start:htim <- [DW_OP_LLVM_entry_value 1] $r0
	.loc	7 831 1 is_stmt 1               @ c:/Keil_v5\ARM\PACK\Keil\STM32L5xx_DFP\1.3.0\Drivers\STM32L5xx_HAL_Driver\Src\stm32l5xx_hal_tim.c:831:1
	bxne	lr
.Ltmp237:
.LBB18_12:
	@DEBUG_VALUE: HAL_TIM_OC_Start:Channel <- $r1
	@DEBUG_VALUE: HAL_TIM_OC_Start:htim <- [DW_OP_LLVM_entry_value 1] $r0
	.loc	7 804 3                         @ c:/Keil_v5\ARM\PACK\Keil\STM32L5xx_DFP\1.3.0\Drivers\STM32L5xx_HAL_Driver\Src\stm32l5xx_hal_tim.c:804:3
	cmp	r2, #3
	bhi	.LBB18_16
.Ltmp238:
@ %bb.13:
	@DEBUG_VALUE: HAL_TIM_OC_Start:Channel <- $r1
	@DEBUG_VALUE: HAL_TIM_OC_Start:htim <- [DW_OP_LLVM_entry_value 1] $r0
	.loc	7 0 3 is_stmt 0                 @ c:/Keil_v5\ARM\PACK\Keil\STM32L5xx_DFP\1.3.0\Drivers\STM32L5xx_HAL_Driver\Src\stm32l5xx_hal_tim.c:0:3
.LCPI18_1:
	tbb	[pc, r2]
.Ltmp239:
@ %bb.14:
.LJTI18_1:
	.byte	(.LBB18_15-(.LCPI18_1+4))/2
	.byte	(.LBB18_17-(.LCPI18_1+4))/2
	.byte	(.LBB18_18-(.LCPI18_1+4))/2
	.byte	(.LBB18_19-(.LCPI18_1+4))/2
	.p2align	1
	.p2align	2
.LBB18_15:
.Ltmp240:
	@DEBUG_VALUE: HAL_TIM_OC_Start:Channel <- $r1
	@DEBUG_VALUE: HAL_TIM_OC_Start:htim <- [DW_OP_LLVM_entry_value 1] $r0
	movs	r2, #2
	.loc	7 804 3                         @ c:/Keil_v5\ARM\PACK\Keil\STM32L5xx_DFP\1.3.0\Drivers\STM32L5xx_HAL_Driver\Src\stm32l5xx_hal_tim.c:804:3
	strb.w	r2, [r0, #63]
	b	.LBB18_20
.Ltmp241:
	.p2align	2
.LBB18_16:
	@DEBUG_VALUE: HAL_TIM_OC_Start:Channel <- $r1
	@DEBUG_VALUE: HAL_TIM_OC_Start:htim <- [DW_OP_LLVM_entry_value 1] $r0
	.loc	7 0 3                           @ c:/Keil_v5\ARM\PACK\Keil\STM32L5xx_DFP\1.3.0\Drivers\STM32L5xx_HAL_Driver\Src\stm32l5xx_hal_tim.c:0:3
	movs	r2, #2
	.loc	7 804 3                         @ c:/Keil_v5\ARM\PACK\Keil\STM32L5xx_DFP\1.3.0\Drivers\STM32L5xx_HAL_Driver\Src\stm32l5xx_hal_tim.c:804:3
	strb.w	r2, [r0, #67]
	b	.LBB18_20
.Ltmp242:
	.p2align	2
.LBB18_17:
	@DEBUG_VALUE: HAL_TIM_OC_Start:Channel <- $r1
	@DEBUG_VALUE: HAL_TIM_OC_Start:htim <- [DW_OP_LLVM_entry_value 1] $r0
	.loc	7 0 3                           @ c:/Keil_v5\ARM\PACK\Keil\STM32L5xx_DFP\1.3.0\Drivers\STM32L5xx_HAL_Driver\Src\stm32l5xx_hal_tim.c:0:3
	movs	r2, #2
	.loc	7 804 3                         @ c:/Keil_v5\ARM\PACK\Keil\STM32L5xx_DFP\1.3.0\Drivers\STM32L5xx_HAL_Driver\Src\stm32l5xx_hal_tim.c:804:3
	strb.w	r2, [r0, #64]
	b	.LBB18_20
.Ltmp243:
	.p2align	2
.LBB18_18:
	@DEBUG_VALUE: HAL_TIM_OC_Start:Channel <- $r1
	@DEBUG_VALUE: HAL_TIM_OC_Start:htim <- [DW_OP_LLVM_entry_value 1] $r0
	.loc	7 0 3                           @ c:/Keil_v5\ARM\PACK\Keil\STM32L5xx_DFP\1.3.0\Drivers\STM32L5xx_HAL_Driver\Src\stm32l5xx_hal_tim.c:0:3
	movs	r2, #2
	.loc	7 804 3                         @ c:/Keil_v5\ARM\PACK\Keil\STM32L5xx_DFP\1.3.0\Drivers\STM32L5xx_HAL_Driver\Src\stm32l5xx_hal_tim.c:804:3
	strb.w	r2, [r0, #65]
	b	.LBB18_20
.Ltmp244:
	.p2align	2
.LBB18_19:
	@DEBUG_VALUE: HAL_TIM_OC_Start:Channel <- $r1
	@DEBUG_VALUE: HAL_TIM_OC_Start:htim <- [DW_OP_LLVM_entry_value 1] $r0
	.loc	7 0 3                           @ c:/Keil_v5\ARM\PACK\Keil\STM32L5xx_DFP\1.3.0\Drivers\STM32L5xx_HAL_Driver\Src\stm32l5xx_hal_tim.c:0:3
	movs	r2, #2
	.loc	7 804 3                         @ c:/Keil_v5\ARM\PACK\Keil\STM32L5xx_DFP\1.3.0\Drivers\STM32L5xx_HAL_Driver\Src\stm32l5xx_hal_tim.c:804:3
	strb.w	r2, [r0, #66]
.Ltmp245:
.LBB18_20:
	@DEBUG_VALUE: HAL_TIM_OC_Start:Channel <- $r1
	@DEBUG_VALUE: HAL_TIM_OC_Start:htim <- [DW_OP_LLVM_entry_value 1] $r0
	.loc	7 807 27 is_stmt 1              @ c:/Keil_v5\ARM\PACK\Keil\STM32L5xx_DFP\1.3.0\Drivers\STM32L5xx_HAL_Driver\Src\stm32l5xx_hal_tim.c:807:27
	ldr	r2, [r0]
.Ltmp246:
	@DEBUG_VALUE: TIM_CCxChannelCmd:ChannelState <- 1
	@DEBUG_VALUE: TIM_CCxChannelCmd:Channel <- $r1
	@DEBUG_VALUE: TIM_CCxChannelCmd:TIMx <- $r2
	.loc	7 7602 35                       @ c:/Keil_v5\ARM\PACK\Keil\STM32L5xx_DFP\1.3.0\Drivers\STM32L5xx_HAL_Driver\Src\stm32l5xx_hal_tim.c:7602:35
	and	r1, r1, #31
.Ltmp247:
	@DEBUG_VALUE: HAL_TIM_OC_Start:Channel <- [DW_OP_LLVM_entry_value 1] $r1
	.loc	7 0 35 is_stmt 0                @ c:/Keil_v5\ARM\PACK\Keil\STM32L5xx_DFP\1.3.0\Drivers\STM32L5xx_HAL_Driver\Src\stm32l5xx_hal_tim.c:0:35
	movs	r0, #1
	.loc	7 7605 14 is_stmt 1             @ c:/Keil_v5\ARM\PACK\Keil\STM32L5xx_DFP\1.3.0\Drivers\STM32L5xx_HAL_Driver\Src\stm32l5xx_hal_tim.c:7605:14
	ldr	r3, [r2, #32]
	.loc	7 7602 23                       @ c:/Keil_v5\ARM\PACK\Keil\STM32L5xx_DFP\1.3.0\Drivers\STM32L5xx_HAL_Driver\Src\stm32l5xx_hal_tim.c:7602:23
	lsl.w	r1, r0, r1
.Ltmp248:
	@DEBUG_VALUE: TIM_CCxChannelCmd:tmp <- $r1
	.loc	7 7605 14                       @ c:/Keil_v5\ARM\PACK\Keil\STM32L5xx_DFP\1.3.0\Drivers\STM32L5xx_HAL_Driver\Src\stm32l5xx_hal_tim.c:7605:14
	bics	r3, r1
	str	r3, [r2, #32]
	.loc	7 7608 14                       @ c:/Keil_v5\ARM\PACK\Keil\STM32L5xx_DFP\1.3.0\Drivers\STM32L5xx_HAL_Driver\Src\stm32l5xx_hal_tim.c:7608:14
	ldr	r3, [r2, #32]
	orrs	r3, r1
.Ltmp249:
	.loc	7 809 7                         @ c:/Keil_v5\ARM\PACK\Keil\STM32L5xx_DFP\1.3.0\Drivers\STM32L5xx_HAL_Driver\Src\stm32l5xx_hal_tim.c:809:7
	sub.w	r1, r2, #1073741824
.Ltmp250:
	sub.w	r1, r1, #76800
	ror.w	r1, r1, #10
	cmp	r1, #6
.Ltmp251:
	.loc	7 7608 14                       @ c:/Keil_v5\ARM\PACK\Keil\STM32L5xx_DFP\1.3.0\Drivers\STM32L5xx_HAL_Driver\Src\stm32l5xx_hal_tim.c:7608:14
	str	r3, [r2, #32]
.Ltmp252:
	@DEBUG_VALUE: TIM_CCxChannelCmd:ChannelState <- 1
	@DEBUG_VALUE: TIM_CCxChannelCmd:TIMx <- $r2
	.loc	7 809 7                         @ c:/Keil_v5\ARM\PACK\Keil\STM32L5xx_DFP\1.3.0\Drivers\STM32L5xx_HAL_Driver\Src\stm32l5xx_hal_tim.c:809:7
	bhi	.LBB18_35
.Ltmp253:
@ %bb.21:
	@DEBUG_VALUE: TIM_CCxChannelCmd:TIMx <- $r2
	@DEBUG_VALUE: HAL_TIM_OC_Start:Channel <- [DW_OP_LLVM_entry_value 1] $r1
	@DEBUG_VALUE: TIM_CCxChannelCmd:ChannelState <- 1
	@DEBUG_VALUE: HAL_TIM_OC_Start:htim <- [DW_OP_LLVM_entry_value 1] $r0
	.loc	7 0 7 is_stmt 0                 @ c:/Keil_v5\ARM\PACK\Keil\STM32L5xx_DFP\1.3.0\Drivers\STM32L5xx_HAL_Driver\Src\stm32l5xx_hal_tim.c:0:7
	lsls	r0, r1
	tst.w	r0, #101
	beq	.LBB18_35
.Ltmp254:
@ %bb.22:
	@DEBUG_VALUE: HAL_TIM_OC_Start:Channel <- [DW_OP_LLVM_entry_value 1] $r1
	@DEBUG_VALUE: HAL_TIM_OC_Start:htim <- [DW_OP_LLVM_entry_value 1] $r0
	.loc	7 812 5 is_stmt 1               @ c:/Keil_v5\ARM\PACK\Keil\STM32L5xx_DFP\1.3.0\Drivers\STM32L5xx_HAL_Driver\Src\stm32l5xx_hal_tim.c:812:5
	ldr	r0, [r2, #68]
	movw	r1, #3071
	movt	r1, #16384
	orr	r0, r0, #32768
.Ltmp255:
	.loc	7 816 7                         @ c:/Keil_v5\ARM\PACK\Keil\STM32L5xx_DFP\1.3.0\Drivers\STM32L5xx_HAL_Driver\Src\stm32l5xx_hal_tim.c:816:7
	cmp	r2, r1
.Ltmp256:
	.loc	7 812 5                         @ c:/Keil_v5\ARM\PACK\Keil\STM32L5xx_DFP\1.3.0\Drivers\STM32L5xx_HAL_Driver\Src\stm32l5xx_hal_tim.c:812:5
	str	r0, [r2, #68]
.Ltmp257:
	.loc	7 816 7                         @ c:/Keil_v5\ARM\PACK\Keil\STM32L5xx_DFP\1.3.0\Drivers\STM32L5xx_HAL_Driver\Src\stm32l5xx_hal_tim.c:816:7
	ble	.LBB18_26
.Ltmp258:
@ %bb.23:
	@DEBUG_VALUE: HAL_TIM_OC_Start:Channel <- [DW_OP_LLVM_entry_value 1] $r1
	@DEBUG_VALUE: HAL_TIM_OC_Start:htim <- [DW_OP_LLVM_entry_value 1] $r0
	.loc	7 0 7 is_stmt 0                 @ c:/Keil_v5\ARM\PACK\Keil\STM32L5xx_DFP\1.3.0\Drivers\STM32L5xx_HAL_Driver\Src\stm32l5xx_hal_tim.c:0:7
	movw	r0, #13311
	movt	r0, #16385
	.loc	7 816 7                         @ c:/Keil_v5\ARM\PACK\Keil\STM32L5xx_DFP\1.3.0\Drivers\STM32L5xx_HAL_Driver\Src\stm32l5xx_hal_tim.c:816:7
	cmp	r2, r0
	bgt	.LBB18_29
.Ltmp259:
@ %bb.24:
	@DEBUG_VALUE: HAL_TIM_OC_Start:Channel <- [DW_OP_LLVM_entry_value 1] $r1
	@DEBUG_VALUE: HAL_TIM_OC_Start:htim <- [DW_OP_LLVM_entry_value 1] $r0
	.loc	7 0 7                           @ c:/Keil_v5\ARM\PACK\Keil\STM32L5xx_DFP\1.3.0\Drivers\STM32L5xx_HAL_Driver\Src\stm32l5xx_hal_tim.c:0:7
	movw	r0, #3072
	movt	r0, #16384
	.loc	7 816 7                         @ c:/Keil_v5\ARM\PACK\Keil\STM32L5xx_DFP\1.3.0\Drivers\STM32L5xx_HAL_Driver\Src\stm32l5xx_hal_tim.c:816:7
	cmp	r2, r0
	beq	.LBB18_33
.Ltmp260:
@ %bb.25:
	@DEBUG_VALUE: HAL_TIM_OC_Start:Channel <- [DW_OP_LLVM_entry_value 1] $r1
	@DEBUG_VALUE: HAL_TIM_OC_Start:htim <- [DW_OP_LLVM_entry_value 1] $r0
	.loc	7 0 7                           @ c:/Keil_v5\ARM\PACK\Keil\STM32L5xx_DFP\1.3.0\Drivers\STM32L5xx_HAL_Driver\Src\stm32l5xx_hal_tim.c:0:7
	movw	r0, #11264
	b	.LBB18_31
.Ltmp261:
	.p2align	2
.LBB18_26:
	@DEBUG_VALUE: HAL_TIM_OC_Start:Channel <- [DW_OP_LLVM_entry_value 1] $r1
	@DEBUG_VALUE: HAL_TIM_OC_Start:htim <- [DW_OP_LLVM_entry_value 1] $r0
	.loc	7 816 7                         @ c:/Keil_v5\ARM\PACK\Keil\STM32L5xx_DFP\1.3.0\Drivers\STM32L5xx_HAL_Driver\Src\stm32l5xx_hal_tim.c:816:7
	cmp.w	r2, #1073741824
	beq	.LBB18_33
.Ltmp262:
@ %bb.27:
	@DEBUG_VALUE: HAL_TIM_OC_Start:Channel <- [DW_OP_LLVM_entry_value 1] $r1
	@DEBUG_VALUE: HAL_TIM_OC_Start:htim <- [DW_OP_LLVM_entry_value 1] $r0
	.loc	7 0 7                           @ c:/Keil_v5\ARM\PACK\Keil\STM32L5xx_DFP\1.3.0\Drivers\STM32L5xx_HAL_Driver\Src\stm32l5xx_hal_tim.c:0:7
	movw	r0, #1024
	movt	r0, #16384
	.loc	7 816 7                         @ c:/Keil_v5\ARM\PACK\Keil\STM32L5xx_DFP\1.3.0\Drivers\STM32L5xx_HAL_Driver\Src\stm32l5xx_hal_tim.c:816:7
	cmp	r2, r0
	beq	.LBB18_33
.Ltmp263:
@ %bb.28:
	@DEBUG_VALUE: HAL_TIM_OC_Start:Channel <- [DW_OP_LLVM_entry_value 1] $r1
	@DEBUG_VALUE: HAL_TIM_OC_Start:htim <- [DW_OP_LLVM_entry_value 1] $r0
	.loc	7 0 7                           @ c:/Keil_v5\ARM\PACK\Keil\STM32L5xx_DFP\1.3.0\Drivers\STM32L5xx_HAL_Driver\Src\stm32l5xx_hal_tim.c:0:7
	movw	r0, #2048
	movt	r0, #16384
	b	.LBB18_32
.Ltmp264:
	.p2align	2
.LBB18_29:
	@DEBUG_VALUE: HAL_TIM_OC_Start:Channel <- [DW_OP_LLVM_entry_value 1] $r1
	@DEBUG_VALUE: HAL_TIM_OC_Start:htim <- [DW_OP_LLVM_entry_value 1] $r0
	movw	r0, #16384
	movt	r0, #16385
	cmp	r2, r0
	beq	.LBB18_33
.Ltmp265:
.LBB18_30:
	@DEBUG_VALUE: HAL_TIM_OC_Start:Channel <- [DW_OP_LLVM_entry_value 1] $r1
	@DEBUG_VALUE: HAL_TIM_OC_Start:htim <- [DW_OP_LLVM_entry_value 1] $r0
	movw	r0, #13312
.Ltmp266:
.LBB18_31:
	@DEBUG_VALUE: HAL_TIM_OC_Start:Channel <- [DW_OP_LLVM_entry_value 1] $r1
	@DEBUG_VALUE: HAL_TIM_OC_Start:htim <- [DW_OP_LLVM_entry_value 1] $r0
	movt	r0, #16385
.Ltmp267:
.LBB18_32:
	@DEBUG_VALUE: HAL_TIM_OC_Start:Channel <- [DW_OP_LLVM_entry_value 1] $r1
	@DEBUG_VALUE: HAL_TIM_OC_Start:htim <- [DW_OP_LLVM_entry_value 1] $r0
	cmp	r2, r0
	bne	.LBB18_45
.Ltmp268:
.LBB18_33:
	@DEBUG_VALUE: HAL_TIM_OC_Start:Channel <- [DW_OP_LLVM_entry_value 1] $r1
	@DEBUG_VALUE: HAL_TIM_OC_Start:htim <- [DW_OP_LLVM_entry_value 1] $r0
	.loc	7 818 31 is_stmt 1              @ c:/Keil_v5\ARM\PACK\Keil\STM32L5xx_DFP\1.3.0\Drivers\STM32L5xx_HAL_Driver\Src\stm32l5xx_hal_tim.c:818:31
	ldr	r0, [r2, #8]
	movs	r1, #7
	movt	r1, #1
	.loc	7 818 36 is_stmt 0              @ c:/Keil_v5\ARM\PACK\Keil\STM32L5xx_DFP\1.3.0\Drivers\STM32L5xx_HAL_Driver\Src\stm32l5xx_hal_tim.c:818:36
	ands	r1, r0
.Ltmp269:
	@DEBUG_VALUE: HAL_TIM_OC_Start:tmpsmcr <- $r1
	.loc	7 819 10 is_stmt 1              @ c:/Keil_v5\ARM\PACK\Keil\STM32L5xx_DFP\1.3.0\Drivers\STM32L5xx_HAL_Driver\Src\stm32l5xx_hal_tim.c:819:10
	cmp	r1, #6
	mov.w	r0, #0
	it	ne
	cmpne.w	r1, #65536
	bne	.LBB18_45
.Ltmp270:
@ %bb.34:
	@DEBUG_VALUE: HAL_TIM_OC_Start:tmpsmcr <- $r1
	@DEBUG_VALUE: HAL_TIM_OC_Start:Channel <- [DW_OP_LLVM_entry_value 1] $r1
	@DEBUG_VALUE: HAL_TIM_OC_Start:htim <- [DW_OP_LLVM_entry_value 1] $r0
	.loc	7 831 1                         @ c:/Keil_v5\ARM\PACK\Keil\STM32L5xx_DFP\1.3.0\Drivers\STM32L5xx_HAL_Driver\Src\stm32l5xx_hal_tim.c:831:1
	bx	lr
.Ltmp271:
	.p2align	2
.LBB18_35:
	@DEBUG_VALUE: HAL_TIM_OC_Start:Channel <- [DW_OP_LLVM_entry_value 1] $r1
	@DEBUG_VALUE: HAL_TIM_OC_Start:htim <- [DW_OP_LLVM_entry_value 1] $r0
	.loc	7 0 1 is_stmt 0                 @ c:/Keil_v5\ARM\PACK\Keil\STM32L5xx_DFP\1.3.0\Drivers\STM32L5xx_HAL_Driver\Src\stm32l5xx_hal_tim.c:0:1
	movw	r0, #11263
	movt	r0, #16385
	.loc	7 809 7 is_stmt 1               @ c:/Keil_v5\ARM\PACK\Keil\STM32L5xx_DFP\1.3.0\Drivers\STM32L5xx_HAL_Driver\Src\stm32l5xx_hal_tim.c:809:7
	cmp	r2, r0
	bgt	.LBB18_39
.Ltmp272:
@ %bb.36:
	@DEBUG_VALUE: HAL_TIM_OC_Start:Channel <- [DW_OP_LLVM_entry_value 1] $r1
	@DEBUG_VALUE: HAL_TIM_OC_Start:htim <- [DW_OP_LLVM_entry_value 1] $r0
	.loc	7 0 7 is_stmt 0                 @ c:/Keil_v5\ARM\PACK\Keil\STM32L5xx_DFP\1.3.0\Drivers\STM32L5xx_HAL_Driver\Src\stm32l5xx_hal_tim.c:0:7
	movw	r0, #2047
	movt	r0, #16384
	.loc	7 809 7                         @ c:/Keil_v5\ARM\PACK\Keil\STM32L5xx_DFP\1.3.0\Drivers\STM32L5xx_HAL_Driver\Src\stm32l5xx_hal_tim.c:809:7
	cmp	r2, r0
	bgt	.LBB18_41
.Ltmp273:
@ %bb.37:
	@DEBUG_VALUE: HAL_TIM_OC_Start:Channel <- [DW_OP_LLVM_entry_value 1] $r1
	@DEBUG_VALUE: HAL_TIM_OC_Start:htim <- [DW_OP_LLVM_entry_value 1] $r0
	cmp.w	r2, #1073741824
	beq	.LBB18_33
.Ltmp274:
@ %bb.38:
	@DEBUG_VALUE: HAL_TIM_OC_Start:Channel <- [DW_OP_LLVM_entry_value 1] $r1
	@DEBUG_VALUE: HAL_TIM_OC_Start:htim <- [DW_OP_LLVM_entry_value 1] $r0
	.loc	7 0 7                           @ c:/Keil_v5\ARM\PACK\Keil\STM32L5xx_DFP\1.3.0\Drivers\STM32L5xx_HAL_Driver\Src\stm32l5xx_hal_tim.c:0:7
	movw	r0, #1024
	movt	r0, #16384
	b	.LBB18_32
.Ltmp275:
	.p2align	2
.LBB18_39:
	@DEBUG_VALUE: HAL_TIM_OC_Start:Channel <- [DW_OP_LLVM_entry_value 1] $r1
	@DEBUG_VALUE: HAL_TIM_OC_Start:htim <- [DW_OP_LLVM_entry_value 1] $r0
	movw	r0, #16383
	movt	r0, #16385
	.loc	7 809 7                         @ c:/Keil_v5\ARM\PACK\Keil\STM32L5xx_DFP\1.3.0\Drivers\STM32L5xx_HAL_Driver\Src\stm32l5xx_hal_tim.c:809:7
	cmp	r2, r0
	bgt	.LBB18_43
.Ltmp276:
@ %bb.40:
	@DEBUG_VALUE: HAL_TIM_OC_Start:Channel <- [DW_OP_LLVM_entry_value 1] $r1
	@DEBUG_VALUE: HAL_TIM_OC_Start:htim <- [DW_OP_LLVM_entry_value 1] $r0
	.loc	7 0 7                           @ c:/Keil_v5\ARM\PACK\Keil\STM32L5xx_DFP\1.3.0\Drivers\STM32L5xx_HAL_Driver\Src\stm32l5xx_hal_tim.c:0:7
	movw	r0, #11264
	movt	r0, #16385
	cmp	r2, r0
	bne	.LBB18_30
	b	.LBB18_33
.Ltmp277:
	.p2align	2
.LBB18_41:
	@DEBUG_VALUE: HAL_TIM_OC_Start:Channel <- [DW_OP_LLVM_entry_value 1] $r1
	@DEBUG_VALUE: HAL_TIM_OC_Start:htim <- [DW_OP_LLVM_entry_value 1] $r0
	movw	r0, #2048
	movt	r0, #16384
	.loc	7 809 7                         @ c:/Keil_v5\ARM\PACK\Keil\STM32L5xx_DFP\1.3.0\Drivers\STM32L5xx_HAL_Driver\Src\stm32l5xx_hal_tim.c:809:7
	cmp	r2, r0
	beq	.LBB18_33
.Ltmp278:
@ %bb.42:
	@DEBUG_VALUE: HAL_TIM_OC_Start:Channel <- [DW_OP_LLVM_entry_value 1] $r1
	@DEBUG_VALUE: HAL_TIM_OC_Start:htim <- [DW_OP_LLVM_entry_value 1] $r0
	.loc	7 0 7                           @ c:/Keil_v5\ARM\PACK\Keil\STM32L5xx_DFP\1.3.0\Drivers\STM32L5xx_HAL_Driver\Src\stm32l5xx_hal_tim.c:0:7
	movw	r0, #3072
	movt	r0, #16384
	b	.LBB18_32
.Ltmp279:
	.p2align	2
.LBB18_43:
	@DEBUG_VALUE: HAL_TIM_OC_Start:Channel <- [DW_OP_LLVM_entry_value 1] $r1
	@DEBUG_VALUE: HAL_TIM_OC_Start:htim <- [DW_OP_LLVM_entry_value 1] $r0
	movw	r0, #16384
	movt	r0, #16385
	.loc	7 809 7                         @ c:/Keil_v5\ARM\PACK\Keil\STM32L5xx_DFP\1.3.0\Drivers\STM32L5xx_HAL_Driver\Src\stm32l5xx_hal_tim.c:809:7
	cmp	r2, r0
	beq	.LBB18_33
.Ltmp280:
@ %bb.44:
	@DEBUG_VALUE: HAL_TIM_OC_Start:Channel <- [DW_OP_LLVM_entry_value 1] $r1
	@DEBUG_VALUE: HAL_TIM_OC_Start:htim <- [DW_OP_LLVM_entry_value 1] $r0
	.loc	7 0 7                           @ c:/Keil_v5\ARM\PACK\Keil\STM32L5xx_DFP\1.3.0\Drivers\STM32L5xx_HAL_Driver\Src\stm32l5xx_hal_tim.c:0:7
	movw	r0, #18432
	movt	r0, #16385
	.loc	7 809 7                         @ c:/Keil_v5\ARM\PACK\Keil\STM32L5xx_DFP\1.3.0\Drivers\STM32L5xx_HAL_Driver\Src\stm32l5xx_hal_tim.c:809:7
	cmp	r2, r0
.Ltmp281:
	.loc	7 812 5 is_stmt 1               @ c:/Keil_v5\ARM\PACK\Keil\STM32L5xx_DFP\1.3.0\Drivers\STM32L5xx_HAL_Driver\Src\stm32l5xx_hal_tim.c:812:5
	ittt	eq
	ldreq	r0, [r2, #68]
	orreq	r0, r0, #32768
	streq	r0, [r2, #68]
.Ltmp282:
.LBB18_45:
	@DEBUG_VALUE: HAL_TIM_OC_Start:Channel <- [DW_OP_LLVM_entry_value 1] $r1
	@DEBUG_VALUE: HAL_TIM_OC_Start:htim <- [DW_OP_LLVM_entry_value 1] $r0
	.loc	7 0 0 is_stmt 0                 @ c:/Keil_v5\ARM\PACK\Keil\STM32L5xx_DFP\1.3.0\Drivers\STM32L5xx_HAL_Driver\Src\stm32l5xx_hal_tim.c:0:0
	ldr	r0, [r2]
	orr	r0, r0, #1
	str	r0, [r2]
	movs	r0, #0
.Ltmp283:
	.loc	7 831 1 is_stmt 1               @ c:/Keil_v5\ARM\PACK\Keil\STM32L5xx_DFP\1.3.0\Drivers\STM32L5xx_HAL_Driver\Src\stm32l5xx_hal_tim.c:831:1
	bx	lr
.Ltmp284:
.Lfunc_end18:
	.size	HAL_TIM_OC_Start, .Lfunc_end18-HAL_TIM_OC_Start
	.cfi_endproc
	.cantunwind
	.fnend
                                        @ -- End function
	.section	.text.TIM_CCxChannelCmd,"ax",%progbits
	.hidden	TIM_CCxChannelCmd               @ -- Begin function TIM_CCxChannelCmd
	.globl	TIM_CCxChannelCmd
	.p2align	2
	.type	TIM_CCxChannelCmd,%function
	.code	16                              @ @TIM_CCxChannelCmd
	.thumb_func
TIM_CCxChannelCmd:
.Lfunc_begin19:
	.loc	7 7595 0                        @ c:/Keil_v5\ARM\PACK\Keil\STM32L5xx_DFP\1.3.0\Drivers\STM32L5xx_HAL_Driver\Src\stm32l5xx_hal_tim.c:7595:0
	.fnstart
	.cfi_startproc
@ %bb.0:
	@DEBUG_VALUE: TIM_CCxChannelCmd:TIMx <- $r0
	@DEBUG_VALUE: TIM_CCxChannelCmd:TIMx <- $r0
	@DEBUG_VALUE: TIM_CCxChannelCmd:Channel <- $r1
	@DEBUG_VALUE: TIM_CCxChannelCmd:Channel <- $r1
	@DEBUG_VALUE: TIM_CCxChannelCmd:ChannelState <- $r2
	@DEBUG_VALUE: TIM_CCxChannelCmd:ChannelState <- $r2
	.save	{r7, lr}
	push	{r7, lr}
	.cfi_def_cfa_offset 8
	.cfi_offset lr, -4
	.cfi_offset r7, -8
.Ltmp285:
	.loc	7 7602 35 prologue_end          @ c:/Keil_v5\ARM\PACK\Keil\STM32L5xx_DFP\1.3.0\Drivers\STM32L5xx_HAL_Driver\Src\stm32l5xx_hal_tim.c:7602:35
	and	r1, r1, #31
.Ltmp286:
	@DEBUG_VALUE: TIM_CCxChannelCmd:Channel <- [DW_OP_LLVM_entry_value 1] $r1
	.loc	7 0 35 is_stmt 0                @ c:/Keil_v5\ARM\PACK\Keil\STM32L5xx_DFP\1.3.0\Drivers\STM32L5xx_HAL_Driver\Src\stm32l5xx_hal_tim.c:0:35
	mov.w	r12, #1
	.loc	7 7605 14 is_stmt 1             @ c:/Keil_v5\ARM\PACK\Keil\STM32L5xx_DFP\1.3.0\Drivers\STM32L5xx_HAL_Driver\Src\stm32l5xx_hal_tim.c:7605:14
	ldr.w	lr, [r0, #32]
	.loc	7 7602 23                       @ c:/Keil_v5\ARM\PACK\Keil\STM32L5xx_DFP\1.3.0\Drivers\STM32L5xx_HAL_Driver\Src\stm32l5xx_hal_tim.c:7602:23
	lsl.w	r3, r12, r1
.Ltmp287:
	@DEBUG_VALUE: TIM_CCxChannelCmd:tmp <- $r3
	.loc	7 7605 14                       @ c:/Keil_v5\ARM\PACK\Keil\STM32L5xx_DFP\1.3.0\Drivers\STM32L5xx_HAL_Driver\Src\stm32l5xx_hal_tim.c:7605:14
	bic.w	r3, lr, r3
.Ltmp288:
	str	r3, [r0, #32]
	.loc	7 7608 14                       @ c:/Keil_v5\ARM\PACK\Keil\STM32L5xx_DFP\1.3.0\Drivers\STM32L5xx_HAL_Driver\Src\stm32l5xx_hal_tim.c:7608:14
	ldr	r3, [r0, #32]
	.loc	7 7608 41 is_stmt 0             @ c:/Keil_v5\ARM\PACK\Keil\STM32L5xx_DFP\1.3.0\Drivers\STM32L5xx_HAL_Driver\Src\stm32l5xx_hal_tim.c:7608:41
	lsl.w	r1, r2, r1
	.loc	7 7608 14                       @ c:/Keil_v5\ARM\PACK\Keil\STM32L5xx_DFP\1.3.0\Drivers\STM32L5xx_HAL_Driver\Src\stm32l5xx_hal_tim.c:7608:14
	orrs	r1, r3
	str	r1, [r0, #32]
	.loc	7 7609 1 is_stmt 1              @ c:/Keil_v5\ARM\PACK\Keil\STM32L5xx_DFP\1.3.0\Drivers\STM32L5xx_HAL_Driver\Src\stm32l5xx_hal_tim.c:7609:1
	pop	{r7, pc}
.Ltmp289:
.Lfunc_end19:
	.size	TIM_CCxChannelCmd, .Lfunc_end19-TIM_CCxChannelCmd
	.cfi_endproc
	.cantunwind
	.fnend
                                        @ -- End function
	.section	.text.HAL_TIM_OC_Stop,"ax",%progbits
	.hidden	HAL_TIM_OC_Stop                 @ -- Begin function HAL_TIM_OC_Stop
	.globl	HAL_TIM_OC_Stop
	.p2align	2
	.type	HAL_TIM_OC_Stop,%function
	.code	16                              @ @HAL_TIM_OC_Stop
	.thumb_func
HAL_TIM_OC_Stop:
.Lfunc_begin20:
	.loc	7 847 0                         @ c:/Keil_v5\ARM\PACK\Keil\STM32L5xx_DFP\1.3.0\Drivers\STM32L5xx_HAL_Driver\Src\stm32l5xx_hal_tim.c:847:0
	.fnstart
	.cfi_startproc
@ %bb.0:
	@DEBUG_VALUE: HAL_TIM_OC_Stop:htim <- $r0
	@DEBUG_VALUE: HAL_TIM_OC_Stop:htim <- $r0
	@DEBUG_VALUE: HAL_TIM_OC_Stop:Channel <- $r1
	@DEBUG_VALUE: HAL_TIM_OC_Stop:Channel <- $r1
	.save	{r4, lr}
	push	{r4, lr}
	.cfi_def_cfa_offset 8
	.cfi_offset lr, -4
	.cfi_offset r4, -8
.Ltmp290:
	.loc	7 852 27 prologue_end           @ c:/Keil_v5\ARM\PACK\Keil\STM32L5xx_DFP\1.3.0\Drivers\STM32L5xx_HAL_Driver\Src\stm32l5xx_hal_tim.c:852:27
	ldr	r2, [r0]
.Ltmp291:
	@DEBUG_VALUE: TIM_CCxChannelCmd:ChannelState <- 0
	@DEBUG_VALUE: TIM_CCxChannelCmd:Channel <- $r1
	@DEBUG_VALUE: TIM_CCxChannelCmd:TIMx <- $r2
	.loc	7 7602 35                       @ c:/Keil_v5\ARM\PACK\Keil\STM32L5xx_DFP\1.3.0\Drivers\STM32L5xx_HAL_Driver\Src\stm32l5xx_hal_tim.c:7602:35
	and	lr, r1, #31
	mov.w	r12, #1
	.loc	7 7605 14                       @ c:/Keil_v5\ARM\PACK\Keil\STM32L5xx_DFP\1.3.0\Drivers\STM32L5xx_HAL_Driver\Src\stm32l5xx_hal_tim.c:7605:14
	ldr	r4, [r2, #32]
	.loc	7 7602 23                       @ c:/Keil_v5\ARM\PACK\Keil\STM32L5xx_DFP\1.3.0\Drivers\STM32L5xx_HAL_Driver\Src\stm32l5xx_hal_tim.c:7602:23
	lsl.w	r3, r12, lr
.Ltmp292:
	@DEBUG_VALUE: TIM_CCxChannelCmd:tmp <- $r3
	.loc	7 7605 14                       @ c:/Keil_v5\ARM\PACK\Keil\STM32L5xx_DFP\1.3.0\Drivers\STM32L5xx_HAL_Driver\Src\stm32l5xx_hal_tim.c:7605:14
	bic.w	r3, r4, r3
.Ltmp293:
	str	r3, [r2, #32]
.Ltmp294:
	.loc	7 854 7                         @ c:/Keil_v5\ARM\PACK\Keil\STM32L5xx_DFP\1.3.0\Drivers\STM32L5xx_HAL_Driver\Src\stm32l5xx_hal_tim.c:854:7
	sub.w	r3, r2, #1073741824
	sub.w	r3, r3, #76800
.Ltmp295:
	.loc	7 7608 14                       @ c:/Keil_v5\ARM\PACK\Keil\STM32L5xx_DFP\1.3.0\Drivers\STM32L5xx_HAL_Driver\Src\stm32l5xx_hal_tim.c:7608:14
	ldr	r4, [r2, #32]
.Ltmp296:
	.loc	7 854 7                         @ c:/Keil_v5\ARM\PACK\Keil\STM32L5xx_DFP\1.3.0\Drivers\STM32L5xx_HAL_Driver\Src\stm32l5xx_hal_tim.c:854:7
	ror.w	r3, r3, #10
	cmp	r3, #6
.Ltmp297:
	.loc	7 7608 14                       @ c:/Keil_v5\ARM\PACK\Keil\STM32L5xx_DFP\1.3.0\Drivers\STM32L5xx_HAL_Driver\Src\stm32l5xx_hal_tim.c:7608:14
	str	r4, [r2, #32]
.Ltmp298:
	@DEBUG_VALUE: TIM_CCxChannelCmd:ChannelState <- 0
	@DEBUG_VALUE: TIM_CCxChannelCmd:Channel <- $r1
	@DEBUG_VALUE: TIM_CCxChannelCmd:TIMx <- $r2
	.loc	7 854 7                         @ c:/Keil_v5\ARM\PACK\Keil\STM32L5xx_DFP\1.3.0\Drivers\STM32L5xx_HAL_Driver\Src\stm32l5xx_hal_tim.c:854:7
	bhi	.LBB20_5
.Ltmp299:
@ %bb.1:
	@DEBUG_VALUE: TIM_CCxChannelCmd:TIMx <- $r2
	@DEBUG_VALUE: TIM_CCxChannelCmd:Channel <- $r1
	@DEBUG_VALUE: HAL_TIM_OC_Stop:Channel <- $r1
	@DEBUG_VALUE: HAL_TIM_OC_Stop:htim <- $r0
	@DEBUG_VALUE: TIM_CCxChannelCmd:ChannelState <- 0
	.loc	7 0 7 is_stmt 0                 @ c:/Keil_v5\ARM\PACK\Keil\STM32L5xx_DFP\1.3.0\Drivers\STM32L5xx_HAL_Driver\Src\stm32l5xx_hal_tim.c:0:7
	lsl.w	r3, r12, r3
	tst.w	r3, #101
	beq	.LBB20_5
.Ltmp300:
.LBB20_2:
	@DEBUG_VALUE: HAL_TIM_OC_Stop:Channel <- $r1
	@DEBUG_VALUE: HAL_TIM_OC_Stop:htim <- $r0
	.loc	7 857 5 is_stmt 1               @ c:/Keil_v5\ARM\PACK\Keil\STM32L5xx_DFP\1.3.0\Drivers\STM32L5xx_HAL_Driver\Src\stm32l5xx_hal_tim.c:857:5
	ldr	r3, [r2, #32]
	movw	r4, #4369
.Ltmp301:
	.loc	7 857 5 is_stmt 0               @ c:/Keil_v5\ARM\PACK\Keil\STM32L5xx_DFP\1.3.0\Drivers\STM32L5xx_HAL_Driver\Src\stm32l5xx_hal_tim.c:857:5
	tst	r3, r4
	bne	.LBB20_6
.Ltmp302:
@ %bb.3:
	@DEBUG_VALUE: HAL_TIM_OC_Stop:Channel <- $r1
	@DEBUG_VALUE: HAL_TIM_OC_Stop:htim <- $r0
	.loc	7 857 5                         @ c:/Keil_v5\ARM\PACK\Keil\STM32L5xx_DFP\1.3.0\Drivers\STM32L5xx_HAL_Driver\Src\stm32l5xx_hal_tim.c:857:5
	ldr	r3, [r2, #32]
	movw	r4, #1092
.Ltmp303:
	.loc	7 857 5                         @ c:/Keil_v5\ARM\PACK\Keil\STM32L5xx_DFP\1.3.0\Drivers\STM32L5xx_HAL_Driver\Src\stm32l5xx_hal_tim.c:857:5
	tst	r3, r4
	bne	.LBB20_6
.Ltmp304:
@ %bb.4:
	@DEBUG_VALUE: HAL_TIM_OC_Stop:Channel <- $r1
	@DEBUG_VALUE: HAL_TIM_OC_Stop:htim <- $r0
	.loc	7 857 5                         @ c:/Keil_v5\ARM\PACK\Keil\STM32L5xx_DFP\1.3.0\Drivers\STM32L5xx_HAL_Driver\Src\stm32l5xx_hal_tim.c:857:5
	ldr	r3, [r2, #68]
	bic	r3, r3, #32768
	str	r3, [r2, #68]
	b	.LBB20_6
.Ltmp305:
	.p2align	2
.LBB20_5:
	@DEBUG_VALUE: HAL_TIM_OC_Stop:Channel <- $r1
	@DEBUG_VALUE: HAL_TIM_OC_Stop:htim <- $r0
	.loc	7 0 5                           @ c:/Keil_v5\ARM\PACK\Keil\STM32L5xx_DFP\1.3.0\Drivers\STM32L5xx_HAL_Driver\Src\stm32l5xx_hal_tim.c:0:5
	movw	r3, #18432
	movt	r3, #16385
	.loc	7 854 7 is_stmt 1               @ c:/Keil_v5\ARM\PACK\Keil\STM32L5xx_DFP\1.3.0\Drivers\STM32L5xx_HAL_Driver\Src\stm32l5xx_hal_tim.c:854:7
	cmp	r2, r3
	beq	.LBB20_2
.Ltmp306:
.LBB20_6:
	@DEBUG_VALUE: HAL_TIM_OC_Stop:Channel <- $r1
	@DEBUG_VALUE: HAL_TIM_OC_Stop:htim <- $r0
	.loc	7 861 3                         @ c:/Keil_v5\ARM\PACK\Keil\STM32L5xx_DFP\1.3.0\Drivers\STM32L5xx_HAL_Driver\Src\stm32l5xx_hal_tim.c:861:3
	ldr	r3, [r2, #32]
	movw	r4, #4369
.Ltmp307:
	.loc	7 861 3 is_stmt 0               @ c:/Keil_v5\ARM\PACK\Keil\STM32L5xx_DFP\1.3.0\Drivers\STM32L5xx_HAL_Driver\Src\stm32l5xx_hal_tim.c:861:3
	tst	r3, r4
	bne	.LBB20_9
.Ltmp308:
@ %bb.7:
	@DEBUG_VALUE: HAL_TIM_OC_Stop:Channel <- $r1
	@DEBUG_VALUE: HAL_TIM_OC_Stop:htim <- $r0
	.loc	7 861 3                         @ c:/Keil_v5\ARM\PACK\Keil\STM32L5xx_DFP\1.3.0\Drivers\STM32L5xx_HAL_Driver\Src\stm32l5xx_hal_tim.c:861:3
	ldr	r3, [r2, #32]
	movw	r4, #1092
.Ltmp309:
	.loc	7 861 3                         @ c:/Keil_v5\ARM\PACK\Keil\STM32L5xx_DFP\1.3.0\Drivers\STM32L5xx_HAL_Driver\Src\stm32l5xx_hal_tim.c:861:3
	tst	r3, r4
	bne	.LBB20_9
.Ltmp310:
@ %bb.8:
	@DEBUG_VALUE: HAL_TIM_OC_Stop:Channel <- $r1
	@DEBUG_VALUE: HAL_TIM_OC_Stop:htim <- $r0
	.loc	7 861 3                         @ c:/Keil_v5\ARM\PACK\Keil\STM32L5xx_DFP\1.3.0\Drivers\STM32L5xx_HAL_Driver\Src\stm32l5xx_hal_tim.c:861:3
	ldr	r3, [r2]
	bic	r3, r3, #1
	str	r3, [r2]
.Ltmp311:
.LBB20_9:
	@DEBUG_VALUE: HAL_TIM_OC_Stop:Channel <- $r1
	@DEBUG_VALUE: HAL_TIM_OC_Stop:htim <- $r0
	.loc	7 864 3 is_stmt 1               @ c:/Keil_v5\ARM\PACK\Keil\STM32L5xx_DFP\1.3.0\Drivers\STM32L5xx_HAL_Driver\Src\stm32l5xx_hal_tim.c:864:3
	ror.w	r1, r1, #2
.Ltmp312:
	@DEBUG_VALUE: HAL_TIM_OC_Stop:Channel <- [DW_OP_LLVM_entry_value 1] $r1
	cmp	r1, #4
	bhi	.LBB20_13
.Ltmp313:
@ %bb.10:
	@DEBUG_VALUE: HAL_TIM_OC_Stop:htim <- $r0
	@DEBUG_VALUE: HAL_TIM_OC_Stop:Channel <- [DW_OP_LLVM_entry_value 1] $r1
	.loc	7 0 3 is_stmt 0                 @ c:/Keil_v5\ARM\PACK\Keil\STM32L5xx_DFP\1.3.0\Drivers\STM32L5xx_HAL_Driver\Src\stm32l5xx_hal_tim.c:0:3
.LCPI20_0:
	tbb	[pc, r1]
.Ltmp314:
@ %bb.11:
.LJTI20_0:
	.byte	(.LBB20_12-(.LCPI20_0+4))/2
	.byte	(.LBB20_14-(.LCPI20_0+4))/2
	.byte	(.LBB20_15-(.LCPI20_0+4))/2
	.byte	(.LBB20_16-(.LCPI20_0+4))/2
	.byte	(.LBB20_17-(.LCPI20_0+4))/2
	.p2align	1
	.p2align	2
.LBB20_12:
.Ltmp315:
	@DEBUG_VALUE: HAL_TIM_OC_Stop:htim <- $r0
	@DEBUG_VALUE: HAL_TIM_OC_Stop:Channel <- [DW_OP_LLVM_entry_value 1] $r1
	movs	r1, #1
	.loc	7 864 3                         @ c:/Keil_v5\ARM\PACK\Keil\STM32L5xx_DFP\1.3.0\Drivers\STM32L5xx_HAL_Driver\Src\stm32l5xx_hal_tim.c:864:3
	strb.w	r1, [r0, #62]
	.loc	7 867 3 is_stmt 1               @ c:/Keil_v5\ARM\PACK\Keil\STM32L5xx_DFP\1.3.0\Drivers\STM32L5xx_HAL_Driver\Src\stm32l5xx_hal_tim.c:867:3
	movs	r0, #0
.Ltmp316:
	@DEBUG_VALUE: HAL_TIM_OC_Stop:htim <- [DW_OP_LLVM_entry_value 1] $r0
	pop	{r4, pc}
.Ltmp317:
	.p2align	2
.LBB20_13:
	@DEBUG_VALUE: HAL_TIM_OC_Stop:htim <- $r0
	@DEBUG_VALUE: HAL_TIM_OC_Stop:Channel <- [DW_OP_LLVM_entry_value 1] $r1
	.loc	7 0 3 is_stmt 0                 @ c:/Keil_v5\ARM\PACK\Keil\STM32L5xx_DFP\1.3.0\Drivers\STM32L5xx_HAL_Driver\Src\stm32l5xx_hal_tim.c:0:3
	movs	r1, #1
	.loc	7 864 3 is_stmt 1               @ c:/Keil_v5\ARM\PACK\Keil\STM32L5xx_DFP\1.3.0\Drivers\STM32L5xx_HAL_Driver\Src\stm32l5xx_hal_tim.c:864:3
	strb.w	r1, [r0, #67]
	.loc	7 867 3                         @ c:/Keil_v5\ARM\PACK\Keil\STM32L5xx_DFP\1.3.0\Drivers\STM32L5xx_HAL_Driver\Src\stm32l5xx_hal_tim.c:867:3
	movs	r0, #0
.Ltmp318:
	@DEBUG_VALUE: HAL_TIM_OC_Stop:htim <- [DW_OP_LLVM_entry_value 1] $r0
	pop	{r4, pc}
.Ltmp319:
	.p2align	2
.LBB20_14:
	@DEBUG_VALUE: HAL_TIM_OC_Stop:htim <- $r0
	@DEBUG_VALUE: HAL_TIM_OC_Stop:Channel <- [DW_OP_LLVM_entry_value 1] $r1
	.loc	7 0 3 is_stmt 0                 @ c:/Keil_v5\ARM\PACK\Keil\STM32L5xx_DFP\1.3.0\Drivers\STM32L5xx_HAL_Driver\Src\stm32l5xx_hal_tim.c:0:3
	movs	r1, #1
	.loc	7 864 3 is_stmt 1               @ c:/Keil_v5\ARM\PACK\Keil\STM32L5xx_DFP\1.3.0\Drivers\STM32L5xx_HAL_Driver\Src\stm32l5xx_hal_tim.c:864:3
	strb.w	r1, [r0, #63]
	.loc	7 867 3                         @ c:/Keil_v5\ARM\PACK\Keil\STM32L5xx_DFP\1.3.0\Drivers\STM32L5xx_HAL_Driver\Src\stm32l5xx_hal_tim.c:867:3
	movs	r0, #0
.Ltmp320:
	@DEBUG_VALUE: HAL_TIM_OC_Stop:htim <- [DW_OP_LLVM_entry_value 1] $r0
	pop	{r4, pc}
.Ltmp321:
	.p2align	2
.LBB20_15:
	@DEBUG_VALUE: HAL_TIM_OC_Stop:htim <- $r0
	@DEBUG_VALUE: HAL_TIM_OC_Stop:Channel <- [DW_OP_LLVM_entry_value 1] $r1
	.loc	7 0 3 is_stmt 0                 @ c:/Keil_v5\ARM\PACK\Keil\STM32L5xx_DFP\1.3.0\Drivers\STM32L5xx_HAL_Driver\Src\stm32l5xx_hal_tim.c:0:3
	movs	r1, #1
	.loc	7 864 3 is_stmt 1               @ c:/Keil_v5\ARM\PACK\Keil\STM32L5xx_DFP\1.3.0\Drivers\STM32L5xx_HAL_Driver\Src\stm32l5xx_hal_tim.c:864:3
	strb.w	r1, [r0, #64]
	.loc	7 867 3                         @ c:/Keil_v5\ARM\PACK\Keil\STM32L5xx_DFP\1.3.0\Drivers\STM32L5xx_HAL_Driver\Src\stm32l5xx_hal_tim.c:867:3
	movs	r0, #0
.Ltmp322:
	@DEBUG_VALUE: HAL_TIM_OC_Stop:htim <- [DW_OP_LLVM_entry_value 1] $r0
	pop	{r4, pc}
.Ltmp323:
	.p2align	2
.LBB20_16:
	@DEBUG_VALUE: HAL_TIM_OC_Stop:htim <- $r0
	@DEBUG_VALUE: HAL_TIM_OC_Stop:Channel <- [DW_OP_LLVM_entry_value 1] $r1
	.loc	7 0 3 is_stmt 0                 @ c:/Keil_v5\ARM\PACK\Keil\STM32L5xx_DFP\1.3.0\Drivers\STM32L5xx_HAL_Driver\Src\stm32l5xx_hal_tim.c:0:3
	movs	r1, #1
	.loc	7 864 3 is_stmt 1               @ c:/Keil_v5\ARM\PACK\Keil\STM32L5xx_DFP\1.3.0\Drivers\STM32L5xx_HAL_Driver\Src\stm32l5xx_hal_tim.c:864:3
	strb.w	r1, [r0, #65]
	.loc	7 867 3                         @ c:/Keil_v5\ARM\PACK\Keil\STM32L5xx_DFP\1.3.0\Drivers\STM32L5xx_HAL_Driver\Src\stm32l5xx_hal_tim.c:867:3
	movs	r0, #0
.Ltmp324:
	@DEBUG_VALUE: HAL_TIM_OC_Stop:htim <- [DW_OP_LLVM_entry_value 1] $r0
	pop	{r4, pc}
.Ltmp325:
	.p2align	2
.LBB20_17:
	@DEBUG_VALUE: HAL_TIM_OC_Stop:htim <- $r0
	@DEBUG_VALUE: HAL_TIM_OC_Stop:Channel <- [DW_OP_LLVM_entry_value 1] $r1
	.loc	7 0 3 is_stmt 0                 @ c:/Keil_v5\ARM\PACK\Keil\STM32L5xx_DFP\1.3.0\Drivers\STM32L5xx_HAL_Driver\Src\stm32l5xx_hal_tim.c:0:3
	movs	r1, #1
	.loc	7 864 3 is_stmt 1               @ c:/Keil_v5\ARM\PACK\Keil\STM32L5xx_DFP\1.3.0\Drivers\STM32L5xx_HAL_Driver\Src\stm32l5xx_hal_tim.c:864:3
	strb.w	r1, [r0, #66]
	.loc	7 867 3                         @ c:/Keil_v5\ARM\PACK\Keil\STM32L5xx_DFP\1.3.0\Drivers\STM32L5xx_HAL_Driver\Src\stm32l5xx_hal_tim.c:867:3
	movs	r0, #0
.Ltmp326:
	@DEBUG_VALUE: HAL_TIM_OC_Stop:htim <- [DW_OP_LLVM_entry_value 1] $r0
	pop	{r4, pc}
.Ltmp327:
.Lfunc_end20:
	.size	HAL_TIM_OC_Stop, .Lfunc_end20-HAL_TIM_OC_Stop
	.cfi_endproc
	.cantunwind
	.fnend
                                        @ -- End function
	.section	.text.HAL_TIM_OC_Start_IT,"ax",%progbits
	.hidden	HAL_TIM_OC_Start_IT             @ -- Begin function HAL_TIM_OC_Start_IT
	.globl	HAL_TIM_OC_Start_IT
	.p2align	2
	.type	HAL_TIM_OC_Start_IT,%function
	.code	16                              @ @HAL_TIM_OC_Start_IT
	.thumb_func
HAL_TIM_OC_Start_IT:
.Lfunc_begin21:
	.loc	7 882 0                         @ c:/Keil_v5\ARM\PACK\Keil\STM32L5xx_DFP\1.3.0\Drivers\STM32L5xx_HAL_Driver\Src\stm32l5xx_hal_tim.c:882:0
	.fnstart
	.cfi_startproc
@ %bb.0:
	@DEBUG_VALUE: HAL_TIM_OC_Start_IT:htim <- $r0
	@DEBUG_VALUE: HAL_TIM_OC_Start_IT:Channel <- $r1
	@DEBUG_VALUE: HAL_TIM_OC_Start_IT:Channel <- $r1
	@DEBUG_VALUE: HAL_TIM_OC_Start_IT:htim <- $r0
	.loc	7 889 7 prologue_end            @ c:/Keil_v5\ARM\PACK\Keil\STM32L5xx_DFP\1.3.0\Drivers\STM32L5xx_HAL_Driver\Src\stm32l5xx_hal_tim.c:889:7
	cbz	r1, .LBB21_5
.Ltmp328:
@ %bb.1:
	@DEBUG_VALUE: HAL_TIM_OC_Start_IT:Channel <- $r1
	@DEBUG_VALUE: HAL_TIM_OC_Start_IT:htim <- $r0
	subs	r2, r1, #4
	ror.w	r2, r2, #2
	cmp	r2, #3
	bhi.w	.LBB21_33
.Ltmp329:
@ %bb.2:
	@DEBUG_VALUE: HAL_TIM_OC_Start_IT:Channel <- $r1
	@DEBUG_VALUE: HAL_TIM_OC_Start_IT:htim <- $r0
	.loc	7 0 7 is_stmt 0                 @ c:/Keil_v5\ARM\PACK\Keil\STM32L5xx_DFP\1.3.0\Drivers\STM32L5xx_HAL_Driver\Src\stm32l5xx_hal_tim.c:0:7
.LCPI21_0:
	tbb	[pc, r2]
.Ltmp330:
@ %bb.3:
.LJTI21_0:
	.byte	(.LBB21_4-(.LCPI21_0+4))/2
	.byte	(.LBB21_34-(.LCPI21_0+4))/2
	.byte	(.LBB21_35-(.LCPI21_0+4))/2
	.byte	(.LBB21_36-(.LCPI21_0+4))/2
	.p2align	1
	.p2align	2
.LBB21_4:
.Ltmp331:
	@DEBUG_VALUE: HAL_TIM_OC_Start_IT:Channel <- $r1
	@DEBUG_VALUE: HAL_TIM_OC_Start_IT:htim <- $r0
	.loc	7 889 7                         @ c:/Keil_v5\ARM\PACK\Keil\STM32L5xx_DFP\1.3.0\Drivers\STM32L5xx_HAL_Driver\Src\stm32l5xx_hal_tim.c:889:7
	add.w	r3, r0, #63
	b	.LBB21_37
.Ltmp332:
	.p2align	2
.LBB21_5:
	@DEBUG_VALUE: HAL_TIM_OC_Start_IT:Channel <- $r1
	@DEBUG_VALUE: HAL_TIM_OC_Start_IT:htim <- $r0
	ldrb.w	r2, [r0, #62]
.Ltmp333:
	.loc	7 889 7                         @ c:/Keil_v5\ARM\PACK\Keil\STM32L5xx_DFP\1.3.0\Drivers\STM32L5xx_HAL_Driver\Src\stm32l5xx_hal_tim.c:889:7
	cmp	r2, #1
	itt	ne
	movne	r0, #1
.Ltmp334:
	@DEBUG_VALUE: HAL_TIM_OC_Start_IT:htim <- [DW_OP_LLVM_entry_value 1] $r0
	.loc	7 956 1 is_stmt 1               @ c:/Keil_v5\ARM\PACK\Keil\STM32L5xx_DFP\1.3.0\Drivers\STM32L5xx_HAL_Driver\Src\stm32l5xx_hal_tim.c:956:1
	bxne	lr
.Ltmp335:
.LBB21_6:
	@DEBUG_VALUE: HAL_TIM_OC_Start_IT:Channel <- $r1
	@DEBUG_VALUE: HAL_TIM_OC_Start_IT:htim <- [DW_OP_LLVM_entry_value 1] $r0
	.loc	7 0 1 is_stmt 0                 @ c:/Keil_v5\ARM\PACK\Keil\STM32L5xx_DFP\1.3.0\Drivers\STM32L5xx_HAL_Driver\Src\stm32l5xx_hal_tim.c:0:1
	movs	r2, #2
	.loc	7 895 3 is_stmt 1               @ c:/Keil_v5\ARM\PACK\Keil\STM32L5xx_DFP\1.3.0\Drivers\STM32L5xx_HAL_Driver\Src\stm32l5xx_hal_tim.c:895:3
	strb.w	r2, [r0, #62]
	.loc	7 897 3                         @ c:/Keil_v5\ARM\PACK\Keil\STM32L5xx_DFP\1.3.0\Drivers\STM32L5xx_HAL_Driver\Src\stm32l5xx_hal_tim.c:897:3
	ror.w	r2, r1, #2
	cmp	r2, #3
	bhi.w	.LBB21_46
.Ltmp336:
.LBB21_7:
	@DEBUG_VALUE: HAL_TIM_OC_Start_IT:Channel <- $r1
	@DEBUG_VALUE: HAL_TIM_OC_Start_IT:htim <- [DW_OP_LLVM_entry_value 1] $r0
	.loc	7 0 3 is_stmt 0                 @ c:/Keil_v5\ARM\PACK\Keil\STM32L5xx_DFP\1.3.0\Drivers\STM32L5xx_HAL_Driver\Src\stm32l5xx_hal_tim.c:0:3
.LCPI21_1:
	tbb	[pc, r2]
.Ltmp337:
@ %bb.8:
.LJTI21_2:
	.byte	(.LBB21_9-(.LCPI21_1+4))/2
	.byte	(.LBB21_10-(.LCPI21_1+4))/2
	.byte	(.LBB21_11-(.LCPI21_1+4))/2
	.byte	(.LBB21_12-(.LCPI21_1+4))/2
	.p2align	1
	.p2align	2
.LBB21_9:
.Ltmp338:
	@DEBUG_VALUE: HAL_TIM_OC_Start_IT:Channel <- $r1
	@DEBUG_VALUE: HAL_TIM_OC_Start_IT:htim <- [DW_OP_LLVM_entry_value 1] $r0
	.loc	7 902 7 is_stmt 1               @ c:/Keil_v5\ARM\PACK\Keil\STM32L5xx_DFP\1.3.0\Drivers\STM32L5xx_HAL_Driver\Src\stm32l5xx_hal_tim.c:902:7
	ldr	r2, [r0]
	ldr	r0, [r2, #12]
	orr	r0, r0, #2
	b	.LBB21_13
.Ltmp339:
	.p2align	2
.LBB21_10:
	@DEBUG_VALUE: HAL_TIM_OC_Start_IT:Channel <- $r1
	@DEBUG_VALUE: HAL_TIM_OC_Start_IT:htim <- [DW_OP_LLVM_entry_value 1] $r0
	.loc	7 909 7                         @ c:/Keil_v5\ARM\PACK\Keil\STM32L5xx_DFP\1.3.0\Drivers\STM32L5xx_HAL_Driver\Src\stm32l5xx_hal_tim.c:909:7
	ldr	r2, [r0]
	ldr	r0, [r2, #12]
	orr	r0, r0, #4
	b	.LBB21_13
.Ltmp340:
	.p2align	2
.LBB21_11:
	@DEBUG_VALUE: HAL_TIM_OC_Start_IT:Channel <- $r1
	@DEBUG_VALUE: HAL_TIM_OC_Start_IT:htim <- [DW_OP_LLVM_entry_value 1] $r0
	.loc	7 916 7                         @ c:/Keil_v5\ARM\PACK\Keil\STM32L5xx_DFP\1.3.0\Drivers\STM32L5xx_HAL_Driver\Src\stm32l5xx_hal_tim.c:916:7
	ldr	r2, [r0]
	ldr	r0, [r2, #12]
	orr	r0, r0, #8
	b	.LBB21_13
.Ltmp341:
	.p2align	2
.LBB21_12:
	@DEBUG_VALUE: HAL_TIM_OC_Start_IT:Channel <- $r1
	@DEBUG_VALUE: HAL_TIM_OC_Start_IT:htim <- [DW_OP_LLVM_entry_value 1] $r0
	.loc	7 923 7                         @ c:/Keil_v5\ARM\PACK\Keil\STM32L5xx_DFP\1.3.0\Drivers\STM32L5xx_HAL_Driver\Src\stm32l5xx_hal_tim.c:923:7
	ldr	r2, [r0]
	ldr	r0, [r2, #12]
	orr	r0, r0, #16
.Ltmp342:
.LBB21_13:
	@DEBUG_VALUE: HAL_TIM_OC_Start_IT:Channel <- $r1
	@DEBUG_VALUE: HAL_TIM_OC_Start_IT:htim <- [DW_OP_LLVM_entry_value 1] $r0
	.loc	7 0 0 is_stmt 0                 @ c:/Keil_v5\ARM\PACK\Keil\STM32L5xx_DFP\1.3.0\Drivers\STM32L5xx_HAL_Driver\Src\stm32l5xx_hal_tim.c:0:0
	str	r0, [r2, #12]
.Ltmp343:
.LBB21_14:
	@DEBUG_VALUE: HAL_TIM_OC_Start_IT:Channel <- $r1
	@DEBUG_VALUE: HAL_TIM_OC_Start_IT:htim <- [DW_OP_LLVM_entry_value 1] $r0
	@DEBUG_VALUE: TIM_CCxChannelCmd:TIMx <- $r2
	@DEBUG_VALUE: TIM_CCxChannelCmd:Channel <- $r1
	@DEBUG_VALUE: TIM_CCxChannelCmd:ChannelState <- 1
	.loc	7 7602 35 is_stmt 1             @ c:/Keil_v5\ARM\PACK\Keil\STM32L5xx_DFP\1.3.0\Drivers\STM32L5xx_HAL_Driver\Src\stm32l5xx_hal_tim.c:7602:35
	and	r1, r1, #31
.Ltmp344:
	@DEBUG_VALUE: HAL_TIM_OC_Start_IT:Channel <- [DW_OP_LLVM_entry_value 1] $r1
	.loc	7 0 35 is_stmt 0                @ c:/Keil_v5\ARM\PACK\Keil\STM32L5xx_DFP\1.3.0\Drivers\STM32L5xx_HAL_Driver\Src\stm32l5xx_hal_tim.c:0:35
	movs	r0, #1
	.loc	7 7605 14 is_stmt 1             @ c:/Keil_v5\ARM\PACK\Keil\STM32L5xx_DFP\1.3.0\Drivers\STM32L5xx_HAL_Driver\Src\stm32l5xx_hal_tim.c:7605:14
	ldr	r3, [r2, #32]
	.loc	7 7602 23                       @ c:/Keil_v5\ARM\PACK\Keil\STM32L5xx_DFP\1.3.0\Drivers\STM32L5xx_HAL_Driver\Src\stm32l5xx_hal_tim.c:7602:23
	lsl.w	r1, r0, r1
.Ltmp345:
	@DEBUG_VALUE: TIM_CCxChannelCmd:tmp <- $r1
	.loc	7 7605 14                       @ c:/Keil_v5\ARM\PACK\Keil\STM32L5xx_DFP\1.3.0\Drivers\STM32L5xx_HAL_Driver\Src\stm32l5xx_hal_tim.c:7605:14
	bics	r3, r1
	str	r3, [r2, #32]
	.loc	7 7608 14                       @ c:/Keil_v5\ARM\PACK\Keil\STM32L5xx_DFP\1.3.0\Drivers\STM32L5xx_HAL_Driver\Src\stm32l5xx_hal_tim.c:7608:14
	ldr	r3, [r2, #32]
	orrs	r3, r1
.Ltmp346:
	.loc	7 934 7                         @ c:/Keil_v5\ARM\PACK\Keil\STM32L5xx_DFP\1.3.0\Drivers\STM32L5xx_HAL_Driver\Src\stm32l5xx_hal_tim.c:934:7
	sub.w	r1, r2, #1073741824
.Ltmp347:
	sub.w	r1, r1, #76800
	ror.w	r1, r1, #10
	cmp	r1, #6
.Ltmp348:
	.loc	7 7608 14                       @ c:/Keil_v5\ARM\PACK\Keil\STM32L5xx_DFP\1.3.0\Drivers\STM32L5xx_HAL_Driver\Src\stm32l5xx_hal_tim.c:7608:14
	str	r3, [r2, #32]
.Ltmp349:
	@DEBUG_VALUE: TIM_CCxChannelCmd:ChannelState <- 1
	@DEBUG_VALUE: TIM_CCxChannelCmd:TIMx <- $r2
	.loc	7 934 7                         @ c:/Keil_v5\ARM\PACK\Keil\STM32L5xx_DFP\1.3.0\Drivers\STM32L5xx_HAL_Driver\Src\stm32l5xx_hal_tim.c:934:7
	bhi	.LBB21_29
.Ltmp350:
@ %bb.15:
	@DEBUG_VALUE: TIM_CCxChannelCmd:TIMx <- $r2
	@DEBUG_VALUE: HAL_TIM_OC_Start_IT:Channel <- [DW_OP_LLVM_entry_value 1] $r1
	@DEBUG_VALUE: TIM_CCxChannelCmd:ChannelState <- 1
	@DEBUG_VALUE: HAL_TIM_OC_Start_IT:htim <- [DW_OP_LLVM_entry_value 1] $r0
	.loc	7 0 7 is_stmt 0                 @ c:/Keil_v5\ARM\PACK\Keil\STM32L5xx_DFP\1.3.0\Drivers\STM32L5xx_HAL_Driver\Src\stm32l5xx_hal_tim.c:0:7
	lsls	r0, r1
	tst.w	r0, #101
	beq	.LBB21_29
.Ltmp351:
@ %bb.16:
	@DEBUG_VALUE: HAL_TIM_OC_Start_IT:Channel <- [DW_OP_LLVM_entry_value 1] $r1
	@DEBUG_VALUE: HAL_TIM_OC_Start_IT:htim <- [DW_OP_LLVM_entry_value 1] $r0
	.loc	7 937 5 is_stmt 1               @ c:/Keil_v5\ARM\PACK\Keil\STM32L5xx_DFP\1.3.0\Drivers\STM32L5xx_HAL_Driver\Src\stm32l5xx_hal_tim.c:937:5
	ldr	r0, [r2, #68]
	movw	r1, #3071
	movt	r1, #16384
	orr	r0, r0, #32768
.Ltmp352:
	.loc	7 941 7                         @ c:/Keil_v5\ARM\PACK\Keil\STM32L5xx_DFP\1.3.0\Drivers\STM32L5xx_HAL_Driver\Src\stm32l5xx_hal_tim.c:941:7
	cmp	r2, r1
.Ltmp353:
	.loc	7 937 5                         @ c:/Keil_v5\ARM\PACK\Keil\STM32L5xx_DFP\1.3.0\Drivers\STM32L5xx_HAL_Driver\Src\stm32l5xx_hal_tim.c:937:5
	str	r0, [r2, #68]
.Ltmp354:
	.loc	7 941 7                         @ c:/Keil_v5\ARM\PACK\Keil\STM32L5xx_DFP\1.3.0\Drivers\STM32L5xx_HAL_Driver\Src\stm32l5xx_hal_tim.c:941:7
	ble	.LBB21_20
.Ltmp355:
@ %bb.17:
	@DEBUG_VALUE: HAL_TIM_OC_Start_IT:Channel <- [DW_OP_LLVM_entry_value 1] $r1
	@DEBUG_VALUE: HAL_TIM_OC_Start_IT:htim <- [DW_OP_LLVM_entry_value 1] $r0
	.loc	7 0 7 is_stmt 0                 @ c:/Keil_v5\ARM\PACK\Keil\STM32L5xx_DFP\1.3.0\Drivers\STM32L5xx_HAL_Driver\Src\stm32l5xx_hal_tim.c:0:7
	movw	r0, #13311
	movt	r0, #16385
	.loc	7 941 7                         @ c:/Keil_v5\ARM\PACK\Keil\STM32L5xx_DFP\1.3.0\Drivers\STM32L5xx_HAL_Driver\Src\stm32l5xx_hal_tim.c:941:7
	cmp	r2, r0
	bgt	.LBB21_23
.Ltmp356:
@ %bb.18:
	@DEBUG_VALUE: HAL_TIM_OC_Start_IT:Channel <- [DW_OP_LLVM_entry_value 1] $r1
	@DEBUG_VALUE: HAL_TIM_OC_Start_IT:htim <- [DW_OP_LLVM_entry_value 1] $r0
	.loc	7 0 7                           @ c:/Keil_v5\ARM\PACK\Keil\STM32L5xx_DFP\1.3.0\Drivers\STM32L5xx_HAL_Driver\Src\stm32l5xx_hal_tim.c:0:7
	movw	r0, #3072
	movt	r0, #16384
	.loc	7 941 7                         @ c:/Keil_v5\ARM\PACK\Keil\STM32L5xx_DFP\1.3.0\Drivers\STM32L5xx_HAL_Driver\Src\stm32l5xx_hal_tim.c:941:7
	cmp	r2, r0
	beq	.LBB21_27
.Ltmp357:
@ %bb.19:
	@DEBUG_VALUE: HAL_TIM_OC_Start_IT:Channel <- [DW_OP_LLVM_entry_value 1] $r1
	@DEBUG_VALUE: HAL_TIM_OC_Start_IT:htim <- [DW_OP_LLVM_entry_value 1] $r0
	.loc	7 0 7                           @ c:/Keil_v5\ARM\PACK\Keil\STM32L5xx_DFP\1.3.0\Drivers\STM32L5xx_HAL_Driver\Src\stm32l5xx_hal_tim.c:0:7
	movw	r0, #11264
	b	.LBB21_25
.Ltmp358:
	.p2align	2
.LBB21_20:
	@DEBUG_VALUE: HAL_TIM_OC_Start_IT:Channel <- [DW_OP_LLVM_entry_value 1] $r1
	@DEBUG_VALUE: HAL_TIM_OC_Start_IT:htim <- [DW_OP_LLVM_entry_value 1] $r0
	.loc	7 941 7                         @ c:/Keil_v5\ARM\PACK\Keil\STM32L5xx_DFP\1.3.0\Drivers\STM32L5xx_HAL_Driver\Src\stm32l5xx_hal_tim.c:941:7
	cmp.w	r2, #1073741824
	beq	.LBB21_27
.Ltmp359:
@ %bb.21:
	@DEBUG_VALUE: HAL_TIM_OC_Start_IT:Channel <- [DW_OP_LLVM_entry_value 1] $r1
	@DEBUG_VALUE: HAL_TIM_OC_Start_IT:htim <- [DW_OP_LLVM_entry_value 1] $r0
	.loc	7 0 7                           @ c:/Keil_v5\ARM\PACK\Keil\STM32L5xx_DFP\1.3.0\Drivers\STM32L5xx_HAL_Driver\Src\stm32l5xx_hal_tim.c:0:7
	movw	r0, #1024
	movt	r0, #16384
	.loc	7 941 7                         @ c:/Keil_v5\ARM\PACK\Keil\STM32L5xx_DFP\1.3.0\Drivers\STM32L5xx_HAL_Driver\Src\stm32l5xx_hal_tim.c:941:7
	cmp	r2, r0
	beq	.LBB21_27
.Ltmp360:
@ %bb.22:
	@DEBUG_VALUE: HAL_TIM_OC_Start_IT:Channel <- [DW_OP_LLVM_entry_value 1] $r1
	@DEBUG_VALUE: HAL_TIM_OC_Start_IT:htim <- [DW_OP_LLVM_entry_value 1] $r0
	.loc	7 0 7                           @ c:/Keil_v5\ARM\PACK\Keil\STM32L5xx_DFP\1.3.0\Drivers\STM32L5xx_HAL_Driver\Src\stm32l5xx_hal_tim.c:0:7
	movw	r0, #2048
	movt	r0, #16384
	b	.LBB21_26
.Ltmp361:
	.p2align	2
.LBB21_23:
	@DEBUG_VALUE: HAL_TIM_OC_Start_IT:Channel <- [DW_OP_LLVM_entry_value 1] $r1
	@DEBUG_VALUE: HAL_TIM_OC_Start_IT:htim <- [DW_OP_LLVM_entry_value 1] $r0
	movw	r0, #16384
	movt	r0, #16385
	cmp	r2, r0
	beq	.LBB21_27
.Ltmp362:
.LBB21_24:
	@DEBUG_VALUE: HAL_TIM_OC_Start_IT:Channel <- [DW_OP_LLVM_entry_value 1] $r1
	@DEBUG_VALUE: HAL_TIM_OC_Start_IT:htim <- [DW_OP_LLVM_entry_value 1] $r0
	movw	r0, #13312
.Ltmp363:
.LBB21_25:
	@DEBUG_VALUE: HAL_TIM_OC_Start_IT:Channel <- [DW_OP_LLVM_entry_value 1] $r1
	@DEBUG_VALUE: HAL_TIM_OC_Start_IT:htim <- [DW_OP_LLVM_entry_value 1] $r0
	movt	r0, #16385
.Ltmp364:
.LBB21_26:
	@DEBUG_VALUE: HAL_TIM_OC_Start_IT:Channel <- [DW_OP_LLVM_entry_value 1] $r1
	@DEBUG_VALUE: HAL_TIM_OC_Start_IT:htim <- [DW_OP_LLVM_entry_value 1] $r0
	cmp	r2, r0
	bne.w	.LBB21_53
.Ltmp365:
.LBB21_27:
	@DEBUG_VALUE: HAL_TIM_OC_Start_IT:Channel <- [DW_OP_LLVM_entry_value 1] $r1
	@DEBUG_VALUE: HAL_TIM_OC_Start_IT:htim <- [DW_OP_LLVM_entry_value 1] $r0
	.loc	7 943 31 is_stmt 1              @ c:/Keil_v5\ARM\PACK\Keil\STM32L5xx_DFP\1.3.0\Drivers\STM32L5xx_HAL_Driver\Src\stm32l5xx_hal_tim.c:943:31
	ldr	r0, [r2, #8]
	movs	r1, #7
	movt	r1, #1
	.loc	7 943 36 is_stmt 0              @ c:/Keil_v5\ARM\PACK\Keil\STM32L5xx_DFP\1.3.0\Drivers\STM32L5xx_HAL_Driver\Src\stm32l5xx_hal_tim.c:943:36
	ands	r1, r0
.Ltmp366:
	@DEBUG_VALUE: HAL_TIM_OC_Start_IT:tmpsmcr <- $r1
	.loc	7 944 10 is_stmt 1              @ c:/Keil_v5\ARM\PACK\Keil\STM32L5xx_DFP\1.3.0\Drivers\STM32L5xx_HAL_Driver\Src\stm32l5xx_hal_tim.c:944:10
	cmp	r1, #6
	mov.w	r0, #0
	it	ne
	cmpne.w	r1, #65536
	bne.w	.LBB21_53
.Ltmp367:
@ %bb.28:
	@DEBUG_VALUE: HAL_TIM_OC_Start_IT:tmpsmcr <- $r1
	@DEBUG_VALUE: HAL_TIM_OC_Start_IT:Channel <- [DW_OP_LLVM_entry_value 1] $r1
	@DEBUG_VALUE: HAL_TIM_OC_Start_IT:htim <- [DW_OP_LLVM_entry_value 1] $r0
	.loc	7 956 1                         @ c:/Keil_v5\ARM\PACK\Keil\STM32L5xx_DFP\1.3.0\Drivers\STM32L5xx_HAL_Driver\Src\stm32l5xx_hal_tim.c:956:1
	bx	lr
.Ltmp368:
	.p2align	2
.LBB21_29:
	@DEBUG_VALUE: HAL_TIM_OC_Start_IT:Channel <- [DW_OP_LLVM_entry_value 1] $r1
	@DEBUG_VALUE: HAL_TIM_OC_Start_IT:htim <- [DW_OP_LLVM_entry_value 1] $r0
	.loc	7 0 1 is_stmt 0                 @ c:/Keil_v5\ARM\PACK\Keil\STM32L5xx_DFP\1.3.0\Drivers\STM32L5xx_HAL_Driver\Src\stm32l5xx_hal_tim.c:0:1
	movw	r0, #11263
	movt	r0, #16385
	.loc	7 934 7 is_stmt 1               @ c:/Keil_v5\ARM\PACK\Keil\STM32L5xx_DFP\1.3.0\Drivers\STM32L5xx_HAL_Driver\Src\stm32l5xx_hal_tim.c:934:7
	cmp	r2, r0
	bgt	.LBB21_47
.Ltmp369:
@ %bb.30:
	@DEBUG_VALUE: HAL_TIM_OC_Start_IT:Channel <- [DW_OP_LLVM_entry_value 1] $r1
	@DEBUG_VALUE: HAL_TIM_OC_Start_IT:htim <- [DW_OP_LLVM_entry_value 1] $r0
	.loc	7 0 7 is_stmt 0                 @ c:/Keil_v5\ARM\PACK\Keil\STM32L5xx_DFP\1.3.0\Drivers\STM32L5xx_HAL_Driver\Src\stm32l5xx_hal_tim.c:0:7
	movw	r0, #2047
	movt	r0, #16384
	.loc	7 934 7                         @ c:/Keil_v5\ARM\PACK\Keil\STM32L5xx_DFP\1.3.0\Drivers\STM32L5xx_HAL_Driver\Src\stm32l5xx_hal_tim.c:934:7
	cmp	r2, r0
	bgt	.LBB21_49
.Ltmp370:
@ %bb.31:
	@DEBUG_VALUE: HAL_TIM_OC_Start_IT:Channel <- [DW_OP_LLVM_entry_value 1] $r1
	@DEBUG_VALUE: HAL_TIM_OC_Start_IT:htim <- [DW_OP_LLVM_entry_value 1] $r0
	cmp.w	r2, #1073741824
	beq	.LBB21_27
.Ltmp371:
@ %bb.32:
	@DEBUG_VALUE: HAL_TIM_OC_Start_IT:Channel <- [DW_OP_LLVM_entry_value 1] $r1
	@DEBUG_VALUE: HAL_TIM_OC_Start_IT:htim <- [DW_OP_LLVM_entry_value 1] $r0
	.loc	7 0 7                           @ c:/Keil_v5\ARM\PACK\Keil\STM32L5xx_DFP\1.3.0\Drivers\STM32L5xx_HAL_Driver\Src\stm32l5xx_hal_tim.c:0:7
	movw	r0, #1024
	movt	r0, #16384
	b	.LBB21_26
.Ltmp372:
	.p2align	2
.LBB21_33:
	@DEBUG_VALUE: HAL_TIM_OC_Start_IT:Channel <- $r1
	@DEBUG_VALUE: HAL_TIM_OC_Start_IT:htim <- $r0
	.loc	7 889 7 is_stmt 1               @ c:/Keil_v5\ARM\PACK\Keil\STM32L5xx_DFP\1.3.0\Drivers\STM32L5xx_HAL_Driver\Src\stm32l5xx_hal_tim.c:889:7
	add.w	r3, r0, #67
	b	.LBB21_37
.Ltmp373:
	.p2align	2
.LBB21_34:
	@DEBUG_VALUE: HAL_TIM_OC_Start_IT:Channel <- $r1
	@DEBUG_VALUE: HAL_TIM_OC_Start_IT:htim <- $r0
	add.w	r3, r0, #64
	b	.LBB21_37
.Ltmp374:
	.p2align	2
.LBB21_35:
	@DEBUG_VALUE: HAL_TIM_OC_Start_IT:Channel <- $r1
	@DEBUG_VALUE: HAL_TIM_OC_Start_IT:htim <- $r0
	add.w	r3, r0, #65
	b	.LBB21_37
.Ltmp375:
	.p2align	2
.LBB21_36:
	@DEBUG_VALUE: HAL_TIM_OC_Start_IT:Channel <- $r1
	@DEBUG_VALUE: HAL_TIM_OC_Start_IT:htim <- $r0
	add.w	r3, r0, #66
.Ltmp376:
.LBB21_37:
	@DEBUG_VALUE: HAL_TIM_OC_Start_IT:Channel <- $r1
	@DEBUG_VALUE: HAL_TIM_OC_Start_IT:htim <- $r0
	ldrb	r3, [r3]
.Ltmp377:
	.loc	7 889 7 is_stmt 0               @ c:/Keil_v5\ARM\PACK\Keil\STM32L5xx_DFP\1.3.0\Drivers\STM32L5xx_HAL_Driver\Src\stm32l5xx_hal_tim.c:889:7
	cmp	r3, #1
	itt	ne
	movne	r0, #1
.Ltmp378:
	@DEBUG_VALUE: HAL_TIM_OC_Start_IT:htim <- [DW_OP_LLVM_entry_value 1] $r0
	.loc	7 956 1 is_stmt 1               @ c:/Keil_v5\ARM\PACK\Keil\STM32L5xx_DFP\1.3.0\Drivers\STM32L5xx_HAL_Driver\Src\stm32l5xx_hal_tim.c:956:1
	bxne	lr
.Ltmp379:
.LBB21_38:
	@DEBUG_VALUE: HAL_TIM_OC_Start_IT:Channel <- $r1
	@DEBUG_VALUE: HAL_TIM_OC_Start_IT:htim <- [DW_OP_LLVM_entry_value 1] $r0
	.loc	7 895 3                         @ c:/Keil_v5\ARM\PACK\Keil\STM32L5xx_DFP\1.3.0\Drivers\STM32L5xx_HAL_Driver\Src\stm32l5xx_hal_tim.c:895:3
	cmp	r2, #3
	bhi	.LBB21_42
.Ltmp380:
@ %bb.39:
	@DEBUG_VALUE: HAL_TIM_OC_Start_IT:Channel <- $r1
	@DEBUG_VALUE: HAL_TIM_OC_Start_IT:htim <- [DW_OP_LLVM_entry_value 1] $r0
	.loc	7 0 3 is_stmt 0                 @ c:/Keil_v5\ARM\PACK\Keil\STM32L5xx_DFP\1.3.0\Drivers\STM32L5xx_HAL_Driver\Src\stm32l5xx_hal_tim.c:0:3
.LCPI21_2:
	tbb	[pc, r2]
.Ltmp381:
@ %bb.40:
.LJTI21_1:
	.byte	(.LBB21_41-(.LCPI21_2+4))/2
	.byte	(.LBB21_43-(.LCPI21_2+4))/2
	.byte	(.LBB21_44-(.LCPI21_2+4))/2
	.byte	(.LBB21_45-(.LCPI21_2+4))/2
	.p2align	1
	.p2align	2
.LBB21_41:
.Ltmp382:
	@DEBUG_VALUE: HAL_TIM_OC_Start_IT:Channel <- $r1
	@DEBUG_VALUE: HAL_TIM_OC_Start_IT:htim <- [DW_OP_LLVM_entry_value 1] $r0
	movs	r2, #2
	.loc	7 895 3                         @ c:/Keil_v5\ARM\PACK\Keil\STM32L5xx_DFP\1.3.0\Drivers\STM32L5xx_HAL_Driver\Src\stm32l5xx_hal_tim.c:895:3
	strb.w	r2, [r0, #63]
	.loc	7 897 3 is_stmt 1               @ c:/Keil_v5\ARM\PACK\Keil\STM32L5xx_DFP\1.3.0\Drivers\STM32L5xx_HAL_Driver\Src\stm32l5xx_hal_tim.c:897:3
	ror.w	r2, r1, #2
	cmp	r2, #3
	bls.w	.LBB21_7
	b	.LBB21_46
.Ltmp383:
	.p2align	2
.LBB21_42:
	@DEBUG_VALUE: HAL_TIM_OC_Start_IT:Channel <- $r1
	@DEBUG_VALUE: HAL_TIM_OC_Start_IT:htim <- [DW_OP_LLVM_entry_value 1] $r0
	.loc	7 0 3 is_stmt 0                 @ c:/Keil_v5\ARM\PACK\Keil\STM32L5xx_DFP\1.3.0\Drivers\STM32L5xx_HAL_Driver\Src\stm32l5xx_hal_tim.c:0:3
	movs	r2, #2
	.loc	7 895 3 is_stmt 1               @ c:/Keil_v5\ARM\PACK\Keil\STM32L5xx_DFP\1.3.0\Drivers\STM32L5xx_HAL_Driver\Src\stm32l5xx_hal_tim.c:895:3
	strb.w	r2, [r0, #67]
	.loc	7 897 3                         @ c:/Keil_v5\ARM\PACK\Keil\STM32L5xx_DFP\1.3.0\Drivers\STM32L5xx_HAL_Driver\Src\stm32l5xx_hal_tim.c:897:3
	ror.w	r2, r1, #2
	cmp	r2, #3
	bls.w	.LBB21_7
	b	.LBB21_46
.Ltmp384:
	.p2align	2
.LBB21_43:
	@DEBUG_VALUE: HAL_TIM_OC_Start_IT:Channel <- $r1
	@DEBUG_VALUE: HAL_TIM_OC_Start_IT:htim <- [DW_OP_LLVM_entry_value 1] $r0
	.loc	7 0 3 is_stmt 0                 @ c:/Keil_v5\ARM\PACK\Keil\STM32L5xx_DFP\1.3.0\Drivers\STM32L5xx_HAL_Driver\Src\stm32l5xx_hal_tim.c:0:3
	movs	r2, #2
	.loc	7 895 3 is_stmt 1               @ c:/Keil_v5\ARM\PACK\Keil\STM32L5xx_DFP\1.3.0\Drivers\STM32L5xx_HAL_Driver\Src\stm32l5xx_hal_tim.c:895:3
	strb.w	r2, [r0, #64]
	.loc	7 897 3                         @ c:/Keil_v5\ARM\PACK\Keil\STM32L5xx_DFP\1.3.0\Drivers\STM32L5xx_HAL_Driver\Src\stm32l5xx_hal_tim.c:897:3
	ror.w	r2, r1, #2
	cmp	r2, #3
	bls.w	.LBB21_7
	b	.LBB21_46
.Ltmp385:
	.p2align	2
.LBB21_44:
	@DEBUG_VALUE: HAL_TIM_OC_Start_IT:Channel <- $r1
	@DEBUG_VALUE: HAL_TIM_OC_Start_IT:htim <- [DW_OP_LLVM_entry_value 1] $r0
	.loc	7 0 3 is_stmt 0                 @ c:/Keil_v5\ARM\PACK\Keil\STM32L5xx_DFP\1.3.0\Drivers\STM32L5xx_HAL_Driver\Src\stm32l5xx_hal_tim.c:0:3
	movs	r2, #2
	.loc	7 895 3 is_stmt 1               @ c:/Keil_v5\ARM\PACK\Keil\STM32L5xx_DFP\1.3.0\Drivers\STM32L5xx_HAL_Driver\Src\stm32l5xx_hal_tim.c:895:3
	strb.w	r2, [r0, #65]
	.loc	7 897 3                         @ c:/Keil_v5\ARM\PACK\Keil\STM32L5xx_DFP\1.3.0\Drivers\STM32L5xx_HAL_Driver\Src\stm32l5xx_hal_tim.c:897:3
	ror.w	r2, r1, #2
	cmp	r2, #3
	bls.w	.LBB21_7
	b	.LBB21_46
.Ltmp386:
	.p2align	2
.LBB21_45:
	@DEBUG_VALUE: HAL_TIM_OC_Start_IT:Channel <- $r1
	@DEBUG_VALUE: HAL_TIM_OC_Start_IT:htim <- [DW_OP_LLVM_entry_value 1] $r0
	.loc	7 0 3 is_stmt 0                 @ c:/Keil_v5\ARM\PACK\Keil\STM32L5xx_DFP\1.3.0\Drivers\STM32L5xx_HAL_Driver\Src\stm32l5xx_hal_tim.c:0:3
	movs	r2, #2
	.loc	7 895 3 is_stmt 1               @ c:/Keil_v5\ARM\PACK\Keil\STM32L5xx_DFP\1.3.0\Drivers\STM32L5xx_HAL_Driver\Src\stm32l5xx_hal_tim.c:895:3
	strb.w	r2, [r0, #66]
	.loc	7 897 3                         @ c:/Keil_v5\ARM\PACK\Keil\STM32L5xx_DFP\1.3.0\Drivers\STM32L5xx_HAL_Driver\Src\stm32l5xx_hal_tim.c:897:3
	ror.w	r2, r1, #2
	cmp	r2, #3
	bls.w	.LBB21_7
.Ltmp387:
.LBB21_46:
	@DEBUG_VALUE: HAL_TIM_OC_Start_IT:Channel <- $r1
	@DEBUG_VALUE: HAL_TIM_OC_Start_IT:htim <- [DW_OP_LLVM_entry_value 1] $r0
	.loc	7 932 27                        @ c:/Keil_v5\ARM\PACK\Keil\STM32L5xx_DFP\1.3.0\Drivers\STM32L5xx_HAL_Driver\Src\stm32l5xx_hal_tim.c:932:27
	ldr	r2, [r0]
	b	.LBB21_14
.Ltmp388:
	.p2align	2
.LBB21_47:
	@DEBUG_VALUE: HAL_TIM_OC_Start_IT:Channel <- [DW_OP_LLVM_entry_value 1] $r1
	@DEBUG_VALUE: HAL_TIM_OC_Start_IT:htim <- [DW_OP_LLVM_entry_value 1] $r0
	.loc	7 0 27 is_stmt 0                @ c:/Keil_v5\ARM\PACK\Keil\STM32L5xx_DFP\1.3.0\Drivers\STM32L5xx_HAL_Driver\Src\stm32l5xx_hal_tim.c:0:27
	movw	r0, #16383
	movt	r0, #16385
	.loc	7 934 7 is_stmt 1               @ c:/Keil_v5\ARM\PACK\Keil\STM32L5xx_DFP\1.3.0\Drivers\STM32L5xx_HAL_Driver\Src\stm32l5xx_hal_tim.c:934:7
	cmp	r2, r0
	bgt	.LBB21_51
.Ltmp389:
@ %bb.48:
	@DEBUG_VALUE: HAL_TIM_OC_Start_IT:Channel <- [DW_OP_LLVM_entry_value 1] $r1
	@DEBUG_VALUE: HAL_TIM_OC_Start_IT:htim <- [DW_OP_LLVM_entry_value 1] $r0
	.loc	7 0 7 is_stmt 0                 @ c:/Keil_v5\ARM\PACK\Keil\STM32L5xx_DFP\1.3.0\Drivers\STM32L5xx_HAL_Driver\Src\stm32l5xx_hal_tim.c:0:7
	movw	r0, #11264
	movt	r0, #16385
	cmp	r2, r0
	bne.w	.LBB21_24
	b	.LBB21_27
.Ltmp390:
	.p2align	2
.LBB21_49:
	@DEBUG_VALUE: HAL_TIM_OC_Start_IT:Channel <- [DW_OP_LLVM_entry_value 1] $r1
	@DEBUG_VALUE: HAL_TIM_OC_Start_IT:htim <- [DW_OP_LLVM_entry_value 1] $r0
	movw	r0, #2048
	movt	r0, #16384
	.loc	7 934 7                         @ c:/Keil_v5\ARM\PACK\Keil\STM32L5xx_DFP\1.3.0\Drivers\STM32L5xx_HAL_Driver\Src\stm32l5xx_hal_tim.c:934:7
	cmp	r2, r0
	beq.w	.LBB21_27
.Ltmp391:
@ %bb.50:
	@DEBUG_VALUE: HAL_TIM_OC_Start_IT:Channel <- [DW_OP_LLVM_entry_value 1] $r1
	@DEBUG_VALUE: HAL_TIM_OC_Start_IT:htim <- [DW_OP_LLVM_entry_value 1] $r0
	.loc	7 0 7                           @ c:/Keil_v5\ARM\PACK\Keil\STM32L5xx_DFP\1.3.0\Drivers\STM32L5xx_HAL_Driver\Src\stm32l5xx_hal_tim.c:0:7
	movw	r0, #3072
	movt	r0, #16384
	b	.LBB21_26
.Ltmp392:
	.p2align	2
.LBB21_51:
	@DEBUG_VALUE: HAL_TIM_OC_Start_IT:Channel <- [DW_OP_LLVM_entry_value 1] $r1
	@DEBUG_VALUE: HAL_TIM_OC_Start_IT:htim <- [DW_OP_LLVM_entry_value 1] $r0
	movw	r0, #16384
	movt	r0, #16385
	.loc	7 934 7                         @ c:/Keil_v5\ARM\PACK\Keil\STM32L5xx_DFP\1.3.0\Drivers\STM32L5xx_HAL_Driver\Src\stm32l5xx_hal_tim.c:934:7
	cmp	r2, r0
	beq.w	.LBB21_27
.Ltmp393:
@ %bb.52:
	@DEBUG_VALUE: HAL_TIM_OC_Start_IT:Channel <- [DW_OP_LLVM_entry_value 1] $r1
	@DEBUG_VALUE: HAL_TIM_OC_Start_IT:htim <- [DW_OP_LLVM_entry_value 1] $r0
	.loc	7 0 7                           @ c:/Keil_v5\ARM\PACK\Keil\STM32L5xx_DFP\1.3.0\Drivers\STM32L5xx_HAL_Driver\Src\stm32l5xx_hal_tim.c:0:7
	movw	r0, #18432
	movt	r0, #16385
	.loc	7 934 7                         @ c:/Keil_v5\ARM\PACK\Keil\STM32L5xx_DFP\1.3.0\Drivers\STM32L5xx_HAL_Driver\Src\stm32l5xx_hal_tim.c:934:7
	cmp	r2, r0
.Ltmp394:
	.loc	7 937 5 is_stmt 1               @ c:/Keil_v5\ARM\PACK\Keil\STM32L5xx_DFP\1.3.0\Drivers\STM32L5xx_HAL_Driver\Src\stm32l5xx_hal_tim.c:937:5
	ittt	eq
	ldreq	r0, [r2, #68]
	orreq	r0, r0, #32768
	streq	r0, [r2, #68]
.Ltmp395:
.LBB21_53:
	@DEBUG_VALUE: HAL_TIM_OC_Start_IT:Channel <- [DW_OP_LLVM_entry_value 1] $r1
	@DEBUG_VALUE: HAL_TIM_OC_Start_IT:htim <- [DW_OP_LLVM_entry_value 1] $r0
	.loc	7 0 0 is_stmt 0                 @ c:/Keil_v5\ARM\PACK\Keil\STM32L5xx_DFP\1.3.0\Drivers\STM32L5xx_HAL_Driver\Src\stm32l5xx_hal_tim.c:0:0
	ldr	r0, [r2]
	orr	r0, r0, #1
	str	r0, [r2]
	movs	r0, #0
.Ltmp396:
	.loc	7 956 1 is_stmt 1               @ c:/Keil_v5\ARM\PACK\Keil\STM32L5xx_DFP\1.3.0\Drivers\STM32L5xx_HAL_Driver\Src\stm32l5xx_hal_tim.c:956:1
	bx	lr
.Ltmp397:
.Lfunc_end21:
	.size	HAL_TIM_OC_Start_IT, .Lfunc_end21-HAL_TIM_OC_Start_IT
	.cfi_endproc
	.cantunwind
	.fnend
                                        @ -- End function
	.section	.text.HAL_TIM_OC_Stop_IT,"ax",%progbits
	.hidden	HAL_TIM_OC_Stop_IT              @ -- Begin function HAL_TIM_OC_Stop_IT
	.globl	HAL_TIM_OC_Stop_IT
	.p2align	2
	.type	HAL_TIM_OC_Stop_IT,%function
	.code	16                              @ @HAL_TIM_OC_Stop_IT
	.thumb_func
HAL_TIM_OC_Stop_IT:
.Lfunc_begin22:
	.loc	7 970 0                         @ c:/Keil_v5\ARM\PACK\Keil\STM32L5xx_DFP\1.3.0\Drivers\STM32L5xx_HAL_Driver\Src\stm32l5xx_hal_tim.c:970:0
	.fnstart
	.cfi_startproc
@ %bb.0:
	@DEBUG_VALUE: HAL_TIM_OC_Stop_IT:htim <- $r0
	@DEBUG_VALUE: HAL_TIM_OC_Stop_IT:Channel <- $r1
	@DEBUG_VALUE: HAL_TIM_OC_Stop_IT:Channel <- $r1
	.save	{r7, lr}
	push	{r7, lr}
	.cfi_def_cfa_offset 8
	.cfi_offset lr, -4
	.cfi_offset r7, -8
.Ltmp398:
	.loc	7 974 3 prologue_end            @ c:/Keil_v5\ARM\PACK\Keil\STM32L5xx_DFP\1.3.0\Drivers\STM32L5xx_HAL_Driver\Src\stm32l5xx_hal_tim.c:974:3
	ror.w	lr, r1, #2
	cmp.w	lr, #3
	@DEBUG_VALUE: HAL_TIM_OC_Stop_IT:htim <- $r0
	bhi	.LBB22_4
.Ltmp399:
@ %bb.1:
	@DEBUG_VALUE: HAL_TIM_OC_Stop_IT:Channel <- $r1
	@DEBUG_VALUE: HAL_TIM_OC_Stop_IT:htim <- $r0
	.loc	7 0 3 is_stmt 0                 @ c:/Keil_v5\ARM\PACK\Keil\STM32L5xx_DFP\1.3.0\Drivers\STM32L5xx_HAL_Driver\Src\stm32l5xx_hal_tim.c:0:3
.LCPI22_0:
	tbb	[pc, lr]
.Ltmp400:
@ %bb.2:
.LJTI22_0:
	.byte	(.LBB22_3-(.LCPI22_0+4))/2
	.byte	(.LBB22_5-(.LCPI22_0+4))/2
	.byte	(.LBB22_6-(.LCPI22_0+4))/2
	.byte	(.LBB22_7-(.LCPI22_0+4))/2
	.p2align	1
	.p2align	2
.LBB22_3:
.Ltmp401:
	@DEBUG_VALUE: HAL_TIM_OC_Stop_IT:Channel <- $r1
	@DEBUG_VALUE: HAL_TIM_OC_Stop_IT:htim <- $r0
	.loc	7 979 7 is_stmt 1               @ c:/Keil_v5\ARM\PACK\Keil\STM32L5xx_DFP\1.3.0\Drivers\STM32L5xx_HAL_Driver\Src\stm32l5xx_hal_tim.c:979:7
	ldr	r3, [r0]
	ldr	r2, [r3, #12]
	bic	r2, r2, #2
	b	.LBB22_8
.Ltmp402:
	.p2align	2
.LBB22_4:
	@DEBUG_VALUE: HAL_TIM_OC_Stop_IT:Channel <- $r1
	@DEBUG_VALUE: HAL_TIM_OC_Stop_IT:htim <- $r0
	.loc	7 1009 27                       @ c:/Keil_v5\ARM\PACK\Keil\STM32L5xx_DFP\1.3.0\Drivers\STM32L5xx_HAL_Driver\Src\stm32l5xx_hal_tim.c:1009:27
	ldr	r3, [r0]
	b	.LBB22_9
.Ltmp403:
	.p2align	2
.LBB22_5:
	@DEBUG_VALUE: HAL_TIM_OC_Stop_IT:Channel <- $r1
	@DEBUG_VALUE: HAL_TIM_OC_Stop_IT:htim <- $r0
	.loc	7 986 7                         @ c:/Keil_v5\ARM\PACK\Keil\STM32L5xx_DFP\1.3.0\Drivers\STM32L5xx_HAL_Driver\Src\stm32l5xx_hal_tim.c:986:7
	ldr	r3, [r0]
	ldr	r2, [r3, #12]
	bic	r2, r2, #4
	b	.LBB22_8
.Ltmp404:
	.p2align	2
.LBB22_6:
	@DEBUG_VALUE: HAL_TIM_OC_Stop_IT:Channel <- $r1
	@DEBUG_VALUE: HAL_TIM_OC_Stop_IT:htim <- $r0
	.loc	7 993 7                         @ c:/Keil_v5\ARM\PACK\Keil\STM32L5xx_DFP\1.3.0\Drivers\STM32L5xx_HAL_Driver\Src\stm32l5xx_hal_tim.c:993:7
	ldr	r3, [r0]
	ldr	r2, [r3, #12]
	bic	r2, r2, #8
	b	.LBB22_8
.Ltmp405:
	.p2align	2
.LBB22_7:
	@DEBUG_VALUE: HAL_TIM_OC_Stop_IT:Channel <- $r1
	@DEBUG_VALUE: HAL_TIM_OC_Stop_IT:htim <- $r0
	.loc	7 1000 7                        @ c:/Keil_v5\ARM\PACK\Keil\STM32L5xx_DFP\1.3.0\Drivers\STM32L5xx_HAL_Driver\Src\stm32l5xx_hal_tim.c:1000:7
	ldr	r3, [r0]
	ldr	r2, [r3, #12]
	bic	r2, r2, #16
.Ltmp406:
.LBB22_8:
	@DEBUG_VALUE: HAL_TIM_OC_Stop_IT:Channel <- $r1
	@DEBUG_VALUE: HAL_TIM_OC_Stop_IT:htim <- $r0
	.loc	7 0 0 is_stmt 0                 @ c:/Keil_v5\ARM\PACK\Keil\STM32L5xx_DFP\1.3.0\Drivers\STM32L5xx_HAL_Driver\Src\stm32l5xx_hal_tim.c:0:0
	str	r2, [r3, #12]
.Ltmp407:
.LBB22_9:
	@DEBUG_VALUE: HAL_TIM_OC_Stop_IT:Channel <- $r1
	@DEBUG_VALUE: HAL_TIM_OC_Stop_IT:htim <- $r0
	@DEBUG_VALUE: TIM_CCxChannelCmd:TIMx <- $r3
	@DEBUG_VALUE: TIM_CCxChannelCmd:Channel <- $r1
	@DEBUG_VALUE: TIM_CCxChannelCmd:ChannelState <- 0
	.loc	7 7602 35 is_stmt 1             @ c:/Keil_v5\ARM\PACK\Keil\STM32L5xx_DFP\1.3.0\Drivers\STM32L5xx_HAL_Driver\Src\stm32l5xx_hal_tim.c:7602:35
	and	r1, r1, #31
.Ltmp408:
	@DEBUG_VALUE: HAL_TIM_OC_Stop_IT:Channel <- [DW_OP_LLVM_entry_value 1] $r1
	.loc	7 0 35 is_stmt 0                @ c:/Keil_v5\ARM\PACK\Keil\STM32L5xx_DFP\1.3.0\Drivers\STM32L5xx_HAL_Driver\Src\stm32l5xx_hal_tim.c:0:35
	mov.w	r12, #1
	.loc	7 7605 14 is_stmt 1             @ c:/Keil_v5\ARM\PACK\Keil\STM32L5xx_DFP\1.3.0\Drivers\STM32L5xx_HAL_Driver\Src\stm32l5xx_hal_tim.c:7605:14
	ldr	r2, [r3, #32]
	.loc	7 7602 23                       @ c:/Keil_v5\ARM\PACK\Keil\STM32L5xx_DFP\1.3.0\Drivers\STM32L5xx_HAL_Driver\Src\stm32l5xx_hal_tim.c:7602:23
	lsl.w	r1, r12, r1
.Ltmp409:
	@DEBUG_VALUE: TIM_CCxChannelCmd:tmp <- $r1
	.loc	7 7605 14                       @ c:/Keil_v5\ARM\PACK\Keil\STM32L5xx_DFP\1.3.0\Drivers\STM32L5xx_HAL_Driver\Src\stm32l5xx_hal_tim.c:7605:14
	bic.w	r1, r2, r1
.Ltmp410:
	str	r1, [r3, #32]
.Ltmp411:
	.loc	7 1011 7                        @ c:/Keil_v5\ARM\PACK\Keil\STM32L5xx_DFP\1.3.0\Drivers\STM32L5xx_HAL_Driver\Src\stm32l5xx_hal_tim.c:1011:7
	sub.w	r1, r3, #1073741824
	sub.w	r1, r1, #76800
.Ltmp412:
	.loc	7 7608 14                       @ c:/Keil_v5\ARM\PACK\Keil\STM32L5xx_DFP\1.3.0\Drivers\STM32L5xx_HAL_Driver\Src\stm32l5xx_hal_tim.c:7608:14
	ldr	r2, [r3, #32]
.Ltmp413:
	.loc	7 1011 7                        @ c:/Keil_v5\ARM\PACK\Keil\STM32L5xx_DFP\1.3.0\Drivers\STM32L5xx_HAL_Driver\Src\stm32l5xx_hal_tim.c:1011:7
	ror.w	r1, r1, #10
	cmp	r1, #6
.Ltmp414:
	.loc	7 7608 14                       @ c:/Keil_v5\ARM\PACK\Keil\STM32L5xx_DFP\1.3.0\Drivers\STM32L5xx_HAL_Driver\Src\stm32l5xx_hal_tim.c:7608:14
	str	r2, [r3, #32]
.Ltmp415:
	@DEBUG_VALUE: TIM_CCxChannelCmd:ChannelState <- 0
	@DEBUG_VALUE: TIM_CCxChannelCmd:TIMx <- $r3
	.loc	7 1011 7                        @ c:/Keil_v5\ARM\PACK\Keil\STM32L5xx_DFP\1.3.0\Drivers\STM32L5xx_HAL_Driver\Src\stm32l5xx_hal_tim.c:1011:7
	bhi	.LBB22_14
.Ltmp416:
@ %bb.10:
	@DEBUG_VALUE: TIM_CCxChannelCmd:TIMx <- $r3
	@DEBUG_VALUE: HAL_TIM_OC_Stop_IT:htim <- $r0
	@DEBUG_VALUE: HAL_TIM_OC_Stop_IT:Channel <- [DW_OP_LLVM_entry_value 1] $r1
	@DEBUG_VALUE: TIM_CCxChannelCmd:ChannelState <- 0
	.loc	7 0 7 is_stmt 0                 @ c:/Keil_v5\ARM\PACK\Keil\STM32L5xx_DFP\1.3.0\Drivers\STM32L5xx_HAL_Driver\Src\stm32l5xx_hal_tim.c:0:7
	lsl.w	r1, r12, r1
	tst.w	r1, #101
	beq	.LBB22_14
.Ltmp417:
.LBB22_11:
	@DEBUG_VALUE: HAL_TIM_OC_Stop_IT:htim <- $r0
	@DEBUG_VALUE: HAL_TIM_OC_Stop_IT:Channel <- [DW_OP_LLVM_entry_value 1] $r1
	.loc	7 1014 5 is_stmt 1              @ c:/Keil_v5\ARM\PACK\Keil\STM32L5xx_DFP\1.3.0\Drivers\STM32L5xx_HAL_Driver\Src\stm32l5xx_hal_tim.c:1014:5
	ldr	r1, [r3, #32]
	movw	r2, #4369
.Ltmp418:
	.loc	7 1014 5 is_stmt 0              @ c:/Keil_v5\ARM\PACK\Keil\STM32L5xx_DFP\1.3.0\Drivers\STM32L5xx_HAL_Driver\Src\stm32l5xx_hal_tim.c:1014:5
	tst	r1, r2
	bne	.LBB22_15
.Ltmp419:
@ %bb.12:
	@DEBUG_VALUE: HAL_TIM_OC_Stop_IT:htim <- $r0
	@DEBUG_VALUE: HAL_TIM_OC_Stop_IT:Channel <- [DW_OP_LLVM_entry_value 1] $r1
	.loc	7 1014 5                        @ c:/Keil_v5\ARM\PACK\Keil\STM32L5xx_DFP\1.3.0\Drivers\STM32L5xx_HAL_Driver\Src\stm32l5xx_hal_tim.c:1014:5
	ldr	r1, [r3, #32]
	movw	r2, #1092
.Ltmp420:
	.loc	7 1014 5                        @ c:/Keil_v5\ARM\PACK\Keil\STM32L5xx_DFP\1.3.0\Drivers\STM32L5xx_HAL_Driver\Src\stm32l5xx_hal_tim.c:1014:5
	tst	r1, r2
	bne	.LBB22_15
.Ltmp421:
@ %bb.13:
	@DEBUG_VALUE: HAL_TIM_OC_Stop_IT:htim <- $r0
	@DEBUG_VALUE: HAL_TIM_OC_Stop_IT:Channel <- [DW_OP_LLVM_entry_value 1] $r1
	.loc	7 1014 5                        @ c:/Keil_v5\ARM\PACK\Keil\STM32L5xx_DFP\1.3.0\Drivers\STM32L5xx_HAL_Driver\Src\stm32l5xx_hal_tim.c:1014:5
	ldr	r1, [r3, #68]
	bic	r1, r1, #32768
	str	r1, [r3, #68]
	b	.LBB22_15
.Ltmp422:
	.p2align	2
.LBB22_14:
	@DEBUG_VALUE: HAL_TIM_OC_Stop_IT:htim <- $r0
	@DEBUG_VALUE: HAL_TIM_OC_Stop_IT:Channel <- [DW_OP_LLVM_entry_value 1] $r1
	.loc	7 0 5                           @ c:/Keil_v5\ARM\PACK\Keil\STM32L5xx_DFP\1.3.0\Drivers\STM32L5xx_HAL_Driver\Src\stm32l5xx_hal_tim.c:0:5
	movw	r1, #18432
	movt	r1, #16385
	.loc	7 1011 7 is_stmt 1              @ c:/Keil_v5\ARM\PACK\Keil\STM32L5xx_DFP\1.3.0\Drivers\STM32L5xx_HAL_Driver\Src\stm32l5xx_hal_tim.c:1011:7
	cmp	r3, r1
	beq	.LBB22_11
.Ltmp423:
.LBB22_15:
	@DEBUG_VALUE: HAL_TIM_OC_Stop_IT:htim <- $r0
	@DEBUG_VALUE: HAL_TIM_OC_Stop_IT:Channel <- [DW_OP_LLVM_entry_value 1] $r1
	.loc	7 1018 3                        @ c:/Keil_v5\ARM\PACK\Keil\STM32L5xx_DFP\1.3.0\Drivers\STM32L5xx_HAL_Driver\Src\stm32l5xx_hal_tim.c:1018:3
	ldr	r1, [r3, #32]
	movw	r2, #4369
.Ltmp424:
	.loc	7 1018 3 is_stmt 0              @ c:/Keil_v5\ARM\PACK\Keil\STM32L5xx_DFP\1.3.0\Drivers\STM32L5xx_HAL_Driver\Src\stm32l5xx_hal_tim.c:1018:3
	tst	r1, r2
	bne	.LBB22_18
.Ltmp425:
@ %bb.16:
	@DEBUG_VALUE: HAL_TIM_OC_Stop_IT:htim <- $r0
	@DEBUG_VALUE: HAL_TIM_OC_Stop_IT:Channel <- [DW_OP_LLVM_entry_value 1] $r1
	.loc	7 1018 3                        @ c:/Keil_v5\ARM\PACK\Keil\STM32L5xx_DFP\1.3.0\Drivers\STM32L5xx_HAL_Driver\Src\stm32l5xx_hal_tim.c:1018:3
	ldr	r1, [r3, #32]
	movw	r2, #1092
.Ltmp426:
	.loc	7 1018 3                        @ c:/Keil_v5\ARM\PACK\Keil\STM32L5xx_DFP\1.3.0\Drivers\STM32L5xx_HAL_Driver\Src\stm32l5xx_hal_tim.c:1018:3
	tst	r1, r2
	bne	.LBB22_18
.Ltmp427:
@ %bb.17:
	@DEBUG_VALUE: HAL_TIM_OC_Stop_IT:htim <- $r0
	@DEBUG_VALUE: HAL_TIM_OC_Stop_IT:Channel <- [DW_OP_LLVM_entry_value 1] $r1
	.loc	7 1018 3                        @ c:/Keil_v5\ARM\PACK\Keil\STM32L5xx_DFP\1.3.0\Drivers\STM32L5xx_HAL_Driver\Src\stm32l5xx_hal_tim.c:1018:3
	ldr	r1, [r3]
	bic	r1, r1, #1
	str	r1, [r3]
.Ltmp428:
.LBB22_18:
	@DEBUG_VALUE: HAL_TIM_OC_Stop_IT:htim <- $r0
	@DEBUG_VALUE: HAL_TIM_OC_Stop_IT:Channel <- [DW_OP_LLVM_entry_value 1] $r1
	.loc	7 1021 3 is_stmt 1              @ c:/Keil_v5\ARM\PACK\Keil\STM32L5xx_DFP\1.3.0\Drivers\STM32L5xx_HAL_Driver\Src\stm32l5xx_hal_tim.c:1021:3
	cmp.w	lr, #4
	bhi	.LBB22_22
.Ltmp429:
@ %bb.19:
	@DEBUG_VALUE: HAL_TIM_OC_Stop_IT:htim <- $r0
	@DEBUG_VALUE: HAL_TIM_OC_Stop_IT:Channel <- [DW_OP_LLVM_entry_value 1] $r1
	.loc	7 0 3 is_stmt 0                 @ c:/Keil_v5\ARM\PACK\Keil\STM32L5xx_DFP\1.3.0\Drivers\STM32L5xx_HAL_Driver\Src\stm32l5xx_hal_tim.c:0:3
.LCPI22_1:
	tbb	[pc, lr]
.Ltmp430:
@ %bb.20:
.LJTI22_1:
	.byte	(.LBB22_21-(.LCPI22_1+4))/2
	.byte	(.LBB22_23-(.LCPI22_1+4))/2
	.byte	(.LBB22_24-(.LCPI22_1+4))/2
	.byte	(.LBB22_25-(.LCPI22_1+4))/2
	.byte	(.LBB22_26-(.LCPI22_1+4))/2
	.p2align	1
	.p2align	2
.LBB22_21:
.Ltmp431:
	@DEBUG_VALUE: HAL_TIM_OC_Stop_IT:htim <- $r0
	@DEBUG_VALUE: HAL_TIM_OC_Stop_IT:Channel <- [DW_OP_LLVM_entry_value 1] $r1
	movs	r1, #1
	.loc	7 1021 3                        @ c:/Keil_v5\ARM\PACK\Keil\STM32L5xx_DFP\1.3.0\Drivers\STM32L5xx_HAL_Driver\Src\stm32l5xx_hal_tim.c:1021:3
	strb.w	r1, [r0, #62]
	.loc	7 1024 3 is_stmt 1              @ c:/Keil_v5\ARM\PACK\Keil\STM32L5xx_DFP\1.3.0\Drivers\STM32L5xx_HAL_Driver\Src\stm32l5xx_hal_tim.c:1024:3
	movs	r0, #0
.Ltmp432:
	@DEBUG_VALUE: HAL_TIM_OC_Stop_IT:htim <- [DW_OP_LLVM_entry_value 1] $r0
	pop	{r7, pc}
.Ltmp433:
	.p2align	2
.LBB22_22:
	@DEBUG_VALUE: HAL_TIM_OC_Stop_IT:htim <- $r0
	@DEBUG_VALUE: HAL_TIM_OC_Stop_IT:Channel <- [DW_OP_LLVM_entry_value 1] $r1
	.loc	7 0 3 is_stmt 0                 @ c:/Keil_v5\ARM\PACK\Keil\STM32L5xx_DFP\1.3.0\Drivers\STM32L5xx_HAL_Driver\Src\stm32l5xx_hal_tim.c:0:3
	movs	r1, #1
	.loc	7 1021 3 is_stmt 1              @ c:/Keil_v5\ARM\PACK\Keil\STM32L5xx_DFP\1.3.0\Drivers\STM32L5xx_HAL_Driver\Src\stm32l5xx_hal_tim.c:1021:3
	strb.w	r1, [r0, #67]
	.loc	7 1024 3                        @ c:/Keil_v5\ARM\PACK\Keil\STM32L5xx_DFP\1.3.0\Drivers\STM32L5xx_HAL_Driver\Src\stm32l5xx_hal_tim.c:1024:3
	movs	r0, #0
.Ltmp434:
	@DEBUG_VALUE: HAL_TIM_OC_Stop_IT:htim <- [DW_OP_LLVM_entry_value 1] $r0
	pop	{r7, pc}
.Ltmp435:
	.p2align	2
.LBB22_23:
	@DEBUG_VALUE: HAL_TIM_OC_Stop_IT:htim <- $r0
	@DEBUG_VALUE: HAL_TIM_OC_Stop_IT:Channel <- [DW_OP_LLVM_entry_value 1] $r1
	.loc	7 0 3 is_stmt 0                 @ c:/Keil_v5\ARM\PACK\Keil\STM32L5xx_DFP\1.3.0\Drivers\STM32L5xx_HAL_Driver\Src\stm32l5xx_hal_tim.c:0:3
	movs	r1, #1
	.loc	7 1021 3 is_stmt 1              @ c:/Keil_v5\ARM\PACK\Keil\STM32L5xx_DFP\1.3.0\Drivers\STM32L5xx_HAL_Driver\Src\stm32l5xx_hal_tim.c:1021:3
	strb.w	r1, [r0, #63]
	.loc	7 1024 3                        @ c:/Keil_v5\ARM\PACK\Keil\STM32L5xx_DFP\1.3.0\Drivers\STM32L5xx_HAL_Driver\Src\stm32l5xx_hal_tim.c:1024:3
	movs	r0, #0
.Ltmp436:
	@DEBUG_VALUE: HAL_TIM_OC_Stop_IT:htim <- [DW_OP_LLVM_entry_value 1] $r0
	pop	{r7, pc}
.Ltmp437:
	.p2align	2
.LBB22_24:
	@DEBUG_VALUE: HAL_TIM_OC_Stop_IT:htim <- $r0
	@DEBUG_VALUE: HAL_TIM_OC_Stop_IT:Channel <- [DW_OP_LLVM_entry_value 1] $r1
	.loc	7 0 3 is_stmt 0                 @ c:/Keil_v5\ARM\PACK\Keil\STM32L5xx_DFP\1.3.0\Drivers\STM32L5xx_HAL_Driver\Src\stm32l5xx_hal_tim.c:0:3
	movs	r1, #1
	.loc	7 1021 3 is_stmt 1              @ c:/Keil_v5\ARM\PACK\Keil\STM32L5xx_DFP\1.3.0\Drivers\STM32L5xx_HAL_Driver\Src\stm32l5xx_hal_tim.c:1021:3
	strb.w	r1, [r0, #64]
	.loc	7 1024 3                        @ c:/Keil_v5\ARM\PACK\Keil\STM32L5xx_DFP\1.3.0\Drivers\STM32L5xx_HAL_Driver\Src\stm32l5xx_hal_tim.c:1024:3
	movs	r0, #0
.Ltmp438:
	@DEBUG_VALUE: HAL_TIM_OC_Stop_IT:htim <- [DW_OP_LLVM_entry_value 1] $r0
	pop	{r7, pc}
.Ltmp439:
	.p2align	2
.LBB22_25:
	@DEBUG_VALUE: HAL_TIM_OC_Stop_IT:htim <- $r0
	@DEBUG_VALUE: HAL_TIM_OC_Stop_IT:Channel <- [DW_OP_LLVM_entry_value 1] $r1
	.loc	7 0 3 is_stmt 0                 @ c:/Keil_v5\ARM\PACK\Keil\STM32L5xx_DFP\1.3.0\Drivers\STM32L5xx_HAL_Driver\Src\stm32l5xx_hal_tim.c:0:3
	movs	r1, #1
	.loc	7 1021 3 is_stmt 1              @ c:/Keil_v5\ARM\PACK\Keil\STM32L5xx_DFP\1.3.0\Drivers\STM32L5xx_HAL_Driver\Src\stm32l5xx_hal_tim.c:1021:3
	strb.w	r1, [r0, #65]
	.loc	7 1024 3                        @ c:/Keil_v5\ARM\PACK\Keil\STM32L5xx_DFP\1.3.0\Drivers\STM32L5xx_HAL_Driver\Src\stm32l5xx_hal_tim.c:1024:3
	movs	r0, #0
.Ltmp440:
	@DEBUG_VALUE: HAL_TIM_OC_Stop_IT:htim <- [DW_OP_LLVM_entry_value 1] $r0
	pop	{r7, pc}
.Ltmp441:
	.p2align	2
.LBB22_26:
	@DEBUG_VALUE: HAL_TIM_OC_Stop_IT:htim <- $r0
	@DEBUG_VALUE: HAL_TIM_OC_Stop_IT:Channel <- [DW_OP_LLVM_entry_value 1] $r1
	.loc	7 0 3 is_stmt 0                 @ c:/Keil_v5\ARM\PACK\Keil\STM32L5xx_DFP\1.3.0\Drivers\STM32L5xx_HAL_Driver\Src\stm32l5xx_hal_tim.c:0:3
	movs	r1, #1
	.loc	7 1021 3 is_stmt 1              @ c:/Keil_v5\ARM\PACK\Keil\STM32L5xx_DFP\1.3.0\Drivers\STM32L5xx_HAL_Driver\Src\stm32l5xx_hal_tim.c:1021:3
	strb.w	r1, [r0, #66]
	.loc	7 1024 3                        @ c:/Keil_v5\ARM\PACK\Keil\STM32L5xx_DFP\1.3.0\Drivers\STM32L5xx_HAL_Driver\Src\stm32l5xx_hal_tim.c:1024:3
	movs	r0, #0
.Ltmp442:
	@DEBUG_VALUE: HAL_TIM_OC_Stop_IT:htim <- [DW_OP_LLVM_entry_value 1] $r0
	pop	{r7, pc}
.Ltmp443:
.Lfunc_end22:
	.size	HAL_TIM_OC_Stop_IT, .Lfunc_end22-HAL_TIM_OC_Stop_IT
	.cfi_endproc
	.cantunwind
	.fnend
                                        @ -- End function
	.section	.text.HAL_TIM_OC_Start_DMA,"ax",%progbits
	.hidden	HAL_TIM_OC_Start_DMA            @ -- Begin function HAL_TIM_OC_Start_DMA
	.globl	HAL_TIM_OC_Start_DMA
	.p2align	2
	.type	HAL_TIM_OC_Start_DMA,%function
	.code	16                              @ @HAL_TIM_OC_Start_DMA
	.thumb_func
HAL_TIM_OC_Start_DMA:
.Lfunc_begin23:
	.loc	7 1041 0                        @ c:/Keil_v5\ARM\PACK\Keil\STM32L5xx_DFP\1.3.0\Drivers\STM32L5xx_HAL_Driver\Src\stm32l5xx_hal_tim.c:1041:0
	.fnstart
	.cfi_startproc
@ %bb.0:
	@DEBUG_VALUE: HAL_TIM_OC_Start_DMA:htim <- $r0
	@DEBUG_VALUE: HAL_TIM_OC_Start_DMA:Channel <- $r1
	@DEBUG_VALUE: HAL_TIM_OC_Start_DMA:pData <- $r2
	@DEBUG_VALUE: HAL_TIM_OC_Start_DMA:Length <- $r3
	.save	{r4, r5, r7, lr}
	push	{r4, r5, r7, lr}
	.cfi_def_cfa_offset 16
	.cfi_offset lr, -4
	.cfi_offset r7, -8
	.cfi_offset r5, -12
	.cfi_offset r4, -16
	mov	r4, r1
	@DEBUG_VALUE: HAL_TIM_OC_Start_DMA:Length <- $r3
	@DEBUG_VALUE: HAL_TIM_OC_Start_DMA:pData <- $r2
.Ltmp444:
	@DEBUG_VALUE: HAL_TIM_OC_Start_DMA:Channel <- $r4
	mov	r5, r0
.Ltmp445:
	@DEBUG_VALUE: HAL_TIM_OC_Start_DMA:htim <- $r5
	@DEBUG_VALUE: HAL_TIM_OC_Start_DMA:htim <- $r5
	.loc	7 1048 7 prologue_end           @ c:/Keil_v5\ARM\PACK\Keil\STM32L5xx_DFP\1.3.0\Drivers\STM32L5xx_HAL_Driver\Src\stm32l5xx_hal_tim.c:1048:7
	cbz	r1, .LBB23_5
.Ltmp446:
@ %bb.1:
	@DEBUG_VALUE: HAL_TIM_OC_Start_DMA:htim <- $r5
	@DEBUG_VALUE: HAL_TIM_OC_Start_DMA:Channel <- $r4
	@DEBUG_VALUE: HAL_TIM_OC_Start_DMA:Length <- $r3
	@DEBUG_VALUE: HAL_TIM_OC_Start_DMA:pData <- $r2
	subs	r0, r4, #4
	ror.w	r0, r0, #2
	cmp	r0, #3
	bhi	.LBB23_7
.Ltmp447:
@ %bb.2:
	@DEBUG_VALUE: HAL_TIM_OC_Start_DMA:htim <- $r5
	@DEBUG_VALUE: HAL_TIM_OC_Start_DMA:Channel <- $r4
	@DEBUG_VALUE: HAL_TIM_OC_Start_DMA:Length <- $r3
	@DEBUG_VALUE: HAL_TIM_OC_Start_DMA:pData <- $r2
	.loc	7 0 7 is_stmt 0                 @ c:/Keil_v5\ARM\PACK\Keil\STM32L5xx_DFP\1.3.0\Drivers\STM32L5xx_HAL_Driver\Src\stm32l5xx_hal_tim.c:0:7
.LCPI23_0:
	tbb	[pc, r0]
.Ltmp448:
@ %bb.3:
.LJTI23_0:
	.byte	(.LBB23_4-(.LCPI23_0+4))/2
	.byte	(.LBB23_8-(.LCPI23_0+4))/2
	.byte	(.LBB23_9-(.LCPI23_0+4))/2
	.byte	(.LBB23_10-(.LCPI23_0+4))/2
	.p2align	1
	.p2align	2
.LBB23_4:
.Ltmp449:
	@DEBUG_VALUE: HAL_TIM_OC_Start_DMA:htim <- $r5
	@DEBUG_VALUE: HAL_TIM_OC_Start_DMA:Channel <- $r4
	@DEBUG_VALUE: HAL_TIM_OC_Start_DMA:Length <- $r3
	@DEBUG_VALUE: HAL_TIM_OC_Start_DMA:pData <- $r2
	.loc	7 1048 7                        @ c:/Keil_v5\ARM\PACK\Keil\STM32L5xx_DFP\1.3.0\Drivers\STM32L5xx_HAL_Driver\Src\stm32l5xx_hal_tim.c:1048:7
	add.w	r1, r5, #63
	b	.LBB23_11
.Ltmp450:
	.p2align	2
.LBB23_5:
	@DEBUG_VALUE: HAL_TIM_OC_Start_DMA:htim <- $r5
	@DEBUG_VALUE: HAL_TIM_OC_Start_DMA:Channel <- $r4
	@DEBUG_VALUE: HAL_TIM_OC_Start_DMA:Length <- $r3
	@DEBUG_VALUE: HAL_TIM_OC_Start_DMA:pData <- $r2
	ldrb.w	r0, [r5, #62]
.Ltmp451:
	.loc	7 1048 7                        @ c:/Keil_v5\ARM\PACK\Keil\STM32L5xx_DFP\1.3.0\Drivers\STM32L5xx_HAL_Driver\Src\stm32l5xx_hal_tim.c:1048:7
	cmp	r0, #2
	itt	eq
	moveq	r0, #2
	.loc	7 1177 1 is_stmt 1              @ c:/Keil_v5\ARM\PACK\Keil\STM32L5xx_DFP\1.3.0\Drivers\STM32L5xx_HAL_Driver\Src\stm32l5xx_hal_tim.c:1177:1
	popeq	{r4, r5, r7, pc}
.Ltmp452:
.LBB23_6:
	@DEBUG_VALUE: HAL_TIM_OC_Start_DMA:Length <- $r3
	@DEBUG_VALUE: HAL_TIM_OC_Start_DMA:pData <- $r2
	.loc	7 1052 12                       @ c:/Keil_v5\ARM\PACK\Keil\STM32L5xx_DFP\1.3.0\Drivers\STM32L5xx_HAL_Driver\Src\stm32l5xx_hal_tim.c:1052:12
	add.w	r0, r5, #62
	@DEBUG_VALUE: HAL_TIM_OC_Start_DMA:Length <- $r3
	ldrb	r0, [r0]
.Ltmp453:
	.loc	7 1052 12 is_stmt 0             @ c:/Keil_v5\ARM\PACK\Keil\STM32L5xx_DFP\1.3.0\Drivers\STM32L5xx_HAL_Driver\Src\stm32l5xx_hal_tim.c:1052:12
	cmp	r0, #1
	bne	.LBB23_22
	b	.LBB23_20
.Ltmp454:
	.p2align	2
.LBB23_7:
	@DEBUG_VALUE: HAL_TIM_OC_Start_DMA:htim <- $r5
	@DEBUG_VALUE: HAL_TIM_OC_Start_DMA:Channel <- $r4
	@DEBUG_VALUE: HAL_TIM_OC_Start_DMA:Length <- $r3
	@DEBUG_VALUE: HAL_TIM_OC_Start_DMA:pData <- $r2
	.loc	7 1048 7 is_stmt 1              @ c:/Keil_v5\ARM\PACK\Keil\STM32L5xx_DFP\1.3.0\Drivers\STM32L5xx_HAL_Driver\Src\stm32l5xx_hal_tim.c:1048:7
	add.w	r1, r5, #67
	b	.LBB23_11
.Ltmp455:
	.p2align	2
.LBB23_8:
	@DEBUG_VALUE: HAL_TIM_OC_Start_DMA:htim <- $r5
	@DEBUG_VALUE: HAL_TIM_OC_Start_DMA:Channel <- $r4
	@DEBUG_VALUE: HAL_TIM_OC_Start_DMA:Length <- $r3
	@DEBUG_VALUE: HAL_TIM_OC_Start_DMA:pData <- $r2
	add.w	r1, r5, #64
	b	.LBB23_11
.Ltmp456:
	.p2align	2
.LBB23_9:
	@DEBUG_VALUE: HAL_TIM_OC_Start_DMA:htim <- $r5
	@DEBUG_VALUE: HAL_TIM_OC_Start_DMA:Channel <- $r4
	@DEBUG_VALUE: HAL_TIM_OC_Start_DMA:Length <- $r3
	@DEBUG_VALUE: HAL_TIM_OC_Start_DMA:pData <- $r2
	add.w	r1, r5, #65
	b	.LBB23_11
.Ltmp457:
	.p2align	2
.LBB23_10:
	@DEBUG_VALUE: HAL_TIM_OC_Start_DMA:htim <- $r5
	@DEBUG_VALUE: HAL_TIM_OC_Start_DMA:Channel <- $r4
	@DEBUG_VALUE: HAL_TIM_OC_Start_DMA:Length <- $r3
	@DEBUG_VALUE: HAL_TIM_OC_Start_DMA:pData <- $r2
	add.w	r1, r5, #66
.Ltmp458:
.LBB23_11:
	@DEBUG_VALUE: HAL_TIM_OC_Start_DMA:htim <- $r5
	@DEBUG_VALUE: HAL_TIM_OC_Start_DMA:Channel <- $r4
	@DEBUG_VALUE: HAL_TIM_OC_Start_DMA:Length <- $r3
	@DEBUG_VALUE: HAL_TIM_OC_Start_DMA:pData <- $r2
	ldrb	r1, [r1]
.Ltmp459:
	.loc	7 1048 7 is_stmt 0              @ c:/Keil_v5\ARM\PACK\Keil\STM32L5xx_DFP\1.3.0\Drivers\STM32L5xx_HAL_Driver\Src\stm32l5xx_hal_tim.c:1048:7
	cmp	r1, #2
	itt	eq
	moveq	r0, #2
	.loc	7 1177 1 is_stmt 1              @ c:/Keil_v5\ARM\PACK\Keil\STM32L5xx_DFP\1.3.0\Drivers\STM32L5xx_HAL_Driver\Src\stm32l5xx_hal_tim.c:1177:1
	popeq	{r4, r5, r7, pc}
.Ltmp460:
.LBB23_12:
	@DEBUG_VALUE: HAL_TIM_OC_Start_DMA:Length <- $r3
	@DEBUG_VALUE: HAL_TIM_OC_Start_DMA:pData <- $r2
	.loc	7 1052 12                       @ c:/Keil_v5\ARM\PACK\Keil\STM32L5xx_DFP\1.3.0\Drivers\STM32L5xx_HAL_Driver\Src\stm32l5xx_hal_tim.c:1052:12
	cmp	r0, #3
	bhi	.LBB23_16
.Ltmp461:
@ %bb.13:
	@DEBUG_VALUE: HAL_TIM_OC_Start_DMA:Length <- $r3
	@DEBUG_VALUE: HAL_TIM_OC_Start_DMA:pData <- $r2
	.loc	7 0 12 is_stmt 0                @ c:/Keil_v5\ARM\PACK\Keil\STM32L5xx_DFP\1.3.0\Drivers\STM32L5xx_HAL_Driver\Src\stm32l5xx_hal_tim.c:0:12
.LCPI23_1:
	tbb	[pc, r0]
.Ltmp462:
@ %bb.14:
.LJTI23_1:
	.byte	(.LBB23_15-(.LCPI23_1+4))/2
	.byte	(.LBB23_17-(.LCPI23_1+4))/2
	.byte	(.LBB23_18-(.LCPI23_1+4))/2
	.byte	(.LBB23_19-(.LCPI23_1+4))/2
	.p2align	1
	.p2align	2
.LBB23_15:
.Ltmp463:
	@DEBUG_VALUE: HAL_TIM_OC_Start_DMA:Length <- $r3
	@DEBUG_VALUE: HAL_TIM_OC_Start_DMA:pData <- $r2
	.loc	7 1052 12                       @ c:/Keil_v5\ARM\PACK\Keil\STM32L5xx_DFP\1.3.0\Drivers\STM32L5xx_HAL_Driver\Src\stm32l5xx_hal_tim.c:1052:12
	add.w	r0, r5, #63
	@DEBUG_VALUE: HAL_TIM_OC_Start_DMA:Length <- $r3
	ldrb	r0, [r0]
.Ltmp464:
	.loc	7 1052 12                       @ c:/Keil_v5\ARM\PACK\Keil\STM32L5xx_DFP\1.3.0\Drivers\STM32L5xx_HAL_Driver\Src\stm32l5xx_hal_tim.c:1052:12
	cmp	r0, #1
	bne	.LBB23_22
	b	.LBB23_20
.Ltmp465:
	.p2align	2
.LBB23_16:
	@DEBUG_VALUE: HAL_TIM_OC_Start_DMA:Length <- $r3
	@DEBUG_VALUE: HAL_TIM_OC_Start_DMA:pData <- $r2
	.loc	7 1052 12                       @ c:/Keil_v5\ARM\PACK\Keil\STM32L5xx_DFP\1.3.0\Drivers\STM32L5xx_HAL_Driver\Src\stm32l5xx_hal_tim.c:1052:12
	add.w	r0, r5, #67
	@DEBUG_VALUE: HAL_TIM_OC_Start_DMA:Length <- $r3
	ldrb	r0, [r0]
.Ltmp466:
	.loc	7 1052 12                       @ c:/Keil_v5\ARM\PACK\Keil\STM32L5xx_DFP\1.3.0\Drivers\STM32L5xx_HAL_Driver\Src\stm32l5xx_hal_tim.c:1052:12
	cmp	r0, #1
	bne	.LBB23_22
	b	.LBB23_20
.Ltmp467:
	.p2align	2
.LBB23_17:
	@DEBUG_VALUE: HAL_TIM_OC_Start_DMA:Length <- $r3
	@DEBUG_VALUE: HAL_TIM_OC_Start_DMA:pData <- $r2
	.loc	7 1052 12                       @ c:/Keil_v5\ARM\PACK\Keil\STM32L5xx_DFP\1.3.0\Drivers\STM32L5xx_HAL_Driver\Src\stm32l5xx_hal_tim.c:1052:12
	add.w	r0, r5, #64
	@DEBUG_VALUE: HAL_TIM_OC_Start_DMA:Length <- $r3
	ldrb	r0, [r0]
.Ltmp468:
	.loc	7 1052 12                       @ c:/Keil_v5\ARM\PACK\Keil\STM32L5xx_DFP\1.3.0\Drivers\STM32L5xx_HAL_Driver\Src\stm32l5xx_hal_tim.c:1052:12
	cmp	r0, #1
	beq	.LBB23_20
	b	.LBB23_22
.Ltmp469:
	.p2align	2
.LBB23_18:
	@DEBUG_VALUE: HAL_TIM_OC_Start_DMA:Length <- $r3
	@DEBUG_VALUE: HAL_TIM_OC_Start_DMA:pData <- $r2
	.loc	7 1052 12                       @ c:/Keil_v5\ARM\PACK\Keil\STM32L5xx_DFP\1.3.0\Drivers\STM32L5xx_HAL_Driver\Src\stm32l5xx_hal_tim.c:1052:12
	add.w	r0, r5, #65
	@DEBUG_VALUE: HAL_TIM_OC_Start_DMA:Length <- $r3
	ldrb	r0, [r0]
.Ltmp470:
	.loc	7 1052 12                       @ c:/Keil_v5\ARM\PACK\Keil\STM32L5xx_DFP\1.3.0\Drivers\STM32L5xx_HAL_Driver\Src\stm32l5xx_hal_tim.c:1052:12
	cmp	r0, #1
	bne	.LBB23_22
	b	.LBB23_20
.Ltmp471:
	.p2align	2
.LBB23_19:
	@DEBUG_VALUE: HAL_TIM_OC_Start_DMA:Length <- $r3
	@DEBUG_VALUE: HAL_TIM_OC_Start_DMA:pData <- $r2
	.loc	7 1052 12                       @ c:/Keil_v5\ARM\PACK\Keil\STM32L5xx_DFP\1.3.0\Drivers\STM32L5xx_HAL_Driver\Src\stm32l5xx_hal_tim.c:1052:12
	add.w	r0, r5, #66
	@DEBUG_VALUE: HAL_TIM_OC_Start_DMA:Length <- $r3
	ldrb	r0, [r0]
.Ltmp472:
	.loc	7 1052 12                       @ c:/Keil_v5\ARM\PACK\Keil\STM32L5xx_DFP\1.3.0\Drivers\STM32L5xx_HAL_Driver\Src\stm32l5xx_hal_tim.c:1052:12
	cmp	r0, #1
	bne	.LBB23_22
.Ltmp473:
.LBB23_20:
	@DEBUG_VALUE: HAL_TIM_OC_Start_DMA:Length <- $r3
	@DEBUG_VALUE: HAL_TIM_OC_Start_DMA:pData <- $r2
	@DEBUG_VALUE: HAL_TIM_OC_Start_DMA:Length <- $r3
	.loc	7 1054 25 is_stmt 1             @ c:/Keil_v5\ARM\PACK\Keil\STM32L5xx_DFP\1.3.0\Drivers\STM32L5xx_HAL_Driver\Src\stm32l5xx_hal_tim.c:1054:25
	cbnz	r2, .LBB23_23
.Ltmp474:
@ %bb.21:
	@DEBUG_VALUE: HAL_TIM_OC_Start_DMA:Length <- $r3
	@DEBUG_VALUE: HAL_TIM_OC_Start_DMA:pData <- $r2
	cbz	r3, .LBB23_23
.Ltmp475:
.LBB23_22:
	.loc	7 0 25 is_stmt 0                @ c:/Keil_v5\ARM\PACK\Keil\STM32L5xx_DFP\1.3.0\Drivers\STM32L5xx_HAL_Driver\Src\stm32l5xx_hal_tim.c:0:25
	movs	r0, #1
	.loc	7 1177 1 is_stmt 1              @ c:/Keil_v5\ARM\PACK\Keil\STM32L5xx_DFP\1.3.0\Drivers\STM32L5xx_HAL_Driver\Src\stm32l5xx_hal_tim.c:1177:1
	pop	{r4, r5, r7, pc}
	.p2align	2
.LBB23_23:
.Ltmp476:
	@DEBUG_VALUE: HAL_TIM_OC_Start_DMA:Length <- $r3
	@DEBUG_VALUE: HAL_TIM_OC_Start_DMA:pData <- $r2
	@DEBUG_VALUE: HAL_TIM_OC_Start_DMA:Length <- $r3
	.loc	7 1060 7                        @ c:/Keil_v5\ARM\PACK\Keil\STM32L5xx_DFP\1.3.0\Drivers\STM32L5xx_HAL_Driver\Src\stm32l5xx_hal_tim.c:1060:7
	cbz	r4, .LBB23_28
.Ltmp477:
@ %bb.24:
	@DEBUG_VALUE: HAL_TIM_OC_Start_DMA:Length <- $r3
	@DEBUG_VALUE: HAL_TIM_OC_Start_DMA:pData <- $r2
	subs	r0, r4, #4
	ror.w	r0, r0, #2
	cmp	r0, #3
	bhi	.LBB23_29
.Ltmp478:
@ %bb.25:
	@DEBUG_VALUE: HAL_TIM_OC_Start_DMA:Length <- $r3
	@DEBUG_VALUE: HAL_TIM_OC_Start_DMA:pData <- $r2
	.loc	7 0 7 is_stmt 0                 @ c:/Keil_v5\ARM\PACK\Keil\STM32L5xx_DFP\1.3.0\Drivers\STM32L5xx_HAL_Driver\Src\stm32l5xx_hal_tim.c:0:7
.LCPI23_2:
	tbb	[pc, r0]
.Ltmp479:
@ %bb.26:
.LJTI23_2:
	.byte	(.LBB23_27-(.LCPI23_2+4))/2
	.byte	(.LBB23_30-(.LCPI23_2+4))/2
	.byte	(.LBB23_31-(.LCPI23_2+4))/2
	.byte	(.LBB23_32-(.LCPI23_2+4))/2
	.p2align	1
	.p2align	2
.LBB23_27:
.Ltmp480:
	@DEBUG_VALUE: HAL_TIM_OC_Start_DMA:Length <- $r3
	@DEBUG_VALUE: HAL_TIM_OC_Start_DMA:pData <- $r2
	movs	r0, #2
	.loc	7 1060 7                        @ c:/Keil_v5\ARM\PACK\Keil\STM32L5xx_DFP\1.3.0\Drivers\STM32L5xx_HAL_Driver\Src\stm32l5xx_hal_tim.c:1060:7
	strb.w	r0, [r5, #63]
	b	.LBB23_33
.Ltmp481:
	.p2align	2
.LBB23_28:
	@DEBUG_VALUE: HAL_TIM_OC_Start_DMA:Length <- $r3
	@DEBUG_VALUE: HAL_TIM_OC_Start_DMA:pData <- $r2
	.loc	7 0 7                           @ c:/Keil_v5\ARM\PACK\Keil\STM32L5xx_DFP\1.3.0\Drivers\STM32L5xx_HAL_Driver\Src\stm32l5xx_hal_tim.c:0:7
	movs	r0, #2
	.loc	7 1060 7                        @ c:/Keil_v5\ARM\PACK\Keil\STM32L5xx_DFP\1.3.0\Drivers\STM32L5xx_HAL_Driver\Src\stm32l5xx_hal_tim.c:1060:7
	strb.w	r0, [r5, #62]
	b	.LBB23_33
.Ltmp482:
	.p2align	2
.LBB23_29:
	@DEBUG_VALUE: HAL_TIM_OC_Start_DMA:Length <- $r3
	@DEBUG_VALUE: HAL_TIM_OC_Start_DMA:pData <- $r2
	.loc	7 0 7                           @ c:/Keil_v5\ARM\PACK\Keil\STM32L5xx_DFP\1.3.0\Drivers\STM32L5xx_HAL_Driver\Src\stm32l5xx_hal_tim.c:0:7
	movs	r0, #2
	.loc	7 1060 7                        @ c:/Keil_v5\ARM\PACK\Keil\STM32L5xx_DFP\1.3.0\Drivers\STM32L5xx_HAL_Driver\Src\stm32l5xx_hal_tim.c:1060:7
	strb.w	r0, [r5, #67]
	b	.LBB23_33
.Ltmp483:
	.p2align	2
.LBB23_30:
	@DEBUG_VALUE: HAL_TIM_OC_Start_DMA:Length <- $r3
	@DEBUG_VALUE: HAL_TIM_OC_Start_DMA:pData <- $r2
	.loc	7 0 7                           @ c:/Keil_v5\ARM\PACK\Keil\STM32L5xx_DFP\1.3.0\Drivers\STM32L5xx_HAL_Driver\Src\stm32l5xx_hal_tim.c:0:7
	movs	r0, #2
	.loc	7 1060 7                        @ c:/Keil_v5\ARM\PACK\Keil\STM32L5xx_DFP\1.3.0\Drivers\STM32L5xx_HAL_Driver\Src\stm32l5xx_hal_tim.c:1060:7
	strb.w	r0, [r5, #64]
	b	.LBB23_33
.Ltmp484:
	.p2align	2
.LBB23_31:
	@DEBUG_VALUE: HAL_TIM_OC_Start_DMA:Length <- $r3
	@DEBUG_VALUE: HAL_TIM_OC_Start_DMA:pData <- $r2
	.loc	7 0 7                           @ c:/Keil_v5\ARM\PACK\Keil\STM32L5xx_DFP\1.3.0\Drivers\STM32L5xx_HAL_Driver\Src\stm32l5xx_hal_tim.c:0:7
	movs	r0, #2
	.loc	7 1060 7                        @ c:/Keil_v5\ARM\PACK\Keil\STM32L5xx_DFP\1.3.0\Drivers\STM32L5xx_HAL_Driver\Src\stm32l5xx_hal_tim.c:1060:7
	strb.w	r0, [r5, #65]
	b	.LBB23_33
.Ltmp485:
	.p2align	2
.LBB23_32:
	@DEBUG_VALUE: HAL_TIM_OC_Start_DMA:Length <- $r3
	@DEBUG_VALUE: HAL_TIM_OC_Start_DMA:pData <- $r2
	.loc	7 0 7                           @ c:/Keil_v5\ARM\PACK\Keil\STM32L5xx_DFP\1.3.0\Drivers\STM32L5xx_HAL_Driver\Src\stm32l5xx_hal_tim.c:0:7
	movs	r0, #2
	.loc	7 1060 7                        @ c:/Keil_v5\ARM\PACK\Keil\STM32L5xx_DFP\1.3.0\Drivers\STM32L5xx_HAL_Driver\Src\stm32l5xx_hal_tim.c:1060:7
	strb.w	r0, [r5, #66]
.Ltmp486:
.LBB23_33:
	@DEBUG_VALUE: HAL_TIM_OC_Start_DMA:Length <- $r3
	@DEBUG_VALUE: HAL_TIM_OC_Start_DMA:pData <- $r2
	@DEBUG_VALUE: HAL_TIM_OC_Start_DMA:Length <- $r3
	.loc	7 1068 3 is_stmt 1              @ c:/Keil_v5\ARM\PACK\Keil\STM32L5xx_DFP\1.3.0\Drivers\STM32L5xx_HAL_Driver\Src\stm32l5xx_hal_tim.c:1068:3
	ror.w	r0, r4, #2
	cmp	r0, #3
	bhi	.LBB23_38
.Ltmp487:
@ %bb.34:
	@DEBUG_VALUE: HAL_TIM_OC_Start_DMA:Length <- $r3
	@DEBUG_VALUE: HAL_TIM_OC_Start_DMA:pData <- $r2
	@DEBUG_VALUE: HAL_TIM_OC_Start_DMA:Length <- $r3
	.loc	7 0 3 is_stmt 0                 @ c:/Keil_v5\ARM\PACK\Keil\STM32L5xx_DFP\1.3.0\Drivers\STM32L5xx_HAL_Driver\Src\stm32l5xx_hal_tim.c:0:3
.LCPI23_3:
	tbb	[pc, r0]
.Ltmp488:
@ %bb.35:
.LJTI23_3:
	.byte	(.LBB23_36-(.LCPI23_3+4))/2
	.byte	(.LBB23_39-(.LCPI23_3+4))/2
	.byte	(.LBB23_41-(.LCPI23_3+4))/2
	.byte	(.LBB23_43-(.LCPI23_3+4))/2
	.p2align	1
	.p2align	2
.LBB23_36:
.Ltmp489:
	@DEBUG_VALUE: HAL_TIM_OC_Start_DMA:Length <- $r3
	@DEBUG_VALUE: HAL_TIM_OC_Start_DMA:pData <- $r2
	.loc	7 1073 7 is_stmt 1              @ c:/Keil_v5\ARM\PACK\Keil\STM32L5xx_DFP\1.3.0\Drivers\STM32L5xx_HAL_Driver\Src\stm32l5xx_hal_tim.c:1073:7
	ldr	r0, [r5, #36]
	.loc	7 1073 52 is_stmt 0             @ c:/Keil_v5\ARM\PACK\Keil\STM32L5xx_DFP\1.3.0\Drivers\STM32L5xx_HAL_Driver\Src\stm32l5xx_hal_tim.c:1073:52
	movw	r1, :lower16:TIM_DMADelayPulseCplt
	movt	r1, :upper16:TIM_DMADelayPulseCplt
	str	r1, [r0, #44]
	.loc	7 1074 7 is_stmt 1              @ c:/Keil_v5\ARM\PACK\Keil\STM32L5xx_DFP\1.3.0\Drivers\STM32L5xx_HAL_Driver\Src\stm32l5xx_hal_tim.c:1074:7
	ldr	r0, [r5, #36]
	.loc	7 1074 56 is_stmt 0             @ c:/Keil_v5\ARM\PACK\Keil\STM32L5xx_DFP\1.3.0\Drivers\STM32L5xx_HAL_Driver\Src\stm32l5xx_hal_tim.c:1074:56
	movw	r1, :lower16:TIM_DMADelayPulseHalfCplt
	movt	r1, :upper16:TIM_DMADelayPulseHalfCplt
	str	r1, [r0, #48]
	.loc	7 1077 7 is_stmt 1              @ c:/Keil_v5\ARM\PACK\Keil\STM32L5xx_DFP\1.3.0\Drivers\STM32L5xx_HAL_Driver\Src\stm32l5xx_hal_tim.c:1077:7
	ldr	r0, [r5, #36]
	.loc	7 1077 53 is_stmt 0             @ c:/Keil_v5\ARM\PACK\Keil\STM32L5xx_DFP\1.3.0\Drivers\STM32L5xx_HAL_Driver\Src\stm32l5xx_hal_tim.c:1077:53
	movw	r1, :lower16:TIM_DMAError
.Ltmp490:
	.loc	7 1080 90 is_stmt 1             @ c:/Keil_v5\ARM\PACK\Keil\STM32L5xx_DFP\1.3.0\Drivers\STM32L5xx_HAL_Driver\Src\stm32l5xx_hal_tim.c:1080:90
	ldr.w	r12, [r5]
.Ltmp491:
	.loc	7 1077 53                       @ c:/Keil_v5\ARM\PACK\Keil\STM32L5xx_DFP\1.3.0\Drivers\STM32L5xx_HAL_Driver\Src\stm32l5xx_hal_tim.c:1077:53
	movt	r1, :upper16:TIM_DMAError
	str	r1, [r0, #60]
.Ltmp492:
	.loc	7 1080 28                       @ c:/Keil_v5\ARM\PACK\Keil\STM32L5xx_DFP\1.3.0\Drivers\STM32L5xx_HAL_Driver\Src\stm32l5xx_hal_tim.c:1080:28
	ldr	r0, [r5, #36]
	.loc	7 1080 100 is_stmt 0            @ c:/Keil_v5\ARM\PACK\Keil\STM32L5xx_DFP\1.3.0\Drivers\STM32L5xx_HAL_Driver\Src\stm32l5xx_hal_tim.c:1080:100
	add.w	r12, r12, #52
	.loc	7 1080 11                       @ c:/Keil_v5\ARM\PACK\Keil\STM32L5xx_DFP\1.3.0\Drivers\STM32L5xx_HAL_Driver\Src\stm32l5xx_hal_tim.c:1080:11
	mov	r1, r2
	mov	r2, r12
.Ltmp493:
	@DEBUG_VALUE: HAL_TIM_OC_Start_DMA:pData <- [DW_OP_LLVM_entry_value 1] $r2
	bl	HAL_DMA_Start_IT
.Ltmp494:
	@DEBUG_VALUE: HAL_TIM_OC_Start_DMA:Length <- [DW_OP_LLVM_entry_value 1] $r3
	.loc	7 1080 11                       @ c:/Keil_v5\ARM\PACK\Keil\STM32L5xx_DFP\1.3.0\Drivers\STM32L5xx_HAL_Driver\Src\stm32l5xx_hal_tim.c:1080:11
	cmp	r0, #0
	bne	.LBB23_22
.Ltmp495:
@ %bb.37:
	@DEBUG_VALUE: HAL_TIM_OC_Start_DMA:Length <- [DW_OP_LLVM_entry_value 1] $r3
	@DEBUG_VALUE: HAL_TIM_OC_Start_DMA:pData <- [DW_OP_LLVM_entry_value 1] $r2
	.loc	7 1086 7 is_stmt 1              @ c:/Keil_v5\ARM\PACK\Keil\STM32L5xx_DFP\1.3.0\Drivers\STM32L5xx_HAL_Driver\Src\stm32l5xx_hal_tim.c:1086:7
	ldr	r1, [r5]
	ldr	r0, [r1, #12]
	orr	r0, r0, #512
	b	.LBB23_45
.Ltmp496:
	.p2align	2
.LBB23_38:
	@DEBUG_VALUE: HAL_TIM_OC_Start_DMA:Length <- $r3
	@DEBUG_VALUE: HAL_TIM_OC_Start_DMA:pData <- $r2
	.loc	7 1153 27                       @ c:/Keil_v5\ARM\PACK\Keil\STM32L5xx_DFP\1.3.0\Drivers\STM32L5xx_HAL_Driver\Src\stm32l5xx_hal_tim.c:1153:27
	ldr	r1, [r5]
	b	.LBB23_46
.Ltmp497:
	.p2align	2
.LBB23_39:
	@DEBUG_VALUE: HAL_TIM_OC_Start_DMA:Length <- $r3
	@DEBUG_VALUE: HAL_TIM_OC_Start_DMA:pData <- $r2
	.loc	7 1093 7                        @ c:/Keil_v5\ARM\PACK\Keil\STM32L5xx_DFP\1.3.0\Drivers\STM32L5xx_HAL_Driver\Src\stm32l5xx_hal_tim.c:1093:7
	ldr	r0, [r5, #40]
	.loc	7 1093 52 is_stmt 0             @ c:/Keil_v5\ARM\PACK\Keil\STM32L5xx_DFP\1.3.0\Drivers\STM32L5xx_HAL_Driver\Src\stm32l5xx_hal_tim.c:1093:52
	movw	r1, :lower16:TIM_DMADelayPulseCplt
	movt	r1, :upper16:TIM_DMADelayPulseCplt
	str	r1, [r0, #44]
	.loc	7 1094 7 is_stmt 1              @ c:/Keil_v5\ARM\PACK\Keil\STM32L5xx_DFP\1.3.0\Drivers\STM32L5xx_HAL_Driver\Src\stm32l5xx_hal_tim.c:1094:7
	ldr	r0, [r5, #40]
	.loc	7 1094 56 is_stmt 0             @ c:/Keil_v5\ARM\PACK\Keil\STM32L5xx_DFP\1.3.0\Drivers\STM32L5xx_HAL_Driver\Src\stm32l5xx_hal_tim.c:1094:56
	movw	r1, :lower16:TIM_DMADelayPulseHalfCplt
	movt	r1, :upper16:TIM_DMADelayPulseHalfCplt
	str	r1, [r0, #48]
	.loc	7 1097 7 is_stmt 1              @ c:/Keil_v5\ARM\PACK\Keil\STM32L5xx_DFP\1.3.0\Drivers\STM32L5xx_HAL_Driver\Src\stm32l5xx_hal_tim.c:1097:7
	ldr	r0, [r5, #40]
	.loc	7 1097 53 is_stmt 0             @ c:/Keil_v5\ARM\PACK\Keil\STM32L5xx_DFP\1.3.0\Drivers\STM32L5xx_HAL_Driver\Src\stm32l5xx_hal_tim.c:1097:53
	movw	r1, :lower16:TIM_DMAError
.Ltmp498:
	.loc	7 1100 90 is_stmt 1             @ c:/Keil_v5\ARM\PACK\Keil\STM32L5xx_DFP\1.3.0\Drivers\STM32L5xx_HAL_Driver\Src\stm32l5xx_hal_tim.c:1100:90
	ldr.w	r12, [r5]
.Ltmp499:
	.loc	7 1097 53                       @ c:/Keil_v5\ARM\PACK\Keil\STM32L5xx_DFP\1.3.0\Drivers\STM32L5xx_HAL_Driver\Src\stm32l5xx_hal_tim.c:1097:53
	movt	r1, :upper16:TIM_DMAError
	str	r1, [r0, #60]
.Ltmp500:
	.loc	7 1100 28                       @ c:/Keil_v5\ARM\PACK\Keil\STM32L5xx_DFP\1.3.0\Drivers\STM32L5xx_HAL_Driver\Src\stm32l5xx_hal_tim.c:1100:28
	ldr	r0, [r5, #40]
	.loc	7 1100 100 is_stmt 0            @ c:/Keil_v5\ARM\PACK\Keil\STM32L5xx_DFP\1.3.0\Drivers\STM32L5xx_HAL_Driver\Src\stm32l5xx_hal_tim.c:1100:100
	add.w	r12, r12, #56
	.loc	7 1100 11                       @ c:/Keil_v5\ARM\PACK\Keil\STM32L5xx_DFP\1.3.0\Drivers\STM32L5xx_HAL_Driver\Src\stm32l5xx_hal_tim.c:1100:11
	mov	r1, r2
	mov	r2, r12
.Ltmp501:
	@DEBUG_VALUE: HAL_TIM_OC_Start_DMA:pData <- [DW_OP_LLVM_entry_value 1] $r2
	bl	HAL_DMA_Start_IT
.Ltmp502:
	@DEBUG_VALUE: HAL_TIM_OC_Start_DMA:Length <- [DW_OP_LLVM_entry_value 1] $r3
	.loc	7 1100 11                       @ c:/Keil_v5\ARM\PACK\Keil\STM32L5xx_DFP\1.3.0\Drivers\STM32L5xx_HAL_Driver\Src\stm32l5xx_hal_tim.c:1100:11
	cmp	r0, #0
	bne.w	.LBB23_22
.Ltmp503:
@ %bb.40:
	@DEBUG_VALUE: HAL_TIM_OC_Start_DMA:Length <- [DW_OP_LLVM_entry_value 1] $r3
	@DEBUG_VALUE: HAL_TIM_OC_Start_DMA:pData <- [DW_OP_LLVM_entry_value 1] $r2
	.loc	7 1106 7 is_stmt 1              @ c:/Keil_v5\ARM\PACK\Keil\STM32L5xx_DFP\1.3.0\Drivers\STM32L5xx_HAL_Driver\Src\stm32l5xx_hal_tim.c:1106:7
	ldr	r1, [r5]
	ldr	r0, [r1, #12]
	orr	r0, r0, #1024
	b	.LBB23_45
.Ltmp504:
	.p2align	2
.LBB23_41:
	@DEBUG_VALUE: HAL_TIM_OC_Start_DMA:Length <- $r3
	@DEBUG_VALUE: HAL_TIM_OC_Start_DMA:pData <- $r2
	.loc	7 1113 7                        @ c:/Keil_v5\ARM\PACK\Keil\STM32L5xx_DFP\1.3.0\Drivers\STM32L5xx_HAL_Driver\Src\stm32l5xx_hal_tim.c:1113:7
	ldr	r0, [r5, #44]
	.loc	7 1113 52 is_stmt 0             @ c:/Keil_v5\ARM\PACK\Keil\STM32L5xx_DFP\1.3.0\Drivers\STM32L5xx_HAL_Driver\Src\stm32l5xx_hal_tim.c:1113:52
	movw	r1, :lower16:TIM_DMADelayPulseCplt
	movt	r1, :upper16:TIM_DMADelayPulseCplt
	str	r1, [r0, #44]
	.loc	7 1114 7 is_stmt 1              @ c:/Keil_v5\ARM\PACK\Keil\STM32L5xx_DFP\1.3.0\Drivers\STM32L5xx_HAL_Driver\Src\stm32l5xx_hal_tim.c:1114:7
	ldr	r0, [r5, #44]
	.loc	7 1114 56 is_stmt 0             @ c:/Keil_v5\ARM\PACK\Keil\STM32L5xx_DFP\1.3.0\Drivers\STM32L5xx_HAL_Driver\Src\stm32l5xx_hal_tim.c:1114:56
	movw	r1, :lower16:TIM_DMADelayPulseHalfCplt
	movt	r1, :upper16:TIM_DMADelayPulseHalfCplt
	str	r1, [r0, #48]
	.loc	7 1117 7 is_stmt 1              @ c:/Keil_v5\ARM\PACK\Keil\STM32L5xx_DFP\1.3.0\Drivers\STM32L5xx_HAL_Driver\Src\stm32l5xx_hal_tim.c:1117:7
	ldr	r0, [r5, #44]
	.loc	7 1117 53 is_stmt 0             @ c:/Keil_v5\ARM\PACK\Keil\STM32L5xx_DFP\1.3.0\Drivers\STM32L5xx_HAL_Driver\Src\stm32l5xx_hal_tim.c:1117:53
	movw	r1, :lower16:TIM_DMAError
.Ltmp505:
	.loc	7 1120 90 is_stmt 1             @ c:/Keil_v5\ARM\PACK\Keil\STM32L5xx_DFP\1.3.0\Drivers\STM32L5xx_HAL_Driver\Src\stm32l5xx_hal_tim.c:1120:90
	ldr.w	r12, [r5]
.Ltmp506:
	.loc	7 1117 53                       @ c:/Keil_v5\ARM\PACK\Keil\STM32L5xx_DFP\1.3.0\Drivers\STM32L5xx_HAL_Driver\Src\stm32l5xx_hal_tim.c:1117:53
	movt	r1, :upper16:TIM_DMAError
	str	r1, [r0, #60]
.Ltmp507:
	.loc	7 1120 28                       @ c:/Keil_v5\ARM\PACK\Keil\STM32L5xx_DFP\1.3.0\Drivers\STM32L5xx_HAL_Driver\Src\stm32l5xx_hal_tim.c:1120:28
	ldr	r0, [r5, #44]
	.loc	7 1120 100 is_stmt 0            @ c:/Keil_v5\ARM\PACK\Keil\STM32L5xx_DFP\1.3.0\Drivers\STM32L5xx_HAL_Driver\Src\stm32l5xx_hal_tim.c:1120:100
	add.w	r12, r12, #60
	.loc	7 1120 11                       @ c:/Keil_v5\ARM\PACK\Keil\STM32L5xx_DFP\1.3.0\Drivers\STM32L5xx_HAL_Driver\Src\stm32l5xx_hal_tim.c:1120:11
	mov	r1, r2
	mov	r2, r12
.Ltmp508:
	@DEBUG_VALUE: HAL_TIM_OC_Start_DMA:pData <- [DW_OP_LLVM_entry_value 1] $r2
	bl	HAL_DMA_Start_IT
.Ltmp509:
	@DEBUG_VALUE: HAL_TIM_OC_Start_DMA:Length <- [DW_OP_LLVM_entry_value 1] $r3
	.loc	7 1120 11                       @ c:/Keil_v5\ARM\PACK\Keil\STM32L5xx_DFP\1.3.0\Drivers\STM32L5xx_HAL_Driver\Src\stm32l5xx_hal_tim.c:1120:11
	cmp	r0, #0
	bne.w	.LBB23_22
.Ltmp510:
@ %bb.42:
	@DEBUG_VALUE: HAL_TIM_OC_Start_DMA:Length <- [DW_OP_LLVM_entry_value 1] $r3
	@DEBUG_VALUE: HAL_TIM_OC_Start_DMA:pData <- [DW_OP_LLVM_entry_value 1] $r2
	.loc	7 1125 7 is_stmt 1              @ c:/Keil_v5\ARM\PACK\Keil\STM32L5xx_DFP\1.3.0\Drivers\STM32L5xx_HAL_Driver\Src\stm32l5xx_hal_tim.c:1125:7
	ldr	r1, [r5]
	ldr	r0, [r1, #12]
	orr	r0, r0, #2048
	b	.LBB23_45
.Ltmp511:
	.p2align	2
.LBB23_43:
	@DEBUG_VALUE: HAL_TIM_OC_Start_DMA:Length <- $r3
	@DEBUG_VALUE: HAL_TIM_OC_Start_DMA:pData <- $r2
	.loc	7 1132 7                        @ c:/Keil_v5\ARM\PACK\Keil\STM32L5xx_DFP\1.3.0\Drivers\STM32L5xx_HAL_Driver\Src\stm32l5xx_hal_tim.c:1132:7
	ldr	r0, [r5, #48]
	.loc	7 1132 52 is_stmt 0             @ c:/Keil_v5\ARM\PACK\Keil\STM32L5xx_DFP\1.3.0\Drivers\STM32L5xx_HAL_Driver\Src\stm32l5xx_hal_tim.c:1132:52
	movw	r1, :lower16:TIM_DMADelayPulseCplt
	movt	r1, :upper16:TIM_DMADelayPulseCplt
	str	r1, [r0, #44]
	.loc	7 1133 7 is_stmt 1              @ c:/Keil_v5\ARM\PACK\Keil\STM32L5xx_DFP\1.3.0\Drivers\STM32L5xx_HAL_Driver\Src\stm32l5xx_hal_tim.c:1133:7
	ldr	r0, [r5, #48]
	.loc	7 1133 56 is_stmt 0             @ c:/Keil_v5\ARM\PACK\Keil\STM32L5xx_DFP\1.3.0\Drivers\STM32L5xx_HAL_Driver\Src\stm32l5xx_hal_tim.c:1133:56
	movw	r1, :lower16:TIM_DMADelayPulseHalfCplt
	movt	r1, :upper16:TIM_DMADelayPulseHalfCplt
	str	r1, [r0, #48]
	.loc	7 1136 7 is_stmt 1              @ c:/Keil_v5\ARM\PACK\Keil\STM32L5xx_DFP\1.3.0\Drivers\STM32L5xx_HAL_Driver\Src\stm32l5xx_hal_tim.c:1136:7
	ldr	r0, [r5, #48]
	.loc	7 1136 53 is_stmt 0             @ c:/Keil_v5\ARM\PACK\Keil\STM32L5xx_DFP\1.3.0\Drivers\STM32L5xx_HAL_Driver\Src\stm32l5xx_hal_tim.c:1136:53
	movw	r1, :lower16:TIM_DMAError
.Ltmp512:
	.loc	7 1139 90 is_stmt 1             @ c:/Keil_v5\ARM\PACK\Keil\STM32L5xx_DFP\1.3.0\Drivers\STM32L5xx_HAL_Driver\Src\stm32l5xx_hal_tim.c:1139:90
	ldr.w	r12, [r5]
.Ltmp513:
	.loc	7 1136 53                       @ c:/Keil_v5\ARM\PACK\Keil\STM32L5xx_DFP\1.3.0\Drivers\STM32L5xx_HAL_Driver\Src\stm32l5xx_hal_tim.c:1136:53
	movt	r1, :upper16:TIM_DMAError
	str	r1, [r0, #60]
.Ltmp514:
	.loc	7 1139 28                       @ c:/Keil_v5\ARM\PACK\Keil\STM32L5xx_DFP\1.3.0\Drivers\STM32L5xx_HAL_Driver\Src\stm32l5xx_hal_tim.c:1139:28
	ldr	r0, [r5, #48]
	.loc	7 1139 100 is_stmt 0            @ c:/Keil_v5\ARM\PACK\Keil\STM32L5xx_DFP\1.3.0\Drivers\STM32L5xx_HAL_Driver\Src\stm32l5xx_hal_tim.c:1139:100
	add.w	r12, r12, #64
	.loc	7 1139 11                       @ c:/Keil_v5\ARM\PACK\Keil\STM32L5xx_DFP\1.3.0\Drivers\STM32L5xx_HAL_Driver\Src\stm32l5xx_hal_tim.c:1139:11
	mov	r1, r2
	mov	r2, r12
.Ltmp515:
	@DEBUG_VALUE: HAL_TIM_OC_Start_DMA:pData <- [DW_OP_LLVM_entry_value 1] $r2
	bl	HAL_DMA_Start_IT
.Ltmp516:
	@DEBUG_VALUE: HAL_TIM_OC_Start_DMA:Length <- [DW_OP_LLVM_entry_value 1] $r3
	.loc	7 1139 11                       @ c:/Keil_v5\ARM\PACK\Keil\STM32L5xx_DFP\1.3.0\Drivers\STM32L5xx_HAL_Driver\Src\stm32l5xx_hal_tim.c:1139:11
	cmp	r0, #0
	bne.w	.LBB23_22
.Ltmp517:
@ %bb.44:
	@DEBUG_VALUE: HAL_TIM_OC_Start_DMA:Length <- [DW_OP_LLVM_entry_value 1] $r3
	@DEBUG_VALUE: HAL_TIM_OC_Start_DMA:pData <- [DW_OP_LLVM_entry_value 1] $r2
	.loc	7 1144 7 is_stmt 1              @ c:/Keil_v5\ARM\PACK\Keil\STM32L5xx_DFP\1.3.0\Drivers\STM32L5xx_HAL_Driver\Src\stm32l5xx_hal_tim.c:1144:7
	ldr	r1, [r5]
	ldr	r0, [r1, #12]
	orr	r0, r0, #4096
.Ltmp518:
.LBB23_45:
	@DEBUG_VALUE: HAL_TIM_OC_Start_DMA:Length <- [DW_OP_LLVM_entry_value 1] $r3
	@DEBUG_VALUE: HAL_TIM_OC_Start_DMA:pData <- [DW_OP_LLVM_entry_value 1] $r2
	.loc	7 0 0 is_stmt 0                 @ c:/Keil_v5\ARM\PACK\Keil\STM32L5xx_DFP\1.3.0\Drivers\STM32L5xx_HAL_Driver\Src\stm32l5xx_hal_tim.c:0:0
	str	r0, [r1, #12]
.Ltmp519:
.LBB23_46:
	@DEBUG_VALUE: TIM_CCxChannelCmd:TIMx <- $r1
	@DEBUG_VALUE: TIM_CCxChannelCmd:Channel <- $r4
	@DEBUG_VALUE: TIM_CCxChannelCmd:ChannelState <- 1
	.loc	7 7602 35 is_stmt 1             @ c:/Keil_v5\ARM\PACK\Keil\STM32L5xx_DFP\1.3.0\Drivers\STM32L5xx_HAL_Driver\Src\stm32l5xx_hal_tim.c:7602:35
	and	r2, r4, #31
	movs	r0, #1
	.loc	7 7605 14                       @ c:/Keil_v5\ARM\PACK\Keil\STM32L5xx_DFP\1.3.0\Drivers\STM32L5xx_HAL_Driver\Src\stm32l5xx_hal_tim.c:7605:14
	ldr	r3, [r1, #32]
	.loc	7 7602 23                       @ c:/Keil_v5\ARM\PACK\Keil\STM32L5xx_DFP\1.3.0\Drivers\STM32L5xx_HAL_Driver\Src\stm32l5xx_hal_tim.c:7602:23
	lsl.w	r2, r0, r2
.Ltmp520:
	@DEBUG_VALUE: TIM_CCxChannelCmd:tmp <- $r2
	.loc	7 7605 14                       @ c:/Keil_v5\ARM\PACK\Keil\STM32L5xx_DFP\1.3.0\Drivers\STM32L5xx_HAL_Driver\Src\stm32l5xx_hal_tim.c:7605:14
	bics	r3, r2
	str	r3, [r1, #32]
	.loc	7 7608 14                       @ c:/Keil_v5\ARM\PACK\Keil\STM32L5xx_DFP\1.3.0\Drivers\STM32L5xx_HAL_Driver\Src\stm32l5xx_hal_tim.c:7608:14
	ldr	r3, [r1, #32]
	orrs	r3, r2
.Ltmp521:
	.loc	7 1155 7                        @ c:/Keil_v5\ARM\PACK\Keil\STM32L5xx_DFP\1.3.0\Drivers\STM32L5xx_HAL_Driver\Src\stm32l5xx_hal_tim.c:1155:7
	sub.w	r2, r1, #1073741824
.Ltmp522:
	sub.w	r2, r2, #76800
	ror.w	r2, r2, #10
	cmp	r2, #6
.Ltmp523:
	.loc	7 7608 14                       @ c:/Keil_v5\ARM\PACK\Keil\STM32L5xx_DFP\1.3.0\Drivers\STM32L5xx_HAL_Driver\Src\stm32l5xx_hal_tim.c:7608:14
	str	r3, [r1, #32]
.Ltmp524:
	@DEBUG_VALUE: TIM_CCxChannelCmd:ChannelState <- 1
	@DEBUG_VALUE: TIM_CCxChannelCmd:TIMx <- $r1
	.loc	7 1155 7                        @ c:/Keil_v5\ARM\PACK\Keil\STM32L5xx_DFP\1.3.0\Drivers\STM32L5xx_HAL_Driver\Src\stm32l5xx_hal_tim.c:1155:7
	bhi	.LBB23_61
.Ltmp525:
@ %bb.47:
	@DEBUG_VALUE: TIM_CCxChannelCmd:Channel <- $r4
	@DEBUG_VALUE: TIM_CCxChannelCmd:TIMx <- $r1
	@DEBUG_VALUE: TIM_CCxChannelCmd:ChannelState <- 1
	.loc	7 0 7 is_stmt 0                 @ c:/Keil_v5\ARM\PACK\Keil\STM32L5xx_DFP\1.3.0\Drivers\STM32L5xx_HAL_Driver\Src\stm32l5xx_hal_tim.c:0:7
	lsls	r0, r2
	tst.w	r0, #101
	beq	.LBB23_61
@ %bb.48:
.Ltmp526:
	.loc	7 1158 5 is_stmt 1              @ c:/Keil_v5\ARM\PACK\Keil\STM32L5xx_DFP\1.3.0\Drivers\STM32L5xx_HAL_Driver\Src\stm32l5xx_hal_tim.c:1158:5
	ldr	r0, [r1, #68]
	movw	r2, #3071
	movt	r2, #16384
	orr	r0, r0, #32768
.Ltmp527:
	.loc	7 1162 7                        @ c:/Keil_v5\ARM\PACK\Keil\STM32L5xx_DFP\1.3.0\Drivers\STM32L5xx_HAL_Driver\Src\stm32l5xx_hal_tim.c:1162:7
	cmp	r1, r2
.Ltmp528:
	.loc	7 1158 5                        @ c:/Keil_v5\ARM\PACK\Keil\STM32L5xx_DFP\1.3.0\Drivers\STM32L5xx_HAL_Driver\Src\stm32l5xx_hal_tim.c:1158:5
	str	r0, [r1, #68]
.Ltmp529:
	.loc	7 1162 7                        @ c:/Keil_v5\ARM\PACK\Keil\STM32L5xx_DFP\1.3.0\Drivers\STM32L5xx_HAL_Driver\Src\stm32l5xx_hal_tim.c:1162:7
	ble	.LBB23_52
@ %bb.49:
	.loc	7 0 7 is_stmt 0                 @ c:/Keil_v5\ARM\PACK\Keil\STM32L5xx_DFP\1.3.0\Drivers\STM32L5xx_HAL_Driver\Src\stm32l5xx_hal_tim.c:0:7
	movw	r0, #13311
	movt	r0, #16385
	.loc	7 1162 7                        @ c:/Keil_v5\ARM\PACK\Keil\STM32L5xx_DFP\1.3.0\Drivers\STM32L5xx_HAL_Driver\Src\stm32l5xx_hal_tim.c:1162:7
	cmp	r1, r0
	bgt	.LBB23_55
@ %bb.50:
	.loc	7 0 7                           @ c:/Keil_v5\ARM\PACK\Keil\STM32L5xx_DFP\1.3.0\Drivers\STM32L5xx_HAL_Driver\Src\stm32l5xx_hal_tim.c:0:7
	movw	r0, #3072
	movt	r0, #16384
	.loc	7 1162 7                        @ c:/Keil_v5\ARM\PACK\Keil\STM32L5xx_DFP\1.3.0\Drivers\STM32L5xx_HAL_Driver\Src\stm32l5xx_hal_tim.c:1162:7
	cmp	r1, r0
	beq	.LBB23_59
@ %bb.51:
	.loc	7 0 7                           @ c:/Keil_v5\ARM\PACK\Keil\STM32L5xx_DFP\1.3.0\Drivers\STM32L5xx_HAL_Driver\Src\stm32l5xx_hal_tim.c:0:7
	movw	r0, #11264
	b	.LBB23_57
	.p2align	2
.LBB23_52:
	.loc	7 1162 7                        @ c:/Keil_v5\ARM\PACK\Keil\STM32L5xx_DFP\1.3.0\Drivers\STM32L5xx_HAL_Driver\Src\stm32l5xx_hal_tim.c:1162:7
	cmp.w	r1, #1073741824
	beq	.LBB23_59
@ %bb.53:
	.loc	7 0 7                           @ c:/Keil_v5\ARM\PACK\Keil\STM32L5xx_DFP\1.3.0\Drivers\STM32L5xx_HAL_Driver\Src\stm32l5xx_hal_tim.c:0:7
	movw	r0, #1024
	movt	r0, #16384
	.loc	7 1162 7                        @ c:/Keil_v5\ARM\PACK\Keil\STM32L5xx_DFP\1.3.0\Drivers\STM32L5xx_HAL_Driver\Src\stm32l5xx_hal_tim.c:1162:7
	cmp	r1, r0
	beq	.LBB23_59
.Ltmp530:
@ %bb.54:
	.loc	7 0 7                           @ c:/Keil_v5\ARM\PACK\Keil\STM32L5xx_DFP\1.3.0\Drivers\STM32L5xx_HAL_Driver\Src\stm32l5xx_hal_tim.c:0:7
	movw	r0, #2048
	movt	r0, #16384
	b	.LBB23_58
	.p2align	2
.LBB23_55:
	movw	r0, #16384
	movt	r0, #16385
	cmp	r1, r0
	beq	.LBB23_59
.LBB23_56:
	movw	r0, #13312
.LBB23_57:
	movt	r0, #16385
.LBB23_58:
	cmp	r1, r0
	bne	.LBB23_71
.LBB23_59:
.Ltmp531:
	.loc	7 1164 31 is_stmt 1             @ c:/Keil_v5\ARM\PACK\Keil\STM32L5xx_DFP\1.3.0\Drivers\STM32L5xx_HAL_Driver\Src\stm32l5xx_hal_tim.c:1164:31
	ldr	r0, [r1, #8]
	movs	r2, #7
	movt	r2, #1
	.loc	7 1164 36 is_stmt 0             @ c:/Keil_v5\ARM\PACK\Keil\STM32L5xx_DFP\1.3.0\Drivers\STM32L5xx_HAL_Driver\Src\stm32l5xx_hal_tim.c:1164:36
	ands	r2, r0
.Ltmp532:
	@DEBUG_VALUE: HAL_TIM_OC_Start_DMA:tmpsmcr <- $r2
	.loc	7 1165 10 is_stmt 1             @ c:/Keil_v5\ARM\PACK\Keil\STM32L5xx_DFP\1.3.0\Drivers\STM32L5xx_HAL_Driver\Src\stm32l5xx_hal_tim.c:1165:10
	cmp	r2, #6
	mov.w	r0, #0
	it	ne
	cmpne.w	r2, #65536
	bne	.LBB23_71
.Ltmp533:
@ %bb.60:
	@DEBUG_VALUE: HAL_TIM_OC_Start_DMA:tmpsmcr <- $r2
	.loc	7 1177 1                        @ c:/Keil_v5\ARM\PACK\Keil\STM32L5xx_DFP\1.3.0\Drivers\STM32L5xx_HAL_Driver\Src\stm32l5xx_hal_tim.c:1177:1
	pop	{r4, r5, r7, pc}
.Ltmp534:
	.p2align	2
.LBB23_61:
	.loc	7 0 1 is_stmt 0                 @ c:/Keil_v5\ARM\PACK\Keil\STM32L5xx_DFP\1.3.0\Drivers\STM32L5xx_HAL_Driver\Src\stm32l5xx_hal_tim.c:0:1
	movw	r0, #11263
	movt	r0, #16385
	.loc	7 1155 7 is_stmt 1              @ c:/Keil_v5\ARM\PACK\Keil\STM32L5xx_DFP\1.3.0\Drivers\STM32L5xx_HAL_Driver\Src\stm32l5xx_hal_tim.c:1155:7
	cmp	r1, r0
	bgt	.LBB23_65
@ %bb.62:
	.loc	7 0 7 is_stmt 0                 @ c:/Keil_v5\ARM\PACK\Keil\STM32L5xx_DFP\1.3.0\Drivers\STM32L5xx_HAL_Driver\Src\stm32l5xx_hal_tim.c:0:7
	movw	r0, #2047
	movt	r0, #16384
	.loc	7 1155 7                        @ c:/Keil_v5\ARM\PACK\Keil\STM32L5xx_DFP\1.3.0\Drivers\STM32L5xx_HAL_Driver\Src\stm32l5xx_hal_tim.c:1155:7
	cmp	r1, r0
	bgt	.LBB23_67
@ %bb.63:
	cmp.w	r1, #1073741824
	beq	.LBB23_59
@ %bb.64:
	.loc	7 0 7                           @ c:/Keil_v5\ARM\PACK\Keil\STM32L5xx_DFP\1.3.0\Drivers\STM32L5xx_HAL_Driver\Src\stm32l5xx_hal_tim.c:0:7
	movw	r0, #1024
	movt	r0, #16384
	b	.LBB23_58
	.p2align	2
.LBB23_65:
	movw	r0, #16383
	movt	r0, #16385
	.loc	7 1155 7                        @ c:/Keil_v5\ARM\PACK\Keil\STM32L5xx_DFP\1.3.0\Drivers\STM32L5xx_HAL_Driver\Src\stm32l5xx_hal_tim.c:1155:7
	cmp	r1, r0
	bgt	.LBB23_69
@ %bb.66:
	.loc	7 0 7                           @ c:/Keil_v5\ARM\PACK\Keil\STM32L5xx_DFP\1.3.0\Drivers\STM32L5xx_HAL_Driver\Src\stm32l5xx_hal_tim.c:0:7
	movw	r0, #11264
	movt	r0, #16385
	cmp	r1, r0
	bne	.LBB23_56
	b	.LBB23_59
	.p2align	2
.LBB23_67:
	movw	r0, #2048
	movt	r0, #16384
	.loc	7 1155 7                        @ c:/Keil_v5\ARM\PACK\Keil\STM32L5xx_DFP\1.3.0\Drivers\STM32L5xx_HAL_Driver\Src\stm32l5xx_hal_tim.c:1155:7
	cmp	r1, r0
	beq	.LBB23_59
@ %bb.68:
	.loc	7 0 7                           @ c:/Keil_v5\ARM\PACK\Keil\STM32L5xx_DFP\1.3.0\Drivers\STM32L5xx_HAL_Driver\Src\stm32l5xx_hal_tim.c:0:7
	movw	r0, #3072
	movt	r0, #16384
	b	.LBB23_58
	.p2align	2
.LBB23_69:
	movw	r0, #16384
	movt	r0, #16385
	.loc	7 1155 7                        @ c:/Keil_v5\ARM\PACK\Keil\STM32L5xx_DFP\1.3.0\Drivers\STM32L5xx_HAL_Driver\Src\stm32l5xx_hal_tim.c:1155:7
	cmp	r1, r0
	beq	.LBB23_59
@ %bb.70:
	.loc	7 0 7                           @ c:/Keil_v5\ARM\PACK\Keil\STM32L5xx_DFP\1.3.0\Drivers\STM32L5xx_HAL_Driver\Src\stm32l5xx_hal_tim.c:0:7
	movw	r0, #18432
	movt	r0, #16385
	.loc	7 1155 7                        @ c:/Keil_v5\ARM\PACK\Keil\STM32L5xx_DFP\1.3.0\Drivers\STM32L5xx_HAL_Driver\Src\stm32l5xx_hal_tim.c:1155:7
	cmp	r1, r0
.Ltmp535:
	.loc	7 1158 5 is_stmt 1              @ c:/Keil_v5\ARM\PACK\Keil\STM32L5xx_DFP\1.3.0\Drivers\STM32L5xx_HAL_Driver\Src\stm32l5xx_hal_tim.c:1158:5
	ittt	eq
	ldreq	r0, [r1, #68]
	orreq	r0, r0, #32768
	streq	r0, [r1, #68]
.Ltmp536:
.LBB23_71:
	.loc	7 0 0 is_stmt 0                 @ c:/Keil_v5\ARM\PACK\Keil\STM32L5xx_DFP\1.3.0\Drivers\STM32L5xx_HAL_Driver\Src\stm32l5xx_hal_tim.c:0:0
	ldr	r0, [r1]
	orr	r0, r0, #1
	str	r0, [r1]
	movs	r0, #0
.Ltmp537:
	.loc	7 1177 1 is_stmt 1              @ c:/Keil_v5\ARM\PACK\Keil\STM32L5xx_DFP\1.3.0\Drivers\STM32L5xx_HAL_Driver\Src\stm32l5xx_hal_tim.c:1177:1
	pop	{r4, r5, r7, pc}
.Ltmp538:
.Lfunc_end23:
	.size	HAL_TIM_OC_Start_DMA, .Lfunc_end23-HAL_TIM_OC_Start_DMA
	.cfi_endproc
	.cantunwind
	.fnend
                                        @ -- End function
	.section	.text.TIM_DMADelayPulseCplt,"ax",%progbits
	.p2align	2                               @ -- Begin function TIM_DMADelayPulseCplt
	.type	TIM_DMADelayPulseCplt,%function
	.code	16                              @ @TIM_DMADelayPulseCplt
	.thumb_func
TIM_DMADelayPulseCplt:
.Lfunc_begin24:
	.loc	7 6423 0                        @ c:/Keil_v5\ARM\PACK\Keil\STM32L5xx_DFP\1.3.0\Drivers\STM32L5xx_HAL_Driver\Src\stm32l5xx_hal_tim.c:6423:0
	.fnstart
	.cfi_startproc
@ %bb.0:
	@DEBUG_VALUE: TIM_DMADelayPulseCplt:hdma <- $r0
	@DEBUG_VALUE: TIM_DMADelayPulseCplt:hdma <- $r0
	.save	{r4, lr}
	push	{r4, lr}
	.cfi_def_cfa_offset 8
	.cfi_offset lr, -4
	.cfi_offset r4, -8
.Ltmp539:
	.loc	7 6424 79 prologue_end          @ c:/Keil_v5\ARM\PACK\Keil\STM32L5xx_DFP\1.3.0\Drivers\STM32L5xx_HAL_Driver\Src\stm32l5xx_hal_tim.c:6424:79
	ldr	r4, [r0, #40]
.Ltmp540:
	@DEBUG_VALUE: TIM_DMADelayPulseCplt:htim <- $r4
	.loc	7 6426 15                       @ c:/Keil_v5\ARM\PACK\Keil\STM32L5xx_DFP\1.3.0\Drivers\STM32L5xx_HAL_Driver\Src\stm32l5xx_hal_tim.c:6426:15
	ldr	r1, [r4, #36]
.Ltmp541:
	.loc	7 6426 7 is_stmt 0              @ c:/Keil_v5\ARM\PACK\Keil\STM32L5xx_DFP\1.3.0\Drivers\STM32L5xx_HAL_Driver\Src\stm32l5xx_hal_tim.c:6426:7
	cmp	r1, r0
	beq	.LBB24_5
.Ltmp542:
@ %bb.1:
	@DEBUG_VALUE: TIM_DMADelayPulseCplt:htim <- $r4
	@DEBUG_VALUE: TIM_DMADelayPulseCplt:hdma <- $r0
	.loc	7 6435 20 is_stmt 1             @ c:/Keil_v5\ARM\PACK\Keil\STM32L5xx_DFP\1.3.0\Drivers\STM32L5xx_HAL_Driver\Src\stm32l5xx_hal_tim.c:6435:20
	ldr	r1, [r4, #40]
.Ltmp543:
	.loc	7 6435 12 is_stmt 0             @ c:/Keil_v5\ARM\PACK\Keil\STM32L5xx_DFP\1.3.0\Drivers\STM32L5xx_HAL_Driver\Src\stm32l5xx_hal_tim.c:6435:12
	cmp	r1, r0
	beq	.LBB24_6
.Ltmp544:
@ %bb.2:
	@DEBUG_VALUE: TIM_DMADelayPulseCplt:htim <- $r4
	@DEBUG_VALUE: TIM_DMADelayPulseCplt:hdma <- $r0
	.loc	7 6444 20 is_stmt 1             @ c:/Keil_v5\ARM\PACK\Keil\STM32L5xx_DFP\1.3.0\Drivers\STM32L5xx_HAL_Driver\Src\stm32l5xx_hal_tim.c:6444:20
	ldr	r1, [r4, #44]
.Ltmp545:
	.loc	7 6444 12 is_stmt 0             @ c:/Keil_v5\ARM\PACK\Keil\STM32L5xx_DFP\1.3.0\Drivers\STM32L5xx_HAL_Driver\Src\stm32l5xx_hal_tim.c:6444:12
	cmp	r1, r0
	beq	.LBB24_8
.Ltmp546:
@ %bb.3:
	@DEBUG_VALUE: TIM_DMADelayPulseCplt:htim <- $r4
	@DEBUG_VALUE: TIM_DMADelayPulseCplt:hdma <- $r0
	.loc	7 6453 20 is_stmt 1             @ c:/Keil_v5\ARM\PACK\Keil\STM32L5xx_DFP\1.3.0\Drivers\STM32L5xx_HAL_Driver\Src\stm32l5xx_hal_tim.c:6453:20
	ldr	r1, [r4, #48]
.Ltmp547:
	.loc	7 6453 12 is_stmt 0             @ c:/Keil_v5\ARM\PACK\Keil\STM32L5xx_DFP\1.3.0\Drivers\STM32L5xx_HAL_Driver\Src\stm32l5xx_hal_tim.c:6453:12
	cmp	r1, r0
	bne	.LBB24_10
.Ltmp548:
@ %bb.4:
	@DEBUG_VALUE: TIM_DMADelayPulseCplt:htim <- $r4
	@DEBUG_VALUE: TIM_DMADelayPulseCplt:hdma <- $r0
	.loc	7 6457 20 is_stmt 1             @ c:/Keil_v5\ARM\PACK\Keil\STM32L5xx_DFP\1.3.0\Drivers\STM32L5xx_HAL_Driver\Src\stm32l5xx_hal_tim.c:6457:20
	ldr	r0, [r0, #28]
.Ltmp549:
	@DEBUG_VALUE: TIM_DMADelayPulseCplt:hdma <- [DW_OP_LLVM_entry_value 1] $r0
	.loc	7 0 20 is_stmt 0                @ c:/Keil_v5\ARM\PACK\Keil\STM32L5xx_DFP\1.3.0\Drivers\STM32L5xx_HAL_Driver\Src\stm32l5xx_hal_tim.c:0:20
	movs	r1, #8
.Ltmp550:
	.loc	7 6457 9                        @ c:/Keil_v5\ARM\PACK\Keil\STM32L5xx_DFP\1.3.0\Drivers\STM32L5xx_HAL_Driver\Src\stm32l5xx_hal_tim.c:6457:9
	cmp	r0, #0
	.loc	7 6455 19 is_stmt 1             @ c:/Keil_v5\ARM\PACK\Keil\STM32L5xx_DFP\1.3.0\Drivers\STM32L5xx_HAL_Driver\Src\stm32l5xx_hal_tim.c:6455:19
	strb	r1, [r4, #28]
	itt	eq
	moveq	r0, #1
.Ltmp551:
	.loc	7 6459 7                        @ c:/Keil_v5\ARM\PACK\Keil\STM32L5xx_DFP\1.3.0\Drivers\STM32L5xx_HAL_Driver\Src\stm32l5xx_hal_tim.c:6459:7
	strbeq.w	r0, [r4, #65]
	b	.LBB24_10
.Ltmp552:
	.p2align	2
.LBB24_5:
	@DEBUG_VALUE: TIM_DMADelayPulseCplt:htim <- $r4
	@DEBUG_VALUE: TIM_DMADelayPulseCplt:hdma <- $r0
	.loc	7 6430 20                       @ c:/Keil_v5\ARM\PACK\Keil\STM32L5xx_DFP\1.3.0\Drivers\STM32L5xx_HAL_Driver\Src\stm32l5xx_hal_tim.c:6430:20
	ldr	r1, [r0, #28]
	movs	r0, #1
.Ltmp553:
	@DEBUG_VALUE: TIM_DMADelayPulseCplt:hdma <- [DW_OP_LLVM_entry_value 1] $r0
	.loc	7 6430 9 is_stmt 0              @ c:/Keil_v5\ARM\PACK\Keil\STM32L5xx_DFP\1.3.0\Drivers\STM32L5xx_HAL_Driver\Src\stm32l5xx_hal_tim.c:6430:9
	cmp	r1, #0
	.loc	7 6428 19 is_stmt 1             @ c:/Keil_v5\ARM\PACK\Keil\STM32L5xx_DFP\1.3.0\Drivers\STM32L5xx_HAL_Driver\Src\stm32l5xx_hal_tim.c:6428:19
	strb	r0, [r4, #28]
.Ltmp554:
	.loc	7 6432 7                        @ c:/Keil_v5\ARM\PACK\Keil\STM32L5xx_DFP\1.3.0\Drivers\STM32L5xx_HAL_Driver\Src\stm32l5xx_hal_tim.c:6432:7
	it	eq
	strbeq.w	r0, [r4, #62]
	b	.LBB24_10
.Ltmp555:
	.p2align	2
.LBB24_6:
	@DEBUG_VALUE: TIM_DMADelayPulseCplt:htim <- $r4
	@DEBUG_VALUE: TIM_DMADelayPulseCplt:hdma <- $r0
	.loc	7 6439 20                       @ c:/Keil_v5\ARM\PACK\Keil\STM32L5xx_DFP\1.3.0\Drivers\STM32L5xx_HAL_Driver\Src\stm32l5xx_hal_tim.c:6439:20
	ldr	r0, [r0, #28]
.Ltmp556:
	@DEBUG_VALUE: TIM_DMADelayPulseCplt:hdma <- [DW_OP_LLVM_entry_value 1] $r0
	.loc	7 0 20 is_stmt 0                @ c:/Keil_v5\ARM\PACK\Keil\STM32L5xx_DFP\1.3.0\Drivers\STM32L5xx_HAL_Driver\Src\stm32l5xx_hal_tim.c:0:20
	movs	r1, #2
.Ltmp557:
	.loc	7 6437 19 is_stmt 1             @ c:/Keil_v5\ARM\PACK\Keil\STM32L5xx_DFP\1.3.0\Drivers\STM32L5xx_HAL_Driver\Src\stm32l5xx_hal_tim.c:6437:19
	strb	r1, [r4, #28]
	.loc	7 6439 9                        @ c:/Keil_v5\ARM\PACK\Keil\STM32L5xx_DFP\1.3.0\Drivers\STM32L5xx_HAL_Driver\Src\stm32l5xx_hal_tim.c:6439:9
	cbnz	r0, .LBB24_10
.Ltmp558:
@ %bb.7:
	@DEBUG_VALUE: TIM_DMADelayPulseCplt:htim <- $r4
	@DEBUG_VALUE: TIM_DMADelayPulseCplt:hdma <- [DW_OP_LLVM_entry_value 1] $r0
	.loc	7 0 9 is_stmt 0                 @ c:/Keil_v5\ARM\PACK\Keil\STM32L5xx_DFP\1.3.0\Drivers\STM32L5xx_HAL_Driver\Src\stm32l5xx_hal_tim.c:0:9
	movs	r0, #1
.Ltmp559:
	.loc	7 6441 7 is_stmt 1              @ c:/Keil_v5\ARM\PACK\Keil\STM32L5xx_DFP\1.3.0\Drivers\STM32L5xx_HAL_Driver\Src\stm32l5xx_hal_tim.c:6441:7
	strb.w	r0, [r4, #63]
	.loc	7 6442 5                        @ c:/Keil_v5\ARM\PACK\Keil\STM32L5xx_DFP\1.3.0\Drivers\STM32L5xx_HAL_Driver\Src\stm32l5xx_hal_tim.c:6442:5
	b	.LBB24_10
.Ltmp560:
	.p2align	2
.LBB24_8:
	@DEBUG_VALUE: TIM_DMADelayPulseCplt:htim <- $r4
	@DEBUG_VALUE: TIM_DMADelayPulseCplt:hdma <- $r0
	.loc	7 6448 20                       @ c:/Keil_v5\ARM\PACK\Keil\STM32L5xx_DFP\1.3.0\Drivers\STM32L5xx_HAL_Driver\Src\stm32l5xx_hal_tim.c:6448:20
	ldr	r0, [r0, #28]
.Ltmp561:
	@DEBUG_VALUE: TIM_DMADelayPulseCplt:hdma <- [DW_OP_LLVM_entry_value 1] $r0
	.loc	7 0 20 is_stmt 0                @ c:/Keil_v5\ARM\PACK\Keil\STM32L5xx_DFP\1.3.0\Drivers\STM32L5xx_HAL_Driver\Src\stm32l5xx_hal_tim.c:0:20
	movs	r1, #4
.Ltmp562:
	.loc	7 6446 19 is_stmt 1             @ c:/Keil_v5\ARM\PACK\Keil\STM32L5xx_DFP\1.3.0\Drivers\STM32L5xx_HAL_Driver\Src\stm32l5xx_hal_tim.c:6446:19
	strb	r1, [r4, #28]
	.loc	7 6448 9                        @ c:/Keil_v5\ARM\PACK\Keil\STM32L5xx_DFP\1.3.0\Drivers\STM32L5xx_HAL_Driver\Src\stm32l5xx_hal_tim.c:6448:9
	cbnz	r0, .LBB24_10
.Ltmp563:
@ %bb.9:
	@DEBUG_VALUE: TIM_DMADelayPulseCplt:htim <- $r4
	@DEBUG_VALUE: TIM_DMADelayPulseCplt:hdma <- [DW_OP_LLVM_entry_value 1] $r0
	.loc	7 0 9 is_stmt 0                 @ c:/Keil_v5\ARM\PACK\Keil\STM32L5xx_DFP\1.3.0\Drivers\STM32L5xx_HAL_Driver\Src\stm32l5xx_hal_tim.c:0:9
	movs	r0, #1
.Ltmp564:
	.loc	7 6450 7 is_stmt 1              @ c:/Keil_v5\ARM\PACK\Keil\STM32L5xx_DFP\1.3.0\Drivers\STM32L5xx_HAL_Driver\Src\stm32l5xx_hal_tim.c:6450:7
	strb.w	r0, [r4, #64]
.Ltmp565:
.LBB24_10:
	@DEBUG_VALUE: TIM_DMADelayPulseCplt:htim <- $r4
	.loc	7 6470 3                        @ c:/Keil_v5\ARM\PACK\Keil\STM32L5xx_DFP\1.3.0\Drivers\STM32L5xx_HAL_Driver\Src\stm32l5xx_hal_tim.c:6470:3
	mov	r0, r4
	bl	HAL_TIM_PWM_PulseFinishedCallback
	movs	r0, #0
	.loc	7 6473 17                       @ c:/Keil_v5\ARM\PACK\Keil\STM32L5xx_DFP\1.3.0\Drivers\STM32L5xx_HAL_Driver\Src\stm32l5xx_hal_tim.c:6473:17
	strb	r0, [r4, #28]
	.loc	7 6474 1                        @ c:/Keil_v5\ARM\PACK\Keil\STM32L5xx_DFP\1.3.0\Drivers\STM32L5xx_HAL_Driver\Src\stm32l5xx_hal_tim.c:6474:1
	pop	{r4, pc}
.Ltmp566:
.Lfunc_end24:
	.size	TIM_DMADelayPulseCplt, .Lfunc_end24-TIM_DMADelayPulseCplt
	.cfi_endproc
	.cantunwind
	.fnend
                                        @ -- End function
	.section	.text.TIM_DMADelayPulseHalfCplt,"ax",%progbits
	.hidden	TIM_DMADelayPulseHalfCplt       @ -- Begin function TIM_DMADelayPulseHalfCplt
	.globl	TIM_DMADelayPulseHalfCplt
	.p2align	2
	.type	TIM_DMADelayPulseHalfCplt,%function
	.code	16                              @ @TIM_DMADelayPulseHalfCplt
	.thumb_func
TIM_DMADelayPulseHalfCplt:
.Lfunc_begin25:
	.loc	7 6482 0                        @ c:/Keil_v5\ARM\PACK\Keil\STM32L5xx_DFP\1.3.0\Drivers\STM32L5xx_HAL_Driver\Src\stm32l5xx_hal_tim.c:6482:0
	.fnstart
	.cfi_startproc
@ %bb.0:
	@DEBUG_VALUE: TIM_DMADelayPulseHalfCplt:hdma <- $r0
	@DEBUG_VALUE: TIM_DMADelayPulseHalfCplt:hdma <- $r0
	.save	{r4, lr}
	push	{r4, lr}
	.cfi_def_cfa_offset 8
	.cfi_offset lr, -4
	.cfi_offset r4, -8
.Ltmp567:
	.loc	7 6483 79 prologue_end          @ c:/Keil_v5\ARM\PACK\Keil\STM32L5xx_DFP\1.3.0\Drivers\STM32L5xx_HAL_Driver\Src\stm32l5xx_hal_tim.c:6483:79
	ldr	r4, [r0, #40]
.Ltmp568:
	@DEBUG_VALUE: TIM_DMADelayPulseHalfCplt:htim <- $r4
	.loc	7 6485 15                       @ c:/Keil_v5\ARM\PACK\Keil\STM32L5xx_DFP\1.3.0\Drivers\STM32L5xx_HAL_Driver\Src\stm32l5xx_hal_tim.c:6485:15
	ldr	r1, [r4, #36]
.Ltmp569:
	.loc	7 6485 7 is_stmt 0              @ c:/Keil_v5\ARM\PACK\Keil\STM32L5xx_DFP\1.3.0\Drivers\STM32L5xx_HAL_Driver\Src\stm32l5xx_hal_tim.c:6485:7
	cmp	r1, r0
	beq	.LBB25_5
.Ltmp570:
@ %bb.1:
	@DEBUG_VALUE: TIM_DMADelayPulseHalfCplt:htim <- $r4
	@DEBUG_VALUE: TIM_DMADelayPulseHalfCplt:hdma <- $r0
	.loc	7 6489 20 is_stmt 1             @ c:/Keil_v5\ARM\PACK\Keil\STM32L5xx_DFP\1.3.0\Drivers\STM32L5xx_HAL_Driver\Src\stm32l5xx_hal_tim.c:6489:20
	ldr	r1, [r4, #40]
.Ltmp571:
	.loc	7 6489 12 is_stmt 0             @ c:/Keil_v5\ARM\PACK\Keil\STM32L5xx_DFP\1.3.0\Drivers\STM32L5xx_HAL_Driver\Src\stm32l5xx_hal_tim.c:6489:12
	cmp	r1, r0
	beq	.LBB25_6
.Ltmp572:
@ %bb.2:
	@DEBUG_VALUE: TIM_DMADelayPulseHalfCplt:htim <- $r4
	@DEBUG_VALUE: TIM_DMADelayPulseHalfCplt:hdma <- $r0
	.loc	7 6493 20 is_stmt 1             @ c:/Keil_v5\ARM\PACK\Keil\STM32L5xx_DFP\1.3.0\Drivers\STM32L5xx_HAL_Driver\Src\stm32l5xx_hal_tim.c:6493:20
	ldr	r1, [r4, #44]
.Ltmp573:
	.loc	7 6493 12 is_stmt 0             @ c:/Keil_v5\ARM\PACK\Keil\STM32L5xx_DFP\1.3.0\Drivers\STM32L5xx_HAL_Driver\Src\stm32l5xx_hal_tim.c:6493:12
	cmp	r1, r0
	beq	.LBB25_7
.Ltmp574:
@ %bb.3:
	@DEBUG_VALUE: TIM_DMADelayPulseHalfCplt:htim <- $r4
	@DEBUG_VALUE: TIM_DMADelayPulseHalfCplt:hdma <- $r0
	.loc	7 6497 20 is_stmt 1             @ c:/Keil_v5\ARM\PACK\Keil\STM32L5xx_DFP\1.3.0\Drivers\STM32L5xx_HAL_Driver\Src\stm32l5xx_hal_tim.c:6497:20
	ldr	r1, [r4, #48]
.Ltmp575:
	.loc	7 6497 12 is_stmt 0             @ c:/Keil_v5\ARM\PACK\Keil\STM32L5xx_DFP\1.3.0\Drivers\STM32L5xx_HAL_Driver\Src\stm32l5xx_hal_tim.c:6497:12
	cmp	r1, r0
	bne	.LBB25_9
.Ltmp576:
@ %bb.4:
	@DEBUG_VALUE: TIM_DMADelayPulseHalfCplt:htim <- $r4
	@DEBUG_VALUE: TIM_DMADelayPulseHalfCplt:hdma <- $r0
	.loc	7 0 12                          @ c:/Keil_v5\ARM\PACK\Keil\STM32L5xx_DFP\1.3.0\Drivers\STM32L5xx_HAL_Driver\Src\stm32l5xx_hal_tim.c:0:12
	movs	r0, #8
.Ltmp577:
	@DEBUG_VALUE: TIM_DMADelayPulseHalfCplt:hdma <- [DW_OP_LLVM_entry_value 1] $r0
	b	.LBB25_8
.Ltmp578:
	.p2align	2
.LBB25_5:
	@DEBUG_VALUE: TIM_DMADelayPulseHalfCplt:htim <- $r4
	@DEBUG_VALUE: TIM_DMADelayPulseHalfCplt:hdma <- $r0
	movs	r0, #1
.Ltmp579:
	@DEBUG_VALUE: TIM_DMADelayPulseHalfCplt:hdma <- [DW_OP_LLVM_entry_value 1] $r0
	b	.LBB25_8
.Ltmp580:
	.p2align	2
.LBB25_6:
	@DEBUG_VALUE: TIM_DMADelayPulseHalfCplt:htim <- $r4
	@DEBUG_VALUE: TIM_DMADelayPulseHalfCplt:hdma <- $r0
	movs	r0, #2
.Ltmp581:
	@DEBUG_VALUE: TIM_DMADelayPulseHalfCplt:hdma <- [DW_OP_LLVM_entry_value 1] $r0
	b	.LBB25_8
.Ltmp582:
	.p2align	2
.LBB25_7:
	@DEBUG_VALUE: TIM_DMADelayPulseHalfCplt:htim <- $r4
	@DEBUG_VALUE: TIM_DMADelayPulseHalfCplt:hdma <- $r0
	movs	r0, #4
.Ltmp583:
	@DEBUG_VALUE: TIM_DMADelayPulseHalfCplt:hdma <- [DW_OP_LLVM_entry_value 1] $r0
.LBB25_8:
	@DEBUG_VALUE: TIM_DMADelayPulseHalfCplt:htim <- $r4
	@DEBUG_VALUE: TIM_DMADelayPulseHalfCplt:hdma <- [DW_OP_LLVM_entry_value 1] $r0
	strb	r0, [r4, #28]
.Ltmp584:
.LBB25_9:
	@DEBUG_VALUE: TIM_DMADelayPulseHalfCplt:htim <- $r4
	.loc	7 6509 3 is_stmt 1              @ c:/Keil_v5\ARM\PACK\Keil\STM32L5xx_DFP\1.3.0\Drivers\STM32L5xx_HAL_Driver\Src\stm32l5xx_hal_tim.c:6509:3
	mov	r0, r4
	bl	HAL_TIM_PWM_PulseFinishedHalfCpltCallback
	movs	r0, #0
	.loc	7 6512 17                       @ c:/Keil_v5\ARM\PACK\Keil\STM32L5xx_DFP\1.3.0\Drivers\STM32L5xx_HAL_Driver\Src\stm32l5xx_hal_tim.c:6512:17
	strb	r0, [r4, #28]
	.loc	7 6513 1                        @ c:/Keil_v5\ARM\PACK\Keil\STM32L5xx_DFP\1.3.0\Drivers\STM32L5xx_HAL_Driver\Src\stm32l5xx_hal_tim.c:6513:1
	pop	{r4, pc}
.Ltmp585:
.Lfunc_end25:
	.size	TIM_DMADelayPulseHalfCplt, .Lfunc_end25-TIM_DMADelayPulseHalfCplt
	.cfi_endproc
	.cantunwind
	.fnend
                                        @ -- End function
	.section	.text.HAL_TIM_OC_Stop_DMA,"ax",%progbits
	.hidden	HAL_TIM_OC_Stop_DMA             @ -- Begin function HAL_TIM_OC_Stop_DMA
	.globl	HAL_TIM_OC_Stop_DMA
	.p2align	2
	.type	HAL_TIM_OC_Stop_DMA,%function
	.code	16                              @ @HAL_TIM_OC_Stop_DMA
	.thumb_func
HAL_TIM_OC_Stop_DMA:
.Lfunc_begin26:
	.loc	7 1191 0                        @ c:/Keil_v5\ARM\PACK\Keil\STM32L5xx_DFP\1.3.0\Drivers\STM32L5xx_HAL_Driver\Src\stm32l5xx_hal_tim.c:1191:0
	.fnstart
	.cfi_startproc
@ %bb.0:
	@DEBUG_VALUE: HAL_TIM_OC_Stop_DMA:htim <- $r0
	@DEBUG_VALUE: HAL_TIM_OC_Stop_DMA:Channel <- $r1
	.save	{r4, r5, r6, lr}
	push	{r4, r5, r6, lr}
	.cfi_def_cfa_offset 16
	.cfi_offset lr, -4
	.cfi_offset r6, -8
	.cfi_offset r5, -12
	.cfi_offset r4, -16
.Ltmp586:
	.loc	7 1195 3 prologue_end           @ c:/Keil_v5\ARM\PACK\Keil\STM32L5xx_DFP\1.3.0\Drivers\STM32L5xx_HAL_Driver\Src\stm32l5xx_hal_tim.c:1195:3
	ror.w	r6, r1, #2
	mov	r5, r1
.Ltmp587:
	@DEBUG_VALUE: HAL_TIM_OC_Stop_DMA:Channel <- $r5
	@DEBUG_VALUE: HAL_TIM_OC_Stop_DMA:Channel <- $r5
	cmp	r6, #3
	mov	r4, r0
.Ltmp588:
	@DEBUG_VALUE: HAL_TIM_OC_Stop_DMA:htim <- $r4
	@DEBUG_VALUE: HAL_TIM_OC_Stop_DMA:htim <- $r4
	bhi	.LBB26_8
.Ltmp589:
@ %bb.1:
	@DEBUG_VALUE: HAL_TIM_OC_Stop_DMA:Channel <- $r5
	@DEBUG_VALUE: HAL_TIM_OC_Stop_DMA:htim <- $r4
	.loc	7 0 3 is_stmt 0                 @ c:/Keil_v5\ARM\PACK\Keil\STM32L5xx_DFP\1.3.0\Drivers\STM32L5xx_HAL_Driver\Src\stm32l5xx_hal_tim.c:0:3
.LCPI26_0:
	tbb	[pc, r6]
.Ltmp590:
@ %bb.2:
.LJTI26_0:
	.byte	(.LBB26_3-(.LCPI26_0+4))/2
	.byte	(.LBB26_4-(.LCPI26_0+4))/2
	.byte	(.LBB26_5-(.LCPI26_0+4))/2
	.byte	(.LBB26_6-(.LCPI26_0+4))/2
	.p2align	1
	.p2align	2
.LBB26_3:
.Ltmp591:
	@DEBUG_VALUE: HAL_TIM_OC_Stop_DMA:Channel <- $r5
	@DEBUG_VALUE: HAL_TIM_OC_Stop_DMA:htim <- $r4
	.loc	7 1200 7 is_stmt 1              @ c:/Keil_v5\ARM\PACK\Keil\STM32L5xx_DFP\1.3.0\Drivers\STM32L5xx_HAL_Driver\Src\stm32l5xx_hal_tim.c:1200:7
	mov	r0, r4
	ldr	r1, [r0], #36
	ldr	r2, [r1, #12]
	bic	r2, r2, #512
	b	.LBB26_7
.Ltmp592:
	.p2align	2
.LBB26_4:
	@DEBUG_VALUE: HAL_TIM_OC_Stop_DMA:Channel <- $r5
	@DEBUG_VALUE: HAL_TIM_OC_Stop_DMA:htim <- $r4
	.loc	7 1208 7                        @ c:/Keil_v5\ARM\PACK\Keil\STM32L5xx_DFP\1.3.0\Drivers\STM32L5xx_HAL_Driver\Src\stm32l5xx_hal_tim.c:1208:7
	mov	r0, r4
	ldr	r1, [r0], #40
	ldr	r2, [r1, #12]
	bic	r2, r2, #1024
	b	.LBB26_7
.Ltmp593:
	.p2align	2
.LBB26_5:
	@DEBUG_VALUE: HAL_TIM_OC_Stop_DMA:Channel <- $r5
	@DEBUG_VALUE: HAL_TIM_OC_Stop_DMA:htim <- $r4
	.loc	7 1216 7                        @ c:/Keil_v5\ARM\PACK\Keil\STM32L5xx_DFP\1.3.0\Drivers\STM32L5xx_HAL_Driver\Src\stm32l5xx_hal_tim.c:1216:7
	mov	r0, r4
	ldr	r1, [r0], #44
	ldr	r2, [r1, #12]
	bic	r2, r2, #2048
	b	.LBB26_7
.Ltmp594:
	.p2align	2
.LBB26_6:
	@DEBUG_VALUE: HAL_TIM_OC_Stop_DMA:Channel <- $r5
	@DEBUG_VALUE: HAL_TIM_OC_Stop_DMA:htim <- $r4
	.loc	7 1224 7                        @ c:/Keil_v5\ARM\PACK\Keil\STM32L5xx_DFP\1.3.0\Drivers\STM32L5xx_HAL_Driver\Src\stm32l5xx_hal_tim.c:1224:7
	mov	r0, r4
	ldr	r1, [r0], #48
	ldr	r2, [r1, #12]
	bic	r2, r2, #4096
.Ltmp595:
.LBB26_7:
	@DEBUG_VALUE: HAL_TIM_OC_Stop_DMA:Channel <- $r5
	@DEBUG_VALUE: HAL_TIM_OC_Stop_DMA:htim <- $r4
	.loc	7 0 0 is_stmt 0                 @ c:/Keil_v5\ARM\PACK\Keil\STM32L5xx_DFP\1.3.0\Drivers\STM32L5xx_HAL_Driver\Src\stm32l5xx_hal_tim.c:0:0
	str	r2, [r1, #12]
	ldr	r0, [r0]
	bl	HAL_DMA_Abort_IT
.Ltmp596:
.LBB26_8:
	@DEBUG_VALUE: HAL_TIM_OC_Stop_DMA:Channel <- $r5
	@DEBUG_VALUE: HAL_TIM_OC_Stop_DMA:htim <- $r4
	.loc	7 1234 27 is_stmt 1             @ c:/Keil_v5\ARM\PACK\Keil\STM32L5xx_DFP\1.3.0\Drivers\STM32L5xx_HAL_Driver\Src\stm32l5xx_hal_tim.c:1234:27
	ldr	r0, [r4]
.Ltmp597:
	@DEBUG_VALUE: TIM_CCxChannelCmd:ChannelState <- 0
	@DEBUG_VALUE: TIM_CCxChannelCmd:Channel <- $r5
	@DEBUG_VALUE: TIM_CCxChannelCmd:TIMx <- $r0
	.loc	7 7602 35                       @ c:/Keil_v5\ARM\PACK\Keil\STM32L5xx_DFP\1.3.0\Drivers\STM32L5xx_HAL_Driver\Src\stm32l5xx_hal_tim.c:7602:35
	and	r2, r5, #31
	movs	r1, #1
	.loc	7 7605 14                       @ c:/Keil_v5\ARM\PACK\Keil\STM32L5xx_DFP\1.3.0\Drivers\STM32L5xx_HAL_Driver\Src\stm32l5xx_hal_tim.c:7605:14
	ldr	r3, [r0, #32]
	.loc	7 7602 23                       @ c:/Keil_v5\ARM\PACK\Keil\STM32L5xx_DFP\1.3.0\Drivers\STM32L5xx_HAL_Driver\Src\stm32l5xx_hal_tim.c:7602:23
	lsl.w	r2, r1, r2
.Ltmp598:
	@DEBUG_VALUE: TIM_CCxChannelCmd:tmp <- $r2
	.loc	7 7605 14                       @ c:/Keil_v5\ARM\PACK\Keil\STM32L5xx_DFP\1.3.0\Drivers\STM32L5xx_HAL_Driver\Src\stm32l5xx_hal_tim.c:7605:14
	bic.w	r2, r3, r2
.Ltmp599:
	str	r2, [r0, #32]
.Ltmp600:
	.loc	7 1236 7                        @ c:/Keil_v5\ARM\PACK\Keil\STM32L5xx_DFP\1.3.0\Drivers\STM32L5xx_HAL_Driver\Src\stm32l5xx_hal_tim.c:1236:7
	sub.w	r2, r0, #1073741824
	sub.w	r2, r2, #76800
.Ltmp601:
	.loc	7 7608 14                       @ c:/Keil_v5\ARM\PACK\Keil\STM32L5xx_DFP\1.3.0\Drivers\STM32L5xx_HAL_Driver\Src\stm32l5xx_hal_tim.c:7608:14
	ldr	r3, [r0, #32]
.Ltmp602:
	.loc	7 1236 7                        @ c:/Keil_v5\ARM\PACK\Keil\STM32L5xx_DFP\1.3.0\Drivers\STM32L5xx_HAL_Driver\Src\stm32l5xx_hal_tim.c:1236:7
	ror.w	r2, r2, #10
	cmp	r2, #6
.Ltmp603:
	.loc	7 7608 14                       @ c:/Keil_v5\ARM\PACK\Keil\STM32L5xx_DFP\1.3.0\Drivers\STM32L5xx_HAL_Driver\Src\stm32l5xx_hal_tim.c:7608:14
	str	r3, [r0, #32]
.Ltmp604:
	@DEBUG_VALUE: TIM_CCxChannelCmd:ChannelState <- 0
	@DEBUG_VALUE: TIM_CCxChannelCmd:TIMx <- $r0
	.loc	7 1236 7                        @ c:/Keil_v5\ARM\PACK\Keil\STM32L5xx_DFP\1.3.0\Drivers\STM32L5xx_HAL_Driver\Src\stm32l5xx_hal_tim.c:1236:7
	bhi	.LBB26_13
.Ltmp605:
@ %bb.9:
	@DEBUG_VALUE: TIM_CCxChannelCmd:Channel <- $r5
	@DEBUG_VALUE: HAL_TIM_OC_Stop_DMA:Channel <- $r5
	@DEBUG_VALUE: HAL_TIM_OC_Stop_DMA:htim <- $r4
	@DEBUG_VALUE: TIM_CCxChannelCmd:TIMx <- $r0
	@DEBUG_VALUE: TIM_CCxChannelCmd:ChannelState <- 0
	.loc	7 0 7 is_stmt 0                 @ c:/Keil_v5\ARM\PACK\Keil\STM32L5xx_DFP\1.3.0\Drivers\STM32L5xx_HAL_Driver\Src\stm32l5xx_hal_tim.c:0:7
	lsls	r1, r2
	tst.w	r1, #101
	beq	.LBB26_13
.Ltmp606:
.LBB26_10:
	@DEBUG_VALUE: HAL_TIM_OC_Stop_DMA:Channel <- $r5
	@DEBUG_VALUE: HAL_TIM_OC_Stop_DMA:htim <- $r4
	.loc	7 1239 5 is_stmt 1              @ c:/Keil_v5\ARM\PACK\Keil\STM32L5xx_DFP\1.3.0\Drivers\STM32L5xx_HAL_Driver\Src\stm32l5xx_hal_tim.c:1239:5
	ldr	r1, [r0, #32]
	movw	r2, #4369
.Ltmp607:
	.loc	7 1239 5 is_stmt 0              @ c:/Keil_v5\ARM\PACK\Keil\STM32L5xx_DFP\1.3.0\Drivers\STM32L5xx_HAL_Driver\Src\stm32l5xx_hal_tim.c:1239:5
	tst	r1, r2
	bne	.LBB26_14
.Ltmp608:
@ %bb.11:
	@DEBUG_VALUE: HAL_TIM_OC_Stop_DMA:Channel <- $r5
	@DEBUG_VALUE: HAL_TIM_OC_Stop_DMA:htim <- $r4
	.loc	7 1239 5                        @ c:/Keil_v5\ARM\PACK\Keil\STM32L5xx_DFP\1.3.0\Drivers\STM32L5xx_HAL_Driver\Src\stm32l5xx_hal_tim.c:1239:5
	ldr	r1, [r0, #32]
	movw	r2, #1092
.Ltmp609:
	.loc	7 1239 5                        @ c:/Keil_v5\ARM\PACK\Keil\STM32L5xx_DFP\1.3.0\Drivers\STM32L5xx_HAL_Driver\Src\stm32l5xx_hal_tim.c:1239:5
	tst	r1, r2
	bne	.LBB26_14
.Ltmp610:
@ %bb.12:
	@DEBUG_VALUE: HAL_TIM_OC_Stop_DMA:Channel <- $r5
	@DEBUG_VALUE: HAL_TIM_OC_Stop_DMA:htim <- $r4
	.loc	7 1239 5                        @ c:/Keil_v5\ARM\PACK\Keil\STM32L5xx_DFP\1.3.0\Drivers\STM32L5xx_HAL_Driver\Src\stm32l5xx_hal_tim.c:1239:5
	ldr	r1, [r0, #68]
	bic	r1, r1, #32768
	str	r1, [r0, #68]
	b	.LBB26_14
.Ltmp611:
	.p2align	2
.LBB26_13:
	@DEBUG_VALUE: HAL_TIM_OC_Stop_DMA:Channel <- $r5
	@DEBUG_VALUE: HAL_TIM_OC_Stop_DMA:htim <- $r4
	.loc	7 0 5                           @ c:/Keil_v5\ARM\PACK\Keil\STM32L5xx_DFP\1.3.0\Drivers\STM32L5xx_HAL_Driver\Src\stm32l5xx_hal_tim.c:0:5
	movw	r1, #18432
	movt	r1, #16385
	.loc	7 1236 7 is_stmt 1              @ c:/Keil_v5\ARM\PACK\Keil\STM32L5xx_DFP\1.3.0\Drivers\STM32L5xx_HAL_Driver\Src\stm32l5xx_hal_tim.c:1236:7
	cmp	r0, r1
	beq	.LBB26_10
.Ltmp612:
.LBB26_14:
	@DEBUG_VALUE: HAL_TIM_OC_Stop_DMA:Channel <- $r5
	@DEBUG_VALUE: HAL_TIM_OC_Stop_DMA:htim <- $r4
	.loc	7 1243 3                        @ c:/Keil_v5\ARM\PACK\Keil\STM32L5xx_DFP\1.3.0\Drivers\STM32L5xx_HAL_Driver\Src\stm32l5xx_hal_tim.c:1243:3
	ldr	r1, [r0, #32]
	movw	r2, #4369
.Ltmp613:
	.loc	7 1243 3 is_stmt 0              @ c:/Keil_v5\ARM\PACK\Keil\STM32L5xx_DFP\1.3.0\Drivers\STM32L5xx_HAL_Driver\Src\stm32l5xx_hal_tim.c:1243:3
	tst	r1, r2
	bne	.LBB26_17
.Ltmp614:
@ %bb.15:
	@DEBUG_VALUE: HAL_TIM_OC_Stop_DMA:Channel <- $r5
	@DEBUG_VALUE: HAL_TIM_OC_Stop_DMA:htim <- $r4
	.loc	7 1243 3                        @ c:/Keil_v5\ARM\PACK\Keil\STM32L5xx_DFP\1.3.0\Drivers\STM32L5xx_HAL_Driver\Src\stm32l5xx_hal_tim.c:1243:3
	ldr	r1, [r0, #32]
	movw	r2, #1092
.Ltmp615:
	.loc	7 1243 3                        @ c:/Keil_v5\ARM\PACK\Keil\STM32L5xx_DFP\1.3.0\Drivers\STM32L5xx_HAL_Driver\Src\stm32l5xx_hal_tim.c:1243:3
	tst	r1, r2
	bne	.LBB26_17
.Ltmp616:
@ %bb.16:
	@DEBUG_VALUE: HAL_TIM_OC_Stop_DMA:Channel <- $r5
	@DEBUG_VALUE: HAL_TIM_OC_Stop_DMA:htim <- $r4
	.loc	7 1243 3                        @ c:/Keil_v5\ARM\PACK\Keil\STM32L5xx_DFP\1.3.0\Drivers\STM32L5xx_HAL_Driver\Src\stm32l5xx_hal_tim.c:1243:3
	ldr	r1, [r0]
	bic	r1, r1, #1
	str	r1, [r0]
.Ltmp617:
.LBB26_17:
	@DEBUG_VALUE: HAL_TIM_OC_Stop_DMA:Channel <- $r5
	@DEBUG_VALUE: HAL_TIM_OC_Stop_DMA:htim <- $r4
	.loc	7 1246 3 is_stmt 1              @ c:/Keil_v5\ARM\PACK\Keil\STM32L5xx_DFP\1.3.0\Drivers\STM32L5xx_HAL_Driver\Src\stm32l5xx_hal_tim.c:1246:3
	cmp	r6, #4
	bhi	.LBB26_21
.Ltmp618:
@ %bb.18:
	@DEBUG_VALUE: HAL_TIM_OC_Stop_DMA:Channel <- $r5
	@DEBUG_VALUE: HAL_TIM_OC_Stop_DMA:htim <- $r4
	.loc	7 0 3 is_stmt 0                 @ c:/Keil_v5\ARM\PACK\Keil\STM32L5xx_DFP\1.3.0\Drivers\STM32L5xx_HAL_Driver\Src\stm32l5xx_hal_tim.c:0:3
.LCPI26_1:
	tbb	[pc, r6]
.Ltmp619:
@ %bb.19:
.LJTI26_1:
	.byte	(.LBB26_20-(.LCPI26_1+4))/2
	.byte	(.LBB26_22-(.LCPI26_1+4))/2
	.byte	(.LBB26_23-(.LCPI26_1+4))/2
	.byte	(.LBB26_24-(.LCPI26_1+4))/2
	.byte	(.LBB26_25-(.LCPI26_1+4))/2
	.p2align	1
	.p2align	2
.LBB26_20:
.Ltmp620:
	@DEBUG_VALUE: HAL_TIM_OC_Stop_DMA:Channel <- $r5
	@DEBUG_VALUE: HAL_TIM_OC_Stop_DMA:htim <- $r4
	movs	r0, #1
	.loc	7 1246 3                        @ c:/Keil_v5\ARM\PACK\Keil\STM32L5xx_DFP\1.3.0\Drivers\STM32L5xx_HAL_Driver\Src\stm32l5xx_hal_tim.c:1246:3
	strb.w	r0, [r4, #62]
	.loc	7 1249 3 is_stmt 1              @ c:/Keil_v5\ARM\PACK\Keil\STM32L5xx_DFP\1.3.0\Drivers\STM32L5xx_HAL_Driver\Src\stm32l5xx_hal_tim.c:1249:3
	movs	r0, #0
	pop	{r4, r5, r6, pc}
.Ltmp621:
	.p2align	2
.LBB26_21:
	@DEBUG_VALUE: HAL_TIM_OC_Stop_DMA:Channel <- $r5
	@DEBUG_VALUE: HAL_TIM_OC_Stop_DMA:htim <- $r4
	.loc	7 0 3 is_stmt 0                 @ c:/Keil_v5\ARM\PACK\Keil\STM32L5xx_DFP\1.3.0\Drivers\STM32L5xx_HAL_Driver\Src\stm32l5xx_hal_tim.c:0:3
	movs	r0, #1
	.loc	7 1246 3 is_stmt 1              @ c:/Keil_v5\ARM\PACK\Keil\STM32L5xx_DFP\1.3.0\Drivers\STM32L5xx_HAL_Driver\Src\stm32l5xx_hal_tim.c:1246:3
	strb.w	r0, [r4, #67]
	.loc	7 1249 3                        @ c:/Keil_v5\ARM\PACK\Keil\STM32L5xx_DFP\1.3.0\Drivers\STM32L5xx_HAL_Driver\Src\stm32l5xx_hal_tim.c:1249:3
	movs	r0, #0
	pop	{r4, r5, r6, pc}
.Ltmp622:
	.p2align	2
.LBB26_22:
	@DEBUG_VALUE: HAL_TIM_OC_Stop_DMA:Channel <- $r5
	@DEBUG_VALUE: HAL_TIM_OC_Stop_DMA:htim <- $r4
	.loc	7 0 3 is_stmt 0                 @ c:/Keil_v5\ARM\PACK\Keil\STM32L5xx_DFP\1.3.0\Drivers\STM32L5xx_HAL_Driver\Src\stm32l5xx_hal_tim.c:0:3
	movs	r0, #1
	.loc	7 1246 3 is_stmt 1              @ c:/Keil_v5\ARM\PACK\Keil\STM32L5xx_DFP\1.3.0\Drivers\STM32L5xx_HAL_Driver\Src\stm32l5xx_hal_tim.c:1246:3
	strb.w	r0, [r4, #63]
	.loc	7 1249 3                        @ c:/Keil_v5\ARM\PACK\Keil\STM32L5xx_DFP\1.3.0\Drivers\STM32L5xx_HAL_Driver\Src\stm32l5xx_hal_tim.c:1249:3
	movs	r0, #0
	pop	{r4, r5, r6, pc}
.Ltmp623:
	.p2align	2
.LBB26_23:
	@DEBUG_VALUE: HAL_TIM_OC_Stop_DMA:Channel <- $r5
	@DEBUG_VALUE: HAL_TIM_OC_Stop_DMA:htim <- $r4
	.loc	7 0 3 is_stmt 0                 @ c:/Keil_v5\ARM\PACK\Keil\STM32L5xx_DFP\1.3.0\Drivers\STM32L5xx_HAL_Driver\Src\stm32l5xx_hal_tim.c:0:3
	movs	r0, #1
	.loc	7 1246 3 is_stmt 1              @ c:/Keil_v5\ARM\PACK\Keil\STM32L5xx_DFP\1.3.0\Drivers\STM32L5xx_HAL_Driver\Src\stm32l5xx_hal_tim.c:1246:3
	strb.w	r0, [r4, #64]
	.loc	7 1249 3                        @ c:/Keil_v5\ARM\PACK\Keil\STM32L5xx_DFP\1.3.0\Drivers\STM32L5xx_HAL_Driver\Src\stm32l5xx_hal_tim.c:1249:3
	movs	r0, #0
	pop	{r4, r5, r6, pc}
.Ltmp624:
	.p2align	2
.LBB26_24:
	@DEBUG_VALUE: HAL_TIM_OC_Stop_DMA:Channel <- $r5
	@DEBUG_VALUE: HAL_TIM_OC_Stop_DMA:htim <- $r4
	.loc	7 0 3 is_stmt 0                 @ c:/Keil_v5\ARM\PACK\Keil\STM32L5xx_DFP\1.3.0\Drivers\STM32L5xx_HAL_Driver\Src\stm32l5xx_hal_tim.c:0:3
	movs	r0, #1
	.loc	7 1246 3 is_stmt 1              @ c:/Keil_v5\ARM\PACK\Keil\STM32L5xx_DFP\1.3.0\Drivers\STM32L5xx_HAL_Driver\Src\stm32l5xx_hal_tim.c:1246:3
	strb.w	r0, [r4, #65]
	.loc	7 1249 3                        @ c:/Keil_v5\ARM\PACK\Keil\STM32L5xx_DFP\1.3.0\Drivers\STM32L5xx_HAL_Driver\Src\stm32l5xx_hal_tim.c:1249:3
	movs	r0, #0
	pop	{r4, r5, r6, pc}
.Ltmp625:
	.p2align	2
.LBB26_25:
	@DEBUG_VALUE: HAL_TIM_OC_Stop_DMA:Channel <- $r5
	@DEBUG_VALUE: HAL_TIM_OC_Stop_DMA:htim <- $r4
	.loc	7 0 3 is_stmt 0                 @ c:/Keil_v5\ARM\PACK\Keil\STM32L5xx_DFP\1.3.0\Drivers\STM32L5xx_HAL_Driver\Src\stm32l5xx_hal_tim.c:0:3
	movs	r0, #1
	.loc	7 1246 3 is_stmt 1              @ c:/Keil_v5\ARM\PACK\Keil\STM32L5xx_DFP\1.3.0\Drivers\STM32L5xx_HAL_Driver\Src\stm32l5xx_hal_tim.c:1246:3
	strb.w	r0, [r4, #66]
	.loc	7 1249 3                        @ c:/Keil_v5\ARM\PACK\Keil\STM32L5xx_DFP\1.3.0\Drivers\STM32L5xx_HAL_Driver\Src\stm32l5xx_hal_tim.c:1249:3
	movs	r0, #0
	pop	{r4, r5, r6, pc}
.Ltmp626:
.Lfunc_end26:
	.size	HAL_TIM_OC_Stop_DMA, .Lfunc_end26-HAL_TIM_OC_Stop_DMA
	.cfi_endproc
	.cantunwind
	.fnend
                                        @ -- End function
	.section	.text.HAL_TIM_PWM_Init,"ax",%progbits
	.hidden	HAL_TIM_PWM_Init                @ -- Begin function HAL_TIM_PWM_Init
	.globl	HAL_TIM_PWM_Init
	.p2align	2
	.type	HAL_TIM_PWM_Init,%function
	.code	16                              @ @HAL_TIM_PWM_Init
	.thumb_func
HAL_TIM_PWM_Init:
.Lfunc_begin27:
	.loc	7 1288 0                        @ c:/Keil_v5\ARM\PACK\Keil\STM32L5xx_DFP\1.3.0\Drivers\STM32L5xx_HAL_Driver\Src\stm32l5xx_hal_tim.c:1288:0
	.fnstart
	.cfi_startproc
@ %bb.0:
	@DEBUG_VALUE: HAL_TIM_PWM_Init:htim <- $r0
	@DEBUG_VALUE: HAL_TIM_PWM_Init:htim <- $r0
	.loc	7 1290 7 prologue_end           @ c:/Keil_v5\ARM\PACK\Keil\STM32L5xx_DFP\1.3.0\Drivers\STM32L5xx_HAL_Driver\Src\stm32l5xx_hal_tim.c:1290:7
	cmp	r0, #0
	itt	eq
	moveq	r0, #1
.Ltmp627:
	@DEBUG_VALUE: HAL_TIM_PWM_Init:htim <- [DW_OP_LLVM_entry_value 1] $r0
	.loc	7 1339 1                        @ c:/Keil_v5\ARM\PACK\Keil\STM32L5xx_DFP\1.3.0\Drivers\STM32L5xx_HAL_Driver\Src\stm32l5xx_hal_tim.c:1339:1
	bxeq	lr
.Ltmp628:
.LBB27_1:
	@DEBUG_VALUE: HAL_TIM_PWM_Init:htim <- [DW_OP_LLVM_entry_value 1] $r0
	.save	{r4, lr}
	push	{r4, lr}
	.cfi_def_cfa_offset 8
	.cfi_offset lr, -4
	.cfi_offset r4, -8
	mov	r4, r0
.Ltmp629:
	@DEBUG_VALUE: HAL_TIM_PWM_Init:htim <- $r4
	.loc	7 1301 13                       @ c:/Keil_v5\ARM\PACK\Keil\STM32L5xx_DFP\1.3.0\Drivers\STM32L5xx_HAL_Driver\Src\stm32l5xx_hal_tim.c:1301:13
	ldrb.w	r0, [r0, #61]
.Ltmp630:
	.loc	7 1301 7 is_stmt 0              @ c:/Keil_v5\ARM\PACK\Keil\STM32L5xx_DFP\1.3.0\Drivers\STM32L5xx_HAL_Driver\Src\stm32l5xx_hal_tim.c:1301:7
	cbnz	r0, .LBB27_3
.Ltmp631:
@ %bb.2:
	@DEBUG_VALUE: HAL_TIM_PWM_Init:htim <- $r4
	.loc	7 0 7                           @ c:/Keil_v5\ARM\PACK\Keil\STM32L5xx_DFP\1.3.0\Drivers\STM32L5xx_HAL_Driver\Src\stm32l5xx_hal_tim.c:0:7
	movs	r0, #0
.Ltmp632:
	.loc	7 1304 16 is_stmt 1             @ c:/Keil_v5\ARM\PACK\Keil\STM32L5xx_DFP\1.3.0\Drivers\STM32L5xx_HAL_Driver\Src\stm32l5xx_hal_tim.c:1304:16
	strb.w	r0, [r4, #60]
	.loc	7 1318 5                        @ c:/Keil_v5\ARM\PACK\Keil\STM32L5xx_DFP\1.3.0\Drivers\STM32L5xx_HAL_Driver\Src\stm32l5xx_hal_tim.c:1318:5
	mov	r0, r4
	bl	HAL_TIM_PWM_MspInit
.Ltmp633:
.LBB27_3:
	@DEBUG_VALUE: HAL_TIM_PWM_Init:htim <- $r4
	.loc	7 0 5 is_stmt 0                 @ c:/Keil_v5\ARM\PACK\Keil\STM32L5xx_DFP\1.3.0\Drivers\STM32L5xx_HAL_Driver\Src\stm32l5xx_hal_tim.c:0:5
	movs	r0, #2
	.loc	7 1323 15 is_stmt 1             @ c:/Keil_v5\ARM\PACK\Keil\STM32L5xx_DFP\1.3.0\Drivers\STM32L5xx_HAL_Driver\Src\stm32l5xx_hal_tim.c:1323:15
	strb.w	r0, [r4, #61]
	.loc	7 1326 28                       @ c:/Keil_v5\ARM\PACK\Keil\STM32L5xx_DFP\1.3.0\Drivers\STM32L5xx_HAL_Driver\Src\stm32l5xx_hal_tim.c:1326:28
	ldr	r0, [r4]
	.loc	7 1326 45 is_stmt 0             @ c:/Keil_v5\ARM\PACK\Keil\STM32L5xx_DFP\1.3.0\Drivers\STM32L5xx_HAL_Driver\Src\stm32l5xx_hal_tim.c:1326:45
	adds	r1, r4, #4
	.loc	7 1326 3                        @ c:/Keil_v5\ARM\PACK\Keil\STM32L5xx_DFP\1.3.0\Drivers\STM32L5xx_HAL_Driver\Src\stm32l5xx_hal_tim.c:1326:3
	bl	TIM_Base_SetConfig
	movs	r0, #1
	.loc	7 1329 23 is_stmt 1             @ c:/Keil_v5\ARM\PACK\Keil\STM32L5xx_DFP\1.3.0\Drivers\STM32L5xx_HAL_Driver\Src\stm32l5xx_hal_tim.c:1329:23
	strb.w	r0, [r4, #72]
.Ltmp634:
	.loc	7 1332 3                        @ c:/Keil_v5\ARM\PACK\Keil\STM32L5xx_DFP\1.3.0\Drivers\STM32L5xx_HAL_Driver\Src\stm32l5xx_hal_tim.c:1332:3
	strb.w	r0, [r4, #62]
	strb.w	r0, [r4, #63]
	strb.w	r0, [r4, #64]
	strb.w	r0, [r4, #65]
	strb.w	r0, [r4, #66]
	strb.w	r0, [r4, #67]
.Ltmp635:
	.loc	7 1333 3                        @ c:/Keil_v5\ARM\PACK\Keil\STM32L5xx_DFP\1.3.0\Drivers\STM32L5xx_HAL_Driver\Src\stm32l5xx_hal_tim.c:1333:3
	strb.w	r0, [r4, #68]
	strb.w	r0, [r4, #69]
	strb.w	r0, [r4, #70]
	strb.w	r0, [r4, #71]
.Ltmp636:
	.loc	7 1336 15                       @ c:/Keil_v5\ARM\PACK\Keil\STM32L5xx_DFP\1.3.0\Drivers\STM32L5xx_HAL_Driver\Src\stm32l5xx_hal_tim.c:1336:15
	strb.w	r0, [r4, #61]
	movs	r0, #0
	pop	{r4, pc}
.Ltmp637:
.Lfunc_end27:
	.size	HAL_TIM_PWM_Init, .Lfunc_end27-HAL_TIM_PWM_Init
	.cfi_endproc
	.cantunwind
	.fnend
                                        @ -- End function
	.section	.text.HAL_TIM_PWM_MspInit,"ax",%progbits
	.hidden	HAL_TIM_PWM_MspInit             @ -- Begin function HAL_TIM_PWM_MspInit
	.weak	HAL_TIM_PWM_MspInit
	.p2align	2
	.type	HAL_TIM_PWM_MspInit,%function
	.code	16                              @ @HAL_TIM_PWM_MspInit
	.thumb_func
HAL_TIM_PWM_MspInit:
.Lfunc_begin28:
	.loc	7 1390 0                        @ c:/Keil_v5\ARM\PACK\Keil\STM32L5xx_DFP\1.3.0\Drivers\STM32L5xx_HAL_Driver\Src\stm32l5xx_hal_tim.c:1390:0
	.fnstart
	.cfi_startproc
@ %bb.0:
	@DEBUG_VALUE: HAL_TIM_PWM_MspInit:htim <- $r0
	.loc	7 1397 1 prologue_end           @ c:/Keil_v5\ARM\PACK\Keil\STM32L5xx_DFP\1.3.0\Drivers\STM32L5xx_HAL_Driver\Src\stm32l5xx_hal_tim.c:1397:1
	bx	lr
.Ltmp638:
.Lfunc_end28:
	.size	HAL_TIM_PWM_MspInit, .Lfunc_end28-HAL_TIM_PWM_MspInit
	.cfi_endproc
	.cantunwind
	.fnend
                                        @ -- End function
	.section	.text.HAL_TIM_PWM_DeInit,"ax",%progbits
	.hidden	HAL_TIM_PWM_DeInit              @ -- Begin function HAL_TIM_PWM_DeInit
	.globl	HAL_TIM_PWM_DeInit
	.p2align	2
	.type	HAL_TIM_PWM_DeInit,%function
	.code	16                              @ @HAL_TIM_PWM_DeInit
	.thumb_func
HAL_TIM_PWM_DeInit:
.Lfunc_begin29:
	.loc	7 1347 0                        @ c:/Keil_v5\ARM\PACK\Keil\STM32L5xx_DFP\1.3.0\Drivers\STM32L5xx_HAL_Driver\Src\stm32l5xx_hal_tim.c:1347:0
	.fnstart
	.cfi_startproc
@ %bb.0:
	@DEBUG_VALUE: HAL_TIM_PWM_DeInit:htim <- $r0
	.save	{r4, lr}
	push	{r4, lr}
	.cfi_def_cfa_offset 8
	.cfi_offset lr, -4
	.cfi_offset r4, -8
	mov	r4, r0
.Ltmp639:
	@DEBUG_VALUE: HAL_TIM_PWM_DeInit:htim <- $r4
	movs	r0, #2
	@DEBUG_VALUE: HAL_TIM_PWM_DeInit:htim <- $r4
.Ltmp640:
	.loc	7 1351 15 prologue_end          @ c:/Keil_v5\ARM\PACK\Keil\STM32L5xx_DFP\1.3.0\Drivers\STM32L5xx_HAL_Driver\Src\stm32l5xx_hal_tim.c:1351:15
	strb.w	r0, [r4, #61]
.Ltmp641:
	.loc	7 1354 3                        @ c:/Keil_v5\ARM\PACK\Keil\STM32L5xx_DFP\1.3.0\Drivers\STM32L5xx_HAL_Driver\Src\stm32l5xx_hal_tim.c:1354:3
	ldr	r0, [r4]
	movw	r2, #4369
	ldr	r1, [r0, #32]
.Ltmp642:
	.loc	7 1354 3 is_stmt 0              @ c:/Keil_v5\ARM\PACK\Keil\STM32L5xx_DFP\1.3.0\Drivers\STM32L5xx_HAL_Driver\Src\stm32l5xx_hal_tim.c:1354:3
	tst	r1, r2
	bne	.LBB29_3
.Ltmp643:
@ %bb.1:
	@DEBUG_VALUE: HAL_TIM_PWM_DeInit:htim <- $r4
	.loc	7 1354 3                        @ c:/Keil_v5\ARM\PACK\Keil\STM32L5xx_DFP\1.3.0\Drivers\STM32L5xx_HAL_Driver\Src\stm32l5xx_hal_tim.c:1354:3
	ldr	r1, [r0, #32]
	movw	r2, #1092
.Ltmp644:
	.loc	7 1354 3                        @ c:/Keil_v5\ARM\PACK\Keil\STM32L5xx_DFP\1.3.0\Drivers\STM32L5xx_HAL_Driver\Src\stm32l5xx_hal_tim.c:1354:3
	tst	r1, r2
	bne	.LBB29_3
.Ltmp645:
@ %bb.2:
	@DEBUG_VALUE: HAL_TIM_PWM_DeInit:htim <- $r4
	.loc	7 1354 3                        @ c:/Keil_v5\ARM\PACK\Keil\STM32L5xx_DFP\1.3.0\Drivers\STM32L5xx_HAL_Driver\Src\stm32l5xx_hal_tim.c:1354:3
	ldr	r1, [r0]
	bic	r1, r1, #1
	str	r1, [r0]
.Ltmp646:
.LBB29_3:
	@DEBUG_VALUE: HAL_TIM_PWM_DeInit:htim <- $r4
	.loc	7 1365 3 is_stmt 1              @ c:/Keil_v5\ARM\PACK\Keil\STM32L5xx_DFP\1.3.0\Drivers\STM32L5xx_HAL_Driver\Src\stm32l5xx_hal_tim.c:1365:3
	mov	r0, r4
	bl	HAL_TIM_PWM_MspDeInit
	movs	r1, #0
	.loc	7 1381 3                        @ c:/Keil_v5\ARM\PACK\Keil\STM32L5xx_DFP\1.3.0\Drivers\STM32L5xx_HAL_Driver\Src\stm32l5xx_hal_tim.c:1381:3
	movs	r0, #0
	.loc	7 1369 23                       @ c:/Keil_v5\ARM\PACK\Keil\STM32L5xx_DFP\1.3.0\Drivers\STM32L5xx_HAL_Driver\Src\stm32l5xx_hal_tim.c:1369:23
	strb.w	r1, [r4, #72]
.Ltmp647:
	.loc	7 1372 3                        @ c:/Keil_v5\ARM\PACK\Keil\STM32L5xx_DFP\1.3.0\Drivers\STM32L5xx_HAL_Driver\Src\stm32l5xx_hal_tim.c:1372:3
	strb.w	r1, [r4, #62]
	strb.w	r1, [r4, #63]
	strb.w	r1, [r4, #64]
	strb.w	r1, [r4, #65]
	strb.w	r1, [r4, #66]
	strb.w	r1, [r4, #67]
.Ltmp648:
	.loc	7 1373 3                        @ c:/Keil_v5\ARM\PACK\Keil\STM32L5xx_DFP\1.3.0\Drivers\STM32L5xx_HAL_Driver\Src\stm32l5xx_hal_tim.c:1373:3
	strb.w	r1, [r4, #68]
	strb.w	r1, [r4, #69]
	strb.w	r1, [r4, #70]
	strb.w	r1, [r4, #71]
.Ltmp649:
	.loc	7 1376 15                       @ c:/Keil_v5\ARM\PACK\Keil\STM32L5xx_DFP\1.3.0\Drivers\STM32L5xx_HAL_Driver\Src\stm32l5xx_hal_tim.c:1376:15
	strb.w	r1, [r4, #61]
.Ltmp650:
	.loc	7 1379 3                        @ c:/Keil_v5\ARM\PACK\Keil\STM32L5xx_DFP\1.3.0\Drivers\STM32L5xx_HAL_Driver\Src\stm32l5xx_hal_tim.c:1379:3
	strb.w	r1, [r4, #60]
.Ltmp651:
	.loc	7 1381 3                        @ c:/Keil_v5\ARM\PACK\Keil\STM32L5xx_DFP\1.3.0\Drivers\STM32L5xx_HAL_Driver\Src\stm32l5xx_hal_tim.c:1381:3
	pop	{r4, pc}
.Ltmp652:
.Lfunc_end29:
	.size	HAL_TIM_PWM_DeInit, .Lfunc_end29-HAL_TIM_PWM_DeInit
	.cfi_endproc
	.cantunwind
	.fnend
                                        @ -- End function
	.section	.text.HAL_TIM_PWM_MspDeInit,"ax",%progbits
	.hidden	HAL_TIM_PWM_MspDeInit           @ -- Begin function HAL_TIM_PWM_MspDeInit
	.weak	HAL_TIM_PWM_MspDeInit
	.p2align	2
	.type	HAL_TIM_PWM_MspDeInit,%function
	.code	16                              @ @HAL_TIM_PWM_MspDeInit
	.thumb_func
HAL_TIM_PWM_MspDeInit:
.Lfunc_begin30:
	.loc	7 1405 0                        @ c:/Keil_v5\ARM\PACK\Keil\STM32L5xx_DFP\1.3.0\Drivers\STM32L5xx_HAL_Driver\Src\stm32l5xx_hal_tim.c:1405:0
	.fnstart
	.cfi_startproc
@ %bb.0:
	@DEBUG_VALUE: HAL_TIM_PWM_MspDeInit:htim <- $r0
	.loc	7 1412 1 prologue_end           @ c:/Keil_v5\ARM\PACK\Keil\STM32L5xx_DFP\1.3.0\Drivers\STM32L5xx_HAL_Driver\Src\stm32l5xx_hal_tim.c:1412:1
	bx	lr
.Ltmp653:
.Lfunc_end30:
	.size	HAL_TIM_PWM_MspDeInit, .Lfunc_end30-HAL_TIM_PWM_MspDeInit
	.cfi_endproc
	.cantunwind
	.fnend
                                        @ -- End function
	.section	.text.HAL_TIM_PWM_Start,"ax",%progbits
	.hidden	HAL_TIM_PWM_Start               @ -- Begin function HAL_TIM_PWM_Start
	.globl	HAL_TIM_PWM_Start
	.p2align	2
	.type	HAL_TIM_PWM_Start,%function
	.code	16                              @ @HAL_TIM_PWM_Start
	.thumb_func
HAL_TIM_PWM_Start:
.Lfunc_begin31:
	.loc	7 1428 0                        @ c:/Keil_v5\ARM\PACK\Keil\STM32L5xx_DFP\1.3.0\Drivers\STM32L5xx_HAL_Driver\Src\stm32l5xx_hal_tim.c:1428:0
	.fnstart
	.cfi_startproc
@ %bb.0:
	@DEBUG_VALUE: HAL_TIM_PWM_Start:htim <- $r0
	@DEBUG_VALUE: HAL_TIM_PWM_Start:Channel <- $r1
	@DEBUG_VALUE: HAL_TIM_PWM_Start:Channel <- $r1
	@DEBUG_VALUE: HAL_TIM_PWM_Start:htim <- $r0
	.loc	7 1435 7 prologue_end           @ c:/Keil_v5\ARM\PACK\Keil\STM32L5xx_DFP\1.3.0\Drivers\STM32L5xx_HAL_Driver\Src\stm32l5xx_hal_tim.c:1435:7
	cbz	r1, .LBB31_5
.Ltmp654:
@ %bb.1:
	@DEBUG_VALUE: HAL_TIM_PWM_Start:Channel <- $r1
	@DEBUG_VALUE: HAL_TIM_PWM_Start:htim <- $r0
	subs	r2, r1, #4
	ror.w	r2, r2, #2
	cmp	r2, #3
	bhi	.LBB31_7
.Ltmp655:
@ %bb.2:
	@DEBUG_VALUE: HAL_TIM_PWM_Start:Channel <- $r1
	@DEBUG_VALUE: HAL_TIM_PWM_Start:htim <- $r0
	.loc	7 0 7 is_stmt 0                 @ c:/Keil_v5\ARM\PACK\Keil\STM32L5xx_DFP\1.3.0\Drivers\STM32L5xx_HAL_Driver\Src\stm32l5xx_hal_tim.c:0:7
.LCPI31_0:
	tbb	[pc, r2]
.Ltmp656:
@ %bb.3:
.LJTI31_0:
	.byte	(.LBB31_4-(.LCPI31_0+4))/2
	.byte	(.LBB31_8-(.LCPI31_0+4))/2
	.byte	(.LBB31_9-(.LCPI31_0+4))/2
	.byte	(.LBB31_10-(.LCPI31_0+4))/2
	.p2align	1
	.p2align	2
.LBB31_4:
.Ltmp657:
	@DEBUG_VALUE: HAL_TIM_PWM_Start:Channel <- $r1
	@DEBUG_VALUE: HAL_TIM_PWM_Start:htim <- $r0
	.loc	7 1435 7                        @ c:/Keil_v5\ARM\PACK\Keil\STM32L5xx_DFP\1.3.0\Drivers\STM32L5xx_HAL_Driver\Src\stm32l5xx_hal_tim.c:1435:7
	add.w	r3, r0, #63
	b	.LBB31_11
.Ltmp658:
	.p2align	2
.LBB31_5:
	@DEBUG_VALUE: HAL_TIM_PWM_Start:Channel <- $r1
	@DEBUG_VALUE: HAL_TIM_PWM_Start:htim <- $r0
	ldrb.w	r2, [r0, #62]
.Ltmp659:
	.loc	7 1435 7                        @ c:/Keil_v5\ARM\PACK\Keil\STM32L5xx_DFP\1.3.0\Drivers\STM32L5xx_HAL_Driver\Src\stm32l5xx_hal_tim.c:1435:7
	cmp	r2, #1
	itt	ne
	movne	r0, #1
.Ltmp660:
	@DEBUG_VALUE: HAL_TIM_PWM_Start:htim <- [DW_OP_LLVM_entry_value 1] $r0
	.loc	7 1468 1 is_stmt 1              @ c:/Keil_v5\ARM\PACK\Keil\STM32L5xx_DFP\1.3.0\Drivers\STM32L5xx_HAL_Driver\Src\stm32l5xx_hal_tim.c:1468:1
	bxne	lr
.Ltmp661:
.LBB31_6:
	@DEBUG_VALUE: HAL_TIM_PWM_Start:Channel <- $r1
	@DEBUG_VALUE: HAL_TIM_PWM_Start:htim <- [DW_OP_LLVM_entry_value 1] $r0
	.loc	7 0 1 is_stmt 0                 @ c:/Keil_v5\ARM\PACK\Keil\STM32L5xx_DFP\1.3.0\Drivers\STM32L5xx_HAL_Driver\Src\stm32l5xx_hal_tim.c:0:1
	movs	r2, #2
	.loc	7 1441 3 is_stmt 1              @ c:/Keil_v5\ARM\PACK\Keil\STM32L5xx_DFP\1.3.0\Drivers\STM32L5xx_HAL_Driver\Src\stm32l5xx_hal_tim.c:1441:3
	strb.w	r2, [r0, #62]
	b	.LBB31_20
.Ltmp662:
	.p2align	2
.LBB31_7:
	@DEBUG_VALUE: HAL_TIM_PWM_Start:Channel <- $r1
	@DEBUG_VALUE: HAL_TIM_PWM_Start:htim <- $r0
	.loc	7 1435 7                        @ c:/Keil_v5\ARM\PACK\Keil\STM32L5xx_DFP\1.3.0\Drivers\STM32L5xx_HAL_Driver\Src\stm32l5xx_hal_tim.c:1435:7
	add.w	r3, r0, #67
	b	.LBB31_11
.Ltmp663:
	.p2align	2
.LBB31_8:
	@DEBUG_VALUE: HAL_TIM_PWM_Start:Channel <- $r1
	@DEBUG_VALUE: HAL_TIM_PWM_Start:htim <- $r0
	add.w	r3, r0, #64
	b	.LBB31_11
.Ltmp664:
	.p2align	2
.LBB31_9:
	@DEBUG_VALUE: HAL_TIM_PWM_Start:Channel <- $r1
	@DEBUG_VALUE: HAL_TIM_PWM_Start:htim <- $r0
	add.w	r3, r0, #65
	b	.LBB31_11
.Ltmp665:
	.p2align	2
.LBB31_10:
	@DEBUG_VALUE: HAL_TIM_PWM_Start:Channel <- $r1
	@DEBUG_VALUE: HAL_TIM_PWM_Start:htim <- $r0
	add.w	r3, r0, #66
.Ltmp666:
.LBB31_11:
	@DEBUG_VALUE: HAL_TIM_PWM_Start:Channel <- $r1
	@DEBUG_VALUE: HAL_TIM_PWM_Start:htim <- $r0
	ldrb	r3, [r3]
.Ltmp667:
	.loc	7 1435 7 is_stmt 0              @ c:/Keil_v5\ARM\PACK\Keil\STM32L5xx_DFP\1.3.0\Drivers\STM32L5xx_HAL_Driver\Src\stm32l5xx_hal_tim.c:1435:7
	cmp	r3, #1
	itt	ne
	movne	r0, #1
.Ltmp668:
	@DEBUG_VALUE: HAL_TIM_PWM_Start:htim <- [DW_OP_LLVM_entry_value 1] $r0
	.loc	7 1468 1 is_stmt 1              @ c:/Keil_v5\ARM\PACK\Keil\STM32L5xx_DFP\1.3.0\Drivers\STM32L5xx_HAL_Driver\Src\stm32l5xx_hal_tim.c:1468:1
	bxne	lr
.Ltmp669:
.LBB31_12:
	@DEBUG_VALUE: HAL_TIM_PWM_Start:Channel <- $r1
	@DEBUG_VALUE: HAL_TIM_PWM_Start:htim <- [DW_OP_LLVM_entry_value 1] $r0
	.loc	7 1441 3                        @ c:/Keil_v5\ARM\PACK\Keil\STM32L5xx_DFP\1.3.0\Drivers\STM32L5xx_HAL_Driver\Src\stm32l5xx_hal_tim.c:1441:3
	cmp	r2, #3
	bhi	.LBB31_16
.Ltmp670:
@ %bb.13:
	@DEBUG_VALUE: HAL_TIM_PWM_Start:Channel <- $r1
	@DEBUG_VALUE: HAL_TIM_PWM_Start:htim <- [DW_OP_LLVM_entry_value 1] $r0
	.loc	7 0 3 is_stmt 0                 @ c:/Keil_v5\ARM\PACK\Keil\STM32L5xx_DFP\1.3.0\Drivers\STM32L5xx_HAL_Driver\Src\stm32l5xx_hal_tim.c:0:3
.LCPI31_1:
	tbb	[pc, r2]
.Ltmp671:
@ %bb.14:
.LJTI31_1:
	.byte	(.LBB31_15-(.LCPI31_1+4))/2
	.byte	(.LBB31_17-(.LCPI31_1+4))/2
	.byte	(.LBB31_18-(.LCPI31_1+4))/2
	.byte	(.LBB31_19-(.LCPI31_1+4))/2
	.p2align	1
	.p2align	2
.LBB31_15:
.Ltmp672:
	@DEBUG_VALUE: HAL_TIM_PWM_Start:Channel <- $r1
	@DEBUG_VALUE: HAL_TIM_PWM_Start:htim <- [DW_OP_LLVM_entry_value 1] $r0
	movs	r2, #2
	.loc	7 1441 3                        @ c:/Keil_v5\ARM\PACK\Keil\STM32L5xx_DFP\1.3.0\Drivers\STM32L5xx_HAL_Driver\Src\stm32l5xx_hal_tim.c:1441:3
	strb.w	r2, [r0, #63]
	b	.LBB31_20
.Ltmp673:
	.p2align	2
.LBB31_16:
	@DEBUG_VALUE: HAL_TIM_PWM_Start:Channel <- $r1
	@DEBUG_VALUE: HAL_TIM_PWM_Start:htim <- [DW_OP_LLVM_entry_value 1] $r0
	.loc	7 0 3                           @ c:/Keil_v5\ARM\PACK\Keil\STM32L5xx_DFP\1.3.0\Drivers\STM32L5xx_HAL_Driver\Src\stm32l5xx_hal_tim.c:0:3
	movs	r2, #2
	.loc	7 1441 3                        @ c:/Keil_v5\ARM\PACK\Keil\STM32L5xx_DFP\1.3.0\Drivers\STM32L5xx_HAL_Driver\Src\stm32l5xx_hal_tim.c:1441:3
	strb.w	r2, [r0, #67]
	b	.LBB31_20
.Ltmp674:
	.p2align	2
.LBB31_17:
	@DEBUG_VALUE: HAL_TIM_PWM_Start:Channel <- $r1
	@DEBUG_VALUE: HAL_TIM_PWM_Start:htim <- [DW_OP_LLVM_entry_value 1] $r0
	.loc	7 0 3                           @ c:/Keil_v5\ARM\PACK\Keil\STM32L5xx_DFP\1.3.0\Drivers\STM32L5xx_HAL_Driver\Src\stm32l5xx_hal_tim.c:0:3
	movs	r2, #2
	.loc	7 1441 3                        @ c:/Keil_v5\ARM\PACK\Keil\STM32L5xx_DFP\1.3.0\Drivers\STM32L5xx_HAL_Driver\Src\stm32l5xx_hal_tim.c:1441:3
	strb.w	r2, [r0, #64]
	b	.LBB31_20
.Ltmp675:
	.p2align	2
.LBB31_18:
	@DEBUG_VALUE: HAL_TIM_PWM_Start:Channel <- $r1
	@DEBUG_VALUE: HAL_TIM_PWM_Start:htim <- [DW_OP_LLVM_entry_value 1] $r0
	.loc	7 0 3                           @ c:/Keil_v5\ARM\PACK\Keil\STM32L5xx_DFP\1.3.0\Drivers\STM32L5xx_HAL_Driver\Src\stm32l5xx_hal_tim.c:0:3
	movs	r2, #2
	.loc	7 1441 3                        @ c:/Keil_v5\ARM\PACK\Keil\STM32L5xx_DFP\1.3.0\Drivers\STM32L5xx_HAL_Driver\Src\stm32l5xx_hal_tim.c:1441:3
	strb.w	r2, [r0, #65]
	b	.LBB31_20
.Ltmp676:
	.p2align	2
.LBB31_19:
	@DEBUG_VALUE: HAL_TIM_PWM_Start:Channel <- $r1
	@DEBUG_VALUE: HAL_TIM_PWM_Start:htim <- [DW_OP_LLVM_entry_value 1] $r0
	.loc	7 0 3                           @ c:/Keil_v5\ARM\PACK\Keil\STM32L5xx_DFP\1.3.0\Drivers\STM32L5xx_HAL_Driver\Src\stm32l5xx_hal_tim.c:0:3
	movs	r2, #2
	.loc	7 1441 3                        @ c:/Keil_v5\ARM\PACK\Keil\STM32L5xx_DFP\1.3.0\Drivers\STM32L5xx_HAL_Driver\Src\stm32l5xx_hal_tim.c:1441:3
	strb.w	r2, [r0, #66]
.Ltmp677:
.LBB31_20:
	@DEBUG_VALUE: HAL_TIM_PWM_Start:Channel <- $r1
	@DEBUG_VALUE: HAL_TIM_PWM_Start:htim <- [DW_OP_LLVM_entry_value 1] $r0
	.loc	7 1444 27 is_stmt 1             @ c:/Keil_v5\ARM\PACK\Keil\STM32L5xx_DFP\1.3.0\Drivers\STM32L5xx_HAL_Driver\Src\stm32l5xx_hal_tim.c:1444:27
	ldr	r2, [r0]
.Ltmp678:
	@DEBUG_VALUE: TIM_CCxChannelCmd:ChannelState <- 1
	@DEBUG_VALUE: TIM_CCxChannelCmd:Channel <- $r1
	@DEBUG_VALUE: TIM_CCxChannelCmd:TIMx <- $r2
	.loc	7 7602 35                       @ c:/Keil_v5\ARM\PACK\Keil\STM32L5xx_DFP\1.3.0\Drivers\STM32L5xx_HAL_Driver\Src\stm32l5xx_hal_tim.c:7602:35
	and	r1, r1, #31
.Ltmp679:
	@DEBUG_VALUE: HAL_TIM_PWM_Start:Channel <- [DW_OP_LLVM_entry_value 1] $r1
	.loc	7 0 35 is_stmt 0                @ c:/Keil_v5\ARM\PACK\Keil\STM32L5xx_DFP\1.3.0\Drivers\STM32L5xx_HAL_Driver\Src\stm32l5xx_hal_tim.c:0:35
	movs	r0, #1
	.loc	7 7605 14 is_stmt 1             @ c:/Keil_v5\ARM\PACK\Keil\STM32L5xx_DFP\1.3.0\Drivers\STM32L5xx_HAL_Driver\Src\stm32l5xx_hal_tim.c:7605:14
	ldr	r3, [r2, #32]
	.loc	7 7602 23                       @ c:/Keil_v5\ARM\PACK\Keil\STM32L5xx_DFP\1.3.0\Drivers\STM32L5xx_HAL_Driver\Src\stm32l5xx_hal_tim.c:7602:23
	lsl.w	r1, r0, r1
.Ltmp680:
	@DEBUG_VALUE: TIM_CCxChannelCmd:tmp <- $r1
	.loc	7 7605 14                       @ c:/Keil_v5\ARM\PACK\Keil\STM32L5xx_DFP\1.3.0\Drivers\STM32L5xx_HAL_Driver\Src\stm32l5xx_hal_tim.c:7605:14
	bics	r3, r1
	str	r3, [r2, #32]
	.loc	7 7608 14                       @ c:/Keil_v5\ARM\PACK\Keil\STM32L5xx_DFP\1.3.0\Drivers\STM32L5xx_HAL_Driver\Src\stm32l5xx_hal_tim.c:7608:14
	ldr	r3, [r2, #32]
	orrs	r3, r1
.Ltmp681:
	.loc	7 1446 7                        @ c:/Keil_v5\ARM\PACK\Keil\STM32L5xx_DFP\1.3.0\Drivers\STM32L5xx_HAL_Driver\Src\stm32l5xx_hal_tim.c:1446:7
	sub.w	r1, r2, #1073741824
.Ltmp682:
	sub.w	r1, r1, #76800
	ror.w	r1, r1, #10
	cmp	r1, #6
.Ltmp683:
	.loc	7 7608 14                       @ c:/Keil_v5\ARM\PACK\Keil\STM32L5xx_DFP\1.3.0\Drivers\STM32L5xx_HAL_Driver\Src\stm32l5xx_hal_tim.c:7608:14
	str	r3, [r2, #32]
.Ltmp684:
	@DEBUG_VALUE: TIM_CCxChannelCmd:ChannelState <- 1
	@DEBUG_VALUE: TIM_CCxChannelCmd:TIMx <- $r2
	.loc	7 1446 7                        @ c:/Keil_v5\ARM\PACK\Keil\STM32L5xx_DFP\1.3.0\Drivers\STM32L5xx_HAL_Driver\Src\stm32l5xx_hal_tim.c:1446:7
	bhi	.LBB31_35
.Ltmp685:
@ %bb.21:
	@DEBUG_VALUE: TIM_CCxChannelCmd:TIMx <- $r2
	@DEBUG_VALUE: HAL_TIM_PWM_Start:Channel <- [DW_OP_LLVM_entry_value 1] $r1
	@DEBUG_VALUE: TIM_CCxChannelCmd:ChannelState <- 1
	@DEBUG_VALUE: HAL_TIM_PWM_Start:htim <- [DW_OP_LLVM_entry_value 1] $r0
	.loc	7 0 7 is_stmt 0                 @ c:/Keil_v5\ARM\PACK\Keil\STM32L5xx_DFP\1.3.0\Drivers\STM32L5xx_HAL_Driver\Src\stm32l5xx_hal_tim.c:0:7
	lsls	r0, r1
	tst.w	r0, #101
	beq	.LBB31_35
.Ltmp686:
@ %bb.22:
	@DEBUG_VALUE: HAL_TIM_PWM_Start:Channel <- [DW_OP_LLVM_entry_value 1] $r1
	@DEBUG_VALUE: HAL_TIM_PWM_Start:htim <- [DW_OP_LLVM_entry_value 1] $r0
	.loc	7 1449 5 is_stmt 1              @ c:/Keil_v5\ARM\PACK\Keil\STM32L5xx_DFP\1.3.0\Drivers\STM32L5xx_HAL_Driver\Src\stm32l5xx_hal_tim.c:1449:5
	ldr	r0, [r2, #68]
	movw	r1, #3071
	movt	r1, #16384
	orr	r0, r0, #32768
.Ltmp687:
	.loc	7 1453 7                        @ c:/Keil_v5\ARM\PACK\Keil\STM32L5xx_DFP\1.3.0\Drivers\STM32L5xx_HAL_Driver\Src\stm32l5xx_hal_tim.c:1453:7
	cmp	r2, r1
.Ltmp688:
	.loc	7 1449 5                        @ c:/Keil_v5\ARM\PACK\Keil\STM32L5xx_DFP\1.3.0\Drivers\STM32L5xx_HAL_Driver\Src\stm32l5xx_hal_tim.c:1449:5
	str	r0, [r2, #68]
.Ltmp689:
	.loc	7 1453 7                        @ c:/Keil_v5\ARM\PACK\Keil\STM32L5xx_DFP\1.3.0\Drivers\STM32L5xx_HAL_Driver\Src\stm32l5xx_hal_tim.c:1453:7
	ble	.LBB31_26
.Ltmp690:
@ %bb.23:
	@DEBUG_VALUE: HAL_TIM_PWM_Start:Channel <- [DW_OP_LLVM_entry_value 1] $r1
	@DEBUG_VALUE: HAL_TIM_PWM_Start:htim <- [DW_OP_LLVM_entry_value 1] $r0
	.loc	7 0 7 is_stmt 0                 @ c:/Keil_v5\ARM\PACK\Keil\STM32L5xx_DFP\1.3.0\Drivers\STM32L5xx_HAL_Driver\Src\stm32l5xx_hal_tim.c:0:7
	movw	r0, #13311
	movt	r0, #16385
	.loc	7 1453 7                        @ c:/Keil_v5\ARM\PACK\Keil\STM32L5xx_DFP\1.3.0\Drivers\STM32L5xx_HAL_Driver\Src\stm32l5xx_hal_tim.c:1453:7
	cmp	r2, r0
	bgt	.LBB31_29
.Ltmp691:
@ %bb.24:
	@DEBUG_VALUE: HAL_TIM_PWM_Start:Channel <- [DW_OP_LLVM_entry_value 1] $r1
	@DEBUG_VALUE: HAL_TIM_PWM_Start:htim <- [DW_OP_LLVM_entry_value 1] $r0
	.loc	7 0 7                           @ c:/Keil_v5\ARM\PACK\Keil\STM32L5xx_DFP\1.3.0\Drivers\STM32L5xx_HAL_Driver\Src\stm32l5xx_hal_tim.c:0:7
	movw	r0, #3072
	movt	r0, #16384
	.loc	7 1453 7                        @ c:/Keil_v5\ARM\PACK\Keil\STM32L5xx_DFP\1.3.0\Drivers\STM32L5xx_HAL_Driver\Src\stm32l5xx_hal_tim.c:1453:7
	cmp	r2, r0
	beq	.LBB31_33
.Ltmp692:
@ %bb.25:
	@DEBUG_VALUE: HAL_TIM_PWM_Start:Channel <- [DW_OP_LLVM_entry_value 1] $r1
	@DEBUG_VALUE: HAL_TIM_PWM_Start:htim <- [DW_OP_LLVM_entry_value 1] $r0
	.loc	7 0 7                           @ c:/Keil_v5\ARM\PACK\Keil\STM32L5xx_DFP\1.3.0\Drivers\STM32L5xx_HAL_Driver\Src\stm32l5xx_hal_tim.c:0:7
	movw	r0, #11264
	b	.LBB31_31
.Ltmp693:
	.p2align	2
.LBB31_26:
	@DEBUG_VALUE: HAL_TIM_PWM_Start:Channel <- [DW_OP_LLVM_entry_value 1] $r1
	@DEBUG_VALUE: HAL_TIM_PWM_Start:htim <- [DW_OP_LLVM_entry_value 1] $r0
	.loc	7 1453 7                        @ c:/Keil_v5\ARM\PACK\Keil\STM32L5xx_DFP\1.3.0\Drivers\STM32L5xx_HAL_Driver\Src\stm32l5xx_hal_tim.c:1453:7
	cmp.w	r2, #1073741824
	beq	.LBB31_33
.Ltmp694:
@ %bb.27:
	@DEBUG_VALUE: HAL_TIM_PWM_Start:Channel <- [DW_OP_LLVM_entry_value 1] $r1
	@DEBUG_VALUE: HAL_TIM_PWM_Start:htim <- [DW_OP_LLVM_entry_value 1] $r0
	.loc	7 0 7                           @ c:/Keil_v5\ARM\PACK\Keil\STM32L5xx_DFP\1.3.0\Drivers\STM32L5xx_HAL_Driver\Src\stm32l5xx_hal_tim.c:0:7
	movw	r0, #1024
	movt	r0, #16384
	.loc	7 1453 7                        @ c:/Keil_v5\ARM\PACK\Keil\STM32L5xx_DFP\1.3.0\Drivers\STM32L5xx_HAL_Driver\Src\stm32l5xx_hal_tim.c:1453:7
	cmp	r2, r0
	beq	.LBB31_33
.Ltmp695:
@ %bb.28:
	@DEBUG_VALUE: HAL_TIM_PWM_Start:Channel <- [DW_OP_LLVM_entry_value 1] $r1
	@DEBUG_VALUE: HAL_TIM_PWM_Start:htim <- [DW_OP_LLVM_entry_value 1] $r0
	.loc	7 0 7                           @ c:/Keil_v5\ARM\PACK\Keil\STM32L5xx_DFP\1.3.0\Drivers\STM32L5xx_HAL_Driver\Src\stm32l5xx_hal_tim.c:0:7
	movw	r0, #2048
	movt	r0, #16384
	b	.LBB31_32
.Ltmp696:
	.p2align	2
.LBB31_29:
	@DEBUG_VALUE: HAL_TIM_PWM_Start:Channel <- [DW_OP_LLVM_entry_value 1] $r1
	@DEBUG_VALUE: HAL_TIM_PWM_Start:htim <- [DW_OP_LLVM_entry_value 1] $r0
	movw	r0, #16384
	movt	r0, #16385
	cmp	r2, r0
	beq	.LBB31_33
.Ltmp697:
.LBB31_30:
	@DEBUG_VALUE: HAL_TIM_PWM_Start:Channel <- [DW_OP_LLVM_entry_value 1] $r1
	@DEBUG_VALUE: HAL_TIM_PWM_Start:htim <- [DW_OP_LLVM_entry_value 1] $r0
	movw	r0, #13312
.Ltmp698:
.LBB31_31:
	@DEBUG_VALUE: HAL_TIM_PWM_Start:Channel <- [DW_OP_LLVM_entry_value 1] $r1
	@DEBUG_VALUE: HAL_TIM_PWM_Start:htim <- [DW_OP_LLVM_entry_value 1] $r0
	movt	r0, #16385
.Ltmp699:
.LBB31_32:
	@DEBUG_VALUE: HAL_TIM_PWM_Start:Channel <- [DW_OP_LLVM_entry_value 1] $r1
	@DEBUG_VALUE: HAL_TIM_PWM_Start:htim <- [DW_OP_LLVM_entry_value 1] $r0
	cmp	r2, r0
	bne	.LBB31_45
.Ltmp700:
.LBB31_33:
	@DEBUG_VALUE: HAL_TIM_PWM_Start:Channel <- [DW_OP_LLVM_entry_value 1] $r1
	@DEBUG_VALUE: HAL_TIM_PWM_Start:htim <- [DW_OP_LLVM_entry_value 1] $r0
	.loc	7 1455 31 is_stmt 1             @ c:/Keil_v5\ARM\PACK\Keil\STM32L5xx_DFP\1.3.0\Drivers\STM32L5xx_HAL_Driver\Src\stm32l5xx_hal_tim.c:1455:31
	ldr	r0, [r2, #8]
	movs	r1, #7
	movt	r1, #1
	.loc	7 1455 36 is_stmt 0             @ c:/Keil_v5\ARM\PACK\Keil\STM32L5xx_DFP\1.3.0\Drivers\STM32L5xx_HAL_Driver\Src\stm32l5xx_hal_tim.c:1455:36
	ands	r1, r0
.Ltmp701:
	@DEBUG_VALUE: HAL_TIM_PWM_Start:tmpsmcr <- $r1
	.loc	7 1456 10 is_stmt 1             @ c:/Keil_v5\ARM\PACK\Keil\STM32L5xx_DFP\1.3.0\Drivers\STM32L5xx_HAL_Driver\Src\stm32l5xx_hal_tim.c:1456:10
	cmp	r1, #6
	mov.w	r0, #0
	it	ne
	cmpne.w	r1, #65536
	bne	.LBB31_45
.Ltmp702:
@ %bb.34:
	@DEBUG_VALUE: HAL_TIM_PWM_Start:tmpsmcr <- $r1
	@DEBUG_VALUE: HAL_TIM_PWM_Start:Channel <- [DW_OP_LLVM_entry_value 1] $r1
	@DEBUG_VALUE: HAL_TIM_PWM_Start:htim <- [DW_OP_LLVM_entry_value 1] $r0
	.loc	7 1468 1                        @ c:/Keil_v5\ARM\PACK\Keil\STM32L5xx_DFP\1.3.0\Drivers\STM32L5xx_HAL_Driver\Src\stm32l5xx_hal_tim.c:1468:1
	bx	lr
.Ltmp703:
	.p2align	2
.LBB31_35:
	@DEBUG_VALUE: HAL_TIM_PWM_Start:Channel <- [DW_OP_LLVM_entry_value 1] $r1
	@DEBUG_VALUE: HAL_TIM_PWM_Start:htim <- [DW_OP_LLVM_entry_value 1] $r0
	.loc	7 0 1 is_stmt 0                 @ c:/Keil_v5\ARM\PACK\Keil\STM32L5xx_DFP\1.3.0\Drivers\STM32L5xx_HAL_Driver\Src\stm32l5xx_hal_tim.c:0:1
	movw	r0, #11263
	movt	r0, #16385
	.loc	7 1446 7 is_stmt 1              @ c:/Keil_v5\ARM\PACK\Keil\STM32L5xx_DFP\1.3.0\Drivers\STM32L5xx_HAL_Driver\Src\stm32l5xx_hal_tim.c:1446:7
	cmp	r2, r0
	bgt	.LBB31_39
.Ltmp704:
@ %bb.36:
	@DEBUG_VALUE: HAL_TIM_PWM_Start:Channel <- [DW_OP_LLVM_entry_value 1] $r1
	@DEBUG_VALUE: HAL_TIM_PWM_Start:htim <- [DW_OP_LLVM_entry_value 1] $r0
	.loc	7 0 7 is_stmt 0                 @ c:/Keil_v5\ARM\PACK\Keil\STM32L5xx_DFP\1.3.0\Drivers\STM32L5xx_HAL_Driver\Src\stm32l5xx_hal_tim.c:0:7
	movw	r0, #2047
	movt	r0, #16384
	.loc	7 1446 7                        @ c:/Keil_v5\ARM\PACK\Keil\STM32L5xx_DFP\1.3.0\Drivers\STM32L5xx_HAL_Driver\Src\stm32l5xx_hal_tim.c:1446:7
	cmp	r2, r0
	bgt	.LBB31_41
.Ltmp705:
@ %bb.37:
	@DEBUG_VALUE: HAL_TIM_PWM_Start:Channel <- [DW_OP_LLVM_entry_value 1] $r1
	@DEBUG_VALUE: HAL_TIM_PWM_Start:htim <- [DW_OP_LLVM_entry_value 1] $r0
	cmp.w	r2, #1073741824
	beq	.LBB31_33
.Ltmp706:
@ %bb.38:
	@DEBUG_VALUE: HAL_TIM_PWM_Start:Channel <- [DW_OP_LLVM_entry_value 1] $r1
	@DEBUG_VALUE: HAL_TIM_PWM_Start:htim <- [DW_OP_LLVM_entry_value 1] $r0
	.loc	7 0 7                           @ c:/Keil_v5\ARM\PACK\Keil\STM32L5xx_DFP\1.3.0\Drivers\STM32L5xx_HAL_Driver\Src\stm32l5xx_hal_tim.c:0:7
	movw	r0, #1024
	movt	r0, #16384
	b	.LBB31_32
.Ltmp707:
	.p2align	2
.LBB31_39:
	@DEBUG_VALUE: HAL_TIM_PWM_Start:Channel <- [DW_OP_LLVM_entry_value 1] $r1
	@DEBUG_VALUE: HAL_TIM_PWM_Start:htim <- [DW_OP_LLVM_entry_value 1] $r0
	movw	r0, #16383
	movt	r0, #16385
	.loc	7 1446 7                        @ c:/Keil_v5\ARM\PACK\Keil\STM32L5xx_DFP\1.3.0\Drivers\STM32L5xx_HAL_Driver\Src\stm32l5xx_hal_tim.c:1446:7
	cmp	r2, r0
	bgt	.LBB31_43
.Ltmp708:
@ %bb.40:
	@DEBUG_VALUE: HAL_TIM_PWM_Start:Channel <- [DW_OP_LLVM_entry_value 1] $r1
	@DEBUG_VALUE: HAL_TIM_PWM_Start:htim <- [DW_OP_LLVM_entry_value 1] $r0
	.loc	7 0 7                           @ c:/Keil_v5\ARM\PACK\Keil\STM32L5xx_DFP\1.3.0\Drivers\STM32L5xx_HAL_Driver\Src\stm32l5xx_hal_tim.c:0:7
	movw	r0, #11264
	movt	r0, #16385
	cmp	r2, r0
	bne	.LBB31_30
	b	.LBB31_33
.Ltmp709:
	.p2align	2
.LBB31_41:
	@DEBUG_VALUE: HAL_TIM_PWM_Start:Channel <- [DW_OP_LLVM_entry_value 1] $r1
	@DEBUG_VALUE: HAL_TIM_PWM_Start:htim <- [DW_OP_LLVM_entry_value 1] $r0
	movw	r0, #2048
	movt	r0, #16384
	.loc	7 1446 7                        @ c:/Keil_v5\ARM\PACK\Keil\STM32L5xx_DFP\1.3.0\Drivers\STM32L5xx_HAL_Driver\Src\stm32l5xx_hal_tim.c:1446:7
	cmp	r2, r0
	beq	.LBB31_33
.Ltmp710:
@ %bb.42:
	@DEBUG_VALUE: HAL_TIM_PWM_Start:Channel <- [DW_OP_LLVM_entry_value 1] $r1
	@DEBUG_VALUE: HAL_TIM_PWM_Start:htim <- [DW_OP_LLVM_entry_value 1] $r0
	.loc	7 0 7                           @ c:/Keil_v5\ARM\PACK\Keil\STM32L5xx_DFP\1.3.0\Drivers\STM32L5xx_HAL_Driver\Src\stm32l5xx_hal_tim.c:0:7
	movw	r0, #3072
	movt	r0, #16384
	b	.LBB31_32
.Ltmp711:
	.p2align	2
.LBB31_43:
	@DEBUG_VALUE: HAL_TIM_PWM_Start:Channel <- [DW_OP_LLVM_entry_value 1] $r1
	@DEBUG_VALUE: HAL_TIM_PWM_Start:htim <- [DW_OP_LLVM_entry_value 1] $r0
	movw	r0, #16384
	movt	r0, #16385
	.loc	7 1446 7                        @ c:/Keil_v5\ARM\PACK\Keil\STM32L5xx_DFP\1.3.0\Drivers\STM32L5xx_HAL_Driver\Src\stm32l5xx_hal_tim.c:1446:7
	cmp	r2, r0
	beq	.LBB31_33
.Ltmp712:
@ %bb.44:
	@DEBUG_VALUE: HAL_TIM_PWM_Start:Channel <- [DW_OP_LLVM_entry_value 1] $r1
	@DEBUG_VALUE: HAL_TIM_PWM_Start:htim <- [DW_OP_LLVM_entry_value 1] $r0
	.loc	7 0 7                           @ c:/Keil_v5\ARM\PACK\Keil\STM32L5xx_DFP\1.3.0\Drivers\STM32L5xx_HAL_Driver\Src\stm32l5xx_hal_tim.c:0:7
	movw	r0, #18432
	movt	r0, #16385
	.loc	7 1446 7                        @ c:/Keil_v5\ARM\PACK\Keil\STM32L5xx_DFP\1.3.0\Drivers\STM32L5xx_HAL_Driver\Src\stm32l5xx_hal_tim.c:1446:7
	cmp	r2, r0
.Ltmp713:
	.loc	7 1449 5 is_stmt 1              @ c:/Keil_v5\ARM\PACK\Keil\STM32L5xx_DFP\1.3.0\Drivers\STM32L5xx_HAL_Driver\Src\stm32l5xx_hal_tim.c:1449:5
	ittt	eq
	ldreq	r0, [r2, #68]
	orreq	r0, r0, #32768
	streq	r0, [r2, #68]
.Ltmp714:
.LBB31_45:
	@DEBUG_VALUE: HAL_TIM_PWM_Start:Channel <- [DW_OP_LLVM_entry_value 1] $r1
	@DEBUG_VALUE: HAL_TIM_PWM_Start:htim <- [DW_OP_LLVM_entry_value 1] $r0
	.loc	7 0 0 is_stmt 0                 @ c:/Keil_v5\ARM\PACK\Keil\STM32L5xx_DFP\1.3.0\Drivers\STM32L5xx_HAL_Driver\Src\stm32l5xx_hal_tim.c:0:0
	ldr	r0, [r2]
	orr	r0, r0, #1
	str	r0, [r2]
	movs	r0, #0
.Ltmp715:
	.loc	7 1468 1 is_stmt 1              @ c:/Keil_v5\ARM\PACK\Keil\STM32L5xx_DFP\1.3.0\Drivers\STM32L5xx_HAL_Driver\Src\stm32l5xx_hal_tim.c:1468:1
	bx	lr
.Ltmp716:
.Lfunc_end31:
	.size	HAL_TIM_PWM_Start, .Lfunc_end31-HAL_TIM_PWM_Start
	.cfi_endproc
	.cantunwind
	.fnend
                                        @ -- End function
	.section	.text.HAL_TIM_PWM_Stop,"ax",%progbits
	.hidden	HAL_TIM_PWM_Stop                @ -- Begin function HAL_TIM_PWM_Stop
	.globl	HAL_TIM_PWM_Stop
	.p2align	2
	.type	HAL_TIM_PWM_Stop,%function
	.code	16                              @ @HAL_TIM_PWM_Stop
	.thumb_func
HAL_TIM_PWM_Stop:
.Lfunc_begin32:
	.loc	7 1484 0                        @ c:/Keil_v5\ARM\PACK\Keil\STM32L5xx_DFP\1.3.0\Drivers\STM32L5xx_HAL_Driver\Src\stm32l5xx_hal_tim.c:1484:0
	.fnstart
	.cfi_startproc
@ %bb.0:
	@DEBUG_VALUE: HAL_TIM_PWM_Stop:htim <- $r0
	@DEBUG_VALUE: HAL_TIM_PWM_Stop:htim <- $r0
	@DEBUG_VALUE: HAL_TIM_PWM_Stop:Channel <- $r1
	@DEBUG_VALUE: HAL_TIM_PWM_Stop:Channel <- $r1
	.save	{r4, lr}
	push	{r4, lr}
	.cfi_def_cfa_offset 8
	.cfi_offset lr, -4
	.cfi_offset r4, -8
.Ltmp717:
	.loc	7 1489 27 prologue_end          @ c:/Keil_v5\ARM\PACK\Keil\STM32L5xx_DFP\1.3.0\Drivers\STM32L5xx_HAL_Driver\Src\stm32l5xx_hal_tim.c:1489:27
	ldr	r2, [r0]
.Ltmp718:
	@DEBUG_VALUE: TIM_CCxChannelCmd:ChannelState <- 0
	@DEBUG_VALUE: TIM_CCxChannelCmd:Channel <- $r1
	@DEBUG_VALUE: TIM_CCxChannelCmd:TIMx <- $r2
	.loc	7 7602 35                       @ c:/Keil_v5\ARM\PACK\Keil\STM32L5xx_DFP\1.3.0\Drivers\STM32L5xx_HAL_Driver\Src\stm32l5xx_hal_tim.c:7602:35
	and	lr, r1, #31
	mov.w	r12, #1
	.loc	7 7605 14                       @ c:/Keil_v5\ARM\PACK\Keil\STM32L5xx_DFP\1.3.0\Drivers\STM32L5xx_HAL_Driver\Src\stm32l5xx_hal_tim.c:7605:14
	ldr	r4, [r2, #32]
	.loc	7 7602 23                       @ c:/Keil_v5\ARM\PACK\Keil\STM32L5xx_DFP\1.3.0\Drivers\STM32L5xx_HAL_Driver\Src\stm32l5xx_hal_tim.c:7602:23
	lsl.w	r3, r12, lr
.Ltmp719:
	@DEBUG_VALUE: TIM_CCxChannelCmd:tmp <- $r3
	.loc	7 7605 14                       @ c:/Keil_v5\ARM\PACK\Keil\STM32L5xx_DFP\1.3.0\Drivers\STM32L5xx_HAL_Driver\Src\stm32l5xx_hal_tim.c:7605:14
	bic.w	r3, r4, r3
.Ltmp720:
	str	r3, [r2, #32]
.Ltmp721:
	.loc	7 1491 7                        @ c:/Keil_v5\ARM\PACK\Keil\STM32L5xx_DFP\1.3.0\Drivers\STM32L5xx_HAL_Driver\Src\stm32l5xx_hal_tim.c:1491:7
	sub.w	r3, r2, #1073741824
	sub.w	r3, r3, #76800
.Ltmp722:
