	.text
	.syntax unified
	.eabi_attribute	67, "2.09"	@ Tag_conformance
	.cpu	cortex-m33
	.eabi_attribute	6, 17	@ Tag_CPU_arch
	.eabi_attribute	7, 77	@ Tag_CPU_arch_profile
	.eabi_attribute	8, 0	@ Tag_ARM_ISA_use
	.eabi_attribute	9, 3	@ Tag_THUMB_ISA_use
	.fpu	fpv5-sp-d16
	.eabi_attribute	27, 1	@ Tag_ABI_HardFP_use
	.eabi_attribute	36, 1	@ Tag_FP_HP_extension
	.eabi_attribute	46, 1	@ Tag_DSP_extension
	.eabi_attribute	34, 1	@ Tag_CPU_unaligned_access
	.eabi_attribute	17, 1	@ Tag_ABI_PCS_GOT_use
	.eabi_attribute	20, 2	@ Tag_ABI_FP_denormal
	.eabi_attribute	21, 0	@ Tag_ABI_FP_exceptions
	.eabi_attribute	23, 1	@ Tag_ABI_FP_number_model
	.eabi_attribute	24, 1	@ Tag_ABI_align_needed
	.eabi_attribute	25, 1	@ Tag_ABI_align_preserved
	.eabi_attribute	28, 1	@ Tag_ABI_VFP_args
	.eabi_attribute	38, 1	@ Tag_ABI_FP_16bit_format
	.eabi_attribute	18, 2	@ Tag_ABI_PCS_wchar_t
	.eabi_attribute	26, 1	@ Tag_ABI_enum_size
	.eabi_attribute	14, 0	@ Tag_ABI_PCS_R9_use
	.file	"stm32l5xx_hal_rcc.c"
	.file	1 "c:/Keil_v5\\ARM\\PACK\\Keil\\STM32L5xx_DFP\\1.3.0\\Drivers\\STM32L5xx_HAL_Driver\\Inc" "stm32l5xx_hal_def.h"
	.file	2 "c:/Keil_v5\\ARM\\PACK\\Keil\\STM32L5xx_DFP\\1.3.0\\Drivers\\CMSIS\\Device\\ST\\STM32L5xx\\Include" "stm32l5xx.h"
	.file	3 "c:\\Keil_v5\\ARM\\ARMCLANG\\Bin\\..\\include" "stdint.h"
	.file	4 "c:/Keil_v5\\ARM\\PACK\\Keil\\STM32L5xx_DFP\\1.3.0\\Drivers\\CMSIS\\Device\\ST\\STM32L5xx\\Include" "stm32l552xx.h"
	.section	.text.HAL_RCC_DeInit,"ax",%progbits
	.hidden	HAL_RCC_DeInit                  @ -- Begin function HAL_RCC_DeInit
	.globl	HAL_RCC_DeInit
	.p2align	2
	.type	HAL_RCC_DeInit,%function
	.code	16                              @ @HAL_RCC_DeInit
	.thumb_func
HAL_RCC_DeInit:
.Lfunc_begin0:
	.file	5 "c:/Keil_v5\\ARM\\PACK\\Keil\\STM32L5xx_DFP\\1.3.0\\Drivers\\STM32L5xx_HAL_Driver\\Src" "stm32l5xx_hal_rcc.c"
	.loc	5 242 0                         @ c:/Keil_v5\ARM\PACK\Keil\STM32L5xx_DFP\1.3.0\Drivers\STM32L5xx_HAL_Driver\Src\stm32l5xx_hal_rcc.c:242:0
	.fnstart
	.cfi_sections .debug_frame
	.cfi_startproc
@ %bb.0:
	.save	{r4, r5, r6, lr}
	push	{r4, r5, r6, lr}
	.cfi_def_cfa_offset 16
	.cfi_offset lr, -4
	.cfi_offset r6, -8
	.cfi_offset r5, -12
	.cfi_offset r4, -16
	.pad	#8
	sub	sp, #8
	.cfi_def_cfa_offset 24
	movw	r5, #4096
	movt	r5, #16386
.Ltmp0:
	@DEBUG_VALUE: HAL_RCC_DeInit:pwrclkchanged <- 0
	.loc	5 247 3 prologue_end            @ c:/Keil_v5\ARM\PACK\Keil\STM32L5xx_DFP\1.3.0\Drivers\STM32L5xx_HAL_Driver\Src\stm32l5xx_hal_rcc.c:247:3
	ldr	r0, [r5]
	orr	r0, r0, #1
	str	r0, [r5]
	.loc	5 251 15                        @ c:/Keil_v5\ARM\PACK\Keil\STM32L5xx_DFP\1.3.0\Drivers\STM32L5xx_HAL_Driver\Src\stm32l5xx_hal_rcc.c:251:15
	bl	HAL_GetTick
	mov	r4, r0
.Ltmp1:
	@DEBUG_VALUE: HAL_RCC_DeInit:tickstart <- $r4
	.p2align	2
.LBB0_1:                                @ =>This Inner Loop Header: Depth=1
	@DEBUG_VALUE: HAL_RCC_DeInit:tickstart <- $r4
	@DEBUG_VALUE: HAL_RCC_DeInit:pwrclkchanged <- 0
	.loc	5 254 10                        @ c:/Keil_v5\ARM\PACK\Keil\STM32L5xx_DFP\1.3.0\Drivers\STM32L5xx_HAL_Driver\Src\stm32l5xx_hal_rcc.c:254:10
	ldr	r0, [r5]
	.loc	5 254 3 is_stmt 0               @ c:/Keil_v5\ARM\PACK\Keil\STM32L5xx_DFP\1.3.0\Drivers\STM32L5xx_HAL_Driver\Src\stm32l5xx_hal_rcc.c:254:3
	lsls	r0, r0, #30
	bmi	.LBB0_3
.Ltmp2:
@ %bb.2:                                @   in Loop: Header=BB0_1 Depth=1
	@DEBUG_VALUE: HAL_RCC_DeInit:tickstart <- $r4
	@DEBUG_VALUE: HAL_RCC_DeInit:pwrclkchanged <- 0
	.loc	5 256 10 is_stmt 1              @ c:/Keil_v5\ARM\PACK\Keil\STM32L5xx_DFP\1.3.0\Drivers\STM32L5xx_HAL_Driver\Src\stm32l5xx_hal_rcc.c:256:10
	bl	HAL_GetTick
	.loc	5 256 24 is_stmt 0              @ c:/Keil_v5\ARM\PACK\Keil\STM32L5xx_DFP\1.3.0\Drivers\STM32L5xx_HAL_Driver\Src\stm32l5xx_hal_rcc.c:256:24
	subs	r0, r0, r4
.Ltmp3:
	.loc	5 256 9                         @ c:/Keil_v5\ARM\PACK\Keil\STM32L5xx_DFP\1.3.0\Drivers\STM32L5xx_HAL_Driver\Src\stm32l5xx_hal_rcc.c:256:9
	cmp	r0, #2
	bls	.LBB0_1
	b	.LBB0_10
.Ltmp4:
	.p2align	2
.LBB0_3:
	@DEBUG_VALUE: HAL_RCC_DeInit:tickstart <- $r4
	@DEBUG_VALUE: HAL_RCC_DeInit:pwrclkchanged <- 0
	.loc	5 263 3 is_stmt 1               @ c:/Keil_v5\ARM\PACK\Keil\STM32L5xx_DFP\1.3.0\Drivers\STM32L5xx_HAL_Driver\Src\stm32l5xx_hal_rcc.c:263:3
	ldr	r0, [r5]
	movs	r1, #6
	bfi	r0, r1, #4, #4
	str	r0, [r5]
	movs	r0, #0
	.loc	5 266 3                         @ c:/Keil_v5\ARM\PACK\Keil\STM32L5xx_DFP\1.3.0\Drivers\STM32L5xx_HAL_Driver\Src\stm32l5xx_hal_rcc.c:266:3
	str	r0, [r5, #8]
	.loc	5 270 15                        @ c:/Keil_v5\ARM\PACK\Keil\STM32L5xx_DFP\1.3.0\Drivers\STM32L5xx_HAL_Driver\Src\stm32l5xx_hal_rcc.c:270:15
	bl	HAL_GetTick
	mov	r4, r0
.Ltmp5:
	@DEBUG_VALUE: HAL_RCC_DeInit:tickstart <- $r4
	.loc	5 276 20                        @ c:/Keil_v5\ARM\PACK\Keil\STM32L5xx_DFP\1.3.0\Drivers\STM32L5xx_HAL_Driver\Src\stm32l5xx_hal_rcc.c:276:20
	movw	r0, :lower16:uwTickPrio
	movt	r0, :upper16:uwTickPrio
.Ltmp6:
	.loc	5 273 19                        @ c:/Keil_v5\ARM\PACK\Keil\STM32L5xx_DFP\1.3.0\Drivers\STM32L5xx_HAL_Driver\Src\stm32l5xx_hal_rcc.c:273:19
	movw	r1, :lower16:SystemCoreClock
	movw	r2, #2304
.Ltmp7:
	.loc	5 276 20                        @ c:/Keil_v5\ARM\PACK\Keil\STM32L5xx_DFP\1.3.0\Drivers\STM32L5xx_HAL_Driver\Src\stm32l5xx_hal_rcc.c:276:20
	ldr	r0, [r0]
.Ltmp8:
	.loc	5 273 19                        @ c:/Keil_v5\ARM\PACK\Keil\STM32L5xx_DFP\1.3.0\Drivers\STM32L5xx_HAL_Driver\Src\stm32l5xx_hal_rcc.c:273:19
	movt	r1, :upper16:SystemCoreClock
	movt	r2, #61
	str	r2, [r1]
.Ltmp9:
	.loc	5 276 7                         @ c:/Keil_v5\ARM\PACK\Keil\STM32L5xx_DFP\1.3.0\Drivers\STM32L5xx_HAL_Driver\Src\stm32l5xx_hal_rcc.c:276:7
	bl	HAL_InitTick
.Ltmp10:
	.loc	5 276 7 is_stmt 0               @ c:/Keil_v5\ARM\PACK\Keil\STM32L5xx_DFP\1.3.0\Drivers\STM32L5xx_HAL_Driver\Src\stm32l5xx_hal_rcc.c:276:7
	cmp	r0, #0
	ittt	ne
	movne	r0, #1
	.loc	5 384 1 is_stmt 1               @ c:/Keil_v5\ARM\PACK\Keil\STM32L5xx_DFP\1.3.0\Drivers\STM32L5xx_HAL_Driver\Src\stm32l5xx_hal_rcc.c:384:1
	addne	sp, #8
	popne	{r4, r5, r6, pc}
.Ltmp11:
.LBB0_4:
	@DEBUG_VALUE: HAL_RCC_DeInit:pwrclkchanged <- 0
	.loc	5 0 1 is_stmt 0                 @ c:/Keil_v5\ARM\PACK\Keil\STM32L5xx_DFP\1.3.0\Drivers\STM32L5xx_HAL_Driver\Src\stm32l5xx_hal_rcc.c:0:1
	movw	r6, #5000
.Ltmp12:
	.p2align	2
.LBB0_5:                                @ =>This Inner Loop Header: Depth=1
	@DEBUG_VALUE: HAL_RCC_DeInit:pwrclkchanged <- 0
	.loc	5 282 10 is_stmt 1              @ c:/Keil_v5\ARM\PACK\Keil\STM32L5xx_DFP\1.3.0\Drivers\STM32L5xx_HAL_Driver\Src\stm32l5xx_hal_rcc.c:282:10
	ldr	r0, [r5, #8]
	.loc	5 282 3 is_stmt 0               @ c:/Keil_v5\ARM\PACK\Keil\STM32L5xx_DFP\1.3.0\Drivers\STM32L5xx_HAL_Driver\Src\stm32l5xx_hal_rcc.c:282:3
	tst.w	r0, #12
	beq	.LBB0_7
.Ltmp13:
@ %bb.6:                                @   in Loop: Header=BB0_5 Depth=1
	@DEBUG_VALUE: HAL_RCC_DeInit:pwrclkchanged <- 0
	.loc	5 284 10 is_stmt 1              @ c:/Keil_v5\ARM\PACK\Keil\STM32L5xx_DFP\1.3.0\Drivers\STM32L5xx_HAL_Driver\Src\stm32l5xx_hal_rcc.c:284:10
	bl	HAL_GetTick
	.loc	5 284 24 is_stmt 0              @ c:/Keil_v5\ARM\PACK\Keil\STM32L5xx_DFP\1.3.0\Drivers\STM32L5xx_HAL_Driver\Src\stm32l5xx_hal_rcc.c:284:24
	subs	r0, r0, r4
.Ltmp14:
	.loc	5 284 9                         @ c:/Keil_v5\ARM\PACK\Keil\STM32L5xx_DFP\1.3.0\Drivers\STM32L5xx_HAL_Driver\Src\stm32l5xx_hal_rcc.c:284:9
	cmp	r0, r6
	bls	.LBB0_5
	b	.LBB0_10
.Ltmp15:
	.p2align	2
.LBB0_7:
	@DEBUG_VALUE: HAL_RCC_DeInit:pwrclkchanged <- 0
	.loc	5 291 3 is_stmt 1               @ c:/Keil_v5\ARM\PACK\Keil\STM32L5xx_DFP\1.3.0\Drivers\STM32L5xx_HAL_Driver\Src\stm32l5xx_hal_rcc.c:291:3
	ldr	r0, [r5]
	movw	r1, #62719
	movt	r1, #60150
	ands	r0, r1
	str	r0, [r5]
	.loc	5 295 15                        @ c:/Keil_v5\ARM\PACK\Keil\STM32L5xx_DFP\1.3.0\Drivers\STM32L5xx_HAL_Driver\Src\stm32l5xx_hal_rcc.c:295:15
	bl	HAL_GetTick
	mov	r4, r0
.Ltmp16:
	@DEBUG_VALUE: HAL_RCC_DeInit:tickstart <- $r4
	.p2align	2
.LBB0_8:                                @ =>This Inner Loop Header: Depth=1
	@DEBUG_VALUE: HAL_RCC_DeInit:tickstart <- $r4
	@DEBUG_VALUE: HAL_RCC_DeInit:pwrclkchanged <- 0
	.loc	5 303 10                        @ c:/Keil_v5\ARM\PACK\Keil\STM32L5xx_DFP\1.3.0\Drivers\STM32L5xx_HAL_Driver\Src\stm32l5xx_hal_rcc.c:303:10
	ldr	r0, [r5]
	.loc	5 303 3 is_stmt 0               @ c:/Keil_v5\ARM\PACK\Keil\STM32L5xx_DFP\1.3.0\Drivers\STM32L5xx_HAL_Driver\Src\stm32l5xx_hal_rcc.c:303:3
	tst.w	r0, #167772160
	beq	.LBB0_11
.Ltmp17:
@ %bb.9:                                @   in Loop: Header=BB0_8 Depth=1
	@DEBUG_VALUE: HAL_RCC_DeInit:tickstart <- $r4
	@DEBUG_VALUE: HAL_RCC_DeInit:pwrclkchanged <- 0
	.loc	5 307 10 is_stmt 1              @ c:/Keil_v5\ARM\PACK\Keil\STM32L5xx_DFP\1.3.0\Drivers\STM32L5xx_HAL_Driver\Src\stm32l5xx_hal_rcc.c:307:10
	bl	HAL_GetTick
	.loc	5 307 24 is_stmt 0              @ c:/Keil_v5\ARM\PACK\Keil\STM32L5xx_DFP\1.3.0\Drivers\STM32L5xx_HAL_Driver\Src\stm32l5xx_hal_rcc.c:307:24
	subs	r0, r0, r4
.Ltmp18:
	.loc	5 307 9                         @ c:/Keil_v5\ARM\PACK\Keil\STM32L5xx_DFP\1.3.0\Drivers\STM32L5xx_HAL_Driver\Src\stm32l5xx_hal_rcc.c:307:9
	cmp	r0, #2
	bls	.LBB0_8
.Ltmp19:
.LBB0_10:
	@DEBUG_VALUE: HAL_RCC_DeInit:pwrclkchanged <- 0
	.loc	5 0 9                           @ c:/Keil_v5\ARM\PACK\Keil\STM32L5xx_DFP\1.3.0\Drivers\STM32L5xx_HAL_Driver\Src\stm32l5xx_hal_rcc.c:0:9
	movs	r0, #3
	.loc	5 384 1 is_stmt 1               @ c:/Keil_v5\ARM\PACK\Keil\STM32L5xx_DFP\1.3.0\Drivers\STM32L5xx_HAL_Driver\Src\stm32l5xx_hal_rcc.c:384:1
	add	sp, #8
	pop	{r4, r5, r6, pc}
.Ltmp20:
	.p2align	2
.LBB0_11:
	@DEBUG_VALUE: HAL_RCC_DeInit:tickstart <- $r4
	@DEBUG_VALUE: HAL_RCC_DeInit:pwrclkchanged <- 0
	.loc	5 0 1 is_stmt 0                 @ c:/Keil_v5\ARM\PACK\Keil\STM32L5xx_DFP\1.3.0\Drivers\STM32L5xx_HAL_Driver\Src\stm32l5xx_hal_rcc.c:0:1
	movs	r0, #0
	.loc	5 314 3 is_stmt 1               @ c:/Keil_v5\ARM\PACK\Keil\STM32L5xx_DFP\1.3.0\Drivers\STM32L5xx_HAL_Driver\Src\stm32l5xx_hal_rcc.c:314:3
	str	r0, [r5, #12]
	.loc	5 315 3                         @ c:/Keil_v5\ARM\PACK\Keil\STM32L5xx_DFP\1.3.0\Drivers\STM32L5xx_HAL_Driver\Src\stm32l5xx_hal_rcc.c:315:3
	ldr	r1, [r5, #12]
	orr	r1, r1, #4096
	str	r1, [r5, #12]
	.loc	5 318 3                         @ c:/Keil_v5\ARM\PACK\Keil\STM32L5xx_DFP\1.3.0\Drivers\STM32L5xx_HAL_Driver\Src\stm32l5xx_hal_rcc.c:318:3
	str	r0, [r5, #16]
	.loc	5 319 3                         @ c:/Keil_v5\ARM\PACK\Keil\STM32L5xx_DFP\1.3.0\Drivers\STM32L5xx_HAL_Driver\Src\stm32l5xx_hal_rcc.c:319:3
	ldr	r1, [r5, #16]
	orr	r1, r1, #4096
	str	r1, [r5, #16]
	.loc	5 322 3                         @ c:/Keil_v5\ARM\PACK\Keil\STM32L5xx_DFP\1.3.0\Drivers\STM32L5xx_HAL_Driver\Src\stm32l5xx_hal_rcc.c:322:3
	str	r0, [r5, #20]
	.loc	5 323 3                         @ c:/Keil_v5\ARM\PACK\Keil\STM32L5xx_DFP\1.3.0\Drivers\STM32L5xx_HAL_Driver\Src\stm32l5xx_hal_rcc.c:323:3
	ldr	r0, [r5, #20]
	orr	r0, r0, #4096
	str	r0, [r5, #20]
	.loc	5 326 3                         @ c:/Keil_v5\ARM\PACK\Keil\STM32L5xx_DFP\1.3.0\Drivers\STM32L5xx_HAL_Driver\Src\stm32l5xx_hal_rcc.c:326:3
	ldr.w	r0, [r5, #148]
	bic	r0, r0, #1
	str.w	r0, [r5, #148]
	.loc	5 330 15                        @ c:/Keil_v5\ARM\PACK\Keil\STM32L5xx_DFP\1.3.0\Drivers\STM32L5xx_HAL_Driver\Src\stm32l5xx_hal_rcc.c:330:15
	bl	HAL_GetTick
	mov	r4, r0
.Ltmp21:
	@DEBUG_VALUE: HAL_RCC_DeInit:tickstart <- $r4
	.p2align	2
.LBB0_12:                               @ =>This Inner Loop Header: Depth=1
	@DEBUG_VALUE: HAL_RCC_DeInit:tickstart <- $r4
	@DEBUG_VALUE: HAL_RCC_DeInit:pwrclkchanged <- 0
	.loc	5 333 10                        @ c:/Keil_v5\ARM\PACK\Keil\STM32L5xx_DFP\1.3.0\Drivers\STM32L5xx_HAL_Driver\Src\stm32l5xx_hal_rcc.c:333:10
	ldr.w	r0, [r5, #148]
	.loc	5 333 3 is_stmt 0               @ c:/Keil_v5\ARM\PACK\Keil\STM32L5xx_DFP\1.3.0\Drivers\STM32L5xx_HAL_Driver\Src\stm32l5xx_hal_rcc.c:333:3
	lsls	r0, r0, #30
	bpl	.LBB0_15
.Ltmp22:
@ %bb.13:                               @   in Loop: Header=BB0_12 Depth=1
	@DEBUG_VALUE: HAL_RCC_DeInit:tickstart <- $r4
	@DEBUG_VALUE: HAL_RCC_DeInit:pwrclkchanged <- 0
	.loc	5 335 10 is_stmt 1              @ c:/Keil_v5\ARM\PACK\Keil\STM32L5xx_DFP\1.3.0\Drivers\STM32L5xx_HAL_Driver\Src\stm32l5xx_hal_rcc.c:335:10
	bl	HAL_GetTick
	.loc	5 335 24 is_stmt 0              @ c:/Keil_v5\ARM\PACK\Keil\STM32L5xx_DFP\1.3.0\Drivers\STM32L5xx_HAL_Driver\Src\stm32l5xx_hal_rcc.c:335:24
	subs	r0, r0, r4
.Ltmp23:
	.loc	5 335 9                         @ c:/Keil_v5\ARM\PACK\Keil\STM32L5xx_DFP\1.3.0\Drivers\STM32L5xx_HAL_Driver\Src\stm32l5xx_hal_rcc.c:335:9
	cmp	r0, #7
	mov.w	r0, #3
	bls	.LBB0_12
.Ltmp24:
@ %bb.14:
	@DEBUG_VALUE: HAL_RCC_DeInit:tickstart <- $r4
	@DEBUG_VALUE: HAL_RCC_DeInit:pwrclkchanged <- 0
	.loc	5 384 1 is_stmt 1               @ c:/Keil_v5\ARM\PACK\Keil\STM32L5xx_DFP\1.3.0\Drivers\STM32L5xx_HAL_Driver\Src\stm32l5xx_hal_rcc.c:384:1
	add	sp, #8
	pop	{r4, r5, r6, pc}
.Ltmp25:
	.p2align	2
.LBB0_15:
	@DEBUG_VALUE: HAL_RCC_DeInit:tickstart <- $r4
	@DEBUG_VALUE: HAL_RCC_DeInit:pwrclkchanged <- 0
	.loc	5 342 3                         @ c:/Keil_v5\ARM\PACK\Keil\STM32L5xx_DFP\1.3.0\Drivers\STM32L5xx_HAL_Driver\Src\stm32l5xx_hal_rcc.c:342:3
	ldr.w	r0, [r5, #148]
	bic	r0, r0, #16
	str.w	r0, [r5, #148]
	.loc	5 345 3                         @ c:/Keil_v5\ARM\PACK\Keil\STM32L5xx_DFP\1.3.0\Drivers\STM32L5xx_HAL_Driver\Src\stm32l5xx_hal_rcc.c:345:3
	ldr.w	r0, [r5, #152]
	bic	r0, r0, #1
	str.w	r0, [r5, #152]
	.loc	5 348 3                         @ c:/Keil_v5\ARM\PACK\Keil\STM32L5xx_DFP\1.3.0\Drivers\STM32L5xx_HAL_Driver\Src\stm32l5xx_hal_rcc.c:348:3
	ldr	r0, [r5]
	bic	r0, r0, #262144
	str	r0, [r5]
	movs	r0, #0
	.loc	5 351 3                         @ c:/Keil_v5\ARM\PACK\Keil\STM32L5xx_DFP\1.3.0\Drivers\STM32L5xx_HAL_Driver\Src\stm32l5xx_hal_rcc.c:351:3
	str	r0, [r5, #24]
	mov.w	r0, #-1
	.loc	5 354 3                         @ c:/Keil_v5\ARM\PACK\Keil\STM32L5xx_DFP\1.3.0\Drivers\STM32L5xx_HAL_Driver\Src\stm32l5xx_hal_rcc.c:354:3
	str	r0, [r5, #32]
	.loc	5 357 3                         @ c:/Keil_v5\ARM\PACK\Keil\STM32L5xx_DFP\1.3.0\Drivers\STM32L5xx_HAL_Driver\Src\stm32l5xx_hal_rcc.c:357:3
	ldr.w	r0, [r5, #148]
	orr	r0, r0, #8388608
	str.w	r0, [r5, #148]
.Ltmp26:
	.loc	5 361 7                         @ c:/Keil_v5\ARM\PACK\Keil\STM32L5xx_DFP\1.3.0\Drivers\STM32L5xx_HAL_Driver\Src\stm32l5xx_hal_rcc.c:361:7
	ldr	r0, [r5, #88]
	ands	r0, r0, #268435456
.Ltmp27:
	.loc	5 361 7 is_stmt 0               @ c:/Keil_v5\ARM\PACK\Keil\STM32L5xx_DFP\1.3.0\Drivers\STM32L5xx_HAL_Driver\Src\stm32l5xx_hal_rcc.c:361:7
	bne	.LBB0_17
.Ltmp28:
@ %bb.16:
	@DEBUG_VALUE: HAL_RCC_DeInit:tickstart <- $r4
	@DEBUG_VALUE: HAL_RCC_DeInit:pwrclkchanged <- 0
	.loc	5 363 5 is_stmt 1               @ c:/Keil_v5\ARM\PACK\Keil\STM32L5xx_DFP\1.3.0\Drivers\STM32L5xx_HAL_Driver\Src\stm32l5xx_hal_rcc.c:363:5
	ldr	r1, [r5, #88]
	orr	r1, r1, #268435456
	str	r1, [r5, #88]
	ldr	r1, [r5, #88]
	and	r1, r1, #268435456
	str	r1, [sp, #4]
	ldr	r1, [sp, #4]
.Ltmp29:
	@DEBUG_VALUE: HAL_RCC_DeInit:pwrclkchanged <- 1
.LBB0_17:
	@DEBUG_VALUE: HAL_RCC_DeInit:tickstart <- $r4
	.loc	5 0 5 is_stmt 0                 @ c:/Keil_v5\ARM\PACK\Keil\STM32L5xx_DFP\1.3.0\Drivers\STM32L5xx_HAL_Driver\Src\stm32l5xx_hal_rcc.c:0:5
	movw	r1, #28672
	movt	r1, #16384
.Ltmp30:
	@DEBUG_VALUE: HAL_RCC_DeInit:pwrclkchanged <- undef
	.loc	5 367 7 is_stmt 1               @ c:/Keil_v5\ARM\PACK\Keil\STM32L5xx_DFP\1.3.0\Drivers\STM32L5xx_HAL_Driver\Src\stm32l5xx_hal_rcc.c:367:7
	ldr	r2, [r1]
.Ltmp31:
	.loc	5 367 7 is_stmt 0               @ c:/Keil_v5\ARM\PACK\Keil\STM32L5xx_DFP\1.3.0\Drivers\STM32L5xx_HAL_Driver\Src\stm32l5xx_hal_rcc.c:367:7
	lsls	r2, r2, #23
	bmi	.LBB0_19
.Ltmp32:
@ %bb.18:
	@DEBUG_VALUE: HAL_RCC_DeInit:tickstart <- $r4
	.loc	5 370 5 is_stmt 1               @ c:/Keil_v5\ARM\PACK\Keil\STM32L5xx_DFP\1.3.0\Drivers\STM32L5xx_HAL_Driver\Src\stm32l5xx_hal_rcc.c:370:5
	ldr	r2, [r1]
	orr	r2, r2, #256
	str	r2, [r1]
.Ltmp33:
.LBB0_19:
	@DEBUG_VALUE: HAL_RCC_DeInit:tickstart <- $r4
	.loc	5 374 3                         @ c:/Keil_v5\ARM\PACK\Keil\STM32L5xx_DFP\1.3.0\Drivers\STM32L5xx_HAL_Driver\Src\stm32l5xx_hal_rcc.c:374:3
	ldr.w	r1, [r5, #144]
	.loc	5 378 7                         @ c:/Keil_v5\ARM\PACK\Keil\STM32L5xx_DFP\1.3.0\Drivers\STM32L5xx_HAL_Driver\Src\stm32l5xx_hal_rcc.c:378:7
	cmp	r0, #0
	.loc	5 374 3                         @ c:/Keil_v5\ARM\PACK\Keil\STM32L5xx_DFP\1.3.0\Drivers\STM32L5xx_HAL_Driver\Src\stm32l5xx_hal_rcc.c:374:3
	bic	r1, r1, #1
	str.w	r1, [r5, #144]
	.loc	5 375 3                         @ c:/Keil_v5\ARM\PACK\Keil\STM32L5xx_DFP\1.3.0\Drivers\STM32L5xx_HAL_Driver\Src\stm32l5xx_hal_rcc.c:375:3
	ldr.w	r1, [r5, #144]
	bic	r1, r1, #132
	str.w	r1, [r5, #144]
	ittt	ne
	movne	r0, #0
	.loc	5 384 1                         @ c:/Keil_v5\ARM\PACK\Keil\STM32L5xx_DFP\1.3.0\Drivers\STM32L5xx_HAL_Driver\Src\stm32l5xx_hal_rcc.c:384:1
	addne	sp, #8
	popne	{r4, r5, r6, pc}
.Ltmp34:
.LBB0_20:
	.loc	5 380 5                         @ c:/Keil_v5\ARM\PACK\Keil\STM32L5xx_DFP\1.3.0\Drivers\STM32L5xx_HAL_Driver\Src\stm32l5xx_hal_rcc.c:380:5
	ldr	r0, [r5, #88]
	bic	r0, r0, #268435456
	str	r0, [r5, #88]
	movs	r0, #0
.Ltmp35:
	.loc	5 384 1                         @ c:/Keil_v5\ARM\PACK\Keil\STM32L5xx_DFP\1.3.0\Drivers\STM32L5xx_HAL_Driver\Src\stm32l5xx_hal_rcc.c:384:1
	add	sp, #8
	pop	{r4, r5, r6, pc}
.Ltmp36:
.Lfunc_end0:
	.size	HAL_RCC_DeInit, .Lfunc_end0-HAL_RCC_DeInit
	.cfi_endproc
	.cantunwind
	.fnend
                                        @ -- End function
	.section	.text.HAL_RCC_OscConfig,"ax",%progbits
	.hidden	HAL_RCC_OscConfig               @ -- Begin function HAL_RCC_OscConfig
	.globl	HAL_RCC_OscConfig
	.p2align	2
	.type	HAL_RCC_OscConfig,%function
	.code	16                              @ @HAL_RCC_OscConfig
	.thumb_func
HAL_RCC_OscConfig:
.Lfunc_begin1:
	.loc	5 404 0                         @ c:/Keil_v5\ARM\PACK\Keil\STM32L5xx_DFP\1.3.0\Drivers\STM32L5xx_HAL_Driver\Src\stm32l5xx_hal_rcc.c:404:0
	.fnstart
	.cfi_startproc
@ %bb.0:
	@DEBUG_VALUE: HAL_RCC_OscConfig:RCC_OscInitStruct <- $r0
	@DEBUG_VALUE: HAL_RCC_OscConfig:RCC_OscInitStruct <- $r0
	.save	{r4, r5, r6, r7, r8, lr}
	push.w	{r4, r5, r6, r7, r8, lr}
	.cfi_def_cfa_offset 24
	.cfi_offset lr, -4
	.cfi_offset r8, -8
	.cfi_offset r7, -12
	.cfi_offset r6, -16
	.cfi_offset r5, -20
	.cfi_offset r4, -24
	.pad	#16
	sub	sp, #16
	.cfi_def_cfa_offset 40
.Ltmp37:
	.loc	5 410 7 prologue_end            @ c:/Keil_v5\ARM\PACK\Keil\STM32L5xx_DFP\1.3.0\Drivers\STM32L5xx_HAL_Driver\Src\stm32l5xx_hal_rcc.c:410:7
	cmp	r0, #0
	beq.w	.LBB1_138
.Ltmp38:
@ %bb.1:
	@DEBUG_VALUE: HAL_RCC_OscConfig:RCC_OscInitStruct <- $r0
	.loc	5 0 7 is_stmt 0                 @ c:/Keil_v5\ARM\PACK\Keil\STM32L5xx_DFP\1.3.0\Drivers\STM32L5xx_HAL_Driver\Src\stm32l5xx_hal_rcc.c:0:7
	movw	r6, #4096
	mov	r4, r0
.Ltmp39:
	@DEBUG_VALUE: HAL_RCC_OscConfig:RCC_OscInitStruct <- $r4
	@DEBUG_VALUE: HAL_RCC_OscConfig:RCC_OscInitStruct <- $r4
	movt	r6, #16386
	.loc	5 418 19 is_stmt 1              @ c:/Keil_v5\ARM\PACK\Keil\STM32L5xx_DFP\1.3.0\Drivers\STM32L5xx_HAL_Driver\Src\stm32l5xx_hal_rcc.c:418:19
	ldr	r0, [r6, #8]
	.loc	5 419 16                        @ c:/Keil_v5\ARM\PACK\Keil\STM32L5xx_DFP\1.3.0\Drivers\STM32L5xx_HAL_Driver\Src\stm32l5xx_hal_rcc.c:419:16
	ldr	r1, [r6, #12]
	.loc	5 422 7                         @ c:/Keil_v5\ARM\PACK\Keil\STM32L5xx_DFP\1.3.0\Drivers\STM32L5xx_HAL_Driver\Src\stm32l5xx_hal_rcc.c:422:7
	ldrb	r2, [r4]
	.loc	5 418 19                        @ c:/Keil_v5\ARM\PACK\Keil\STM32L5xx_DFP\1.3.0\Drivers\STM32L5xx_HAL_Driver\Src\stm32l5xx_hal_rcc.c:418:19
	and	r7, r0, #12
.Ltmp40:
	@DEBUG_VALUE: HAL_RCC_OscConfig:sysclk_source <- $r7
	.loc	5 422 7                         @ c:/Keil_v5\ARM\PACK\Keil\STM32L5xx_DFP\1.3.0\Drivers\STM32L5xx_HAL_Driver\Src\stm32l5xx_hal_rcc.c:422:7
	lsls	r0, r2, #27
	.loc	5 419 16                        @ c:/Keil_v5\ARM\PACK\Keil\STM32L5xx_DFP\1.3.0\Drivers\STM32L5xx_HAL_Driver\Src\stm32l5xx_hal_rcc.c:419:16
	and	r8, r1, #3
.Ltmp41:
	@DEBUG_VALUE: HAL_RCC_OscConfig:pll_config <- $r8
	.loc	5 422 7                         @ c:/Keil_v5\ARM\PACK\Keil\STM32L5xx_DFP\1.3.0\Drivers\STM32L5xx_HAL_Driver\Src\stm32l5xx_hal_rcc.c:422:7
	bmi	.LBB1_9
.Ltmp42:
.LBB1_2:
	@DEBUG_VALUE: HAL_RCC_OscConfig:pll_config <- $r8
	@DEBUG_VALUE: HAL_RCC_OscConfig:sysclk_source <- $r7
	@DEBUG_VALUE: HAL_RCC_OscConfig:RCC_OscInitStruct <- $r4
	.loc	5 532 7                         @ c:/Keil_v5\ARM\PACK\Keil\STM32L5xx_DFP\1.3.0\Drivers\STM32L5xx_HAL_Driver\Src\stm32l5xx_hal_rcc.c:532:7
	ldrb	r0, [r4]
	lsls	r0, r0, #31
	beq	.LBB1_25
.Ltmp43:
@ %bb.3:
	@DEBUG_VALUE: HAL_RCC_OscConfig:pll_config <- $r8
	@DEBUG_VALUE: HAL_RCC_OscConfig:sysclk_source <- $r7
	@DEBUG_VALUE: HAL_RCC_OscConfig:RCC_OscInitStruct <- $r4
	.loc	5 538 56                        @ c:/Keil_v5\ARM\PACK\Keil\STM32L5xx_DFP\1.3.0\Drivers\STM32L5xx_HAL_Driver\Src\stm32l5xx_hal_rcc.c:538:56
	cmp	r7, #8
	beq	.LBB1_23
.Ltmp44:
@ %bb.4:
	@DEBUG_VALUE: HAL_RCC_OscConfig:pll_config <- $r8
	@DEBUG_VALUE: HAL_RCC_OscConfig:sysclk_source <- $r7
	@DEBUG_VALUE: HAL_RCC_OscConfig:RCC_OscInitStruct <- $r4
	.loc	5 539 60                        @ c:/Keil_v5\ARM\PACK\Keil\STM32L5xx_DFP\1.3.0\Drivers\STM32L5xx_HAL_Driver\Src\stm32l5xx_hal_rcc.c:539:60
	cmp	r7, #12
	it	eq
	cmpeq.w	r8, #3
	beq	.LBB1_23
.Ltmp45:
@ %bb.5:
	@DEBUG_VALUE: HAL_RCC_OscConfig:pll_config <- $r8
	@DEBUG_VALUE: HAL_RCC_OscConfig:sysclk_source <- $r7
	@DEBUG_VALUE: HAL_RCC_OscConfig:RCC_OscInitStruct <- $r4
	.loc	5 549 7                         @ c:/Keil_v5\ARM\PACK\Keil\STM32L5xx_DFP\1.3.0\Drivers\STM32L5xx_HAL_Driver\Src\stm32l5xx_hal_rcc.c:549:7
	ldr	r0, [r4, #4]
.Ltmp46:
	.loc	5 549 7 is_stmt 0               @ c:/Keil_v5\ARM\PACK\Keil\STM32L5xx_DFP\1.3.0\Drivers\STM32L5xx_HAL_Driver\Src\stm32l5xx_hal_rcc.c:549:7
	cmp.w	r0, #65536
	beq	.LBB1_8
.Ltmp47:
@ %bb.6:
	@DEBUG_VALUE: HAL_RCC_OscConfig:pll_config <- $r8
	@DEBUG_VALUE: HAL_RCC_OscConfig:sysclk_source <- $r7
	@DEBUG_VALUE: HAL_RCC_OscConfig:RCC_OscInitStruct <- $r4
	cmp.w	r0, #327680
	bne.w	.LBB1_101
.Ltmp48:
@ %bb.7:
	@DEBUG_VALUE: HAL_RCC_OscConfig:pll_config <- $r8
	@DEBUG_VALUE: HAL_RCC_OscConfig:sysclk_source <- $r7
	@DEBUG_VALUE: HAL_RCC_OscConfig:RCC_OscInitStruct <- $r4
	.loc	5 549 7                         @ c:/Keil_v5\ARM\PACK\Keil\STM32L5xx_DFP\1.3.0\Drivers\STM32L5xx_HAL_Driver\Src\stm32l5xx_hal_rcc.c:549:7
	ldr	r0, [r6]
	orr	r0, r0, #262144
	str	r0, [r6]
.Ltmp49:
.LBB1_8:
	@DEBUG_VALUE: HAL_RCC_OscConfig:pll_config <- $r8
	@DEBUG_VALUE: HAL_RCC_OscConfig:sysclk_source <- $r7
	@DEBUG_VALUE: HAL_RCC_OscConfig:RCC_OscInitStruct <- $r4
	.loc	5 0 0                           @ c:/Keil_v5\ARM\PACK\Keil\STM32L5xx_DFP\1.3.0\Drivers\STM32L5xx_HAL_Driver\Src\stm32l5xx_hal_rcc.c:0:0
	ldr	r0, [r6]
	orr	r0, r0, #65536
	str	r0, [r6]
	b	.LBB1_102
.Ltmp50:
	.p2align	2
.LBB1_9:
	@DEBUG_VALUE: HAL_RCC_OscConfig:pll_config <- $r8
	@DEBUG_VALUE: HAL_RCC_OscConfig:sysclk_source <- $r7
	@DEBUG_VALUE: HAL_RCC_OscConfig:RCC_OscInitStruct <- $r4
	.loc	5 430 56 is_stmt 1              @ c:/Keil_v5\ARM\PACK\Keil\STM32L5xx_DFP\1.3.0\Drivers\STM32L5xx_HAL_Driver\Src\stm32l5xx_hal_rcc.c:430:56
	cbz	r7, .LBB1_16
.Ltmp51:
@ %bb.10:
	@DEBUG_VALUE: HAL_RCC_OscConfig:pll_config <- $r8
	@DEBUG_VALUE: HAL_RCC_OscConfig:sysclk_source <- $r7
	@DEBUG_VALUE: HAL_RCC_OscConfig:RCC_OscInitStruct <- $r4
	.loc	5 431 60                        @ c:/Keil_v5\ARM\PACK\Keil\STM32L5xx_DFP\1.3.0\Drivers\STM32L5xx_HAL_Driver\Src\stm32l5xx_hal_rcc.c:431:60
	cmp	r7, #12
	it	eq
	cmpeq.w	r8, #1
	beq	.LBB1_16
.Ltmp52:
@ %bb.11:
	@DEBUG_VALUE: HAL_RCC_OscConfig:pll_config <- $r8
	@DEBUG_VALUE: HAL_RCC_OscConfig:sysclk_source <- $r7
	@DEBUG_VALUE: HAL_RCC_OscConfig:RCC_OscInitStruct <- $r4
	.loc	5 490 30                        @ c:/Keil_v5\ARM\PACK\Keil\STM32L5xx_DFP\1.3.0\Drivers\STM32L5xx_HAL_Driver\Src\stm32l5xx_hal_rcc.c:490:30
	ldr	r1, [r4, #28]
	.loc	5 0 0 is_stmt 0                 @ c:/Keil_v5\ARM\PACK\Keil\STM32L5xx_DFP\1.3.0\Drivers\STM32L5xx_HAL_Driver\Src\stm32l5xx_hal_rcc.c:0:0
	ldr	r0, [r6]
.Ltmp53:
	.loc	5 490 11                        @ c:/Keil_v5\ARM\PACK\Keil\STM32L5xx_DFP\1.3.0\Drivers\STM32L5xx_HAL_Driver\Src\stm32l5xx_hal_rcc.c:490:11
	cmp	r1, #0
	beq.w	.LBB1_71
.Ltmp54:
@ %bb.12:
	@DEBUG_VALUE: HAL_RCC_OscConfig:pll_config <- $r8
	@DEBUG_VALUE: HAL_RCC_OscConfig:sysclk_source <- $r7
	@DEBUG_VALUE: HAL_RCC_OscConfig:RCC_OscInitStruct <- $r4
	.loc	5 493 9 is_stmt 1               @ c:/Keil_v5\ARM\PACK\Keil\STM32L5xx_DFP\1.3.0\Drivers\STM32L5xx_HAL_Driver\Src\stm32l5xx_hal_rcc.c:493:9
	orr	r0, r0, #1
	str	r0, [r6]
	.loc	5 496 21                        @ c:/Keil_v5\ARM\PACK\Keil\STM32L5xx_DFP\1.3.0\Drivers\STM32L5xx_HAL_Driver\Src\stm32l5xx_hal_rcc.c:496:21
	bl	HAL_GetTick
	mov	r5, r0
.Ltmp55:
	@DEBUG_VALUE: HAL_RCC_OscConfig:tickstart <- $r5
	.p2align	2
.LBB1_13:                               @ =>This Inner Loop Header: Depth=1
	@DEBUG_VALUE: HAL_RCC_OscConfig:pll_config <- $r8
	@DEBUG_VALUE: HAL_RCC_OscConfig:sysclk_source <- $r7
	@DEBUG_VALUE: HAL_RCC_OscConfig:tickstart <- $r5
	@DEBUG_VALUE: HAL_RCC_OscConfig:RCC_OscInitStruct <- $r4
	.loc	5 499 16                        @ c:/Keil_v5\ARM\PACK\Keil\STM32L5xx_DFP\1.3.0\Drivers\STM32L5xx_HAL_Driver\Src\stm32l5xx_hal_rcc.c:499:16
	ldr	r0, [r6]
	.loc	5 499 9 is_stmt 0               @ c:/Keil_v5\ARM\PACK\Keil\STM32L5xx_DFP\1.3.0\Drivers\STM32L5xx_HAL_Driver\Src\stm32l5xx_hal_rcc.c:499:9
	lsls	r0, r0, #30
	bmi.w	.LBB1_85
.Ltmp56:
@ %bb.14:                               @   in Loop: Header=BB1_13 Depth=1
	@DEBUG_VALUE: HAL_RCC_OscConfig:pll_config <- $r8
	@DEBUG_VALUE: HAL_RCC_OscConfig:sysclk_source <- $r7
	@DEBUG_VALUE: HAL_RCC_OscConfig:tickstart <- $r5
	@DEBUG_VALUE: HAL_RCC_OscConfig:RCC_OscInitStruct <- $r4
	.loc	5 501 16 is_stmt 1              @ c:/Keil_v5\ARM\PACK\Keil\STM32L5xx_DFP\1.3.0\Drivers\STM32L5xx_HAL_Driver\Src\stm32l5xx_hal_rcc.c:501:16
	bl	HAL_GetTick
	.loc	5 501 30 is_stmt 0              @ c:/Keil_v5\ARM\PACK\Keil\STM32L5xx_DFP\1.3.0\Drivers\STM32L5xx_HAL_Driver\Src\stm32l5xx_hal_rcc.c:501:30
	subs	r0, r0, r5
.Ltmp57:
	.loc	5 501 15                        @ c:/Keil_v5\ARM\PACK\Keil\STM32L5xx_DFP\1.3.0\Drivers\STM32L5xx_HAL_Driver\Src\stm32l5xx_hal_rcc.c:501:15
	cmp	r0, #2
	mov.w	r0, #3
	bls	.LBB1_13
.Ltmp58:
.LBB1_15:
	.loc	5 986 1 is_stmt 1               @ c:/Keil_v5\ARM\PACK\Keil\STM32L5xx_DFP\1.3.0\Drivers\STM32L5xx_HAL_Driver\Src\stm32l5xx_hal_rcc.c:986:1
	add	sp, #16
	pop.w	{r4, r5, r6, r7, r8, pc}
	.p2align	2
.LBB1_16:
.Ltmp59:
	@DEBUG_VALUE: HAL_RCC_OscConfig:pll_config <- $r8
	@DEBUG_VALUE: HAL_RCC_OscConfig:sysclk_source <- $r7
	@DEBUG_VALUE: HAL_RCC_OscConfig:RCC_OscInitStruct <- $r4
	.loc	5 433 12                        @ c:/Keil_v5\ARM\PACK\Keil\STM32L5xx_DFP\1.3.0\Drivers\STM32L5xx_HAL_Driver\Src\stm32l5xx_hal_rcc.c:433:12
	ldr	r0, [r6]
	.loc	5 433 52 is_stmt 0              @ c:/Keil_v5\ARM\PACK\Keil\STM32L5xx_DFP\1.3.0\Drivers\STM32L5xx_HAL_Driver\Src\stm32l5xx_hal_rcc.c:433:52
	lsls	r0, r0, #30
	bpl	.LBB1_18
.Ltmp60:
@ %bb.17:
	@DEBUG_VALUE: HAL_RCC_OscConfig:pll_config <- $r8
	@DEBUG_VALUE: HAL_RCC_OscConfig:sysclk_source <- $r7
	@DEBUG_VALUE: HAL_RCC_OscConfig:RCC_OscInitStruct <- $r4
	.loc	5 433 75                        @ c:/Keil_v5\ARM\PACK\Keil\STM32L5xx_DFP\1.3.0\Drivers\STM32L5xx_HAL_Driver\Src\stm32l5xx_hal_rcc.c:433:75
	ldr	r0, [r4, #28]
.Ltmp61:
	.loc	5 433 11                        @ c:/Keil_v5\ARM\PACK\Keil\STM32L5xx_DFP\1.3.0\Drivers\STM32L5xx_HAL_Driver\Src\stm32l5xx_hal_rcc.c:433:11
	cmp	r0, #0
	beq.w	.LBB1_138
.Ltmp62:
.LBB1_18:
	@DEBUG_VALUE: HAL_RCC_OscConfig:pll_config <- $r8
	@DEBUG_VALUE: HAL_RCC_OscConfig:sysclk_source <- $r7
	@DEBUG_VALUE: HAL_RCC_OscConfig:RCC_OscInitStruct <- $r4
	.loc	5 444 32 is_stmt 1              @ c:/Keil_v5\ARM\PACK\Keil\STM32L5xx_DFP\1.3.0\Drivers\STM32L5xx_HAL_Driver\Src\stm32l5xx_hal_rcc.c:444:32
	ldr	r5, [r4, #36]
	.loc	5 444 48 is_stmt 0              @ c:/Keil_v5\ARM\PACK\Keil\STM32L5xx_DFP\1.3.0\Drivers\STM32L5xx_HAL_Driver\Src\stm32l5xx_hal_rcc.c:444:48
	ldr	r0, [r6]
	lsls	r0, r0, #28
	itte	pl
	ldrpl.w	r0, [r6, #148]
	lsrpl	r0, r0, #4
	ldrmi	r0, [r6]
	and	r0, r0, #240
.Ltmp63:
	.loc	5 444 13                        @ c:/Keil_v5\ARM\PACK\Keil\STM32L5xx_DFP\1.3.0\Drivers\STM32L5xx_HAL_Driver\Src\stm32l5xx_hal_rcc.c:444:13
	cmp	r5, r0
	bls.w	.LBB1_61
.Ltmp64:
@ %bb.19:
	@DEBUG_VALUE: HAL_RCC_OscConfig:pll_config <- $r8
	@DEBUG_VALUE: HAL_RCC_OscConfig:sysclk_source <- $r7
	@DEBUG_VALUE: HAL_RCC_OscConfig:RCC_OscInitStruct <- $r4
	@DEBUG_VALUE: RCC_SetFlashLatencyFromMSIRange:msirange <- $r5
	@DEBUG_VALUE: RCC_SetFlashLatencyFromMSIRange:latency <- 0
	.loc	5 1790 7 is_stmt 1              @ c:/Keil_v5\ARM\PACK\Keil\STM32L5xx_DFP\1.3.0\Drivers\STM32L5xx_HAL_Driver\Src\stm32l5xx_hal_rcc.c:1790:7
	ldr	r0, [r6, #88]
.Ltmp65:
	.loc	5 1790 7 is_stmt 0              @ c:/Keil_v5\ARM\PACK\Keil\STM32L5xx_DFP\1.3.0\Drivers\STM32L5xx_HAL_Driver\Src\stm32l5xx_hal_rcc.c:1790:7
	lsls	r0, r0, #3
	bmi.w	.LBB1_86
.Ltmp66:
@ %bb.20:
	@DEBUG_VALUE: HAL_RCC_OscConfig:pll_config <- $r8
	@DEBUG_VALUE: HAL_RCC_OscConfig:sysclk_source <- $r7
	@DEBUG_VALUE: RCC_SetFlashLatencyFromMSIRange:msirange <- $r5
	@DEBUG_VALUE: HAL_RCC_OscConfig:RCC_OscInitStruct <- $r4
	@DEBUG_VALUE: RCC_SetFlashLatencyFromMSIRange:latency <- 0
	.loc	5 1796 5 is_stmt 1              @ c:/Keil_v5\ARM\PACK\Keil\STM32L5xx_DFP\1.3.0\Drivers\STM32L5xx_HAL_Driver\Src\stm32l5xx_hal_rcc.c:1796:5
	ldr	r0, [r6, #88]
	orr	r0, r0, #268435456
	str	r0, [r6, #88]
	ldr	r0, [r6, #88]
	and	r0, r0, #268435456
	str	r0, [sp, #8]
	ldr	r0, [sp, #8]
.Ltmp67:
	.loc	5 1797 11                       @ c:/Keil_v5\ARM\PACK\Keil\STM32L5xx_DFP\1.3.0\Drivers\STM32L5xx_HAL_Driver\Src\stm32l5xx_hal_rcc.c:1797:11
	bl	HAL_PWREx_GetVoltageRange
	.loc	5 1798 5                        @ c:/Keil_v5\ARM\PACK\Keil\STM32L5xx_DFP\1.3.0\Drivers\STM32L5xx_HAL_Driver\Src\stm32l5xx_hal_rcc.c:1798:5
	ldr	r1, [r6, #88]
.Ltmp68:
	@DEBUG_VALUE: RCC_SetFlashLatencyFromMSIRange:vos <- $r0
	bic	r1, r1, #268435456
	str	r1, [r6, #88]
	@DEBUG_VALUE: RCC_SetFlashLatencyFromMSIRange:vos <- $r0
	mvn	r1, #512
.Ltmp69:
	.loc	5 1801 45                       @ c:/Keil_v5\ARM\PACK\Keil\STM32L5xx_DFP\1.3.0\Drivers\STM32L5xx_HAL_Driver\Src\stm32l5xx_hal_rcc.c:1801:45
	tst	r0, r1
	beq.w	.LBB1_87
.Ltmp70:
.LBB1_21:
	@DEBUG_VALUE: HAL_RCC_OscConfig:pll_config <- $r8
	@DEBUG_VALUE: HAL_RCC_OscConfig:sysclk_source <- $r7
	@DEBUG_VALUE: RCC_SetFlashLatencyFromMSIRange:msirange <- $r5
	@DEBUG_VALUE: HAL_RCC_OscConfig:RCC_OscInitStruct <- $r4
	@DEBUG_VALUE: RCC_SetFlashLatencyFromMSIRange:vos <- $r0
	@DEBUG_VALUE: RCC_SetFlashLatencyFromMSIRange:latency <- 0
	.loc	5 1821 9                        @ c:/Keil_v5\ARM\PACK\Keil\STM32L5xx_DFP\1.3.0\Drivers\STM32L5xx_HAL_Driver\Src\stm32l5xx_hal_rcc.c:1821:9
	cmp	r5, #128
	bls.w	.LBB1_100
.Ltmp71:
@ %bb.22:
	@DEBUG_VALUE: HAL_RCC_OscConfig:pll_config <- $r8
	@DEBUG_VALUE: HAL_RCC_OscConfig:sysclk_source <- $r7
	@DEBUG_VALUE: RCC_SetFlashLatencyFromMSIRange:msirange <- $r5
	@DEBUG_VALUE: HAL_RCC_OscConfig:RCC_OscInitStruct <- $r4
	@DEBUG_VALUE: RCC_SetFlashLatencyFromMSIRange:vos <- $r0
	@DEBUG_VALUE: RCC_SetFlashLatencyFromMSIRange:latency <- 0
	.loc	5 0 9 is_stmt 0                 @ c:/Keil_v5\ARM\PACK\Keil\STM32L5xx_DFP\1.3.0\Drivers\STM32L5xx_HAL_Driver\Src\stm32l5xx_hal_rcc.c:0:9
	movs	r0, #3
	b	.LBB1_118
.Ltmp72:
	.p2align	2
.LBB1_23:
	@DEBUG_VALUE: HAL_RCC_OscConfig:pll_config <- $r8
	@DEBUG_VALUE: HAL_RCC_OscConfig:sysclk_source <- $r7
	@DEBUG_VALUE: HAL_RCC_OscConfig:RCC_OscInitStruct <- $r4
	.loc	5 541 12 is_stmt 1              @ c:/Keil_v5\ARM\PACK\Keil\STM32L5xx_DFP\1.3.0\Drivers\STM32L5xx_HAL_Driver\Src\stm32l5xx_hal_rcc.c:541:12
	ldr	r0, [r6]
	.loc	5 541 52 is_stmt 0              @ c:/Keil_v5\ARM\PACK\Keil\STM32L5xx_DFP\1.3.0\Drivers\STM32L5xx_HAL_Driver\Src\stm32l5xx_hal_rcc.c:541:52
	lsls	r0, r0, #14
	bpl	.LBB1_25
.Ltmp73:
@ %bb.24:
	@DEBUG_VALUE: HAL_RCC_OscConfig:pll_config <- $r8
	@DEBUG_VALUE: HAL_RCC_OscConfig:sysclk_source <- $r7
	@DEBUG_VALUE: HAL_RCC_OscConfig:RCC_OscInitStruct <- $r4
	.loc	5 541 75                        @ c:/Keil_v5\ARM\PACK\Keil\STM32L5xx_DFP\1.3.0\Drivers\STM32L5xx_HAL_Driver\Src\stm32l5xx_hal_rcc.c:541:75
	ldr	r0, [r4, #4]
.Ltmp74:
	.loc	5 541 11                        @ c:/Keil_v5\ARM\PACK\Keil\STM32L5xx_DFP\1.3.0\Drivers\STM32L5xx_HAL_Driver\Src\stm32l5xx_hal_rcc.c:541:11
	cmp	r0, #0
	beq.w	.LBB1_138
.Ltmp75:
.LBB1_25:
	@DEBUG_VALUE: HAL_RCC_OscConfig:pll_config <- $r8
	@DEBUG_VALUE: HAL_RCC_OscConfig:sysclk_source <- $r7
	@DEBUG_VALUE: HAL_RCC_OscConfig:RCC_OscInitStruct <- $r4
	.loc	5 583 7 is_stmt 1               @ c:/Keil_v5\ARM\PACK\Keil\STM32L5xx_DFP\1.3.0\Drivers\STM32L5xx_HAL_Driver\Src\stm32l5xx_hal_rcc.c:583:7
	ldrb	r0, [r4]
	lsls	r0, r0, #30
	bpl	.LBB1_35
.Ltmp76:
@ %bb.26:
	@DEBUG_VALUE: HAL_RCC_OscConfig:pll_config <- $r8
	@DEBUG_VALUE: HAL_RCC_OscConfig:sysclk_source <- $r7
	@DEBUG_VALUE: HAL_RCC_OscConfig:RCC_OscInitStruct <- $r4
	.loc	5 590 56                        @ c:/Keil_v5\ARM\PACK\Keil\STM32L5xx_DFP\1.3.0\Drivers\STM32L5xx_HAL_Driver\Src\stm32l5xx_hal_rcc.c:590:56
	cmp	r7, #4
	beq	.LBB1_32
.Ltmp77:
@ %bb.27:
	@DEBUG_VALUE: HAL_RCC_OscConfig:pll_config <- $r8
	@DEBUG_VALUE: HAL_RCC_OscConfig:sysclk_source <- $r7
	@DEBUG_VALUE: HAL_RCC_OscConfig:RCC_OscInitStruct <- $r4
	.loc	5 591 60                        @ c:/Keil_v5\ARM\PACK\Keil\STM32L5xx_DFP\1.3.0\Drivers\STM32L5xx_HAL_Driver\Src\stm32l5xx_hal_rcc.c:591:60
	cmp	r7, #12
	it	eq
	cmpeq.w	r8, #2
	beq	.LBB1_32
.Ltmp78:
@ %bb.28:
	@DEBUG_VALUE: HAL_RCC_OscConfig:pll_config <- $r8
	@DEBUG_VALUE: HAL_RCC_OscConfig:sysclk_source <- $r7
	@DEBUG_VALUE: HAL_RCC_OscConfig:RCC_OscInitStruct <- $r4
	.loc	5 608 30                        @ c:/Keil_v5\ARM\PACK\Keil\STM32L5xx_DFP\1.3.0\Drivers\STM32L5xx_HAL_Driver\Src\stm32l5xx_hal_rcc.c:608:30
	ldr	r1, [r4, #12]
	.loc	5 0 0 is_stmt 0                 @ c:/Keil_v5\ARM\PACK\Keil\STM32L5xx_DFP\1.3.0\Drivers\STM32L5xx_HAL_Driver\Src\stm32l5xx_hal_rcc.c:0:0
	ldr	r0, [r6]
.Ltmp79:
	.loc	5 608 11                        @ c:/Keil_v5\ARM\PACK\Keil\STM32L5xx_DFP\1.3.0\Drivers\STM32L5xx_HAL_Driver\Src\stm32l5xx_hal_rcc.c:608:11
	cmp	r1, #0
	beq.w	.LBB1_105
.Ltmp80:
@ %bb.29:
	@DEBUG_VALUE: HAL_RCC_OscConfig:pll_config <- $r8
	@DEBUG_VALUE: HAL_RCC_OscConfig:sysclk_source <- $r7
	@DEBUG_VALUE: HAL_RCC_OscConfig:RCC_OscInitStruct <- $r4
	.loc	5 611 9 is_stmt 1               @ c:/Keil_v5\ARM\PACK\Keil\STM32L5xx_DFP\1.3.0\Drivers\STM32L5xx_HAL_Driver\Src\stm32l5xx_hal_rcc.c:611:9
	orr	r0, r0, #256
	str	r0, [r6]
	.loc	5 614 21                        @ c:/Keil_v5\ARM\PACK\Keil\STM32L5xx_DFP\1.3.0\Drivers\STM32L5xx_HAL_Driver\Src\stm32l5xx_hal_rcc.c:614:21
	bl	HAL_GetTick
	mov	r5, r0
.Ltmp81:
	@DEBUG_VALUE: HAL_RCC_OscConfig:tickstart <- $r5
	.p2align	2
.LBB1_30:                               @ =>This Inner Loop Header: Depth=1
	@DEBUG_VALUE: HAL_RCC_OscConfig:pll_config <- $r8
	@DEBUG_VALUE: HAL_RCC_OscConfig:sysclk_source <- $r7
	@DEBUG_VALUE: HAL_RCC_OscConfig:tickstart <- $r5
	@DEBUG_VALUE: HAL_RCC_OscConfig:RCC_OscInitStruct <- $r4
	.loc	5 617 16                        @ c:/Keil_v5\ARM\PACK\Keil\STM32L5xx_DFP\1.3.0\Drivers\STM32L5xx_HAL_Driver\Src\stm32l5xx_hal_rcc.c:617:16
	ldr	r0, [r6]
	.loc	5 617 9 is_stmt 0               @ c:/Keil_v5\ARM\PACK\Keil\STM32L5xx_DFP\1.3.0\Drivers\STM32L5xx_HAL_Driver\Src\stm32l5xx_hal_rcc.c:617:9
	lsls	r0, r0, #21
	bmi	.LBB1_34
.Ltmp82:
@ %bb.31:                               @   in Loop: Header=BB1_30 Depth=1
	@DEBUG_VALUE: HAL_RCC_OscConfig:pll_config <- $r8
	@DEBUG_VALUE: HAL_RCC_OscConfig:sysclk_source <- $r7
	@DEBUG_VALUE: HAL_RCC_OscConfig:tickstart <- $r5
	@DEBUG_VALUE: HAL_RCC_OscConfig:RCC_OscInitStruct <- $r4
	.loc	5 619 16 is_stmt 1              @ c:/Keil_v5\ARM\PACK\Keil\STM32L5xx_DFP\1.3.0\Drivers\STM32L5xx_HAL_Driver\Src\stm32l5xx_hal_rcc.c:619:16
	bl	HAL_GetTick
	.loc	5 619 30 is_stmt 0              @ c:/Keil_v5\ARM\PACK\Keil\STM32L5xx_DFP\1.3.0\Drivers\STM32L5xx_HAL_Driver\Src\stm32l5xx_hal_rcc.c:619:30
	subs	r0, r0, r5
.Ltmp83:
	.loc	5 619 15                        @ c:/Keil_v5\ARM\PACK\Keil\STM32L5xx_DFP\1.3.0\Drivers\STM32L5xx_HAL_Driver\Src\stm32l5xx_hal_rcc.c:619:15
	cmp	r0, #2
	mov.w	r0, #3
	bls	.LBB1_30
	b	.LBB1_15
.Ltmp84:
	.p2align	2
.LBB1_32:
	@DEBUG_VALUE: HAL_RCC_OscConfig:pll_config <- $r8
	@DEBUG_VALUE: HAL_RCC_OscConfig:sysclk_source <- $r7
	@DEBUG_VALUE: HAL_RCC_OscConfig:RCC_OscInitStruct <- $r4
	.loc	5 594 12 is_stmt 1              @ c:/Keil_v5\ARM\PACK\Keil\STM32L5xx_DFP\1.3.0\Drivers\STM32L5xx_HAL_Driver\Src\stm32l5xx_hal_rcc.c:594:12
	ldr	r0, [r6]
	.loc	5 594 52 is_stmt 0              @ c:/Keil_v5\ARM\PACK\Keil\STM32L5xx_DFP\1.3.0\Drivers\STM32L5xx_HAL_Driver\Src\stm32l5xx_hal_rcc.c:594:52
	lsls	r0, r0, #21
	bpl	.LBB1_34
.Ltmp85:
@ %bb.33:
	@DEBUG_VALUE: HAL_RCC_OscConfig:pll_config <- $r8
	@DEBUG_VALUE: HAL_RCC_OscConfig:sysclk_source <- $r7
	@DEBUG_VALUE: HAL_RCC_OscConfig:RCC_OscInitStruct <- $r4
	.loc	5 594 75                        @ c:/Keil_v5\ARM\PACK\Keil\STM32L5xx_DFP\1.3.0\Drivers\STM32L5xx_HAL_Driver\Src\stm32l5xx_hal_rcc.c:594:75
	ldr	r0, [r4, #12]
.Ltmp86:
	.loc	5 594 11                        @ c:/Keil_v5\ARM\PACK\Keil\STM32L5xx_DFP\1.3.0\Drivers\STM32L5xx_HAL_Driver\Src\stm32l5xx_hal_rcc.c:594:11
	cmp	r0, #0
	beq.w	.LBB1_138
.Ltmp87:
.LBB1_34:
	@DEBUG_VALUE: HAL_RCC_OscConfig:pll_config <- $r8
	@DEBUG_VALUE: HAL_RCC_OscConfig:sysclk_source <- $r7
	@DEBUG_VALUE: HAL_RCC_OscConfig:RCC_OscInitStruct <- $r4
	.loc	5 0 0                           @ c:/Keil_v5\ARM\PACK\Keil\STM32L5xx_DFP\1.3.0\Drivers\STM32L5xx_HAL_Driver\Src\stm32l5xx_hal_rcc.c:0:0
	ldr	r0, [r6, #4]
	ldr	r1, [r4, #16]
	bic	r0, r0, #2130706432
	orr.w	r0, r0, r1, lsl #24
	str	r0, [r6, #4]
.Ltmp88:
.LBB1_35:
	@DEBUG_VALUE: HAL_RCC_OscConfig:pll_config <- $r8
	@DEBUG_VALUE: HAL_RCC_OscConfig:sysclk_source <- $r7
	@DEBUG_VALUE: HAL_RCC_OscConfig:RCC_OscInitStruct <- $r4
	.loc	5 648 7 is_stmt 1               @ c:/Keil_v5\ARM\PACK\Keil\STM32L5xx_DFP\1.3.0\Drivers\STM32L5xx_HAL_Driver\Src\stm32l5xx_hal_rcc.c:648:7
	ldrb	r0, [r4]
	lsls	r0, r0, #28
	bmi	.LBB1_48
.Ltmp89:
.LBB1_36:
	@DEBUG_VALUE: HAL_RCC_OscConfig:pll_config <- $r8
	@DEBUG_VALUE: HAL_RCC_OscConfig:sysclk_source <- $r7
	@DEBUG_VALUE: HAL_RCC_OscConfig:RCC_OscInitStruct <- $r4
	.loc	5 700 7                         @ c:/Keil_v5\ARM\PACK\Keil\STM32L5xx_DFP\1.3.0\Drivers\STM32L5xx_HAL_Driver\Src\stm32l5xx_hal_rcc.c:700:7
	ldrb	r0, [r4]
	lsls	r0, r0, #29
	bmi	.LBB1_53
.Ltmp90:
.LBB1_37:
	@DEBUG_VALUE: HAL_RCC_OscConfig:RCC_OscInitStruct <- $r4
	.loc	5 834 7                         @ c:/Keil_v5\ARM\PACK\Keil\STM32L5xx_DFP\1.3.0\Drivers\STM32L5xx_HAL_Driver\Src\stm32l5xx_hal_rcc.c:834:7
	ldrb	r0, [r4]
	lsls	r0, r0, #26
	bmi.w	.LBB1_64
.Ltmp91:
.LBB1_38:
	@DEBUG_VALUE: HAL_RCC_OscConfig:RCC_OscInitStruct <- $r4
	.loc	5 879 30                        @ c:/Keil_v5\ARM\PACK\Keil\STM32L5xx_DFP\1.3.0\Drivers\STM32L5xx_HAL_Driver\Src\stm32l5xx_hal_rcc.c:879:30
	ldr	r0, [r4, #44]
.Ltmp92:
	.loc	5 879 7 is_stmt 0               @ c:/Keil_v5\ARM\PACK\Keil\STM32L5xx_DFP\1.3.0\Drivers\STM32L5xx_HAL_Driver\Src\stm32l5xx_hal_rcc.c:879:7
	cmp	r0, #0
	beq	.LBB1_47
.Ltmp93:
@ %bb.39:
	@DEBUG_VALUE: HAL_RCC_OscConfig:RCC_OscInitStruct <- $r4
	.loc	5 882 9 is_stmt 1               @ c:/Keil_v5\ARM\PACK\Keil\STM32L5xx_DFP\1.3.0\Drivers\STM32L5xx_HAL_Driver\Src\stm32l5xx_hal_rcc.c:882:9
	ldr	r1, [r6, #8]
	and	r1, r1, #12
.Ltmp94:
	.loc	5 882 9 is_stmt 0               @ c:/Keil_v5\ARM\PACK\Keil\STM32L5xx_DFP\1.3.0\Drivers\STM32L5xx_HAL_Driver\Src\stm32l5xx_hal_rcc.c:882:9
	cmp	r1, #12
	bne.w	.LBB1_89
.Ltmp95:
@ %bb.40:
	@DEBUG_VALUE: HAL_RCC_OscConfig:RCC_OscInitStruct <- $r4
	.loc	5 964 11 is_stmt 1              @ c:/Keil_v5\ARM\PACK\Keil\STM32L5xx_DFP\1.3.0\Drivers\STM32L5xx_HAL_Driver\Src\stm32l5xx_hal_rcc.c:964:11
	cmp	r0, #1
	beq.w	.LBB1_138
.Ltmp96:
@ %bb.41:
	@DEBUG_VALUE: HAL_RCC_OscConfig:RCC_OscInitStruct <- $r4
	.loc	5 970 27                        @ c:/Keil_v5\ARM\PACK\Keil\STM32L5xx_DFP\1.3.0\Drivers\STM32L5xx_HAL_Driver\Src\stm32l5xx_hal_rcc.c:970:27
	ldr	r0, [r6, #12]
.Ltmp97:
	@DEBUG_VALUE: HAL_RCC_OscConfig:pll_config <- $r0
	.loc	5 972 82                        @ c:/Keil_v5\ARM\PACK\Keil\STM32L5xx_DFP\1.3.0\Drivers\STM32L5xx_HAL_Driver\Src\stm32l5xx_hal_rcc.c:972:82
	ldr	r1, [r4, #48]
	.loc	5 972 14 is_stmt 0              @ c:/Keil_v5\ARM\PACK\Keil\STM32L5xx_DFP\1.3.0\Drivers\STM32L5xx_HAL_Driver\Src\stm32l5xx_hal_rcc.c:972:14
	and	r2, r0, #3
	.loc	5 972 93                        @ c:/Keil_v5\ARM\PACK\Keil\STM32L5xx_DFP\1.3.0\Drivers\STM32L5xx_HAL_Driver\Src\stm32l5xx_hal_rcc.c:972:93
	cmp	r2, r1
	bne.w	.LBB1_138
.Ltmp98:
@ %bb.42:
	@DEBUG_VALUE: HAL_RCC_OscConfig:RCC_OscInitStruct <- $r4
	@DEBUG_VALUE: HAL_RCC_OscConfig:pll_config <- $r0
	.loc	5 973 84 is_stmt 1              @ c:/Keil_v5\ARM\PACK\Keil\STM32L5xx_DFP\1.3.0\Drivers\STM32L5xx_HAL_Driver\Src\stm32l5xx_hal_rcc.c:973:84
	ldr	r1, [r4, #52]
	mvn	r2, #15
	.loc	5 973 95 is_stmt 0              @ c:/Keil_v5\ARM\PACK\Keil\STM32L5xx_DFP\1.3.0\Drivers\STM32L5xx_HAL_Driver\Src\stm32l5xx_hal_rcc.c:973:95
	add.w	r1, r2, r1, lsl #4
	.loc	5 973 14                        @ c:/Keil_v5\ARM\PACK\Keil\STM32L5xx_DFP\1.3.0\Drivers\STM32L5xx_HAL_Driver\Src\stm32l5xx_hal_rcc.c:973:14
	and	r2, r0, #240
	.loc	5 973 121                       @ c:/Keil_v5\ARM\PACK\Keil\STM32L5xx_DFP\1.3.0\Drivers\STM32L5xx_HAL_Driver\Src\stm32l5xx_hal_rcc.c:973:121
	cmp	r2, r1
	bne.w	.LBB1_138
.Ltmp99:
@ %bb.43:
	@DEBUG_VALUE: HAL_RCC_OscConfig:RCC_OscInitStruct <- $r4
	@DEBUG_VALUE: HAL_RCC_OscConfig:pll_config <- $r0
	.loc	5 974 83 is_stmt 1              @ c:/Keil_v5\ARM\PACK\Keil\STM32L5xx_DFP\1.3.0\Drivers\STM32L5xx_HAL_Driver\Src\stm32l5xx_hal_rcc.c:974:83
	ldr	r1, [r4, #56]
	.loc	5 974 14 is_stmt 0              @ c:/Keil_v5\ARM\PACK\Keil\STM32L5xx_DFP\1.3.0\Drivers\STM32L5xx_HAL_Driver\Src\stm32l5xx_hal_rcc.c:974:14
	and	r2, r0, #32512
	.loc	5 974 114                       @ c:/Keil_v5\ARM\PACK\Keil\STM32L5xx_DFP\1.3.0\Drivers\STM32L5xx_HAL_Driver\Src\stm32l5xx_hal_rcc.c:974:114
	cmp.w	r2, r1, lsl #8
	bne.w	.LBB1_138
.Ltmp100:
@ %bb.44:
	@DEBUG_VALUE: HAL_RCC_OscConfig:RCC_OscInitStruct <- $r4
	@DEBUG_VALUE: HAL_RCC_OscConfig:pll_config <- $r0
	.loc	5 975 83 is_stmt 1              @ c:/Keil_v5\ARM\PACK\Keil\STM32L5xx_DFP\1.3.0\Drivers\STM32L5xx_HAL_Driver\Src\stm32l5xx_hal_rcc.c:975:83
	ldr	r1, [r4, #60]
	.loc	5 975 14 is_stmt 0              @ c:/Keil_v5\ARM\PACK\Keil\STM32L5xx_DFP\1.3.0\Drivers\STM32L5xx_HAL_Driver\Src\stm32l5xx_hal_rcc.c:975:14
	and	r2, r0, #-134217728
	.loc	5 975 117                       @ c:/Keil_v5\ARM\PACK\Keil\STM32L5xx_DFP\1.3.0\Drivers\STM32L5xx_HAL_Driver\Src\stm32l5xx_hal_rcc.c:975:117
	cmp.w	r2, r1, lsl #27
	bne.w	.LBB1_138
.Ltmp101:
@ %bb.45:
	@DEBUG_VALUE: HAL_RCC_OscConfig:RCC_OscInitStruct <- $r4
	@DEBUG_VALUE: HAL_RCC_OscConfig:pll_config <- $r0
	.loc	5 976 86 is_stmt 1              @ c:/Keil_v5\ARM\PACK\Keil\STM32L5xx_DFP\1.3.0\Drivers\STM32L5xx_HAL_Driver\Src\stm32l5xx_hal_rcc.c:976:86
	ldr	r1, [r4, #64]
	movs	r2, #0
	movt	r2, #65504
	.loc	5 976 105 is_stmt 0             @ c:/Keil_v5\ARM\PACK\Keil\STM32L5xx_DFP\1.3.0\Drivers\STM32L5xx_HAL_Driver\Src\stm32l5xx_hal_rcc.c:976:105
	add.w	r1, r2, r1, lsl #20
	.loc	5 976 14                        @ c:/Keil_v5\ARM\PACK\Keil\STM32L5xx_DFP\1.3.0\Drivers\STM32L5xx_HAL_Driver\Src\stm32l5xx_hal_rcc.c:976:14
	and	r2, r0, #6291456
	.loc	5 976 105                       @ c:/Keil_v5\ARM\PACK\Keil\STM32L5xx_DFP\1.3.0\Drivers\STM32L5xx_HAL_Driver\Src\stm32l5xx_hal_rcc.c:976:105
	bfc	r1, #0, #21
	.loc	5 976 131                       @ c:/Keil_v5\ARM\PACK\Keil\STM32L5xx_DFP\1.3.0\Drivers\STM32L5xx_HAL_Driver\Src\stm32l5xx_hal_rcc.c:976:131
	cmp	r2, r1
	bne.w	.LBB1_138
.Ltmp102:
@ %bb.46:
	@DEBUG_VALUE: HAL_RCC_OscConfig:RCC_OscInitStruct <- $r4
	@DEBUG_VALUE: HAL_RCC_OscConfig:pll_config <- $r0
	.loc	5 977 86 is_stmt 1              @ c:/Keil_v5\ARM\PACK\Keil\STM32L5xx_DFP\1.3.0\Drivers\STM32L5xx_HAL_Driver\Src\stm32l5xx_hal_rcc.c:977:86
	ldr	r1, [r4, #68]
	mov.w	r2, #-33554432
	.loc	5 977 105 is_stmt 0             @ c:/Keil_v5\ARM\PACK\Keil\STM32L5xx_DFP\1.3.0\Drivers\STM32L5xx_HAL_Driver\Src\stm32l5xx_hal_rcc.c:977:105
	add.w	r1, r2, r1, lsl #24
	.loc	5 977 14                        @ c:/Keil_v5\ARM\PACK\Keil\STM32L5xx_DFP\1.3.0\Drivers\STM32L5xx_HAL_Driver\Src\stm32l5xx_hal_rcc.c:977:14
	and	r0, r0, #100663296
.Ltmp103:
	.loc	5 977 105                       @ c:/Keil_v5\ARM\PACK\Keil\STM32L5xx_DFP\1.3.0\Drivers\STM32L5xx_HAL_Driver\Src\stm32l5xx_hal_rcc.c:977:105
	and	r1, r1, #-33554432
.Ltmp104:
	.loc	5 972 13 is_stmt 1              @ c:/Keil_v5\ARM\PACK\Keil\STM32L5xx_DFP\1.3.0\Drivers\STM32L5xx_HAL_Driver\Src\stm32l5xx_hal_rcc.c:972:13
	cmp	r0, r1
	bne.w	.LBB1_138
.Ltmp105:
.LBB1_47:
	.loc	5 0 13 is_stmt 0                @ c:/Keil_v5\ARM\PACK\Keil\STM32L5xx_DFP\1.3.0\Drivers\STM32L5xx_HAL_Driver\Src\stm32l5xx_hal_rcc.c:0:13
	movs	r0, #0
	.loc	5 986 1 is_stmt 1               @ c:/Keil_v5\ARM\PACK\Keil\STM32L5xx_DFP\1.3.0\Drivers\STM32L5xx_HAL_Driver\Src\stm32l5xx_hal_rcc.c:986:1
	add	sp, #16
	pop.w	{r4, r5, r6, r7, r8, pc}
	.p2align	2
.LBB1_48:
.Ltmp106:
	@DEBUG_VALUE: HAL_RCC_OscConfig:pll_config <- $r8
	@DEBUG_VALUE: HAL_RCC_OscConfig:sysclk_source <- $r7
	@DEBUG_VALUE: HAL_RCC_OscConfig:RCC_OscInitStruct <- $r4
	.loc	5 654 28                        @ c:/Keil_v5\ARM\PACK\Keil\STM32L5xx_DFP\1.3.0\Drivers\STM32L5xx_HAL_Driver\Src\stm32l5xx_hal_rcc.c:654:28
	ldr	r0, [r4, #20]
.Ltmp107:
	.loc	5 654 9 is_stmt 0               @ c:/Keil_v5\ARM\PACK\Keil\STM32L5xx_DFP\1.3.0\Drivers\STM32L5xx_HAL_Driver\Src\stm32l5xx_hal_rcc.c:654:9
	cmp	r0, #0
	beq.w	.LBB1_68
.Ltmp108:
@ %bb.49:
	@DEBUG_VALUE: HAL_RCC_OscConfig:pll_config <- $r8
	@DEBUG_VALUE: HAL_RCC_OscConfig:sysclk_source <- $r7
	@DEBUG_VALUE: HAL_RCC_OscConfig:RCC_OscInitStruct <- $r4
	.loc	5 657 30 is_stmt 1              @ c:/Keil_v5\ARM\PACK\Keil\STM32L5xx_DFP\1.3.0\Drivers\STM32L5xx_HAL_Driver\Src\stm32l5xx_hal_rcc.c:657:30
	ldr	r0, [r4, #24]
	.loc	5 0 0 is_stmt 0                 @ c:/Keil_v5\ARM\PACK\Keil\STM32L5xx_DFP\1.3.0\Drivers\STM32L5xx_HAL_Driver\Src\stm32l5xx_hal_rcc.c:0:0
	ldr.w	r1, [r6, #148]
.Ltmp109:
	.loc	5 657 11                        @ c:/Keil_v5\ARM\PACK\Keil\STM32L5xx_DFP\1.3.0\Drivers\STM32L5xx_HAL_Driver\Src\stm32l5xx_hal_rcc.c:657:11
	cmp	r0, #0
	bic	r1, r1, #16
	it	ne
	addne	r1, #16
.Ltmp110:
	.loc	5 0 0                           @ c:/Keil_v5\ARM\PACK\Keil\STM32L5xx_DFP\1.3.0\Drivers\STM32L5xx_HAL_Driver\Src\stm32l5xx_hal_rcc.c:0:0
	str.w	r1, [r6, #148]
.Ltmp111:
	.loc	5 667 7 is_stmt 1               @ c:/Keil_v5\ARM\PACK\Keil\STM32L5xx_DFP\1.3.0\Drivers\STM32L5xx_HAL_Driver\Src\stm32l5xx_hal_rcc.c:667:7
	ldr.w	r0, [r6, #148]
	orr	r0, r0, #1
	str.w	r0, [r6, #148]
	.loc	5 670 19                        @ c:/Keil_v5\ARM\PACK\Keil\STM32L5xx_DFP\1.3.0\Drivers\STM32L5xx_HAL_Driver\Src\stm32l5xx_hal_rcc.c:670:19
	bl	HAL_GetTick
	mov	r5, r0
.Ltmp112:
	@DEBUG_VALUE: HAL_RCC_OscConfig:tickstart <- $r5
	.p2align	2
.LBB1_50:                               @ =>This Inner Loop Header: Depth=1
	@DEBUG_VALUE: HAL_RCC_OscConfig:pll_config <- $r8
	@DEBUG_VALUE: HAL_RCC_OscConfig:sysclk_source <- $r7
	@DEBUG_VALUE: HAL_RCC_OscConfig:tickstart <- $r5
	@DEBUG_VALUE: HAL_RCC_OscConfig:RCC_OscInitStruct <- $r4
	.loc	5 673 14                        @ c:/Keil_v5\ARM\PACK\Keil\STM32L5xx_DFP\1.3.0\Drivers\STM32L5xx_HAL_Driver\Src\stm32l5xx_hal_rcc.c:673:14
	ldr.w	r0, [r6, #148]
	.loc	5 673 7 is_stmt 0               @ c:/Keil_v5\ARM\PACK\Keil\STM32L5xx_DFP\1.3.0\Drivers\STM32L5xx_HAL_Driver\Src\stm32l5xx_hal_rcc.c:673:7
	lsls	r0, r0, #30
	bmi	.LBB1_36
.Ltmp113:
@ %bb.51:                               @   in Loop: Header=BB1_50 Depth=1
	@DEBUG_VALUE: HAL_RCC_OscConfig:pll_config <- $r8
	@DEBUG_VALUE: HAL_RCC_OscConfig:sysclk_source <- $r7
	@DEBUG_VALUE: HAL_RCC_OscConfig:tickstart <- $r5
	@DEBUG_VALUE: HAL_RCC_OscConfig:RCC_OscInitStruct <- $r4
	.loc	5 675 14 is_stmt 1              @ c:/Keil_v5\ARM\PACK\Keil\STM32L5xx_DFP\1.3.0\Drivers\STM32L5xx_HAL_Driver\Src\stm32l5xx_hal_rcc.c:675:14
	bl	HAL_GetTick
	.loc	5 675 28 is_stmt 0              @ c:/Keil_v5\ARM\PACK\Keil\STM32L5xx_DFP\1.3.0\Drivers\STM32L5xx_HAL_Driver\Src\stm32l5xx_hal_rcc.c:675:28
	subs	r0, r0, r5
.Ltmp114:
	.loc	5 675 13                        @ c:/Keil_v5\ARM\PACK\Keil\STM32L5xx_DFP\1.3.0\Drivers\STM32L5xx_HAL_Driver\Src\stm32l5xx_hal_rcc.c:675:13
	cmp	r0, #7
	bls	.LBB1_50
.Ltmp115:
@ %bb.52:
	@DEBUG_VALUE: HAL_RCC_OscConfig:pll_config <- $r8
	@DEBUG_VALUE: HAL_RCC_OscConfig:sysclk_source <- $r7
	@DEBUG_VALUE: HAL_RCC_OscConfig:tickstart <- $r5
	@DEBUG_VALUE: HAL_RCC_OscConfig:RCC_OscInitStruct <- $r4
	.loc	5 0 13                          @ c:/Keil_v5\ARM\PACK\Keil\STM32L5xx_DFP\1.3.0\Drivers\STM32L5xx_HAL_Driver\Src\stm32l5xx_hal_rcc.c:0:13
	movs	r0, #3
	.loc	5 986 1 is_stmt 1               @ c:/Keil_v5\ARM\PACK\Keil\STM32L5xx_DFP\1.3.0\Drivers\STM32L5xx_HAL_Driver\Src\stm32l5xx_hal_rcc.c:986:1
	add	sp, #16
	pop.w	{r4, r5, r6, r7, r8, pc}
.Ltmp116:
	.p2align	2
.LBB1_53:
	@DEBUG_VALUE: HAL_RCC_OscConfig:pll_config <- $r8
	@DEBUG_VALUE: HAL_RCC_OscConfig:sysclk_source <- $r7
	@DEBUG_VALUE: HAL_RCC_OscConfig:RCC_OscInitStruct <- $r4
	@DEBUG_VALUE: pwrclkchanged <- 0
	.loc	5 709 9                         @ c:/Keil_v5\ARM\PACK\Keil\STM32L5xx_DFP\1.3.0\Drivers\STM32L5xx_HAL_Driver\Src\stm32l5xx_hal_rcc.c:709:9
	ldr	r0, [r6, #88]
	ands	r8, r0, #268435456
.Ltmp117:
	.loc	5 709 9 is_stmt 0               @ c:/Keil_v5\ARM\PACK\Keil\STM32L5xx_DFP\1.3.0\Drivers\STM32L5xx_HAL_Driver\Src\stm32l5xx_hal_rcc.c:709:9
	bne	.LBB1_55
.Ltmp118:
@ %bb.54:
	@DEBUG_VALUE: HAL_RCC_OscConfig:sysclk_source <- $r7
	@DEBUG_VALUE: HAL_RCC_OscConfig:RCC_OscInitStruct <- $r4
	@DEBUG_VALUE: pwrclkchanged <- 0
	.loc	5 711 7 is_stmt 1               @ c:/Keil_v5\ARM\PACK\Keil\STM32L5xx_DFP\1.3.0\Drivers\STM32L5xx_HAL_Driver\Src\stm32l5xx_hal_rcc.c:711:7
	ldr	r0, [r6, #88]
	orr	r0, r0, #268435456
	str	r0, [r6, #88]
	ldr	r0, [r6, #88]
	and	r0, r0, #268435456
	str	r0, [sp, #4]
	ldr	r0, [sp, #4]
.Ltmp119:
	@DEBUG_VALUE: pwrclkchanged <- 1
.LBB1_55:
	@DEBUG_VALUE: HAL_RCC_OscConfig:sysclk_source <- $r7
	@DEBUG_VALUE: HAL_RCC_OscConfig:RCC_OscInitStruct <- $r4
	.loc	5 0 7 is_stmt 0                 @ c:/Keil_v5\ARM\PACK\Keil\STM32L5xx_DFP\1.3.0\Drivers\STM32L5xx_HAL_Driver\Src\stm32l5xx_hal_rcc.c:0:7
	movw	r7, #28672
.Ltmp120:
	movt	r7, #16384
.Ltmp121:
	@DEBUG_VALUE: pwrclkchanged <- undef
	.loc	5 715 9 is_stmt 1               @ c:/Keil_v5\ARM\PACK\Keil\STM32L5xx_DFP\1.3.0\Drivers\STM32L5xx_HAL_Driver\Src\stm32l5xx_hal_rcc.c:715:9
	ldr	r0, [r7]
.Ltmp122:
	.loc	5 715 9 is_stmt 0               @ c:/Keil_v5\ARM\PACK\Keil\STM32L5xx_DFP\1.3.0\Drivers\STM32L5xx_HAL_Driver\Src\stm32l5xx_hal_rcc.c:715:9
	lsls	r0, r0, #23
	bmi	.LBB1_59
.Ltmp123:
@ %bb.56:
	@DEBUG_VALUE: HAL_RCC_OscConfig:RCC_OscInitStruct <- $r4
	.loc	5 718 7 is_stmt 1               @ c:/Keil_v5\ARM\PACK\Keil\STM32L5xx_DFP\1.3.0\Drivers\STM32L5xx_HAL_Driver\Src\stm32l5xx_hal_rcc.c:718:7
	ldr	r0, [r7]
	orr	r0, r0, #256
	str	r0, [r7]
	.loc	5 721 19                        @ c:/Keil_v5\ARM\PACK\Keil\STM32L5xx_DFP\1.3.0\Drivers\STM32L5xx_HAL_Driver\Src\stm32l5xx_hal_rcc.c:721:19
	bl	HAL_GetTick
	mov	r5, r0
.Ltmp124:
	@DEBUG_VALUE: HAL_RCC_OscConfig:tickstart <- $r5
	.p2align	2
.LBB1_57:                               @ =>This Inner Loop Header: Depth=1
	@DEBUG_VALUE: HAL_RCC_OscConfig:tickstart <- $r5
	@DEBUG_VALUE: HAL_RCC_OscConfig:RCC_OscInitStruct <- $r4
	.loc	5 723 14                        @ c:/Keil_v5\ARM\PACK\Keil\STM32L5xx_DFP\1.3.0\Drivers\STM32L5xx_HAL_Driver\Src\stm32l5xx_hal_rcc.c:723:14
	ldr	r0, [r7]
	.loc	5 723 7 is_stmt 0               @ c:/Keil_v5\ARM\PACK\Keil\STM32L5xx_DFP\1.3.0\Drivers\STM32L5xx_HAL_Driver\Src\stm32l5xx_hal_rcc.c:723:7
	lsls	r0, r0, #23
	bmi	.LBB1_59
.Ltmp125:
@ %bb.58:                               @   in Loop: Header=BB1_57 Depth=1
	@DEBUG_VALUE: HAL_RCC_OscConfig:tickstart <- $r5
	@DEBUG_VALUE: HAL_RCC_OscConfig:RCC_OscInitStruct <- $r4
	.loc	5 725 14 is_stmt 1              @ c:/Keil_v5\ARM\PACK\Keil\STM32L5xx_DFP\1.3.0\Drivers\STM32L5xx_HAL_Driver\Src\stm32l5xx_hal_rcc.c:725:14
	bl	HAL_GetTick
	.loc	5 725 28 is_stmt 0              @ c:/Keil_v5\ARM\PACK\Keil\STM32L5xx_DFP\1.3.0\Drivers\STM32L5xx_HAL_Driver\Src\stm32l5xx_hal_rcc.c:725:28
	subs	r0, r0, r5
.Ltmp126:
	.loc	5 725 13                        @ c:/Keil_v5\ARM\PACK\Keil\STM32L5xx_DFP\1.3.0\Drivers\STM32L5xx_HAL_Driver\Src\stm32l5xx_hal_rcc.c:725:13
	cmp	r0, #2
	mov.w	r0, #3
	bls	.LBB1_57
	b	.LBB1_15
.Ltmp127:
	.p2align	2
.LBB1_59:
	@DEBUG_VALUE: HAL_RCC_OscConfig:RCC_OscInitStruct <- $r4
	.loc	5 733 29 is_stmt 1              @ c:/Keil_v5\ARM\PACK\Keil\STM32L5xx_DFP\1.3.0\Drivers\STM32L5xx_HAL_Driver\Src\stm32l5xx_hal_rcc.c:733:29
	ldr	r5, [r4, #8]
.Ltmp128:
	.loc	5 733 9 is_stmt 0               @ c:/Keil_v5\ARM\PACK\Keil\STM32L5xx_DFP\1.3.0\Drivers\STM32L5xx_HAL_Driver\Src\stm32l5xx_hal_rcc.c:733:9
	lsls	r0, r5, #31
	bne	.LBB1_74
.Ltmp129:
@ %bb.60:
	@DEBUG_VALUE: HAL_RCC_OscConfig:RCC_OscInitStruct <- $r4
	.loc	5 749 7 is_stmt 1               @ c:/Keil_v5\ARM\PACK\Keil\STM32L5xx_DFP\1.3.0\Drivers\STM32L5xx_HAL_Driver\Src\stm32l5xx_hal_rcc.c:749:7
	ldr.w	r0, [r6, #144]
	bic	r0, r0, #1
	str.w	r0, [r6, #144]
	.loc	5 750 7                         @ c:/Keil_v5\ARM\PACK\Keil\STM32L5xx_DFP\1.3.0\Drivers\STM32L5xx_HAL_Driver\Src\stm32l5xx_hal_rcc.c:750:7
	ldr.w	r0, [r6, #144]
	bic	r0, r0, #4
	b	.LBB1_77
.Ltmp130:
	.p2align	2
.LBB1_61:
	@DEBUG_VALUE: HAL_RCC_OscConfig:pll_config <- $r8
	@DEBUG_VALUE: HAL_RCC_OscConfig:sysclk_source <- $r7
	@DEBUG_VALUE: HAL_RCC_OscConfig:RCC_OscInitStruct <- $r4
	.loc	5 461 11                        @ c:/Keil_v5\ARM\PACK\Keil\STM32L5xx_DFP\1.3.0\Drivers\STM32L5xx_HAL_Driver\Src\stm32l5xx_hal_rcc.c:461:11
	ldr	r0, [r6]
.Ltmp131:
	.loc	5 467 15                        @ c:/Keil_v5\ARM\PACK\Keil\STM32L5xx_DFP\1.3.0\Drivers\STM32L5xx_HAL_Driver\Src\stm32l5xx_hal_rcc.c:467:15
	cmp	r7, #0
.Ltmp132:
	.loc	5 461 11                        @ c:/Keil_v5\ARM\PACK\Keil\STM32L5xx_DFP\1.3.0\Drivers\STM32L5xx_HAL_Driver\Src\stm32l5xx_hal_rcc.c:461:11
	orr	r0, r0, #8
	str	r0, [r6]
	ldr	r0, [r6]
	bic	r0, r0, #240
	orr.w	r0, r0, r5
	str	r0, [r6]
.Ltmp133:
	.loc	5 463 11                        @ c:/Keil_v5\ARM\PACK\Keil\STM32L5xx_DFP\1.3.0\Drivers\STM32L5xx_HAL_Driver\Src\stm32l5xx_hal_rcc.c:463:11
	ldr	r0, [r6, #4]
	ldr	r1, [r4, #32]
	bic	r0, r0, #65280
	orr.w	r0, r0, r1, lsl #8
	str	r0, [r6, #4]
	.loc	5 467 15                        @ c:/Keil_v5\ARM\PACK\Keil\STM32L5xx_DFP\1.3.0\Drivers\STM32L5xx_HAL_Driver\Src\stm32l5xx_hal_rcc.c:467:15
	bne.w	.LBB1_137
.Ltmp134:
@ %bb.62:
	@DEBUG_VALUE: HAL_RCC_OscConfig:pll_config <- $r8
	@DEBUG_VALUE: HAL_RCC_OscConfig:sysclk_source <- $r7
	@DEBUG_VALUE: HAL_RCC_OscConfig:RCC_OscInitStruct <- $r4
	@DEBUG_VALUE: RCC_SetFlashLatencyFromMSIRange:msirange <- $r5
	@DEBUG_VALUE: RCC_SetFlashLatencyFromMSIRange:latency <- 0
	.loc	5 1790 7                        @ c:/Keil_v5\ARM\PACK\Keil\STM32L5xx_DFP\1.3.0\Drivers\STM32L5xx_HAL_Driver\Src\stm32l5xx_hal_rcc.c:1790:7
	ldr	r0, [r6, #88]
.Ltmp135:
	.loc	5 1790 7 is_stmt 0              @ c:/Keil_v5\ARM\PACK\Keil\STM32L5xx_DFP\1.3.0\Drivers\STM32L5xx_HAL_Driver\Src\stm32l5xx_hal_rcc.c:1790:7
	lsls	r0, r0, #3
	bmi.w	.LBB1_113
.Ltmp136:
@ %bb.63:
	@DEBUG_VALUE: HAL_RCC_OscConfig:pll_config <- $r8
	@DEBUG_VALUE: HAL_RCC_OscConfig:sysclk_source <- $r7
	@DEBUG_VALUE: RCC_SetFlashLatencyFromMSIRange:msirange <- $r5
	@DEBUG_VALUE: HAL_RCC_OscConfig:RCC_OscInitStruct <- $r4
	@DEBUG_VALUE: RCC_SetFlashLatencyFromMSIRange:latency <- 0
	.loc	5 1796 5 is_stmt 1              @ c:/Keil_v5\ARM\PACK\Keil\STM32L5xx_DFP\1.3.0\Drivers\STM32L5xx_HAL_Driver\Src\stm32l5xx_hal_rcc.c:1796:5
	ldr	r0, [r6, #88]
	orr	r0, r0, #268435456
	str	r0, [r6, #88]
	ldr	r0, [r6, #88]
	and	r0, r0, #268435456
	str	r0, [sp, #12]
	ldr	r0, [sp, #12]
.Ltmp137:
	.loc	5 1797 11                       @ c:/Keil_v5\ARM\PACK\Keil\STM32L5xx_DFP\1.3.0\Drivers\STM32L5xx_HAL_Driver\Src\stm32l5xx_hal_rcc.c:1797:11
	bl	HAL_PWREx_GetVoltageRange
	.loc	5 1798 5                        @ c:/Keil_v5\ARM\PACK\Keil\STM32L5xx_DFP\1.3.0\Drivers\STM32L5xx_HAL_Driver\Src\stm32l5xx_hal_rcc.c:1798:5
	ldr	r1, [r6, #88]
.Ltmp138:
	@DEBUG_VALUE: RCC_SetFlashLatencyFromMSIRange:vos <- $r0
	bic	r1, r1, #268435456
	str	r1, [r6, #88]
	b	.LBB1_114
.Ltmp139:
	.p2align	2
.LBB1_64:
	@DEBUG_VALUE: HAL_RCC_OscConfig:RCC_OscInitStruct <- $r4
	.loc	5 840 28                        @ c:/Keil_v5\ARM\PACK\Keil\STM32L5xx_DFP\1.3.0\Drivers\STM32L5xx_HAL_Driver\Src\stm32l5xx_hal_rcc.c:840:28
	ldr	r1, [r4, #40]
	.loc	5 0 0 is_stmt 0                 @ c:/Keil_v5\ARM\PACK\Keil\STM32L5xx_DFP\1.3.0\Drivers\STM32L5xx_HAL_Driver\Src\stm32l5xx_hal_rcc.c:0:0
	ldr.w	r0, [r6, #152]
.Ltmp140:
	.loc	5 840 9                         @ c:/Keil_v5\ARM\PACK\Keil\STM32L5xx_DFP\1.3.0\Drivers\STM32L5xx_HAL_Driver\Src\stm32l5xx_hal_rcc.c:840:9
	cmp	r1, #0
	beq.w	.LBB1_97
.Ltmp141:
@ %bb.65:
	@DEBUG_VALUE: HAL_RCC_OscConfig:RCC_OscInitStruct <- $r4
	.loc	5 843 7 is_stmt 1               @ c:/Keil_v5\ARM\PACK\Keil\STM32L5xx_DFP\1.3.0\Drivers\STM32L5xx_HAL_Driver\Src\stm32l5xx_hal_rcc.c:843:7
	orr	r0, r0, #1
	str.w	r0, [r6, #152]
	.loc	5 846 19                        @ c:/Keil_v5\ARM\PACK\Keil\STM32L5xx_DFP\1.3.0\Drivers\STM32L5xx_HAL_Driver\Src\stm32l5xx_hal_rcc.c:846:19
	bl	HAL_GetTick
	mov	r5, r0
.Ltmp142:
	@DEBUG_VALUE: HAL_RCC_OscConfig:tickstart <- $r5
	.p2align	2
.LBB1_66:                               @ =>This Inner Loop Header: Depth=1
	@DEBUG_VALUE: HAL_RCC_OscConfig:tickstart <- $r5
	@DEBUG_VALUE: HAL_RCC_OscConfig:RCC_OscInitStruct <- $r4
	.loc	5 849 14                        @ c:/Keil_v5\ARM\PACK\Keil\STM32L5xx_DFP\1.3.0\Drivers\STM32L5xx_HAL_Driver\Src\stm32l5xx_hal_rcc.c:849:14
	ldr.w	r0, [r6, #152]
	.loc	5 849 7 is_stmt 0               @ c:/Keil_v5\ARM\PACK\Keil\STM32L5xx_DFP\1.3.0\Drivers\STM32L5xx_HAL_Driver\Src\stm32l5xx_hal_rcc.c:849:7
	lsls	r0, r0, #30
	bmi.w	.LBB1_38
.Ltmp143:
@ %bb.67:                               @   in Loop: Header=BB1_66 Depth=1
	@DEBUG_VALUE: HAL_RCC_OscConfig:tickstart <- $r5
	@DEBUG_VALUE: HAL_RCC_OscConfig:RCC_OscInitStruct <- $r4
	.loc	5 851 14 is_stmt 1              @ c:/Keil_v5\ARM\PACK\Keil\STM32L5xx_DFP\1.3.0\Drivers\STM32L5xx_HAL_Driver\Src\stm32l5xx_hal_rcc.c:851:14
	bl	HAL_GetTick
	.loc	5 851 28 is_stmt 0              @ c:/Keil_v5\ARM\PACK\Keil\STM32L5xx_DFP\1.3.0\Drivers\STM32L5xx_HAL_Driver\Src\stm32l5xx_hal_rcc.c:851:28
	subs	r0, r0, r5
.Ltmp144:
	.loc	5 851 13                        @ c:/Keil_v5\ARM\PACK\Keil\STM32L5xx_DFP\1.3.0\Drivers\STM32L5xx_HAL_Driver\Src\stm32l5xx_hal_rcc.c:851:13
	cmp	r0, #2
	mov.w	r0, #3
	bls	.LBB1_66
	b	.LBB1_15
.Ltmp145:
	.p2align	2
.LBB1_68:
	@DEBUG_VALUE: HAL_RCC_OscConfig:pll_config <- $r8
	@DEBUG_VALUE: HAL_RCC_OscConfig:sysclk_source <- $r7
	@DEBUG_VALUE: HAL_RCC_OscConfig:RCC_OscInitStruct <- $r4
	.loc	5 684 7 is_stmt 1               @ c:/Keil_v5\ARM\PACK\Keil\STM32L5xx_DFP\1.3.0\Drivers\STM32L5xx_HAL_Driver\Src\stm32l5xx_hal_rcc.c:684:7
	ldr.w	r0, [r6, #148]
	bic	r0, r0, #1
	str.w	r0, [r6, #148]
	.loc	5 687 19                        @ c:/Keil_v5\ARM\PACK\Keil\STM32L5xx_DFP\1.3.0\Drivers\STM32L5xx_HAL_Driver\Src\stm32l5xx_hal_rcc.c:687:19
	bl	HAL_GetTick
	mov	r5, r0
.Ltmp146:
	@DEBUG_VALUE: HAL_RCC_OscConfig:tickstart <- $r5
	.p2align	2
.LBB1_69:                               @ =>This Inner Loop Header: Depth=1
	@DEBUG_VALUE: HAL_RCC_OscConfig:pll_config <- $r8
	@DEBUG_VALUE: HAL_RCC_OscConfig:sysclk_source <- $r7
	@DEBUG_VALUE: HAL_RCC_OscConfig:tickstart <- $r5
	@DEBUG_VALUE: HAL_RCC_OscConfig:RCC_OscInitStruct <- $r4
	.loc	5 690 14                        @ c:/Keil_v5\ARM\PACK\Keil\STM32L5xx_DFP\1.3.0\Drivers\STM32L5xx_HAL_Driver\Src\stm32l5xx_hal_rcc.c:690:14
	ldr.w	r0, [r6, #148]
	.loc	5 690 7 is_stmt 0               @ c:/Keil_v5\ARM\PACK\Keil\STM32L5xx_DFP\1.3.0\Drivers\STM32L5xx_HAL_Driver\Src\stm32l5xx_hal_rcc.c:690:7
	lsls	r0, r0, #30
	bpl.w	.LBB1_36
.Ltmp147:
@ %bb.70:                               @   in Loop: Header=BB1_69 Depth=1
	@DEBUG_VALUE: HAL_RCC_OscConfig:pll_config <- $r8
	@DEBUG_VALUE: HAL_RCC_OscConfig:sysclk_source <- $r7
	@DEBUG_VALUE: HAL_RCC_OscConfig:tickstart <- $r5
	@DEBUG_VALUE: HAL_RCC_OscConfig:RCC_OscInitStruct <- $r4
	.loc	5 692 14 is_stmt 1              @ c:/Keil_v5\ARM\PACK\Keil\STM32L5xx_DFP\1.3.0\Drivers\STM32L5xx_HAL_Driver\Src\stm32l5xx_hal_rcc.c:692:14
	bl	HAL_GetTick
	.loc	5 692 28 is_stmt 0              @ c:/Keil_v5\ARM\PACK\Keil\STM32L5xx_DFP\1.3.0\Drivers\STM32L5xx_HAL_Driver\Src\stm32l5xx_hal_rcc.c:692:28
	subs	r0, r0, r5
.Ltmp148:
	.loc	5 692 13                        @ c:/Keil_v5\ARM\PACK\Keil\STM32L5xx_DFP\1.3.0\Drivers\STM32L5xx_HAL_Driver\Src\stm32l5xx_hal_rcc.c:692:13
	cmp	r0, #7
	mov.w	r0, #3
	bls	.LBB1_69
	b	.LBB1_15
.Ltmp149:
	.p2align	2
.LBB1_71:
	@DEBUG_VALUE: HAL_RCC_OscConfig:pll_config <- $r8
	@DEBUG_VALUE: HAL_RCC_OscConfig:sysclk_source <- $r7
	@DEBUG_VALUE: HAL_RCC_OscConfig:RCC_OscInitStruct <- $r4
	.loc	5 515 9 is_stmt 1               @ c:/Keil_v5\ARM\PACK\Keil\STM32L5xx_DFP\1.3.0\Drivers\STM32L5xx_HAL_Driver\Src\stm32l5xx_hal_rcc.c:515:9
	bic	r0, r0, #1
	str	r0, [r6]
	.loc	5 518 21                        @ c:/Keil_v5\ARM\PACK\Keil\STM32L5xx_DFP\1.3.0\Drivers\STM32L5xx_HAL_Driver\Src\stm32l5xx_hal_rcc.c:518:21
	bl	HAL_GetTick
	mov	r5, r0
.Ltmp150:
	@DEBUG_VALUE: HAL_RCC_OscConfig:tickstart <- $r5
	.p2align	2
.LBB1_72:                               @ =>This Inner Loop Header: Depth=1
	@DEBUG_VALUE: HAL_RCC_OscConfig:pll_config <- $r8
	@DEBUG_VALUE: HAL_RCC_OscConfig:sysclk_source <- $r7
	@DEBUG_VALUE: HAL_RCC_OscConfig:tickstart <- $r5
	@DEBUG_VALUE: HAL_RCC_OscConfig:RCC_OscInitStruct <- $r4
	.loc	5 521 16                        @ c:/Keil_v5\ARM\PACK\Keil\STM32L5xx_DFP\1.3.0\Drivers\STM32L5xx_HAL_Driver\Src\stm32l5xx_hal_rcc.c:521:16
	ldr	r0, [r6]
	.loc	5 521 9 is_stmt 0               @ c:/Keil_v5\ARM\PACK\Keil\STM32L5xx_DFP\1.3.0\Drivers\STM32L5xx_HAL_Driver\Src\stm32l5xx_hal_rcc.c:521:9
	lsls	r0, r0, #30
	bpl.w	.LBB1_2
.Ltmp151:
@ %bb.73:                               @   in Loop: Header=BB1_72 Depth=1
	@DEBUG_VALUE: HAL_RCC_OscConfig:pll_config <- $r8
	@DEBUG_VALUE: HAL_RCC_OscConfig:sysclk_source <- $r7
	@DEBUG_VALUE: HAL_RCC_OscConfig:tickstart <- $r5
	@DEBUG_VALUE: HAL_RCC_OscConfig:RCC_OscInitStruct <- $r4
	.loc	5 523 16 is_stmt 1              @ c:/Keil_v5\ARM\PACK\Keil\STM32L5xx_DFP\1.3.0\Drivers\STM32L5xx_HAL_Driver\Src\stm32l5xx_hal_rcc.c:523:16
	bl	HAL_GetTick
	.loc	5 523 30 is_stmt 0              @ c:/Keil_v5\ARM\PACK\Keil\STM32L5xx_DFP\1.3.0\Drivers\STM32L5xx_HAL_Driver\Src\stm32l5xx_hal_rcc.c:523:30
	subs	r0, r0, r5
.Ltmp152:
	.loc	5 523 15                        @ c:/Keil_v5\ARM\PACK\Keil\STM32L5xx_DFP\1.3.0\Drivers\STM32L5xx_HAL_Driver\Src\stm32l5xx_hal_rcc.c:523:15
	cmp	r0, #2
	mov.w	r0, #3
	bls	.LBB1_72
	b	.LBB1_15
.Ltmp153:
	.p2align	2
.LBB1_74:
	@DEBUG_VALUE: HAL_RCC_OscConfig:RCC_OscInitStruct <- $r4
	.loc	5 0 0                           @ c:/Keil_v5\ARM\PACK\Keil\STM32L5xx_DFP\1.3.0\Drivers\STM32L5xx_HAL_Driver\Src\stm32l5xx_hal_rcc.c:0:0
	ldr.w	r0, [r6, #144]
.Ltmp154:
	.loc	5 735 11 is_stmt 1              @ c:/Keil_v5\ARM\PACK\Keil\STM32L5xx_DFP\1.3.0\Drivers\STM32L5xx_HAL_Driver\Src\stm32l5xx_hal_rcc.c:735:11
	lsls	r1, r5, #29
	bpl	.LBB1_76
.Ltmp155:
@ %bb.75:
	@DEBUG_VALUE: HAL_RCC_OscConfig:RCC_OscInitStruct <- $r4
	.loc	5 738 9                         @ c:/Keil_v5\ARM\PACK\Keil\STM32L5xx_DFP\1.3.0\Drivers\STM32L5xx_HAL_Driver\Src\stm32l5xx_hal_rcc.c:738:9
	orr	r0, r0, #4
	str.w	r0, [r6, #144]
	.loc	5 739 9                         @ c:/Keil_v5\ARM\PACK\Keil\STM32L5xx_DFP\1.3.0\Drivers\STM32L5xx_HAL_Driver\Src\stm32l5xx_hal_rcc.c:739:9
	ldr.w	r0, [r6, #144]
.Ltmp156:
.LBB1_76:
	@DEBUG_VALUE: HAL_RCC_OscConfig:RCC_OscInitStruct <- $r4
	.loc	5 0 0 is_stmt 0                 @ c:/Keil_v5\ARM\PACK\Keil\STM32L5xx_DFP\1.3.0\Drivers\STM32L5xx_HAL_Driver\Src\stm32l5xx_hal_rcc.c:0:0
	orr	r0, r0, #1
.Ltmp157:
.LBB1_77:
	@DEBUG_VALUE: HAL_RCC_OscConfig:RCC_OscInitStruct <- $r4
	str.w	r0, [r6, #144]
.Ltmp158:
	bl	HAL_GetTick
.Ltmp159:
	.loc	5 754 9 is_stmt 1               @ c:/Keil_v5\ARM\PACK\Keil\STM32L5xx_DFP\1.3.0\Drivers\STM32L5xx_HAL_Driver\Src\stm32l5xx_hal_rcc.c:754:9
	cmp	r5, #0
.Ltmp160:
	.loc	5 0 0 is_stmt 0                 @ c:/Keil_v5\ARM\PACK\Keil\STM32L5xx_DFP\1.3.0\Drivers\STM32L5xx_HAL_Driver\Src\stm32l5xx_hal_rcc.c:0:0
	mov	r5, r0
.Ltmp161:
	@DEBUG_VALUE: HAL_RCC_OscConfig:tickstart <- $r5
	movw	r7, #5000
.Ltmp162:
	.loc	5 754 9                         @ c:/Keil_v5\ARM\PACK\Keil\STM32L5xx_DFP\1.3.0\Drivers\STM32L5xx_HAL_Driver\Src\stm32l5xx_hal_rcc.c:754:9
	beq	.LBB1_81
.Ltmp163:
	.p2align	2
.LBB1_78:                               @ =>This Inner Loop Header: Depth=1
	@DEBUG_VALUE: HAL_RCC_OscConfig:tickstart <- $r5
	@DEBUG_VALUE: HAL_RCC_OscConfig:RCC_OscInitStruct <- $r4
	.loc	5 760 14 is_stmt 1              @ c:/Keil_v5\ARM\PACK\Keil\STM32L5xx_DFP\1.3.0\Drivers\STM32L5xx_HAL_Driver\Src\stm32l5xx_hal_rcc.c:760:14
	ldr.w	r0, [r6, #144]
	.loc	5 760 7 is_stmt 0               @ c:/Keil_v5\ARM\PACK\Keil\STM32L5xx_DFP\1.3.0\Drivers\STM32L5xx_HAL_Driver\Src\stm32l5xx_hal_rcc.c:760:7
	lsls	r0, r0, #30
	bmi	.LBB1_93
.Ltmp164:
@ %bb.79:                               @   in Loop: Header=BB1_78 Depth=1
	@DEBUG_VALUE: HAL_RCC_OscConfig:tickstart <- $r5
	@DEBUG_VALUE: HAL_RCC_OscConfig:RCC_OscInitStruct <- $r4
	.loc	5 762 14 is_stmt 1              @ c:/Keil_v5\ARM\PACK\Keil\STM32L5xx_DFP\1.3.0\Drivers\STM32L5xx_HAL_Driver\Src\stm32l5xx_hal_rcc.c:762:14
	bl	HAL_GetTick
	.loc	5 762 28 is_stmt 0              @ c:/Keil_v5\ARM\PACK\Keil\STM32L5xx_DFP\1.3.0\Drivers\STM32L5xx_HAL_Driver\Src\stm32l5xx_hal_rcc.c:762:28
	subs	r0, r0, r5
.Ltmp165:
	.loc	5 762 13                        @ c:/Keil_v5\ARM\PACK\Keil\STM32L5xx_DFP\1.3.0\Drivers\STM32L5xx_HAL_Driver\Src\stm32l5xx_hal_rcc.c:762:13
	cmp	r0, r7
	mov.w	r0, #3
	bls	.LBB1_78
	b	.LBB1_15
.Ltmp166:
	.p2align	2
.LBB1_80:                               @   in Loop: Header=BB1_81 Depth=1
	@DEBUG_VALUE: HAL_RCC_OscConfig:tickstart <- $r5
	@DEBUG_VALUE: HAL_RCC_OscConfig:RCC_OscInitStruct <- $r4
	.loc	5 805 14 is_stmt 1              @ c:/Keil_v5\ARM\PACK\Keil\STM32L5xx_DFP\1.3.0\Drivers\STM32L5xx_HAL_Driver\Src\stm32l5xx_hal_rcc.c:805:14
	bl	HAL_GetTick
	.loc	5 805 28 is_stmt 0              @ c:/Keil_v5\ARM\PACK\Keil\STM32L5xx_DFP\1.3.0\Drivers\STM32L5xx_HAL_Driver\Src\stm32l5xx_hal_rcc.c:805:28
	subs	r0, r0, r5
.Ltmp167:
	.loc	5 805 13                        @ c:/Keil_v5\ARM\PACK\Keil\STM32L5xx_DFP\1.3.0\Drivers\STM32L5xx_HAL_Driver\Src\stm32l5xx_hal_rcc.c:805:13
	cmp	r0, r7
	mov.w	r0, #3
	bhi.w	.LBB1_15
.Ltmp168:
.LBB1_81:                               @ =>This Inner Loop Header: Depth=1
	@DEBUG_VALUE: HAL_RCC_OscConfig:tickstart <- $r5
	@DEBUG_VALUE: HAL_RCC_OscConfig:RCC_OscInitStruct <- $r4
	.loc	5 803 14 is_stmt 1              @ c:/Keil_v5\ARM\PACK\Keil\STM32L5xx_DFP\1.3.0\Drivers\STM32L5xx_HAL_Driver\Src\stm32l5xx_hal_rcc.c:803:14
	ldr.w	r0, [r6, #144]
	.loc	5 803 7 is_stmt 0               @ c:/Keil_v5\ARM\PACK\Keil\STM32L5xx_DFP\1.3.0\Drivers\STM32L5xx_HAL_Driver\Src\stm32l5xx_hal_rcc.c:803:7
	lsls	r0, r0, #30
	bmi	.LBB1_80
.Ltmp169:
@ %bb.82:
	@DEBUG_VALUE: HAL_RCC_OscConfig:tickstart <- $r5
	@DEBUG_VALUE: HAL_RCC_OscConfig:RCC_OscInitStruct <- $r4
	.loc	5 811 11 is_stmt 1              @ c:/Keil_v5\ARM\PACK\Keil\STM32L5xx_DFP\1.3.0\Drivers\STM32L5xx_HAL_Driver\Src\stm32l5xx_hal_rcc.c:811:11
	ldr.w	r0, [r6, #144]
.Ltmp170:
	.loc	5 811 11 is_stmt 0              @ c:/Keil_v5\ARM\PACK\Keil\STM32L5xx_DFP\1.3.0\Drivers\STM32L5xx_HAL_Driver\Src\stm32l5xx_hal_rcc.c:811:11
	lsls	r0, r0, #24
	bmi.w	.LBB1_132
.Ltmp171:
.LBB1_83:
	@DEBUG_VALUE: HAL_RCC_OscConfig:tickstart <- $r5
	@DEBUG_VALUE: HAL_RCC_OscConfig:RCC_OscInitStruct <- $r4
	.loc	5 828 9 is_stmt 1               @ c:/Keil_v5\ARM\PACK\Keil\STM32L5xx_DFP\1.3.0\Drivers\STM32L5xx_HAL_Driver\Src\stm32l5xx_hal_rcc.c:828:9
	cmp.w	r8, #0
	bne.w	.LBB1_37
.Ltmp172:
@ %bb.84:
	@DEBUG_VALUE: HAL_RCC_OscConfig:tickstart <- $r5
	@DEBUG_VALUE: HAL_RCC_OscConfig:RCC_OscInitStruct <- $r4
	.loc	5 830 7                         @ c:/Keil_v5\ARM\PACK\Keil\STM32L5xx_DFP\1.3.0\Drivers\STM32L5xx_HAL_Driver\Src\stm32l5xx_hal_rcc.c:830:7
	ldr	r0, [r6, #88]
	bic	r0, r0, #268435456
	str	r0, [r6, #88]
	b	.LBB1_37
.Ltmp173:
	.p2align	2
.LBB1_85:
	@DEBUG_VALUE: HAL_RCC_OscConfig:pll_config <- $r8
	@DEBUG_VALUE: HAL_RCC_OscConfig:sysclk_source <- $r7
	@DEBUG_VALUE: HAL_RCC_OscConfig:tickstart <- $r5
	@DEBUG_VALUE: HAL_RCC_OscConfig:RCC_OscInitStruct <- $r4
	.loc	5 507 9                         @ c:/Keil_v5\ARM\PACK\Keil\STM32L5xx_DFP\1.3.0\Drivers\STM32L5xx_HAL_Driver\Src\stm32l5xx_hal_rcc.c:507:9
	ldr	r0, [r6]
	orr	r0, r0, #8
	str	r0, [r6]
	ldr	r0, [r6]
.Ltmp174:
	.loc	5 509 9                         @ c:/Keil_v5\ARM\PACK\Keil\STM32L5xx_DFP\1.3.0\Drivers\STM32L5xx_HAL_Driver\Src\stm32l5xx_hal_rcc.c:509:9
	ldrd	r2, r1, [r4, #32]
.Ltmp175:
	.loc	5 507 9                         @ c:/Keil_v5\ARM\PACK\Keil\STM32L5xx_DFP\1.3.0\Drivers\STM32L5xx_HAL_Driver\Src\stm32l5xx_hal_rcc.c:507:9
	bic	r0, r0, #240
	orrs	r0, r1
	str	r0, [r6]
.Ltmp176:
	.loc	5 509 9                         @ c:/Keil_v5\ARM\PACK\Keil\STM32L5xx_DFP\1.3.0\Drivers\STM32L5xx_HAL_Driver\Src\stm32l5xx_hal_rcc.c:509:9
	ldr	r0, [r6, #4]
	bic	r0, r0, #65280
	orr.w	r0, r0, r2, lsl #8
	str	r0, [r6, #4]
	b	.LBB1_2
.Ltmp177:
	.p2align	2
.LBB1_86:
	@DEBUG_VALUE: HAL_RCC_OscConfig:pll_config <- $r8
	@DEBUG_VALUE: HAL_RCC_OscConfig:sysclk_source <- $r7
	@DEBUG_VALUE: RCC_SetFlashLatencyFromMSIRange:msirange <- $r5
	@DEBUG_VALUE: HAL_RCC_OscConfig:RCC_OscInitStruct <- $r4
	@DEBUG_VALUE: RCC_SetFlashLatencyFromMSIRange:latency <- 0
	.loc	5 1792 11                       @ c:/Keil_v5\ARM\PACK\Keil\STM32L5xx_DFP\1.3.0\Drivers\STM32L5xx_HAL_Driver\Src\stm32l5xx_hal_rcc.c:1792:11
	bl	HAL_PWREx_GetVoltageRange
.Ltmp178:
	@DEBUG_VALUE: RCC_SetFlashLatencyFromMSIRange:vos <- $r0
	@DEBUG_VALUE: RCC_SetFlashLatencyFromMSIRange:vos <- $r0
	.loc	5 0 11 is_stmt 0                @ c:/Keil_v5\ARM\PACK\Keil\STM32L5xx_DFP\1.3.0\Drivers\STM32L5xx_HAL_Driver\Src\stm32l5xx_hal_rcc.c:0:11
	mvn	r1, #512
.Ltmp179:
	.loc	5 1801 45 is_stmt 1             @ c:/Keil_v5\ARM\PACK\Keil\STM32L5xx_DFP\1.3.0\Drivers\STM32L5xx_HAL_Driver\Src\stm32l5xx_hal_rcc.c:1801:45
	tst	r0, r1
	bne.w	.LBB1_21
.Ltmp180:
.LBB1_87:
	@DEBUG_VALUE: HAL_RCC_OscConfig:pll_config <- $r8
	@DEBUG_VALUE: HAL_RCC_OscConfig:sysclk_source <- $r7
	@DEBUG_VALUE: RCC_SetFlashLatencyFromMSIRange:msirange <- $r5
	@DEBUG_VALUE: HAL_RCC_OscConfig:RCC_OscInitStruct <- $r4
	@DEBUG_VALUE: RCC_SetFlashLatencyFromMSIRange:vos <- $r0
	@DEBUG_VALUE: RCC_SetFlashLatencyFromMSIRange:latency <- 0
	.loc	5 1803 9                        @ c:/Keil_v5\ARM\PACK\Keil\STM32L5xx_DFP\1.3.0\Drivers\STM32L5xx_HAL_Driver\Src\stm32l5xx_hal_rcc.c:1803:9
	cmp	r5, #129
	blo.w	.LBB1_117
.Ltmp181:
@ %bb.88:
	@DEBUG_VALUE: HAL_RCC_OscConfig:pll_config <- $r8
	@DEBUG_VALUE: HAL_RCC_OscConfig:sysclk_source <- $r7
	@DEBUG_VALUE: RCC_SetFlashLatencyFromMSIRange:msirange <- $r5
	@DEBUG_VALUE: HAL_RCC_OscConfig:RCC_OscInitStruct <- $r4
	@DEBUG_VALUE: RCC_SetFlashLatencyFromMSIRange:vos <- $r0
	@DEBUG_VALUE: RCC_SetFlashLatencyFromMSIRange:latency <- 0
	.loc	5 0 9 is_stmt 0                 @ c:/Keil_v5\ARM\PACK\Keil\STM32L5xx_DFP\1.3.0\Drivers\STM32L5xx_HAL_Driver\Src\stm32l5xx_hal_rcc.c:0:9
	movs	r0, #1
.Ltmp182:
	.loc	5 1806 11 is_stmt 1             @ c:/Keil_v5\ARM\PACK\Keil\STM32L5xx_DFP\1.3.0\Drivers\STM32L5xx_HAL_Driver\Src\stm32l5xx_hal_rcc.c:1806:11
	cmp	r5, #160
	it	hi
	movhi	r0, #2
	b	.LBB1_118
.Ltmp183:
	.p2align	2
.LBB1_89:
	@DEBUG_VALUE: HAL_RCC_OscConfig:RCC_OscInitStruct <- $r4
	.loc	5 0 0 is_stmt 0                 @ c:/Keil_v5\ARM\PACK\Keil\STM32L5xx_DFP\1.3.0\Drivers\STM32L5xx_HAL_Driver\Src\stm32l5xx_hal_rcc.c:0:0
	ldr	r1, [r6]
.Ltmp184:
	.loc	5 884 11 is_stmt 1              @ c:/Keil_v5\ARM\PACK\Keil\STM32L5xx_DFP\1.3.0\Drivers\STM32L5xx_HAL_Driver\Src\stm32l5xx_hal_rcc.c:884:11
	cmp	r0, #2
.Ltmp185:
	.loc	5 0 0 is_stmt 0                 @ c:/Keil_v5\ARM\PACK\Keil\STM32L5xx_DFP\1.3.0\Drivers\STM32L5xx_HAL_Driver\Src\stm32l5xx_hal_rcc.c:0:0
	bic	r1, r1, #16777216
	str	r1, [r6]
.Ltmp186:
	.loc	5 884 11                        @ c:/Keil_v5\ARM\PACK\Keil\STM32L5xx_DFP\1.3.0\Drivers\STM32L5xx_HAL_Driver\Src\stm32l5xx_hal_rcc.c:884:11
	bne	.LBB1_108
.Ltmp187:
@ %bb.90:
	@DEBUG_VALUE: HAL_RCC_OscConfig:RCC_OscInitStruct <- $r4
	.loc	5 898 21 is_stmt 1              @ c:/Keil_v5\ARM\PACK\Keil\STM32L5xx_DFP\1.3.0\Drivers\STM32L5xx_HAL_Driver\Src\stm32l5xx_hal_rcc.c:898:21
	bl	HAL_GetTick
	mov	r5, r0
.Ltmp188:
	@DEBUG_VALUE: HAL_RCC_OscConfig:tickstart <- $r5
	.p2align	2
.LBB1_91:                               @ =>This Inner Loop Header: Depth=1
	@DEBUG_VALUE: HAL_RCC_OscConfig:tickstart <- $r5
	@DEBUG_VALUE: HAL_RCC_OscConfig:RCC_OscInitStruct <- $r4
	.loc	5 901 16                        @ c:/Keil_v5\ARM\PACK\Keil\STM32L5xx_DFP\1.3.0\Drivers\STM32L5xx_HAL_Driver\Src\stm32l5xx_hal_rcc.c:901:16
	ldr	r0, [r6]
	.loc	5 901 9 is_stmt 0               @ c:/Keil_v5\ARM\PACK\Keil\STM32L5xx_DFP\1.3.0\Drivers\STM32L5xx_HAL_Driver\Src\stm32l5xx_hal_rcc.c:901:9
	lsls	r0, r0, #6
	bpl.w	.LBB1_129
.Ltmp189:
@ %bb.92:                               @   in Loop: Header=BB1_91 Depth=1
	@DEBUG_VALUE: HAL_RCC_OscConfig:tickstart <- $r5
	@DEBUG_VALUE: HAL_RCC_OscConfig:RCC_OscInitStruct <- $r4
	.loc	5 903 16 is_stmt 1              @ c:/Keil_v5\ARM\PACK\Keil\STM32L5xx_DFP\1.3.0\Drivers\STM32L5xx_HAL_Driver\Src\stm32l5xx_hal_rcc.c:903:16
	bl	HAL_GetTick
	.loc	5 903 30 is_stmt 0              @ c:/Keil_v5\ARM\PACK\Keil\STM32L5xx_DFP\1.3.0\Drivers\STM32L5xx_HAL_Driver\Src\stm32l5xx_hal_rcc.c:903:30
	subs	r0, r0, r5
.Ltmp190:
	.loc	5 903 15                        @ c:/Keil_v5\ARM\PACK\Keil\STM32L5xx_DFP\1.3.0\Drivers\STM32L5xx_HAL_Driver\Src\stm32l5xx_hal_rcc.c:903:15
	cmp	r0, #2
	mov.w	r0, #3
	bls	.LBB1_91
	b	.LBB1_15
.Ltmp191:
	.p2align	2
.LBB1_93:
	@DEBUG_VALUE: HAL_RCC_OscConfig:tickstart <- $r5
	@DEBUG_VALUE: HAL_RCC_OscConfig:RCC_OscInitStruct <- $r4
	.loc	5 769 31 is_stmt 1              @ c:/Keil_v5\ARM\PACK\Keil\STM32L5xx_DFP\1.3.0\Drivers\STM32L5xx_HAL_Driver\Src\stm32l5xx_hal_rcc.c:769:31
	ldr	r1, [r4, #8]
	.loc	5 0 0 is_stmt 0                 @ c:/Keil_v5\ARM\PACK\Keil\STM32L5xx_DFP\1.3.0\Drivers\STM32L5xx_HAL_Driver\Src\stm32l5xx_hal_rcc.c:0:0
	ldr.w	r0, [r6, #144]
.Ltmp192:
	.loc	5 769 11                        @ c:/Keil_v5\ARM\PACK\Keil\STM32L5xx_DFP\1.3.0\Drivers\STM32L5xx_HAL_Driver\Src\stm32l5xx_hal_rcc.c:769:11
	lsls	r1, r1, #24
	bmi.w	.LBB1_120
.Ltmp193:
@ %bb.94:
	@DEBUG_VALUE: HAL_RCC_OscConfig:tickstart <- $r5
	@DEBUG_VALUE: HAL_RCC_OscConfig:RCC_OscInitStruct <- $r4
	.loc	5 785 9 is_stmt 1               @ c:/Keil_v5\ARM\PACK\Keil\STM32L5xx_DFP\1.3.0\Drivers\STM32L5xx_HAL_Driver\Src\stm32l5xx_hal_rcc.c:785:9
	bic	r0, r0, #128
	movw	r7, #5000
	str.w	r0, [r6, #144]
.Ltmp194:
	.p2align	2
.LBB1_95:                               @ =>This Inner Loop Header: Depth=1
	@DEBUG_VALUE: HAL_RCC_OscConfig:tickstart <- $r5
	@DEBUG_VALUE: HAL_RCC_OscConfig:RCC_OscInitStruct <- $r4
	.loc	5 788 16                        @ c:/Keil_v5\ARM\PACK\Keil\STM32L5xx_DFP\1.3.0\Drivers\STM32L5xx_HAL_Driver\Src\stm32l5xx_hal_rcc.c:788:16
	ldr.w	r0, [r6, #144]
	.loc	5 788 9 is_stmt 0               @ c:/Keil_v5\ARM\PACK\Keil\STM32L5xx_DFP\1.3.0\Drivers\STM32L5xx_HAL_Driver\Src\stm32l5xx_hal_rcc.c:788:9
	lsls	r0, r0, #20
	bpl	.LBB1_83
.Ltmp195:
@ %bb.96:                               @   in Loop: Header=BB1_95 Depth=1
	@DEBUG_VALUE: HAL_RCC_OscConfig:tickstart <- $r5
	@DEBUG_VALUE: HAL_RCC_OscConfig:RCC_OscInitStruct <- $r4
	.loc	5 790 16 is_stmt 1              @ c:/Keil_v5\ARM\PACK\Keil\STM32L5xx_DFP\1.3.0\Drivers\STM32L5xx_HAL_Driver\Src\stm32l5xx_hal_rcc.c:790:16
	bl	HAL_GetTick
	.loc	5 790 30 is_stmt 0              @ c:/Keil_v5\ARM\PACK\Keil\STM32L5xx_DFP\1.3.0\Drivers\STM32L5xx_HAL_Driver\Src\stm32l5xx_hal_rcc.c:790:30
	subs	r0, r0, r5
.Ltmp196:
	.loc	5 790 15                        @ c:/Keil_v5\ARM\PACK\Keil\STM32L5xx_DFP\1.3.0\Drivers\STM32L5xx_HAL_Driver\Src\stm32l5xx_hal_rcc.c:790:15
	cmp	r0, r7
	mov.w	r0, #3
	bls	.LBB1_95
	b	.LBB1_15
.Ltmp197:
	.p2align	2
.LBB1_97:
	@DEBUG_VALUE: HAL_RCC_OscConfig:RCC_OscInitStruct <- $r4
	.loc	5 860 7 is_stmt 1               @ c:/Keil_v5\ARM\PACK\Keil\STM32L5xx_DFP\1.3.0\Drivers\STM32L5xx_HAL_Driver\Src\stm32l5xx_hal_rcc.c:860:7
	bic	r0, r0, #1
	str.w	r0, [r6, #152]
	.loc	5 863 19                        @ c:/Keil_v5\ARM\PACK\Keil\STM32L5xx_DFP\1.3.0\Drivers\STM32L5xx_HAL_Driver\Src\stm32l5xx_hal_rcc.c:863:19
	bl	HAL_GetTick
	mov	r5, r0
.Ltmp198:
	@DEBUG_VALUE: HAL_RCC_OscConfig:tickstart <- $r5
	.p2align	2
.LBB1_98:                               @ =>This Inner Loop Header: Depth=1
	@DEBUG_VALUE: HAL_RCC_OscConfig:tickstart <- $r5
	@DEBUG_VALUE: HAL_RCC_OscConfig:RCC_OscInitStruct <- $r4
	.loc	5 866 14                        @ c:/Keil_v5\ARM\PACK\Keil\STM32L5xx_DFP\1.3.0\Drivers\STM32L5xx_HAL_Driver\Src\stm32l5xx_hal_rcc.c:866:14
	ldr.w	r0, [r6, #152]
	.loc	5 866 7 is_stmt 0               @ c:/Keil_v5\ARM\PACK\Keil\STM32L5xx_DFP\1.3.0\Drivers\STM32L5xx_HAL_Driver\Src\stm32l5xx_hal_rcc.c:866:7
	lsls	r0, r0, #30
	bpl.w	.LBB1_38
.Ltmp199:
@ %bb.99:                               @   in Loop: Header=BB1_98 Depth=1
	@DEBUG_VALUE: HAL_RCC_OscConfig:tickstart <- $r5
	@DEBUG_VALUE: HAL_RCC_OscConfig:RCC_OscInitStruct <- $r4
	.loc	5 868 14 is_stmt 1              @ c:/Keil_v5\ARM\PACK\Keil\STM32L5xx_DFP\1.3.0\Drivers\STM32L5xx_HAL_Driver\Src\stm32l5xx_hal_rcc.c:868:14
	bl	HAL_GetTick
	.loc	5 868 28 is_stmt 0              @ c:/Keil_v5\ARM\PACK\Keil\STM32L5xx_DFP\1.3.0\Drivers\STM32L5xx_HAL_Driver\Src\stm32l5xx_hal_rcc.c:868:28
	subs	r0, r0, r5
.Ltmp200:
	.loc	5 868 13                        @ c:/Keil_v5\ARM\PACK\Keil\STM32L5xx_DFP\1.3.0\Drivers\STM32L5xx_HAL_Driver\Src\stm32l5xx_hal_rcc.c:868:13
	cmp	r0, #2
	mov.w	r0, #3
	bls	.LBB1_98
	b	.LBB1_15
.Ltmp201:
	.p2align	2
.LBB1_100:
	@DEBUG_VALUE: HAL_RCC_OscConfig:pll_config <- $r8
	@DEBUG_VALUE: HAL_RCC_OscConfig:sysclk_source <- $r7
	@DEBUG_VALUE: RCC_SetFlashLatencyFromMSIRange:msirange <- $r5
	@DEBUG_VALUE: HAL_RCC_OscConfig:RCC_OscInitStruct <- $r4
	@DEBUG_VALUE: RCC_SetFlashLatencyFromMSIRange:vos <- $r0
	@DEBUG_VALUE: RCC_SetFlashLatencyFromMSIRange:latency <- 0
	.loc	5 1828 11 is_stmt 1             @ c:/Keil_v5\ARM\PACK\Keil\STM32L5xx_DFP\1.3.0\Drivers\STM32L5xx_HAL_Driver\Src\stm32l5xx_hal_rcc.c:1828:11
	sub.w	r0, r5, #112
.Ltmp202:
	clz	r0, r0
	lsrs	r0, r0, #5
	cmp	r5, #128
	it	eq
	moveq	r0, #2
	b	.LBB1_118
.Ltmp203:
	.p2align	2
.LBB1_101:
	@DEBUG_VALUE: HAL_RCC_OscConfig:pll_config <- $r8
	@DEBUG_VALUE: HAL_RCC_OscConfig:sysclk_source <- $r7
	@DEBUG_VALUE: HAL_RCC_OscConfig:RCC_OscInitStruct <- $r4
	.loc	5 549 7                         @ c:/Keil_v5\ARM\PACK\Keil\STM32L5xx_DFP\1.3.0\Drivers\STM32L5xx_HAL_Driver\Src\stm32l5xx_hal_rcc.c:549:7
	ldr	r1, [r6]
.Ltmp204:
	.loc	5 552 11                        @ c:/Keil_v5\ARM\PACK\Keil\STM32L5xx_DFP\1.3.0\Drivers\STM32L5xx_HAL_Driver\Src\stm32l5xx_hal_rcc.c:552:11
	cmp	r0, #0
.Ltmp205:
	.loc	5 549 7                         @ c:/Keil_v5\ARM\PACK\Keil\STM32L5xx_DFP\1.3.0\Drivers\STM32L5xx_HAL_Driver\Src\stm32l5xx_hal_rcc.c:549:7
	bic	r1, r1, #65536
	str	r1, [r6]
	ldr	r1, [r6]
	bic	r1, r1, #262144
	str	r1, [r6]
.Ltmp206:
	.loc	5 552 11                        @ c:/Keil_v5\ARM\PACK\Keil\STM32L5xx_DFP\1.3.0\Drivers\STM32L5xx_HAL_Driver\Src\stm32l5xx_hal_rcc.c:552:11
	beq.w	.LBB1_125
.Ltmp207:
.LBB1_102:
	@DEBUG_VALUE: HAL_RCC_OscConfig:pll_config <- $r8
	@DEBUG_VALUE: HAL_RCC_OscConfig:sysclk_source <- $r7
	@DEBUG_VALUE: HAL_RCC_OscConfig:RCC_OscInitStruct <- $r4
	.loc	5 555 21                        @ c:/Keil_v5\ARM\PACK\Keil\STM32L5xx_DFP\1.3.0\Drivers\STM32L5xx_HAL_Driver\Src\stm32l5xx_hal_rcc.c:555:21
	bl	HAL_GetTick
	mov	r5, r0
.Ltmp208:
	@DEBUG_VALUE: HAL_RCC_OscConfig:tickstart <- $r5
	.p2align	2
.LBB1_103:                              @ =>This Inner Loop Header: Depth=1
	@DEBUG_VALUE: HAL_RCC_OscConfig:pll_config <- $r8
	@DEBUG_VALUE: HAL_RCC_OscConfig:sysclk_source <- $r7
	@DEBUG_VALUE: HAL_RCC_OscConfig:tickstart <- $r5
	@DEBUG_VALUE: HAL_RCC_OscConfig:RCC_OscInitStruct <- $r4
	.loc	5 558 16                        @ c:/Keil_v5\ARM\PACK\Keil\STM32L5xx_DFP\1.3.0\Drivers\STM32L5xx_HAL_Driver\Src\stm32l5xx_hal_rcc.c:558:16
	ldr	r0, [r6]
	.loc	5 558 9 is_stmt 0               @ c:/Keil_v5\ARM\PACK\Keil\STM32L5xx_DFP\1.3.0\Drivers\STM32L5xx_HAL_Driver\Src\stm32l5xx_hal_rcc.c:558:9
	lsls	r0, r0, #14
	bmi.w	.LBB1_25
.Ltmp209:
@ %bb.104:                              @   in Loop: Header=BB1_103 Depth=1
	@DEBUG_VALUE: HAL_RCC_OscConfig:pll_config <- $r8
	@DEBUG_VALUE: HAL_RCC_OscConfig:sysclk_source <- $r7
	@DEBUG_VALUE: HAL_RCC_OscConfig:tickstart <- $r5
	@DEBUG_VALUE: HAL_RCC_OscConfig:RCC_OscInitStruct <- $r4
	.loc	5 560 16 is_stmt 1              @ c:/Keil_v5\ARM\PACK\Keil\STM32L5xx_DFP\1.3.0\Drivers\STM32L5xx_HAL_Driver\Src\stm32l5xx_hal_rcc.c:560:16
	bl	HAL_GetTick
	.loc	5 560 30 is_stmt 0              @ c:/Keil_v5\ARM\PACK\Keil\STM32L5xx_DFP\1.3.0\Drivers\STM32L5xx_HAL_Driver\Src\stm32l5xx_hal_rcc.c:560:30
	subs	r0, r0, r5
.Ltmp210:
	.loc	5 560 15                        @ c:/Keil_v5\ARM\PACK\Keil\STM32L5xx_DFP\1.3.0\Drivers\STM32L5xx_HAL_Driver\Src\stm32l5xx_hal_rcc.c:560:15
	cmp	r0, #100
	mov.w	r0, #3
	bls	.LBB1_103
	b	.LBB1_15
.Ltmp211:
	.p2align	2
.LBB1_105:
	@DEBUG_VALUE: HAL_RCC_OscConfig:pll_config <- $r8
	@DEBUG_VALUE: HAL_RCC_OscConfig:sysclk_source <- $r7
	@DEBUG_VALUE: HAL_RCC_OscConfig:RCC_OscInitStruct <- $r4
	.loc	5 631 9 is_stmt 1               @ c:/Keil_v5\ARM\PACK\Keil\STM32L5xx_DFP\1.3.0\Drivers\STM32L5xx_HAL_Driver\Src\stm32l5xx_hal_rcc.c:631:9
	bic	r0, r0, #256
	str	r0, [r6]
	.loc	5 634 21                        @ c:/Keil_v5\ARM\PACK\Keil\STM32L5xx_DFP\1.3.0\Drivers\STM32L5xx_HAL_Driver\Src\stm32l5xx_hal_rcc.c:634:21
	bl	HAL_GetTick
	mov	r5, r0
.Ltmp212:
	@DEBUG_VALUE: HAL_RCC_OscConfig:tickstart <- $r5
	.p2align	2
.LBB1_106:                              @ =>This Inner Loop Header: Depth=1
	@DEBUG_VALUE: HAL_RCC_OscConfig:pll_config <- $r8
	@DEBUG_VALUE: HAL_RCC_OscConfig:sysclk_source <- $r7
	@DEBUG_VALUE: HAL_RCC_OscConfig:tickstart <- $r5
	@DEBUG_VALUE: HAL_RCC_OscConfig:RCC_OscInitStruct <- $r4
	.loc	5 637 16                        @ c:/Keil_v5\ARM\PACK\Keil\STM32L5xx_DFP\1.3.0\Drivers\STM32L5xx_HAL_Driver\Src\stm32l5xx_hal_rcc.c:637:16
	ldr	r0, [r6]
	.loc	5 637 9 is_stmt 0               @ c:/Keil_v5\ARM\PACK\Keil\STM32L5xx_DFP\1.3.0\Drivers\STM32L5xx_HAL_Driver\Src\stm32l5xx_hal_rcc.c:637:9
	lsls	r0, r0, #21
	bpl.w	.LBB1_35
.Ltmp213:
@ %bb.107:                              @   in Loop: Header=BB1_106 Depth=1
	@DEBUG_VALUE: HAL_RCC_OscConfig:pll_config <- $r8
	@DEBUG_VALUE: HAL_RCC_OscConfig:sysclk_source <- $r7
	@DEBUG_VALUE: HAL_RCC_OscConfig:tickstart <- $r5
	@DEBUG_VALUE: HAL_RCC_OscConfig:RCC_OscInitStruct <- $r4
	.loc	5 639 16 is_stmt 1              @ c:/Keil_v5\ARM\PACK\Keil\STM32L5xx_DFP\1.3.0\Drivers\STM32L5xx_HAL_Driver\Src\stm32l5xx_hal_rcc.c:639:16
	bl	HAL_GetTick
	.loc	5 639 30 is_stmt 0              @ c:/Keil_v5\ARM\PACK\Keil\STM32L5xx_DFP\1.3.0\Drivers\STM32L5xx_HAL_Driver\Src\stm32l5xx_hal_rcc.c:639:30
	subs	r0, r0, r5
.Ltmp214:
	.loc	5 639 15                        @ c:/Keil_v5\ARM\PACK\Keil\STM32L5xx_DFP\1.3.0\Drivers\STM32L5xx_HAL_Driver\Src\stm32l5xx_hal_rcc.c:639:15
	cmp	r0, #2
	mov.w	r0, #3
	bls	.LBB1_106
	b	.LBB1_15
.Ltmp215:
	.p2align	2
.LBB1_108:
	@DEBUG_VALUE: HAL_RCC_OscConfig:RCC_OscInitStruct <- $r4
	.loc	5 941 13 is_stmt 1              @ c:/Keil_v5\ARM\PACK\Keil\STM32L5xx_DFP\1.3.0\Drivers\STM32L5xx_HAL_Driver\Src\stm32l5xx_hal_rcc.c:941:13
	ldr	r0, [r6]
.Ltmp216:
	.loc	5 941 13 is_stmt 0              @ c:/Keil_v5\ARM\PACK\Keil\STM32L5xx_DFP\1.3.0\Drivers\STM32L5xx_HAL_Driver\Src\stm32l5xx_hal_rcc.c:941:13
	tst.w	r0, #671088640
	bne	.LBB1_110
.Ltmp217:
@ %bb.109:
	@DEBUG_VALUE: HAL_RCC_OscConfig:RCC_OscInitStruct <- $r4
	.loc	5 943 11 is_stmt 1              @ c:/Keil_v5\ARM\PACK\Keil\STM32L5xx_DFP\1.3.0\Drivers\STM32L5xx_HAL_Driver\Src\stm32l5xx_hal_rcc.c:943:11
	ldr	r0, [r6, #12]
	bic	r0, r0, #3
	str	r0, [r6, #12]
.Ltmp218:
.LBB1_110:
	@DEBUG_VALUE: HAL_RCC_OscConfig:RCC_OscInitStruct <- $r4
	.loc	5 946 9                         @ c:/Keil_v5\ARM\PACK\Keil\STM32L5xx_DFP\1.3.0\Drivers\STM32L5xx_HAL_Driver\Src\stm32l5xx_hal_rcc.c:946:9
	ldr	r0, [r6, #12]
	movw	r1, #65535
	movt	r1, #65262
	ands	r0, r1
	str	r0, [r6, #12]
	.loc	5 949 21                        @ c:/Keil_v5\ARM\PACK\Keil\STM32L5xx_DFP\1.3.0\Drivers\STM32L5xx_HAL_Driver\Src\stm32l5xx_hal_rcc.c:949:21
	bl	HAL_GetTick
	mov	r4, r0
.Ltmp219:
	@DEBUG_VALUE: HAL_RCC_OscConfig:RCC_OscInitStruct <- [DW_OP_LLVM_entry_value 1] $r0
	@DEBUG_VALUE: HAL_RCC_OscConfig:tickstart <- $r4
	.p2align	2
.LBB1_111:                              @ =>This Inner Loop Header: Depth=1
	@DEBUG_VALUE: HAL_RCC_OscConfig:tickstart <- $r4
	@DEBUG_VALUE: HAL_RCC_OscConfig:RCC_OscInitStruct <- [DW_OP_LLVM_entry_value 1] $r0
	.loc	5 952 16                        @ c:/Keil_v5\ARM\PACK\Keil\STM32L5xx_DFP\1.3.0\Drivers\STM32L5xx_HAL_Driver\Src\stm32l5xx_hal_rcc.c:952:16
	ldr	r0, [r6]
	.loc	5 952 9 is_stmt 0               @ c:/Keil_v5\ARM\PACK\Keil\STM32L5xx_DFP\1.3.0\Drivers\STM32L5xx_HAL_Driver\Src\stm32l5xx_hal_rcc.c:952:9
	lsls	r0, r0, #6
	bpl.w	.LBB1_47
.Ltmp220:
@ %bb.112:                              @   in Loop: Header=BB1_111 Depth=1
	@DEBUG_VALUE: HAL_RCC_OscConfig:tickstart <- $r4
	@DEBUG_VALUE: HAL_RCC_OscConfig:RCC_OscInitStruct <- [DW_OP_LLVM_entry_value 1] $r0
	.loc	5 954 16 is_stmt 1              @ c:/Keil_v5\ARM\PACK\Keil\STM32L5xx_DFP\1.3.0\Drivers\STM32L5xx_HAL_Driver\Src\stm32l5xx_hal_rcc.c:954:16
	bl	HAL_GetTick
	.loc	5 954 30 is_stmt 0              @ c:/Keil_v5\ARM\PACK\Keil\STM32L5xx_DFP\1.3.0\Drivers\STM32L5xx_HAL_Driver\Src\stm32l5xx_hal_rcc.c:954:30
	subs	r0, r0, r4
.Ltmp221:
	.loc	5 954 15                        @ c:/Keil_v5\ARM\PACK\Keil\STM32L5xx_DFP\1.3.0\Drivers\STM32L5xx_HAL_Driver\Src\stm32l5xx_hal_rcc.c:954:15
	cmp	r0, #2
	mov.w	r0, #3
	bls	.LBB1_111
	b	.LBB1_15
.Ltmp222:
	.p2align	2
.LBB1_113:
	@DEBUG_VALUE: HAL_RCC_OscConfig:pll_config <- $r8
	@DEBUG_VALUE: HAL_RCC_OscConfig:sysclk_source <- $r7
	@DEBUG_VALUE: RCC_SetFlashLatencyFromMSIRange:msirange <- $r5
	@DEBUG_VALUE: HAL_RCC_OscConfig:RCC_OscInitStruct <- $r4
	@DEBUG_VALUE: RCC_SetFlashLatencyFromMSIRange:latency <- 0
	.loc	5 1792 11 is_stmt 1             @ c:/Keil_v5\ARM\PACK\Keil\STM32L5xx_DFP\1.3.0\Drivers\STM32L5xx_HAL_Driver\Src\stm32l5xx_hal_rcc.c:1792:11
	bl	HAL_PWREx_GetVoltageRange
.Ltmp223:
	@DEBUG_VALUE: RCC_SetFlashLatencyFromMSIRange:vos <- $r0
.LBB1_114:
	@DEBUG_VALUE: HAL_RCC_OscConfig:pll_config <- $r8
	@DEBUG_VALUE: HAL_RCC_OscConfig:sysclk_source <- $r7
	@DEBUG_VALUE: RCC_SetFlashLatencyFromMSIRange:msirange <- $r5
	@DEBUG_VALUE: HAL_RCC_OscConfig:RCC_OscInitStruct <- $r4
	@DEBUG_VALUE: RCC_SetFlashLatencyFromMSIRange:vos <- $r0
	@DEBUG_VALUE: RCC_SetFlashLatencyFromMSIRange:latency <- 0
	@DEBUG_VALUE: RCC_SetFlashLatencyFromMSIRange:vos <- $r0
	.loc	5 0 11 is_stmt 0                @ c:/Keil_v5\ARM\PACK\Keil\STM32L5xx_DFP\1.3.0\Drivers\STM32L5xx_HAL_Driver\Src\stm32l5xx_hal_rcc.c:0:11
	mvn	r1, #512
.Ltmp224:
	.loc	5 1801 45 is_stmt 1             @ c:/Keil_v5\ARM\PACK\Keil\STM32L5xx_DFP\1.3.0\Drivers\STM32L5xx_HAL_Driver\Src\stm32l5xx_hal_rcc.c:1801:45
	tst	r0, r1
	beq	.LBB1_123
.Ltmp225:
@ %bb.115:
	@DEBUG_VALUE: HAL_RCC_OscConfig:pll_config <- $r8
	@DEBUG_VALUE: HAL_RCC_OscConfig:sysclk_source <- $r7
	@DEBUG_VALUE: RCC_SetFlashLatencyFromMSIRange:msirange <- $r5
	@DEBUG_VALUE: HAL_RCC_OscConfig:RCC_OscInitStruct <- $r4
	@DEBUG_VALUE: RCC_SetFlashLatencyFromMSIRange:vos <- $r0
	@DEBUG_VALUE: RCC_SetFlashLatencyFromMSIRange:latency <- 0
	.loc	5 1821 9                        @ c:/Keil_v5\ARM\PACK\Keil\STM32L5xx_DFP\1.3.0\Drivers\STM32L5xx_HAL_Driver\Src\stm32l5xx_hal_rcc.c:1821:9
	cmp	r5, #128
	bls	.LBB1_128
.Ltmp226:
@ %bb.116:
	@DEBUG_VALUE: HAL_RCC_OscConfig:pll_config <- $r8
	@DEBUG_VALUE: HAL_RCC_OscConfig:sysclk_source <- $r7
	@DEBUG_VALUE: RCC_SetFlashLatencyFromMSIRange:msirange <- $r5
	@DEBUG_VALUE: HAL_RCC_OscConfig:RCC_OscInitStruct <- $r4
	@DEBUG_VALUE: RCC_SetFlashLatencyFromMSIRange:vos <- $r0
	@DEBUG_VALUE: RCC_SetFlashLatencyFromMSIRange:latency <- 0
	.loc	5 0 9 is_stmt 0                 @ c:/Keil_v5\ARM\PACK\Keil\STM32L5xx_DFP\1.3.0\Drivers\STM32L5xx_HAL_Driver\Src\stm32l5xx_hal_rcc.c:0:9
	movs	r0, #3
	b	.LBB1_136
.Ltmp227:
	.p2align	2
.LBB1_117:
	@DEBUG_VALUE: HAL_RCC_OscConfig:pll_config <- $r8
	@DEBUG_VALUE: HAL_RCC_OscConfig:sysclk_source <- $r7
	@DEBUG_VALUE: RCC_SetFlashLatencyFromMSIRange:msirange <- $r5
	@DEBUG_VALUE: HAL_RCC_OscConfig:RCC_OscInitStruct <- $r4
	@DEBUG_VALUE: RCC_SetFlashLatencyFromMSIRange:vos <- $r0
	@DEBUG_VALUE: RCC_SetFlashLatencyFromMSIRange:latency <- 0
	movs	r0, #0
.Ltmp228:
.LBB1_118:
	@DEBUG_VALUE: HAL_RCC_OscConfig:pll_config <- $r8
	@DEBUG_VALUE: HAL_RCC_OscConfig:sysclk_source <- $r7
	@DEBUG_VALUE: RCC_SetFlashLatencyFromMSIRange:msirange <- $r5
	@DEBUG_VALUE: HAL_RCC_OscConfig:RCC_OscInitStruct <- $r4
	@DEBUG_VALUE: RCC_SetFlashLatencyFromMSIRange:latency <- 0
	@DEBUG_VALUE: RCC_SetFlashLatencyFromMSIRange:latency <- $r0
	movw	r1, #8192
	movt	r1, #16386
.Ltmp229:
	.loc	5 1845 3 is_stmt 1              @ c:/Keil_v5\ARM\PACK\Keil\STM32L5xx_DFP\1.3.0\Drivers\STM32L5xx_HAL_Driver\Src\stm32l5xx_hal_rcc.c:1845:3
	ldr	r2, [r1]
	bic	r2, r2, #15
	add	r2, r0
	str	r2, [r1]
.Ltmp230:
	.loc	5 1849 15                       @ c:/Keil_v5\ARM\PACK\Keil\STM32L5xx_DFP\1.3.0\Drivers\STM32L5xx_HAL_Driver\Src\stm32l5xx_hal_rcc.c:1849:15
	ldr	r1, [r1]
	.loc	5 1849 19 is_stmt 0             @ c:/Keil_v5\ARM\PACK\Keil\STM32L5xx_DFP\1.3.0\Drivers\STM32L5xx_HAL_Driver\Src\stm32l5xx_hal_rcc.c:1849:19
	and	r1, r1, #15
.Ltmp231:
	.loc	5 447 15 is_stmt 1              @ c:/Keil_v5\ARM\PACK\Keil\STM32L5xx_DFP\1.3.0\Drivers\STM32L5xx_HAL_Driver\Src\stm32l5xx_hal_rcc.c:447:15
	cmp	r1, r0
	bne.w	.LBB1_138
.Ltmp232:
@ %bb.119:
	@DEBUG_VALUE: HAL_RCC_OscConfig:pll_config <- $r8
	@DEBUG_VALUE: HAL_RCC_OscConfig:sysclk_source <- $r7
	@DEBUG_VALUE: HAL_RCC_OscConfig:RCC_OscInitStruct <- $r4
	.loc	5 453 11                        @ c:/Keil_v5\ARM\PACK\Keil\STM32L5xx_DFP\1.3.0\Drivers\STM32L5xx_HAL_Driver\Src\stm32l5xx_hal_rcc.c:453:11
	ldr	r0, [r6]
	orr	r0, r0, #8
	str	r0, [r6]
	ldr	r0, [r6]
.Ltmp233:
	.loc	5 455 11                        @ c:/Keil_v5\ARM\PACK\Keil\STM32L5xx_DFP\1.3.0\Drivers\STM32L5xx_HAL_Driver\Src\stm32l5xx_hal_rcc.c:455:11
	ldrd	r2, r1, [r4, #32]
.Ltmp234:
	.loc	5 453 11                        @ c:/Keil_v5\ARM\PACK\Keil\STM32L5xx_DFP\1.3.0\Drivers\STM32L5xx_HAL_Driver\Src\stm32l5xx_hal_rcc.c:453:11
	bic	r0, r0, #240
	orrs	r0, r1
	str	r0, [r6]
.Ltmp235:
	.loc	5 455 11                        @ c:/Keil_v5\ARM\PACK\Keil\STM32L5xx_DFP\1.3.0\Drivers\STM32L5xx_HAL_Driver\Src\stm32l5xx_hal_rcc.c:455:11
	ldr	r0, [r6, #4]
	bic	r0, r0, #65280
	orr.w	r0, r0, r2, lsl #8
	str	r0, [r6, #4]
	b	.LBB1_137
.Ltmp236:
	.p2align	2
.LBB1_120:
	@DEBUG_VALUE: HAL_RCC_OscConfig:tickstart <- $r5
	@DEBUG_VALUE: HAL_RCC_OscConfig:RCC_OscInitStruct <- $r4
	.loc	5 771 9                         @ c:/Keil_v5\ARM\PACK\Keil\STM32L5xx_DFP\1.3.0\Drivers\STM32L5xx_HAL_Driver\Src\stm32l5xx_hal_rcc.c:771:9
	orr	r0, r0, #128
	movw	r7, #5000
	str.w	r0, [r6, #144]
.Ltmp237:
	.p2align	2
.LBB1_121:                              @ =>This Inner Loop Header: Depth=1
	@DEBUG_VALUE: HAL_RCC_OscConfig:tickstart <- $r5
	@DEBUG_VALUE: HAL_RCC_OscConfig:RCC_OscInitStruct <- $r4
	.loc	5 774 16                        @ c:/Keil_v5\ARM\PACK\Keil\STM32L5xx_DFP\1.3.0\Drivers\STM32L5xx_HAL_Driver\Src\stm32l5xx_hal_rcc.c:774:16
	ldr.w	r0, [r6, #144]
	.loc	5 774 9 is_stmt 0               @ c:/Keil_v5\ARM\PACK\Keil\STM32L5xx_DFP\1.3.0\Drivers\STM32L5xx_HAL_Driver\Src\stm32l5xx_hal_rcc.c:774:9
	lsls	r0, r0, #20
	bmi.w	.LBB1_83
.Ltmp238:
@ %bb.122:                              @   in Loop: Header=BB1_121 Depth=1
	@DEBUG_VALUE: HAL_RCC_OscConfig:tickstart <- $r5
	@DEBUG_VALUE: HAL_RCC_OscConfig:RCC_OscInitStruct <- $r4
	.loc	5 776 16 is_stmt 1              @ c:/Keil_v5\ARM\PACK\Keil\STM32L5xx_DFP\1.3.0\Drivers\STM32L5xx_HAL_Driver\Src\stm32l5xx_hal_rcc.c:776:16
	bl	HAL_GetTick
	.loc	5 776 30 is_stmt 0              @ c:/Keil_v5\ARM\PACK\Keil\STM32L5xx_DFP\1.3.0\Drivers\STM32L5xx_HAL_Driver\Src\stm32l5xx_hal_rcc.c:776:30
	subs	r0, r0, r5
.Ltmp239:
	.loc	5 776 15                        @ c:/Keil_v5\ARM\PACK\Keil\STM32L5xx_DFP\1.3.0\Drivers\STM32L5xx_HAL_Driver\Src\stm32l5xx_hal_rcc.c:776:15
	cmp	r0, r7
	mov.w	r0, #3
	bls	.LBB1_121
	b	.LBB1_15
.Ltmp240:
	.p2align	2
.LBB1_123:
	@DEBUG_VALUE: HAL_RCC_OscConfig:pll_config <- $r8
	@DEBUG_VALUE: HAL_RCC_OscConfig:sysclk_source <- $r7
	@DEBUG_VALUE: RCC_SetFlashLatencyFromMSIRange:msirange <- $r5
	@DEBUG_VALUE: HAL_RCC_OscConfig:RCC_OscInitStruct <- $r4
	@DEBUG_VALUE: RCC_SetFlashLatencyFromMSIRange:vos <- $r0
	@DEBUG_VALUE: RCC_SetFlashLatencyFromMSIRange:latency <- 0
	.loc	5 1803 9 is_stmt 1              @ c:/Keil_v5\ARM\PACK\Keil\STM32L5xx_DFP\1.3.0\Drivers\STM32L5xx_HAL_Driver\Src\stm32l5xx_hal_rcc.c:1803:9
	cmp	r5, #129
	blo	.LBB1_135
.Ltmp241:
@ %bb.124:
	@DEBUG_VALUE: HAL_RCC_OscConfig:pll_config <- $r8
	@DEBUG_VALUE: HAL_RCC_OscConfig:sysclk_source <- $r7
	@DEBUG_VALUE: RCC_SetFlashLatencyFromMSIRange:msirange <- $r5
	@DEBUG_VALUE: HAL_RCC_OscConfig:RCC_OscInitStruct <- $r4
	@DEBUG_VALUE: RCC_SetFlashLatencyFromMSIRange:vos <- $r0
	@DEBUG_VALUE: RCC_SetFlashLatencyFromMSIRange:latency <- 0
	.loc	5 0 9 is_stmt 0                 @ c:/Keil_v5\ARM\PACK\Keil\STM32L5xx_DFP\1.3.0\Drivers\STM32L5xx_HAL_Driver\Src\stm32l5xx_hal_rcc.c:0:9
	movs	r0, #1
.Ltmp242:
	.loc	5 1806 11 is_stmt 1             @ c:/Keil_v5\ARM\PACK\Keil\STM32L5xx_DFP\1.3.0\Drivers\STM32L5xx_HAL_Driver\Src\stm32l5xx_hal_rcc.c:1806:11
	cmp	r5, #160
	it	hi
	movhi	r0, #2
	b	.LBB1_136
.Ltmp243:
	.p2align	2
.LBB1_125:
	@DEBUG_VALUE: HAL_RCC_OscConfig:pll_config <- $r8
	@DEBUG_VALUE: HAL_RCC_OscConfig:sysclk_source <- $r7
	@DEBUG_VALUE: HAL_RCC_OscConfig:RCC_OscInitStruct <- $r4
	.loc	5 569 21                        @ c:/Keil_v5\ARM\PACK\Keil\STM32L5xx_DFP\1.3.0\Drivers\STM32L5xx_HAL_Driver\Src\stm32l5xx_hal_rcc.c:569:21
	bl	HAL_GetTick
	mov	r5, r0
.Ltmp244:
	@DEBUG_VALUE: HAL_RCC_OscConfig:tickstart <- $r5
.LBB1_126:                              @ =>This Inner Loop Header: Depth=1
	@DEBUG_VALUE: HAL_RCC_OscConfig:pll_config <- $r8
	@DEBUG_VALUE: HAL_RCC_OscConfig:sysclk_source <- $r7
	@DEBUG_VALUE: HAL_RCC_OscConfig:tickstart <- $r5
	@DEBUG_VALUE: HAL_RCC_OscConfig:RCC_OscInitStruct <- $r4
	.loc	5 572 16                        @ c:/Keil_v5\ARM\PACK\Keil\STM32L5xx_DFP\1.3.0\Drivers\STM32L5xx_HAL_Driver\Src\stm32l5xx_hal_rcc.c:572:16
	ldr	r0, [r6]
	.loc	5 572 9 is_stmt 0               @ c:/Keil_v5\ARM\PACK\Keil\STM32L5xx_DFP\1.3.0\Drivers\STM32L5xx_HAL_Driver\Src\stm32l5xx_hal_rcc.c:572:9
	lsls	r0, r0, #14
	bpl.w	.LBB1_25
.Ltmp245:
@ %bb.127:                              @   in Loop: Header=BB1_126 Depth=1
	@DEBUG_VALUE: HAL_RCC_OscConfig:pll_config <- $r8
	@DEBUG_VALUE: HAL_RCC_OscConfig:sysclk_source <- $r7
	@DEBUG_VALUE: HAL_RCC_OscConfig:tickstart <- $r5
	@DEBUG_VALUE: HAL_RCC_OscConfig:RCC_OscInitStruct <- $r4
	.loc	5 574 16 is_stmt 1              @ c:/Keil_v5\ARM\PACK\Keil\STM32L5xx_DFP\1.3.0\Drivers\STM32L5xx_HAL_Driver\Src\stm32l5xx_hal_rcc.c:574:16
	bl	HAL_GetTick
	.loc	5 574 30 is_stmt 0              @ c:/Keil_v5\ARM\PACK\Keil\STM32L5xx_DFP\1.3.0\Drivers\STM32L5xx_HAL_Driver\Src\stm32l5xx_hal_rcc.c:574:30
	subs	r0, r0, r5
.Ltmp246:
	.loc	5 574 15                        @ c:/Keil_v5\ARM\PACK\Keil\STM32L5xx_DFP\1.3.0\Drivers\STM32L5xx_HAL_Driver\Src\stm32l5xx_hal_rcc.c:574:15
	cmp	r0, #100
	mov.w	r0, #3
	bls	.LBB1_126
	b	.LBB1_15
.Ltmp247:
	.p2align	2
.LBB1_128:
	@DEBUG_VALUE: HAL_RCC_OscConfig:pll_config <- $r8
	@DEBUG_VALUE: HAL_RCC_OscConfig:sysclk_source <- $r7
	@DEBUG_VALUE: RCC_SetFlashLatencyFromMSIRange:msirange <- $r5
	@DEBUG_VALUE: HAL_RCC_OscConfig:RCC_OscInitStruct <- $r4
	@DEBUG_VALUE: RCC_SetFlashLatencyFromMSIRange:vos <- $r0
	@DEBUG_VALUE: RCC_SetFlashLatencyFromMSIRange:latency <- 0
	.loc	5 1828 11 is_stmt 1             @ c:/Keil_v5\ARM\PACK\Keil\STM32L5xx_DFP\1.3.0\Drivers\STM32L5xx_HAL_Driver\Src\stm32l5xx_hal_rcc.c:1828:11
	sub.w	r0, r5, #112
.Ltmp248:
	clz	r0, r0
	lsrs	r0, r0, #5
	cmp	r5, #128
	it	eq
	moveq	r0, #2
	b	.LBB1_136
.Ltmp249:
	.p2align	2
.LBB1_129:
	@DEBUG_VALUE: HAL_RCC_OscConfig:tickstart <- $r5
	@DEBUG_VALUE: HAL_RCC_OscConfig:RCC_OscInitStruct <- $r4
	.loc	5 910 9                         @ c:/Keil_v5\ARM\PACK\Keil\STM32L5xx_DFP\1.3.0\Drivers\STM32L5xx_HAL_Driver\Src\stm32l5xx_hal_rcc.c:910:9
	ldr	r0, [r6, #12]
	movw	r1, #32780
	movt	r1, #415
	and.w	r12, r0, r1
	add.w	r7, r4, #48
	ldrd	r5, r4, [r4, #64]
.Ltmp250:
	@DEBUG_VALUE: HAL_RCC_OscConfig:RCC_OscInitStruct <- [DW_OP_LLVM_entry_value 1] $r0
	.loc	5 0 9 is_stmt 0                 @ c:/Keil_v5\ARM\PACK\Keil\STM32L5xx_DFP\1.3.0\Drivers\STM32L5xx_HAL_Driver\Src\stm32l5xx_hal_rcc.c:0:9
	movs	r0, #0
	movt	r0, #65504
	.loc	5 910 9                         @ c:/Keil_v5\ARM\PACK\Keil\STM32L5xx_DFP\1.3.0\Drivers\STM32L5xx_HAL_Driver\Src\stm32l5xx_hal_rcc.c:910:9
	ldm	r7, {r1, r2, r3, r7}
	add.w	r0, r0, r5, lsl #20
	mvn	r5, #15
	add.w	r2, r5, r2, lsl #4
	orr.w	r1, r1, r12
	orrs	r1, r2
	orr.w	r1, r1, r3, lsl #8
	bfc	r0, #0, #21
	mov.w	r5, #-33554432
	add.w	r2, r5, r4, lsl #24
	orrs	r0, r1
	orr.w	r0, r0, r7, lsl #27
	and	r1, r2, #-33554432
	orrs	r0, r1
	str	r0, [r6, #12]
	.loc	5 918 9 is_stmt 1               @ c:/Keil_v5\ARM\PACK\Keil\STM32L5xx_DFP\1.3.0\Drivers\STM32L5xx_HAL_Driver\Src\stm32l5xx_hal_rcc.c:918:9
	ldr	r0, [r6]
	orr	r0, r0, #16777216
	str	r0, [r6]
	.loc	5 921 9                         @ c:/Keil_v5\ARM\PACK\Keil\STM32L5xx_DFP\1.3.0\Drivers\STM32L5xx_HAL_Driver\Src\stm32l5xx_hal_rcc.c:921:9
	ldr	r0, [r6, #12]
	orr	r0, r0, #16777216
	str	r0, [r6, #12]
	.loc	5 924 21                        @ c:/Keil_v5\ARM\PACK\Keil\STM32L5xx_DFP\1.3.0\Drivers\STM32L5xx_HAL_Driver\Src\stm32l5xx_hal_rcc.c:924:21
	bl	HAL_GetTick
	mov	r4, r0
.Ltmp251:
	@DEBUG_VALUE: HAL_RCC_OscConfig:tickstart <- $r4
.LBB1_130:                              @ =>This Inner Loop Header: Depth=1
	@DEBUG_VALUE: HAL_RCC_OscConfig:tickstart <- $r4
	@DEBUG_VALUE: HAL_RCC_OscConfig:RCC_OscInitStruct <- [DW_OP_LLVM_entry_value 1] $r0
	.loc	5 927 16                        @ c:/Keil_v5\ARM\PACK\Keil\STM32L5xx_DFP\1.3.0\Drivers\STM32L5xx_HAL_Driver\Src\stm32l5xx_hal_rcc.c:927:16
	ldr	r0, [r6]
	.loc	5 927 9 is_stmt 0               @ c:/Keil_v5\ARM\PACK\Keil\STM32L5xx_DFP\1.3.0\Drivers\STM32L5xx_HAL_Driver\Src\stm32l5xx_hal_rcc.c:927:9
	lsls	r0, r0, #6
	bmi.w	.LBB1_47
.Ltmp252:
@ %bb.131:                              @   in Loop: Header=BB1_130 Depth=1
	@DEBUG_VALUE: HAL_RCC_OscConfig:tickstart <- $r4
	@DEBUG_VALUE: HAL_RCC_OscConfig:RCC_OscInitStruct <- [DW_OP_LLVM_entry_value 1] $r0
	.loc	5 929 16 is_stmt 1              @ c:/Keil_v5\ARM\PACK\Keil\STM32L5xx_DFP\1.3.0\Drivers\STM32L5xx_HAL_Driver\Src\stm32l5xx_hal_rcc.c:929:16
	bl	HAL_GetTick
	.loc	5 929 30 is_stmt 0              @ c:/Keil_v5\ARM\PACK\Keil\STM32L5xx_DFP\1.3.0\Drivers\STM32L5xx_HAL_Driver\Src\stm32l5xx_hal_rcc.c:929:30
	subs	r0, r0, r4
.Ltmp253:
	.loc	5 929 15                        @ c:/Keil_v5\ARM\PACK\Keil\STM32L5xx_DFP\1.3.0\Drivers\STM32L5xx_HAL_Driver\Src\stm32l5xx_hal_rcc.c:929:15
	cmp	r0, #2
	mov.w	r0, #3
	bls	.LBB1_130
	b	.LBB1_15
.Ltmp254:
	.p2align	2
.LBB1_132:
	@DEBUG_VALUE: HAL_RCC_OscConfig:tickstart <- $r5
	@DEBUG_VALUE: HAL_RCC_OscConfig:RCC_OscInitStruct <- $r4
	.loc	5 814 9 is_stmt 1               @ c:/Keil_v5\ARM\PACK\Keil\STM32L5xx_DFP\1.3.0\Drivers\STM32L5xx_HAL_Driver\Src\stm32l5xx_hal_rcc.c:814:9
	ldr.w	r0, [r6, #144]
	movw	r7, #5000
	bic	r0, r0, #128
	str.w	r0, [r6, #144]
.Ltmp255:
.LBB1_133:                              @ =>This Inner Loop Header: Depth=1
	@DEBUG_VALUE: HAL_RCC_OscConfig:tickstart <- $r5
	@DEBUG_VALUE: HAL_RCC_OscConfig:RCC_OscInitStruct <- $r4
	.loc	5 817 16                        @ c:/Keil_v5\ARM\PACK\Keil\STM32L5xx_DFP\1.3.0\Drivers\STM32L5xx_HAL_Driver\Src\stm32l5xx_hal_rcc.c:817:16
	ldr.w	r0, [r6, #144]
	.loc	5 817 9 is_stmt 0               @ c:/Keil_v5\ARM\PACK\Keil\STM32L5xx_DFP\1.3.0\Drivers\STM32L5xx_HAL_Driver\Src\stm32l5xx_hal_rcc.c:817:9
	lsls	r0, r0, #20
	bpl.w	.LBB1_83
.Ltmp256:
@ %bb.134:                              @   in Loop: Header=BB1_133 Depth=1
	@DEBUG_VALUE: HAL_RCC_OscConfig:tickstart <- $r5
	@DEBUG_VALUE: HAL_RCC_OscConfig:RCC_OscInitStruct <- $r4
	.loc	5 819 16 is_stmt 1              @ c:/Keil_v5\ARM\PACK\Keil\STM32L5xx_DFP\1.3.0\Drivers\STM32L5xx_HAL_Driver\Src\stm32l5xx_hal_rcc.c:819:16
	bl	HAL_GetTick
	.loc	5 819 30 is_stmt 0              @ c:/Keil_v5\ARM\PACK\Keil\STM32L5xx_DFP\1.3.0\Drivers\STM32L5xx_HAL_Driver\Src\stm32l5xx_hal_rcc.c:819:30
	subs	r0, r0, r5
.Ltmp257:
	.loc	5 819 15                        @ c:/Keil_v5\ARM\PACK\Keil\STM32L5xx_DFP\1.3.0\Drivers\STM32L5xx_HAL_Driver\Src\stm32l5xx_hal_rcc.c:819:15
	cmp	r0, r7
	mov.w	r0, #3
	bls	.LBB1_133
	b	.LBB1_15
.Ltmp258:
	.p2align	2
.LBB1_135:
	@DEBUG_VALUE: HAL_RCC_OscConfig:pll_config <- $r8
	@DEBUG_VALUE: HAL_RCC_OscConfig:sysclk_source <- $r7
	@DEBUG_VALUE: RCC_SetFlashLatencyFromMSIRange:msirange <- $r5
	@DEBUG_VALUE: HAL_RCC_OscConfig:RCC_OscInitStruct <- $r4
	@DEBUG_VALUE: RCC_SetFlashLatencyFromMSIRange:vos <- $r0
	@DEBUG_VALUE: RCC_SetFlashLatencyFromMSIRange:latency <- 0
	.loc	5 0 15                          @ c:/Keil_v5\ARM\PACK\Keil\STM32L5xx_DFP\1.3.0\Drivers\STM32L5xx_HAL_Driver\Src\stm32l5xx_hal_rcc.c:0:15
	movs	r0, #0
.Ltmp259:
.LBB1_136:
	@DEBUG_VALUE: HAL_RCC_OscConfig:pll_config <- $r8
	@DEBUG_VALUE: HAL_RCC_OscConfig:sysclk_source <- $r7
	@DEBUG_VALUE: RCC_SetFlashLatencyFromMSIRange:msirange <- $r5
	@DEBUG_VALUE: HAL_RCC_OscConfig:RCC_OscInitStruct <- $r4
	@DEBUG_VALUE: RCC_SetFlashLatencyFromMSIRange:latency <- 0
	@DEBUG_VALUE: RCC_SetFlashLatencyFromMSIRange:latency <- $r0
	movw	r1, #8192
	movt	r1, #16386
.Ltmp260:
	.loc	5 1845 3 is_stmt 1              @ c:/Keil_v5\ARM\PACK\Keil\STM32L5xx_DFP\1.3.0\Drivers\STM32L5xx_HAL_Driver\Src\stm32l5xx_hal_rcc.c:1845:3
	ldr	r2, [r1]
	bic	r2, r2, #15
	add	r2, r0
	str	r2, [r1]
.Ltmp261:
	.loc	5 1849 15                       @ c:/Keil_v5\ARM\PACK\Keil\STM32L5xx_DFP\1.3.0\Drivers\STM32L5xx_HAL_Driver\Src\stm32l5xx_hal_rcc.c:1849:15
	ldr	r1, [r1]
	.loc	5 1849 19 is_stmt 0             @ c:/Keil_v5\ARM\PACK\Keil\STM32L5xx_DFP\1.3.0\Drivers\STM32L5xx_HAL_Driver\Src\stm32l5xx_hal_rcc.c:1849:19
	and	r1, r1, #15
.Ltmp262:
	.loc	5 469 17 is_stmt 1              @ c:/Keil_v5\ARM\PACK\Keil\STM32L5xx_DFP\1.3.0\Drivers\STM32L5xx_HAL_Driver\Src\stm32l5xx_hal_rcc.c:469:17
	cmp	r1, r0
	bne	.LBB1_138
.Ltmp263:
.LBB1_137:
	@DEBUG_VALUE: HAL_RCC_OscConfig:pll_config <- $r8
	@DEBUG_VALUE: HAL_RCC_OscConfig:sysclk_source <- $r7
	@DEBUG_VALUE: HAL_RCC_OscConfig:RCC_OscInitStruct <- $r4
	.loc	5 1412 11                       @ c:/Keil_v5\ARM\PACK\Keil\STM32L5xx_DFP\1.3.0\Drivers\STM32L5xx_HAL_Driver\Src\stm32l5xx_hal_rcc.c:1412:11
	bl	HAL_RCC_GetSysClockFreq
	.loc	5 1412 60 is_stmt 0             @ c:/Keil_v5\ARM\PACK\Keil\STM32L5xx_DFP\1.3.0\Drivers\STM32L5xx_HAL_Driver\Src\stm32l5xx_hal_rcc.c:1412:60
	ldr	r1, [r6, #8]
	.loc	5 1412 40                       @ c:/Keil_v5\ARM\PACK\Keil\STM32L5xx_DFP\1.3.0\Drivers\STM32L5xx_HAL_Driver\Src\stm32l5xx_hal_rcc.c:1412:40
	movw	r2, :lower16:AHBPrescTable
	.loc	5 1412 82                       @ c:/Keil_v5\ARM\PACK\Keil\STM32L5xx_DFP\1.3.0\Drivers\STM32L5xx_HAL_Driver\Src\stm32l5xx_hal_rcc.c:1412:82
	ubfx	r1, r1, #4, #4
	.loc	5 1412 40                       @ c:/Keil_v5\ARM\PACK\Keil\STM32L5xx_DFP\1.3.0\Drivers\STM32L5xx_HAL_Driver\Src\stm32l5xx_hal_rcc.c:1412:40
	movt	r2, :upper16:AHBPrescTable
	ldrb	r1, [r2, r1]
.Ltmp264:
	.loc	5 477 25 is_stmt 1              @ c:/Keil_v5\ARM\PACK\Keil\STM32L5xx_DFP\1.3.0\Drivers\STM32L5xx_HAL_Driver\Src\stm32l5xx_hal_rcc.c:477:25
	movw	r2, :lower16:SystemCoreClock
.Ltmp265:
	.loc	5 1412 37                       @ c:/Keil_v5\ARM\PACK\Keil\STM32L5xx_DFP\1.3.0\Drivers\STM32L5xx_HAL_Driver\Src\stm32l5xx_hal_rcc.c:1412:37
	lsr.w	r1, r0, r1
.Ltmp266:
	.loc	5 480 31                        @ c:/Keil_v5\ARM\PACK\Keil\STM32L5xx_DFP\1.3.0\Drivers\STM32L5xx_HAL_Driver\Src\stm32l5xx_hal_rcc.c:480:31
	movw	r0, :lower16:uwTickPrio
	movt	r0, :upper16:uwTickPrio
	ldr	r0, [r0]
	.loc	5 477 25                        @ c:/Keil_v5\ARM\PACK\Keil\STM32L5xx_DFP\1.3.0\Drivers\STM32L5xx_HAL_Driver\Src\stm32l5xx_hal_rcc.c:477:25
	movt	r2, :upper16:SystemCoreClock
	str	r1, [r2]
	.loc	5 480 18                        @ c:/Keil_v5\ARM\PACK\Keil\STM32L5xx_DFP\1.3.0\Drivers\STM32L5xx_HAL_Driver\Src\stm32l5xx_hal_rcc.c:480:18
	bl	HAL_InitTick
.Ltmp267:
	@DEBUG_VALUE: HAL_RCC_OscConfig:status <- $r0
	.loc	5 481 13                        @ c:/Keil_v5\ARM\PACK\Keil\STM32L5xx_DFP\1.3.0\Drivers\STM32L5xx_HAL_Driver\Src\stm32l5xx_hal_rcc.c:481:13
	cmp	r0, #0
	bne.w	.LBB1_15
	b	.LBB1_2
.Ltmp268:
	.p2align	2
.LBB1_138:
	.loc	5 0 13 is_stmt 0                @ c:/Keil_v5\ARM\PACK\Keil\STM32L5xx_DFP\1.3.0\Drivers\STM32L5xx_HAL_Driver\Src\stm32l5xx_hal_rcc.c:0:13
	movs	r0, #1
	.loc	5 986 1 is_stmt 1               @ c:/Keil_v5\ARM\PACK\Keil\STM32L5xx_DFP\1.3.0\Drivers\STM32L5xx_HAL_Driver\Src\stm32l5xx_hal_rcc.c:986:1
	add	sp, #16
	pop.w	{r4, r5, r6, r7, r8, pc}
.Ltmp269:
.Lfunc_end1:
	.size	HAL_RCC_OscConfig, .Lfunc_end1-HAL_RCC_OscConfig
	.cfi_endproc
	.cantunwind
	.fnend
                                        @ -- End function
	.section	.text.HAL_RCC_GetHCLKFreq,"ax",%progbits
	.hidden	HAL_RCC_GetHCLKFreq             @ -- Begin function HAL_RCC_GetHCLKFreq
	.globl	HAL_RCC_GetHCLKFreq
	.p2align	2
	.type	HAL_RCC_GetHCLKFreq,%function
	.code	16                              @ @HAL_RCC_GetHCLKFreq
	.thumb_func
HAL_RCC_GetHCLKFreq:
.Lfunc_begin2:
	.loc	5 1411 0                        @ c:/Keil_v5\ARM\PACK\Keil\STM32L5xx_DFP\1.3.0\Drivers\STM32L5xx_HAL_Driver\Src\stm32l5xx_hal_rcc.c:1411:0
	.fnstart
	.cfi_startproc
@ %bb.0:
	.save	{r7, lr}
	push	{r7, lr}
	.cfi_def_cfa_offset 8
	.cfi_offset lr, -4
	.cfi_offset r7, -8
.Ltmp270:
	.loc	5 1412 11 prologue_end          @ c:/Keil_v5\ARM\PACK\Keil\STM32L5xx_DFP\1.3.0\Drivers\STM32L5xx_HAL_Driver\Src\stm32l5xx_hal_rcc.c:1412:11
	bl	HAL_RCC_GetSysClockFreq
	movw	r1, #4104
	movt	r1, #16386
	.loc	5 1412 60 is_stmt 0             @ c:/Keil_v5\ARM\PACK\Keil\STM32L5xx_DFP\1.3.0\Drivers\STM32L5xx_HAL_Driver\Src\stm32l5xx_hal_rcc.c:1412:60
	ldr	r1, [r1]
	.loc	5 1412 40                       @ c:/Keil_v5\ARM\PACK\Keil\STM32L5xx_DFP\1.3.0\Drivers\STM32L5xx_HAL_Driver\Src\stm32l5xx_hal_rcc.c:1412:40
	movw	r2, :lower16:AHBPrescTable
	.loc	5 1412 82                       @ c:/Keil_v5\ARM\PACK\Keil\STM32L5xx_DFP\1.3.0\Drivers\STM32L5xx_HAL_Driver\Src\stm32l5xx_hal_rcc.c:1412:82
	ubfx	r1, r1, #4, #4
	.loc	5 1412 40                       @ c:/Keil_v5\ARM\PACK\Keil\STM32L5xx_DFP\1.3.0\Drivers\STM32L5xx_HAL_Driver\Src\stm32l5xx_hal_rcc.c:1412:40
	movt	r2, :upper16:AHBPrescTable
	ldrb	r1, [r2, r1]
	.loc	5 1412 37                       @ c:/Keil_v5\ARM\PACK\Keil\STM32L5xx_DFP\1.3.0\Drivers\STM32L5xx_HAL_Driver\Src\stm32l5xx_hal_rcc.c:1412:37
	lsrs	r0, r1
	.loc	5 1412 3                        @ c:/Keil_v5\ARM\PACK\Keil\STM32L5xx_DFP\1.3.0\Drivers\STM32L5xx_HAL_Driver\Src\stm32l5xx_hal_rcc.c:1412:3
	pop	{r7, pc}
.Ltmp271:
.Lfunc_end2:
	.size	HAL_RCC_GetHCLKFreq, .Lfunc_end2-HAL_RCC_GetHCLKFreq
	.cfi_endproc
	.cantunwind
	.fnend
                                        @ -- End function
	.section	.text.HAL_RCC_ClockConfig,"ax",%progbits
	.hidden	HAL_RCC_ClockConfig             @ -- Begin function HAL_RCC_ClockConfig
	.globl	HAL_RCC_ClockConfig
	.p2align	2
	.type	HAL_RCC_ClockConfig,%function
	.code	16                              @ @HAL_RCC_ClockConfig
	.thumb_func
HAL_RCC_ClockConfig:
.Lfunc_begin3:
	.loc	5 1042 0 is_stmt 1              @ c:/Keil_v5\ARM\PACK\Keil\STM32L5xx_DFP\1.3.0\Drivers\STM32L5xx_HAL_Driver\Src\stm32l5xx_hal_rcc.c:1042:0
	.fnstart
	.cfi_startproc
@ %bb.0:
	@DEBUG_VALUE: HAL_RCC_ClockConfig:RCC_ClkInitStruct <- $r0
	@DEBUG_VALUE: HAL_RCC_ClockConfig:FLatency <- $r1
	@DEBUG_VALUE: HAL_RCC_ClockConfig:RCC_ClkInitStruct <- $r0
	.save	{r4, r5, r6, r7, r8, r9, r10, lr}
	push.w	{r4, r5, r6, r7, r8, r9, r10, lr}
	.cfi_def_cfa_offset 32
	.cfi_offset lr, -4
	.cfi_offset r10, -8
	.cfi_offset r9, -12
	.cfi_offset r8, -16
	.cfi_offset r7, -20
	.cfi_offset r6, -24
	.cfi_offset r5, -28
	.cfi_offset r4, -32
.Ltmp272:
	@DEBUG_VALUE: HAL_RCC_ClockConfig:hpre <- 0
	.loc	5 1048 7 prologue_end           @ c:/Keil_v5\ARM\PACK\Keil\STM32L5xx_DFP\1.3.0\Drivers\STM32L5xx_HAL_Driver\Src\stm32l5xx_hal_rcc.c:1048:7
	cmp	r0, #0
	@DEBUG_VALUE: HAL_RCC_ClockConfig:FLatency <- $r1
	beq.w	.LBB3_40
.Ltmp273:
@ %bb.1:
	@DEBUG_VALUE: HAL_RCC_ClockConfig:FLatency <- $r1
	@DEBUG_VALUE: HAL_RCC_ClockConfig:RCC_ClkInitStruct <- $r0
	@DEBUG_VALUE: HAL_RCC_ClockConfig:hpre <- 0
	.loc	5 0 7 is_stmt 0                 @ c:/Keil_v5\ARM\PACK\Keil\STM32L5xx_DFP\1.3.0\Drivers\STM32L5xx_HAL_Driver\Src\stm32l5xx_hal_rcc.c:0:7
	movw	r8, #8192
	movt	r8, #16386
	mov	r4, r0
.Ltmp274:
	@DEBUG_VALUE: HAL_RCC_ClockConfig:RCC_ClkInitStruct <- $r4
	@DEBUG_VALUE: HAL_RCC_ClockConfig:RCC_ClkInitStruct <- $r4
	.loc	5 1062 18 is_stmt 1             @ c:/Keil_v5\ARM\PACK\Keil\STM32L5xx_DFP\1.3.0\Drivers\STM32L5xx_HAL_Driver\Src\stm32l5xx_hal_rcc.c:1062:18
	ldr.w	r0, [r8]
	mov	r5, r1
.Ltmp275:
	@DEBUG_VALUE: HAL_RCC_ClockConfig:FLatency <- $r5
	and	r0, r0, #15
.Ltmp276:
	.loc	5 1062 7 is_stmt 0              @ c:/Keil_v5\ARM\PACK\Keil\STM32L5xx_DFP\1.3.0\Drivers\STM32L5xx_HAL_Driver\Src\stm32l5xx_hal_rcc.c:1062:7
	cmp	r0, r1
	bhs	.LBB3_3
.Ltmp277:
@ %bb.2:
	@DEBUG_VALUE: HAL_RCC_ClockConfig:FLatency <- $r5
	@DEBUG_VALUE: HAL_RCC_ClockConfig:RCC_ClkInitStruct <- $r4
	@DEBUG_VALUE: HAL_RCC_ClockConfig:hpre <- 0
	.loc	5 1065 5 is_stmt 1              @ c:/Keil_v5\ARM\PACK\Keil\STM32L5xx_DFP\1.3.0\Drivers\STM32L5xx_HAL_Driver\Src\stm32l5xx_hal_rcc.c:1065:5
	ldr.w	r0, [r8]
	bic	r0, r0, #15
	orrs	r0, r5
	str.w	r0, [r8]
.Ltmp278:
	.loc	5 1069 9                        @ c:/Keil_v5\ARM\PACK\Keil\STM32L5xx_DFP\1.3.0\Drivers\STM32L5xx_HAL_Driver\Src\stm32l5xx_hal_rcc.c:1069:9
	ldr.w	r0, [r8]
	and	r0, r0, #15
.Ltmp279:
	.loc	5 1069 9 is_stmt 0              @ c:/Keil_v5\ARM\PACK\Keil\STM32L5xx_DFP\1.3.0\Drivers\STM32L5xx_HAL_Driver\Src\stm32l5xx_hal_rcc.c:1069:9
	cmp	r0, r5
	bne.w	.LBB3_40
.Ltmp280:
.LBB3_3:
	@DEBUG_VALUE: HAL_RCC_ClockConfig:FLatency <- $r5
	@DEBUG_VALUE: HAL_RCC_ClockConfig:RCC_ClkInitStruct <- $r4
	@DEBUG_VALUE: HAL_RCC_ClockConfig:hpre <- 0
	.loc	5 1076 28 is_stmt 1             @ c:/Keil_v5\ARM\PACK\Keil\STM32L5xx_DFP\1.3.0\Drivers\STM32L5xx_HAL_Driver\Src\stm32l5xx_hal_rcc.c:1076:28
	ldr	r0, [r4]
	movw	r10, #4104
.Ltmp281:
	.loc	5 1076 7 is_stmt 0              @ c:/Keil_v5\ARM\PACK\Keil\STM32L5xx_DFP\1.3.0\Drivers\STM32L5xx_HAL_Driver\Src\stm32l5xx_hal_rcc.c:1076:7
	lsls	r1, r0, #31
	movt	r10, #16386
	bne	.LBB3_5
.Ltmp282:
@ %bb.4:
	@DEBUG_VALUE: HAL_RCC_ClockConfig:FLatency <- $r5
	@DEBUG_VALUE: HAL_RCC_ClockConfig:RCC_ClkInitStruct <- $r4
	@DEBUG_VALUE: HAL_RCC_ClockConfig:hpre <- 0
	@DEBUG_VALUE: HAL_RCC_ClockConfig:hpre <- undef
	.loc	5 1171 7 is_stmt 1              @ c:/Keil_v5\ARM\PACK\Keil\STM32L5xx_DFP\1.3.0\Drivers\STM32L5xx_HAL_Driver\Src\stm32l5xx_hal_rcc.c:1171:7
	lsls	r1, r0, #30
	bpl.w	.LBB3_33
	b	.LBB3_31
.Ltmp283:
	.p2align	2
.LBB3_5:
	@DEBUG_VALUE: HAL_RCC_ClockConfig:FLatency <- $r5
	@DEBUG_VALUE: HAL_RCC_ClockConfig:RCC_ClkInitStruct <- $r4
	@DEBUG_VALUE: HAL_RCC_ClockConfig:hpre <- 0
	.loc	5 1081 28                       @ c:/Keil_v5\ARM\PACK\Keil\STM32L5xx_DFP\1.3.0\Drivers\STM32L5xx_HAL_Driver\Src\stm32l5xx_hal_rcc.c:1081:28
	ldr	r1, [r4, #4]
.Ltmp284:
	.loc	5 1081 9 is_stmt 0              @ c:/Keil_v5\ARM\PACK\Keil\STM32L5xx_DFP\1.3.0\Drivers\STM32L5xx_HAL_Driver\Src\stm32l5xx_hal_rcc.c:1081:9
	cbz	r1, .LBB3_12
.Ltmp285:
@ %bb.6:
	@DEBUG_VALUE: HAL_RCC_ClockConfig:FLatency <- $r5
	@DEBUG_VALUE: HAL_RCC_ClockConfig:RCC_ClkInitStruct <- $r4
	@DEBUG_VALUE: HAL_RCC_ClockConfig:hpre <- 0
	cmp	r1, #2
	beq	.LBB3_13
.Ltmp286:
@ %bb.7:
	@DEBUG_VALUE: HAL_RCC_ClockConfig:FLatency <- $r5
	@DEBUG_VALUE: HAL_RCC_ClockConfig:RCC_ClkInitStruct <- $r4
	@DEBUG_VALUE: HAL_RCC_ClockConfig:hpre <- 0
	cmp	r1, #3
	bne	.LBB3_14
.Ltmp287:
@ %bb.8:
	@DEBUG_VALUE: HAL_RCC_ClockConfig:FLatency <- $r5
	@DEBUG_VALUE: HAL_RCC_ClockConfig:RCC_ClkInitStruct <- $r4
	@DEBUG_VALUE: HAL_RCC_ClockConfig:hpre <- 0
	.loc	5 1084 11 is_stmt 1             @ c:/Keil_v5\ARM\PACK\Keil\STM32L5xx_DFP\1.3.0\Drivers\STM32L5xx_HAL_Driver\Src\stm32l5xx_hal_rcc.c:1084:11
	ldr	r1, [r10, #-8]
.Ltmp288:
	.loc	5 1084 11 is_stmt 0             @ c:/Keil_v5\ARM\PACK\Keil\STM32L5xx_DFP\1.3.0\Drivers\STM32L5xx_HAL_Driver\Src\stm32l5xx_hal_rcc.c:1084:11
	lsls	r1, r1, #6
	bpl.w	.LBB3_40
.Ltmp289:
@ %bb.9:
	@DEBUG_VALUE: HAL_RCC_ClockConfig:FLatency <- $r5
	@DEBUG_VALUE: HAL_RCC_ClockConfig:RCC_ClkInitStruct <- $r4
	@DEBUG_VALUE: HAL_RCC_ClockConfig:hpre <- 0
	@DEBUG_VALUE: RCC_GetSysClockFreqFromPLLSource:msirange <- 0
	.loc	5 1866 7 is_stmt 1              @ c:/Keil_v5\ARM\PACK\Keil\STM32L5xx_DFP\1.3.0\Drivers\STM32L5xx_HAL_Driver\Src\stm32l5xx_hal_rcc.c:1866:7
	ldr.w	r1, [r10, #4]
	and	r1, r1, #3
.Ltmp290:
	.loc	5 1866 7 is_stmt 0              @ c:/Keil_v5\ARM\PACK\Keil\STM32L5xx_DFP\1.3.0\Drivers\STM32L5xx_HAL_Driver\Src\stm32l5xx_hal_rcc.c:1866:7
	cmp	r1, #1
	bne	.LBB3_17
.Ltmp291:
@ %bb.10:
	@DEBUG_VALUE: HAL_RCC_ClockConfig:FLatency <- $r5
	@DEBUG_VALUE: HAL_RCC_ClockConfig:RCC_ClkInitStruct <- $r4
	@DEBUG_VALUE: RCC_GetSysClockFreqFromPLLSource:msirange <- 0
	@DEBUG_VALUE: HAL_RCC_ClockConfig:hpre <- 0
	.loc	5 1869 9 is_stmt 1              @ c:/Keil_v5\ARM\PACK\Keil\STM32L5xx_DFP\1.3.0\Drivers\STM32L5xx_HAL_Driver\Src\stm32l5xx_hal_rcc.c:1869:9
	ldr	r1, [r10, #-8]
.Ltmp292:
	.loc	5 1869 9 is_stmt 0              @ c:/Keil_v5\ARM\PACK\Keil\STM32L5xx_DFP\1.3.0\Drivers\STM32L5xx_HAL_Driver\Src\stm32l5xx_hal_rcc.c:1869:9
	lsls	r1, r1, #28
	bmi	.LBB3_18
.Ltmp293:
@ %bb.11:
	@DEBUG_VALUE: HAL_RCC_ClockConfig:FLatency <- $r5
	@DEBUG_VALUE: HAL_RCC_ClockConfig:RCC_ClkInitStruct <- $r4
	@DEBUG_VALUE: RCC_GetSysClockFreqFromPLLSource:msirange <- 0
	@DEBUG_VALUE: HAL_RCC_ClockConfig:hpre <- 0
	.loc	5 1872 18 is_stmt 1             @ c:/Keil_v5\ARM\PACK\Keil\STM32L5xx_DFP\1.3.0\Drivers\STM32L5xx_HAL_Driver\Src\stm32l5xx_hal_rcc.c:1872:18
	ldr.w	r1, [r10, #140]
	.loc	5 1872 56 is_stmt 0             @ c:/Keil_v5\ARM\PACK\Keil\STM32L5xx_DFP\1.3.0\Drivers\STM32L5xx_HAL_Driver\Src\stm32l5xx_hal_rcc.c:1872:56
	lsrs	r1, r1, #8
.Ltmp294:
	@DEBUG_VALUE: RCC_GetSysClockFreqFromPLLSource:msirange <- [DW_OP_constu 15, DW_OP_and, DW_OP_stack_value] $r1
	.loc	5 0 56                          @ c:/Keil_v5\ARM\PACK\Keil\STM32L5xx_DFP\1.3.0\Drivers\STM32L5xx_HAL_Driver\Src\stm32l5xx_hal_rcc.c:0:56
	b	.LBB3_19
.Ltmp295:
	.p2align	2
.LBB3_12:
	@DEBUG_VALUE: HAL_RCC_ClockConfig:FLatency <- $r5
	@DEBUG_VALUE: HAL_RCC_ClockConfig:RCC_ClkInitStruct <- $r4
	@DEBUG_VALUE: HAL_RCC_ClockConfig:hpre <- 0
	.loc	5 1129 13 is_stmt 1             @ c:/Keil_v5\ARM\PACK\Keil\STM32L5xx_DFP\1.3.0\Drivers\STM32L5xx_HAL_Driver\Src\stm32l5xx_hal_rcc.c:1129:13
	ldr	r0, [r10, #-8]
.Ltmp296:
	.loc	5 1129 13 is_stmt 0             @ c:/Keil_v5\ARM\PACK\Keil\STM32L5xx_DFP\1.3.0\Drivers\STM32L5xx_HAL_Driver\Src\stm32l5xx_hal_rcc.c:1129:13
	lsls	r0, r0, #30
	itt	pl
	movpl	r0, #1
.Ltmp297:
	.loc	5 1218 1 is_stmt 1              @ c:/Keil_v5\ARM\PACK\Keil\STM32L5xx_DFP\1.3.0\Drivers\STM32L5xx_HAL_Driver\Src\stm32l5xx_hal_rcc.c:1218:1
	poppl.w	{r4, r5, r6, r7, r8, r9, r10, pc}
.Ltmp298:
	.loc	5 0 1 is_stmt 0                 @ c:/Keil_v5\ARM\PACK\Keil\STM32L5xx_DFP\1.3.0\Drivers\STM32L5xx_HAL_Driver\Src\stm32l5xx_hal_rcc.c:0:1
	b	.LBB3_15
.Ltmp299:
	.p2align	2
.LBB3_13:
	@DEBUG_VALUE: HAL_RCC_ClockConfig:FLatency <- $r5
	@DEBUG_VALUE: HAL_RCC_ClockConfig:RCC_ClkInitStruct <- $r4
	@DEBUG_VALUE: HAL_RCC_ClockConfig:hpre <- 0
	.loc	5 1120 13 is_stmt 1             @ c:/Keil_v5\ARM\PACK\Keil\STM32L5xx_DFP\1.3.0\Drivers\STM32L5xx_HAL_Driver\Src\stm32l5xx_hal_rcc.c:1120:13
	ldr	r0, [r10, #-8]
.Ltmp300:
	.loc	5 1120 13 is_stmt 0             @ c:/Keil_v5\ARM\PACK\Keil\STM32L5xx_DFP\1.3.0\Drivers\STM32L5xx_HAL_Driver\Src\stm32l5xx_hal_rcc.c:1120:13
	lsls	r0, r0, #14
	itt	pl
	movpl	r0, #1
.Ltmp301:
	.loc	5 1218 1 is_stmt 1              @ c:/Keil_v5\ARM\PACK\Keil\STM32L5xx_DFP\1.3.0\Drivers\STM32L5xx_HAL_Driver\Src\stm32l5xx_hal_rcc.c:1218:1
	poppl.w	{r4, r5, r6, r7, r8, r9, r10, pc}
.Ltmp302:
	.loc	5 0 1 is_stmt 0                 @ c:/Keil_v5\ARM\PACK\Keil\STM32L5xx_DFP\1.3.0\Drivers\STM32L5xx_HAL_Driver\Src\stm32l5xx_hal_rcc.c:0:1
	b	.LBB3_15
.Ltmp303:
	.p2align	2
.LBB3_14:
	@DEBUG_VALUE: HAL_RCC_ClockConfig:FLatency <- $r5
	@DEBUG_VALUE: HAL_RCC_ClockConfig:RCC_ClkInitStruct <- $r4
	@DEBUG_VALUE: HAL_RCC_ClockConfig:hpre <- 0
	.loc	5 1138 13 is_stmt 1             @ c:/Keil_v5\ARM\PACK\Keil\STM32L5xx_DFP\1.3.0\Drivers\STM32L5xx_HAL_Driver\Src\stm32l5xx_hal_rcc.c:1138:13
	ldr	r0, [r10, #-8]
.Ltmp304:
	.loc	5 1138 13 is_stmt 0             @ c:/Keil_v5\ARM\PACK\Keil\STM32L5xx_DFP\1.3.0\Drivers\STM32L5xx_HAL_Driver\Src\stm32l5xx_hal_rcc.c:1138:13
	lsls	r0, r0, #21
	bpl.w	.LBB3_40
.Ltmp305:
.LBB3_15:
	@DEBUG_VALUE: HAL_RCC_ClockConfig:hpre <- 0
	.loc	5 1146 17 is_stmt 1             @ c:/Keil_v5\ARM\PACK\Keil\STM32L5xx_DFP\1.3.0\Drivers\STM32L5xx_HAL_Driver\Src\stm32l5xx_hal_rcc.c:1146:17
	bl	HAL_RCC_GetSysClockFreq
.Ltmp306:
	@DEBUG_VALUE: HAL_RCC_ClockConfig:pllfreq <- $r0
	.loc	5 0 17 is_stmt 0                @ c:/Keil_v5\ARM\PACK\Keil\STM32L5xx_DFP\1.3.0\Drivers\STM32L5xx_HAL_Driver\Src\stm32l5xx_hal_rcc.c:0:17
	movw	r1, #46080
	movt	r1, #1220
	.loc	5 1149 11 is_stmt 1             @ c:/Keil_v5\ARM\PACK\Keil\STM32L5xx_DFP\1.3.0\Drivers\STM32L5xx_HAL_Driver\Src\stm32l5xx_hal_rcc.c:1149:11
	cmp	r0, r1
	bls	.LBB3_24
.Ltmp307:
.LBB3_16:
	@DEBUG_VALUE: HAL_RCC_ClockConfig:hpre <- 0
	.loc	5 0 0 is_stmt 0                 @ c:/Keil_v5\ARM\PACK\Keil\STM32L5xx_DFP\1.3.0\Drivers\STM32L5xx_HAL_Driver\Src\stm32l5xx_hal_rcc.c:0:0
	ldr.w	r0, [r10]
	movs	r1, #8
	bfi	r0, r1, #4, #4
	mov.w	r9, #1
.Ltmp308:
	@DEBUG_VALUE: HAL_RCC_ClockConfig:hpre <- 128
	str.w	r0, [r10]
	b	.LBB3_25
.Ltmp309:
	.p2align	2
.LBB3_17:
	@DEBUG_VALUE: HAL_RCC_ClockConfig:FLatency <- $r5
	@DEBUG_VALUE: HAL_RCC_ClockConfig:RCC_ClkInitStruct <- $r4
	@DEBUG_VALUE: RCC_GetSysClockFreqFromPLLSource:msirange <- 0
	@DEBUG_VALUE: HAL_RCC_ClockConfig:hpre <- 0
	movs	r1, #0
	b	.LBB3_20
.Ltmp310:
	.p2align	2
.LBB3_18:
	@DEBUG_VALUE: HAL_RCC_ClockConfig:FLatency <- $r5
	@DEBUG_VALUE: HAL_RCC_ClockConfig:RCC_ClkInitStruct <- $r4
	@DEBUG_VALUE: RCC_GetSysClockFreqFromPLLSource:msirange <- 0
	@DEBUG_VALUE: HAL_RCC_ClockConfig:hpre <- 0
	.loc	5 1877 18 is_stmt 1             @ c:/Keil_v5\ARM\PACK\Keil\STM32L5xx_DFP\1.3.0\Drivers\STM32L5xx_HAL_Driver\Src\stm32l5xx_hal_rcc.c:1877:18
	ldr	r1, [r10, #-8]
	.loc	5 1877 53 is_stmt 0             @ c:/Keil_v5\ARM\PACK\Keil\STM32L5xx_DFP\1.3.0\Drivers\STM32L5xx_HAL_Driver\Src\stm32l5xx_hal_rcc.c:1877:53
	lsrs	r1, r1, #4
.Ltmp311:
	@DEBUG_VALUE: RCC_GetSysClockFreqFromPLLSource:msirange <- [DW_OP_constu 15, DW_OP_and, DW_OP_stack_value] $r1
.LBB3_19:
	@DEBUG_VALUE: HAL_RCC_ClockConfig:FLatency <- $r5
	@DEBUG_VALUE: HAL_RCC_ClockConfig:RCC_ClkInitStruct <- $r4
	@DEBUG_VALUE: RCC_GetSysClockFreqFromPLLSource:msirange <- [DW_OP_constu 15, DW_OP_and, DW_OP_stack_value] $r1
	@DEBUG_VALUE: HAL_RCC_ClockConfig:hpre <- 0
	.loc	5 1880 16 is_stmt 1             @ c:/Keil_v5\ARM\PACK\Keil\STM32L5xx_DFP\1.3.0\Drivers\STM32L5xx_HAL_Driver\Src\stm32l5xx_hal_rcc.c:1880:16
	movw	r2, :lower16:MSIRangeTable
.Ltmp312:
	.loc	5 0 0 is_stmt 0                 @ c:/Keil_v5\ARM\PACK\Keil\STM32L5xx_DFP\1.3.0\Drivers\STM32L5xx_HAL_Driver\Src\stm32l5xx_hal_rcc.c:0:0
	and	r1, r1, #15
.Ltmp313:
	@DEBUG_VALUE: RCC_GetSysClockFreqFromPLLSource:msirange <- $r1
	.loc	5 1880 16                       @ c:/Keil_v5\ARM\PACK\Keil\STM32L5xx_DFP\1.3.0\Drivers\STM32L5xx_HAL_Driver\Src\stm32l5xx_hal_rcc.c:1880:16
	movt	r2, :upper16:MSIRangeTable
	ldr.w	r1, [r2, r1, lsl #2]
.Ltmp314:
	@DEBUG_VALUE: RCC_GetSysClockFreqFromPLLSource:msirange <- $r1
.LBB3_20:
	@DEBUG_VALUE: HAL_RCC_ClockConfig:FLatency <- $r5
	@DEBUG_VALUE: HAL_RCC_ClockConfig:RCC_ClkInitStruct <- $r4
	@DEBUG_VALUE: HAL_RCC_ClockConfig:hpre <- 0
	@DEBUG_VALUE: RCC_GetSysClockFreqFromPLLSource:msirange <- $r1
	.loc	5 1886 15 is_stmt 1             @ c:/Keil_v5\ARM\PACK\Keil\STM32L5xx_DFP\1.3.0\Drivers\STM32L5xx_HAL_Driver\Src\stm32l5xx_hal_rcc.c:1886:15
	ldr.w	r2, [r10, #4]
.Ltmp315:
	@DEBUG_VALUE: RCC_GetSysClockFreqFromPLLSource:pllsource <- [DW_OP_constu 3, DW_OP_and, DW_OP_stack_value] $r2
	.loc	5 1887 11                       @ c:/Keil_v5\ARM\PACK\Keil\STM32L5xx_DFP\1.3.0\Drivers\STM32L5xx_HAL_Driver\Src\stm32l5xx_hal_rcc.c:1887:11
	ldr.w	r3, [r10, #4]
	.loc	5 1889 3                        @ c:/Keil_v5\ARM\PACK\Keil\STM32L5xx_DFP\1.3.0\Drivers\STM32L5xx_HAL_Driver\Src\stm32l5xx_hal_rcc.c:1889:3
	lsls	r2, r2, #30
.Ltmp316:
	.loc	5 0 3 is_stmt 0                 @ c:/Keil_v5\ARM\PACK\Keil\STM32L5xx_DFP\1.3.0\Drivers\STM32L5xx_HAL_Driver\Src\stm32l5xx_hal_rcc.c:0:3
	movw	r2, #9216
	.loc	5 1887 52 is_stmt 1             @ c:/Keil_v5\ARM\PACK\Keil\STM32L5xx_DFP\1.3.0\Drivers\STM32L5xx_HAL_Driver\Src\stm32l5xx_hal_rcc.c:1887:52
	ubfx	r3, r3, #4, #4
	movt	r2, #244
	.loc	5 1889 3                        @ c:/Keil_v5\ARM\PACK\Keil\STM32L5xx_DFP\1.3.0\Drivers\STM32L5xx_HAL_Driver\Src\stm32l5xx_hal_rcc.c:1889:3
	it	pl
	movpl	r2, r1
.Ltmp317:
	.loc	5 0 0 is_stmt 0                 @ c:/Keil_v5\ARM\PACK\Keil\STM32L5xx_DFP\1.3.0\Drivers\STM32L5xx_HAL_Driver\Src\stm32l5xx_hal_rcc.c:0:0
	ldr.w	r1, [r10, #4]
.Ltmp318:
	.loc	5 1887 77 is_stmt 1             @ c:/Keil_v5\ARM\PACK\Keil\STM32L5xx_DFP\1.3.0\Drivers\STM32L5xx_HAL_Driver\Src\stm32l5xx_hal_rcc.c:1887:77
	adds	r3, #1
.Ltmp319:
	@DEBUG_VALUE: RCC_GetSysClockFreqFromPLLSource:pllm <- $r3
	.loc	5 0 0 is_stmt 0                 @ c:/Keil_v5\ARM\PACK\Keil\STM32L5xx_DFP\1.3.0\Drivers\STM32L5xx_HAL_Driver\Src\stm32l5xx_hal_rcc.c:0:0
	udiv	r2, r2, r3
	ubfx	r1, r1, #8, #7
.Ltmp320:
	.loc	5 1905 12 is_stmt 1             @ c:/Keil_v5\ARM\PACK\Keil\STM32L5xx_DFP\1.3.0\Drivers\STM32L5xx_HAL_Driver\Src\stm32l5xx_hal_rcc.c:1905:12
	ldr.w	r3, [r10, #4]
.Ltmp321:
	.loc	5 0 0 is_stmt 0                 @ c:/Keil_v5\ARM\PACK\Keil\STM32L5xx_DFP\1.3.0\Drivers\STM32L5xx_HAL_Driver\Src\stm32l5xx_hal_rcc.c:0:0
	mul	r1, r1, r2
.Ltmp322:
	@DEBUG_VALUE: RCC_GetSysClockFreqFromPLLSource:pllvco <- $r1
	.loc	5 1905 84                       @ c:/Keil_v5\ARM\PACK\Keil\STM32L5xx_DFP\1.3.0\Drivers\STM32L5xx_HAL_Driver\Src\stm32l5xx_hal_rcc.c:1905:84
	ubfx	r2, r3, #25, #2
	movs	r3, #2
	add.w	r2, r3, r2, lsl #1
.Ltmp323:
	@DEBUG_VALUE: RCC_GetSysClockFreqFromPLLSource:pllr <- $r2
	.loc	5 1906 25 is_stmt 1             @ c:/Keil_v5\ARM\PACK\Keil\STM32L5xx_DFP\1.3.0\Drivers\STM32L5xx_HAL_Driver\Src\stm32l5xx_hal_rcc.c:1906:25
	udiv	r1, r1, r2
.Ltmp324:
	@DEBUG_VALUE: HAL_RCC_ClockConfig:pllfreq <- $r1
	@DEBUG_VALUE: RCC_GetSysClockFreqFromPLLSource:sysclockfreq <- $r1
	.loc	5 0 25 is_stmt 0                @ c:/Keil_v5\ARM\PACK\Keil\STM32L5xx_DFP\1.3.0\Drivers\STM32L5xx_HAL_Driver\Src\stm32l5xx_hal_rcc.c:0:25
	movw	r2, #46080
.Ltmp325:
	movt	r2, #1220
.Ltmp326:
	.loc	5 1095 11 is_stmt 1             @ c:/Keil_v5\ARM\PACK\Keil\STM32L5xx_DFP\1.3.0\Drivers\STM32L5xx_HAL_Driver\Src\stm32l5xx_hal_rcc.c:1095:11
	cmp	r1, r2
	bls	.LBB3_24
.Ltmp327:
@ %bb.21:
	@DEBUG_VALUE: HAL_RCC_ClockConfig:FLatency <- $r5
	@DEBUG_VALUE: HAL_RCC_ClockConfig:RCC_ClkInitStruct <- $r4
	@DEBUG_VALUE: HAL_RCC_ClockConfig:pllfreq <- $r1
	@DEBUG_VALUE: HAL_RCC_ClockConfig:hpre <- 0
	.loc	5 1097 13                       @ c:/Keil_v5\ARM\PACK\Keil\STM32L5xx_DFP\1.3.0\Drivers\STM32L5xx_HAL_Driver\Src\stm32l5xx_hal_rcc.c:1097:13
	ldr.w	r1, [r10]
.Ltmp328:
	.loc	5 1097 13 is_stmt 0             @ c:/Keil_v5\ARM\PACK\Keil\STM32L5xx_DFP\1.3.0\Drivers\STM32L5xx_HAL_Driver\Src\stm32l5xx_hal_rcc.c:1097:13
	tst.w	r1, #240
	beq	.LBB3_16
.Ltmp329:
@ %bb.22:
	@DEBUG_VALUE: HAL_RCC_ClockConfig:FLatency <- $r5
	@DEBUG_VALUE: HAL_RCC_ClockConfig:RCC_ClkInitStruct <- $r4
	@DEBUG_VALUE: HAL_RCC_ClockConfig:hpre <- 0
	.loc	5 1102 96 is_stmt 1             @ c:/Keil_v5\ARM\PACK\Keil\STM32L5xx_DFP\1.3.0\Drivers\STM32L5xx_HAL_Driver\Src\stm32l5xx_hal_rcc.c:1102:96
	lsls	r0, r0, #30
	bpl	.LBB3_24
.Ltmp330:
@ %bb.23:
	@DEBUG_VALUE: HAL_RCC_ClockConfig:FLatency <- $r5
	@DEBUG_VALUE: HAL_RCC_ClockConfig:RCC_ClkInitStruct <- $r4
	@DEBUG_VALUE: HAL_RCC_ClockConfig:hpre <- 0
	.loc	5 1103 38                       @ c:/Keil_v5\ARM\PACK\Keil\STM32L5xx_DFP\1.3.0\Drivers\STM32L5xx_HAL_Driver\Src\stm32l5xx_hal_rcc.c:1103:38
	ldr	r0, [r4, #8]
.Ltmp331:
	.loc	5 1102 18                       @ c:/Keil_v5\ARM\PACK\Keil\STM32L5xx_DFP\1.3.0\Drivers\STM32L5xx_HAL_Driver\Src\stm32l5xx_hal_rcc.c:1102:18
	cmp	r0, #0
	beq	.LBB3_16
.Ltmp332:
.LBB3_24:
	@DEBUG_VALUE: HAL_RCC_ClockConfig:hpre <- 0
	.loc	5 0 18 is_stmt 0                @ c:/Keil_v5\ARM\PACK\Keil\STM32L5xx_DFP\1.3.0\Drivers\STM32L5xx_HAL_Driver\Src\stm32l5xx_hal_rcc.c:0:18
	mov.w	r9, #0
.Ltmp333:
.LBB3_25:
	@DEBUG_VALUE: HAL_RCC_ClockConfig:hpre <- undef
	.loc	5 1156 5 is_stmt 1              @ c:/Keil_v5\ARM\PACK\Keil\STM32L5xx_DFP\1.3.0\Drivers\STM32L5xx_HAL_Driver\Src\stm32l5xx_hal_rcc.c:1156:5
	ldr.w	r0, [r10]
	ldr	r1, [r4, #4]
	bic	r0, r0, #3
	orrs	r0, r1
	str.w	r0, [r10]
	.loc	5 1159 17                       @ c:/Keil_v5\ARM\PACK\Keil\STM32L5xx_DFP\1.3.0\Drivers\STM32L5xx_HAL_Driver\Src\stm32l5xx_hal_rcc.c:1159:17
	bl	HAL_GetTick
	mov	r6, r0
.Ltmp334:
	@DEBUG_VALUE: HAL_RCC_ClockConfig:tickstart <- $r6
	.loc	5 0 17 is_stmt 0                @ c:/Keil_v5\ARM\PACK\Keil\STM32L5xx_DFP\1.3.0\Drivers\STM32L5xx_HAL_Driver\Src\stm32l5xx_hal_rcc.c:0:17
	movw	r7, #5000
.Ltmp335:
	.p2align	2
.LBB3_26:                               @ =>This Inner Loop Header: Depth=1
	.loc	5 1161 12 is_stmt 1             @ c:/Keil_v5\ARM\PACK\Keil\STM32L5xx_DFP\1.3.0\Drivers\STM32L5xx_HAL_Driver\Src\stm32l5xx_hal_rcc.c:1161:12
	ldr.w	r0, [r10]
	.loc	5 1161 65 is_stmt 0             @ c:/Keil_v5\ARM\PACK\Keil\STM32L5xx_DFP\1.3.0\Drivers\STM32L5xx_HAL_Driver\Src\stm32l5xx_hal_rcc.c:1161:65
	ldr	r1, [r4, #4]
	.loc	5 1161 12                       @ c:/Keil_v5\ARM\PACK\Keil\STM32L5xx_DFP\1.3.0\Drivers\STM32L5xx_HAL_Driver\Src\stm32l5xx_hal_rcc.c:1161:12
	and	r0, r0, #12
	.loc	5 1161 5                        @ c:/Keil_v5\ARM\PACK\Keil\STM32L5xx_DFP\1.3.0\Drivers\STM32L5xx_HAL_Driver\Src\stm32l5xx_hal_rcc.c:1161:5
	cmp.w	r0, r1, lsl #2
	beq	.LBB3_28
@ %bb.27:                               @   in Loop: Header=BB3_26 Depth=1
.Ltmp336:
	.loc	5 1163 12 is_stmt 1             @ c:/Keil_v5\ARM\PACK\Keil\STM32L5xx_DFP\1.3.0\Drivers\STM32L5xx_HAL_Driver\Src\stm32l5xx_hal_rcc.c:1163:12
	bl	HAL_GetTick
	.loc	5 1163 26 is_stmt 0             @ c:/Keil_v5\ARM\PACK\Keil\STM32L5xx_DFP\1.3.0\Drivers\STM32L5xx_HAL_Driver\Src\stm32l5xx_hal_rcc.c:1163:26
	subs	r0, r0, r6
.Ltmp337:
	.loc	5 1163 11                       @ c:/Keil_v5\ARM\PACK\Keil\STM32L5xx_DFP\1.3.0\Drivers\STM32L5xx_HAL_Driver\Src\stm32l5xx_hal_rcc.c:1163:11
	cmp	r0, r7
	itt	hi
	movhi	r0, #3
.Ltmp338:
	.loc	5 1218 1 is_stmt 1              @ c:/Keil_v5\ARM\PACK\Keil\STM32L5xx_DFP\1.3.0\Drivers\STM32L5xx_HAL_Driver\Src\stm32l5xx_hal_rcc.c:1218:1
	pophi.w	{r4, r5, r6, r7, r8, r9, r10, pc}
	b	.LBB3_26
	.p2align	2
.LBB3_28:
.Ltmp339:
	@DEBUG_VALUE: HAL_RCC_ClockConfig:hpre <- undef
	.loc	5 1171 28                       @ c:/Keil_v5\ARM\PACK\Keil\STM32L5xx_DFP\1.3.0\Drivers\STM32L5xx_HAL_Driver\Src\stm32l5xx_hal_rcc.c:1171:28
	ldr	r0, [r4]
.Ltmp340:
	.loc	5 1171 7 is_stmt 0              @ c:/Keil_v5\ARM\PACK\Keil\STM32L5xx_DFP\1.3.0\Drivers\STM32L5xx_HAL_Driver\Src\stm32l5xx_hal_rcc.c:1171:7
	lsls	r1, r0, #30
	bmi	.LBB3_31
.Ltmp341:
@ %bb.29:
	.loc	5 1179 9 is_stmt 1              @ c:/Keil_v5\ARM\PACK\Keil\STM32L5xx_DFP\1.3.0\Drivers\STM32L5xx_HAL_Driver\Src\stm32l5xx_hal_rcc.c:1179:9
	cmp.w	r9, #0
	beq	.LBB3_33
@ %bb.30:
.Ltmp342:
	.loc	5 1181 7                        @ c:/Keil_v5\ARM\PACK\Keil\STM32L5xx_DFP\1.3.0\Drivers\STM32L5xx_HAL_Driver\Src\stm32l5xx_hal_rcc.c:1181:7
	ldr.w	r1, [r10]
	bic	r1, r1, #240
	b	.LBB3_32
.Ltmp343:
	.p2align	2
.LBB3_31:
	.loc	5 1174 5                        @ c:/Keil_v5\ARM\PACK\Keil\STM32L5xx_DFP\1.3.0\Drivers\STM32L5xx_HAL_Driver\Src\stm32l5xx_hal_rcc.c:1174:5
	ldr.w	r1, [r10]
	ldr	r2, [r4, #8]
	bic	r1, r1, #240
	orrs	r1, r2
.Ltmp344:
.LBB3_32:
	.loc	5 0 0 is_stmt 0                 @ c:/Keil_v5\ARM\PACK\Keil\STM32L5xx_DFP\1.3.0\Drivers\STM32L5xx_HAL_Driver\Src\stm32l5xx_hal_rcc.c:0:0
	str.w	r1, [r10]
.Ltmp345:
.LBB3_33:
	.loc	5 1186 18 is_stmt 1             @ c:/Keil_v5\ARM\PACK\Keil\STM32L5xx_DFP\1.3.0\Drivers\STM32L5xx_HAL_Driver\Src\stm32l5xx_hal_rcc.c:1186:18
	ldr.w	r1, [r8]
	and	r1, r1, #15
.Ltmp346:
	.loc	5 1186 7 is_stmt 0              @ c:/Keil_v5\ARM\PACK\Keil\STM32L5xx_DFP\1.3.0\Drivers\STM32L5xx_HAL_Driver\Src\stm32l5xx_hal_rcc.c:1186:7
	cmp	r1, r5
	bls	.LBB3_35
@ %bb.34:
.Ltmp347:
	.loc	5 1189 5 is_stmt 1              @ c:/Keil_v5\ARM\PACK\Keil\STM32L5xx_DFP\1.3.0\Drivers\STM32L5xx_HAL_Driver\Src\stm32l5xx_hal_rcc.c:1189:5
	ldr.w	r1, [r8]
	bic	r1, r1, #15
	orrs	r1, r5
	str.w	r1, [r8]
.Ltmp348:
	.loc	5 1193 9                        @ c:/Keil_v5\ARM\PACK\Keil\STM32L5xx_DFP\1.3.0\Drivers\STM32L5xx_HAL_Driver\Src\stm32l5xx_hal_rcc.c:1193:9
	ldr.w	r1, [r8]
	and	r1, r1, #15
.Ltmp349:
	.loc	5 1193 9 is_stmt 0              @ c:/Keil_v5\ARM\PACK\Keil\STM32L5xx_DFP\1.3.0\Drivers\STM32L5xx_HAL_Driver\Src\stm32l5xx_hal_rcc.c:1193:9
	cmp	r1, r5
	bne	.LBB3_40
.Ltmp350:
.LBB3_35:
	.loc	5 1200 7 is_stmt 1              @ c:/Keil_v5\ARM\PACK\Keil\STM32L5xx_DFP\1.3.0\Drivers\STM32L5xx_HAL_Driver\Src\stm32l5xx_hal_rcc.c:1200:7
	lsls	r1, r0, #29
	bpl	.LBB3_37
@ %bb.36:
.Ltmp351:
	.loc	5 1203 5                        @ c:/Keil_v5\ARM\PACK\Keil\STM32L5xx_DFP\1.3.0\Drivers\STM32L5xx_HAL_Driver\Src\stm32l5xx_hal_rcc.c:1203:5
	ldr.w	r1, [r10]
	ldr	r2, [r4, #12]
	bic	r1, r1, #1792
	orrs	r1, r2
	str.w	r1, [r10]
.Ltmp352:
.LBB3_37:
	.loc	5 1207 7                        @ c:/Keil_v5\ARM\PACK\Keil\STM32L5xx_DFP\1.3.0\Drivers\STM32L5xx_HAL_Driver\Src\stm32l5xx_hal_rcc.c:1207:7
	lsls	r0, r0, #28
	bpl	.LBB3_39
@ %bb.38:
.Ltmp353:
	.loc	5 1210 5                        @ c:/Keil_v5\ARM\PACK\Keil\STM32L5xx_DFP\1.3.0\Drivers\STM32L5xx_HAL_Driver\Src\stm32l5xx_hal_rcc.c:1210:5
	ldr.w	r0, [r10]
	ldr	r1, [r4, #16]
	bic	r0, r0, #14336
	orr.w	r0, r0, r1, lsl #3
	str.w	r0, [r10]
.Ltmp354:
.LBB3_39:
	.loc	5 1412 11                       @ c:/Keil_v5\ARM\PACK\Keil\STM32L5xx_DFP\1.3.0\Drivers\STM32L5xx_HAL_Driver\Src\stm32l5xx_hal_rcc.c:1412:11
	bl	HAL_RCC_GetSysClockFreq
	.loc	5 1412 60 is_stmt 0             @ c:/Keil_v5\ARM\PACK\Keil\STM32L5xx_DFP\1.3.0\Drivers\STM32L5xx_HAL_Driver\Src\stm32l5xx_hal_rcc.c:1412:60
	ldr.w	r1, [r10]
	.loc	5 1412 40                       @ c:/Keil_v5\ARM\PACK\Keil\STM32L5xx_DFP\1.3.0\Drivers\STM32L5xx_HAL_Driver\Src\stm32l5xx_hal_rcc.c:1412:40
	movw	r2, :lower16:AHBPrescTable
	.loc	5 1412 82                       @ c:/Keil_v5\ARM\PACK\Keil\STM32L5xx_DFP\1.3.0\Drivers\STM32L5xx_HAL_Driver\Src\stm32l5xx_hal_rcc.c:1412:82
	ubfx	r1, r1, #4, #4
	.loc	5 1412 40                       @ c:/Keil_v5\ARM\PACK\Keil\STM32L5xx_DFP\1.3.0\Drivers\STM32L5xx_HAL_Driver\Src\stm32l5xx_hal_rcc.c:1412:40
	movt	r2, :upper16:AHBPrescTable
	ldrb	r2, [r2, r1]
.Ltmp355:
	.loc	5 1217 23 is_stmt 1             @ c:/Keil_v5\ARM\PACK\Keil\STM32L5xx_DFP\1.3.0\Drivers\STM32L5xx_HAL_Driver\Src\stm32l5xx_hal_rcc.c:1217:23
	movw	r1, :lower16:uwTickPrio
	movt	r1, :upper16:uwTickPrio
	ldr	r1, [r1]
	.loc	5 1214 19                       @ c:/Keil_v5\ARM\PACK\Keil\STM32L5xx_DFP\1.3.0\Drivers\STM32L5xx_HAL_Driver\Src\stm32l5xx_hal_rcc.c:1214:19
	movw	r3, :lower16:SystemCoreClock
.Ltmp356:
	.loc	5 1412 37                       @ c:/Keil_v5\ARM\PACK\Keil\STM32L5xx_DFP\1.3.0\Drivers\STM32L5xx_HAL_Driver\Src\stm32l5xx_hal_rcc.c:1412:37
	lsr.w	r2, r0, r2
.Ltmp357:
	.loc	5 1214 19                       @ c:/Keil_v5\ARM\PACK\Keil\STM32L5xx_DFP\1.3.0\Drivers\STM32L5xx_HAL_Driver\Src\stm32l5xx_hal_rcc.c:1214:19
	movt	r3, :upper16:SystemCoreClock
	.loc	5 1217 10                       @ c:/Keil_v5\ARM\PACK\Keil\STM32L5xx_DFP\1.3.0\Drivers\STM32L5xx_HAL_Driver\Src\stm32l5xx_hal_rcc.c:1217:10
	mov	r0, r1
	.loc	5 1214 19                       @ c:/Keil_v5\ARM\PACK\Keil\STM32L5xx_DFP\1.3.0\Drivers\STM32L5xx_HAL_Driver\Src\stm32l5xx_hal_rcc.c:1214:19
	str	r2, [r3]
	.loc	5 1217 10                       @ c:/Keil_v5\ARM\PACK\Keil\STM32L5xx_DFP\1.3.0\Drivers\STM32L5xx_HAL_Driver\Src\stm32l5xx_hal_rcc.c:1217:10
	pop.w	{r4, r5, r6, r7, r8, r9, r10, lr}
	b	HAL_InitTick
	.p2align	2
.LBB3_40:
	.loc	5 0 10 is_stmt 0                @ c:/Keil_v5\ARM\PACK\Keil\STM32L5xx_DFP\1.3.0\Drivers\STM32L5xx_HAL_Driver\Src\stm32l5xx_hal_rcc.c:0:10
	movs	r0, #1
	.loc	5 1218 1 is_stmt 1              @ c:/Keil_v5\ARM\PACK\Keil\STM32L5xx_DFP\1.3.0\Drivers\STM32L5xx_HAL_Driver\Src\stm32l5xx_hal_rcc.c:1218:1
	pop.w	{r4, r5, r6, r7, r8, r9, r10, pc}
.Ltmp358:
.Lfunc_end3:
	.size	HAL_RCC_ClockConfig, .Lfunc_end3-HAL_RCC_ClockConfig
	.cfi_endproc
	.cantunwind
	.fnend
                                        @ -- End function
	.section	.text.HAL_RCC_GetSysClockFreq,"ax",%progbits
	.hidden	HAL_RCC_GetSysClockFreq         @ -- Begin function HAL_RCC_GetSysClockFreq
	.globl	HAL_RCC_GetSysClockFreq
	.p2align	2
	.type	HAL_RCC_GetSysClockFreq,%function
	.code	16                              @ @HAL_RCC_GetSysClockFreq
	.thumb_func
HAL_RCC_GetSysClockFreq:
.Lfunc_begin4:
	.loc	5 1324 0                        @ c:/Keil_v5\ARM\PACK\Keil\STM32L5xx_DFP\1.3.0\Drivers\STM32L5xx_HAL_Driver\Src\stm32l5xx_hal_rcc.c:1324:0
	.fnstart
	.cfi_startproc
@ %bb.0:
	movw	r1, #4108
	movt	r1, #16386
.Ltmp359:
	@DEBUG_VALUE: HAL_RCC_GetSysClockFreq:sysclockfreq <- 0
	@DEBUG_VALUE: HAL_RCC_GetSysClockFreq:msirange <- 0
	.loc	5 1329 19 prologue_end          @ c:/Keil_v5\ARM\PACK\Keil\STM32L5xx_DFP\1.3.0\Drivers\STM32L5xx_HAL_Driver\Src\stm32l5xx_hal_rcc.c:1329:19
	ldr	r0, [r1, #-4]
	ands	r2, r0, #12
.Ltmp360:
	@DEBUG_VALUE: HAL_RCC_GetSysClockFreq:sysclk_source <- $r2
	.loc	5 1330 19                       @ c:/Keil_v5\ARM\PACK\Keil\STM32L5xx_DFP\1.3.0\Drivers\STM32L5xx_HAL_Driver\Src\stm32l5xx_hal_rcc.c:1330:19
	ldr	r0, [r1]
.Ltmp361:
	@DEBUG_VALUE: HAL_RCC_GetSysClockFreq:pll_oscsource <- [DW_OP_constu 3, DW_OP_and, DW_OP_stack_value] $r0
	.loc	5 1332 54                       @ c:/Keil_v5\ARM\PACK\Keil\STM32L5xx_DFP\1.3.0\Drivers\STM32L5xx_HAL_Driver\Src\stm32l5xx_hal_rcc.c:1332:54
	beq	.LBB4_4
.Ltmp362:
@ %bb.1:
	@DEBUG_VALUE: HAL_RCC_GetSysClockFreq:sysclk_source <- $r2
	@DEBUG_VALUE: HAL_RCC_GetSysClockFreq:pll_oscsource <- [DW_OP_constu 3, DW_OP_and, DW_OP_stack_value] $r0
	@DEBUG_VALUE: HAL_RCC_GetSysClockFreq:msirange <- 0
	@DEBUG_VALUE: HAL_RCC_GetSysClockFreq:sysclockfreq <- 0
	@DEBUG_VALUE: HAL_RCC_GetSysClockFreq:pll_oscsource <- undef
	.loc	5 1333 58                       @ c:/Keil_v5\ARM\PACK\Keil\STM32L5xx_DFP\1.3.0\Drivers\STM32L5xx_HAL_Driver\Src\stm32l5xx_hal_rcc.c:1333:58
	cmp	r2, #12
.Ltmp363:
	.loc	5 0 0 is_stmt 0                 @ c:/Keil_v5\ARM\PACK\Keil\STM32L5xx_DFP\1.3.0\Drivers\STM32L5xx_HAL_Driver\Src\stm32l5xx_hal_rcc.c:0:0
	itt	eq
	andeq	r0, r0, #3
.Ltmp364:
	@DEBUG_VALUE: HAL_RCC_GetSysClockFreq:pll_oscsource <- $r0
	.loc	5 1333 58                       @ c:/Keil_v5\ARM\PACK\Keil\STM32L5xx_DFP\1.3.0\Drivers\STM32L5xx_HAL_Driver\Src\stm32l5xx_hal_rcc.c:1333:58
	cmpeq	r0, #1
	beq	.LBB4_4
.Ltmp365:
@ %bb.2:
	@DEBUG_VALUE: HAL_RCC_GetSysClockFreq:sysclk_source <- $r2
	@DEBUG_VALUE: HAL_RCC_GetSysClockFreq:pll_oscsource <- $r0
	@DEBUG_VALUE: HAL_RCC_GetSysClockFreq:msirange <- 0
	@DEBUG_VALUE: HAL_RCC_GetSysClockFreq:sysclockfreq <- 0
	.loc	5 0 58                          @ c:/Keil_v5\ARM\PACK\Keil\STM32L5xx_DFP\1.3.0\Drivers\STM32L5xx_HAL_Driver\Src\stm32l5xx_hal_rcc.c:0:58
	movw	r0, #9216
.Ltmp366:
	.loc	5 1357 12 is_stmt 1             @ c:/Keil_v5\ARM\PACK\Keil\STM32L5xx_DFP\1.3.0\Drivers\STM32L5xx_HAL_Driver\Src\stm32l5xx_hal_rcc.c:1357:12
	cmp	r2, #4
	movt	r0, #244
	it	ne
	cmpne	r2, #8
	bne	.LBB4_10
.Ltmp367:
@ %bb.3:
	@DEBUG_VALUE: HAL_RCC_GetSysClockFreq:sysclk_source <- $r2
	@DEBUG_VALUE: HAL_RCC_GetSysClockFreq:msirange <- 0
	@DEBUG_VALUE: HAL_RCC_GetSysClockFreq:sysclockfreq <- 0
	@DEBUG_VALUE: HAL_RCC_GetSysClockFreq:sysclockfreq <- $r0
	.loc	5 1401 3                        @ c:/Keil_v5\ARM\PACK\Keil\STM32L5xx_DFP\1.3.0\Drivers\STM32L5xx_HAL_Driver\Src\stm32l5xx_hal_rcc.c:1401:3
	bx	lr
.Ltmp368:
	.p2align	2
.LBB4_4:
	@DEBUG_VALUE: HAL_RCC_GetSysClockFreq:sysclk_source <- $r2
	@DEBUG_VALUE: HAL_RCC_GetSysClockFreq:msirange <- 0
	@DEBUG_VALUE: HAL_RCC_GetSysClockFreq:sysclockfreq <- 0
	.loc	5 1338 9                        @ c:/Keil_v5\ARM\PACK\Keil\STM32L5xx_DFP\1.3.0\Drivers\STM32L5xx_HAL_Driver\Src\stm32l5xx_hal_rcc.c:1338:9
	ldr	r0, [r1, #-12]
.Ltmp369:
	.loc	5 1338 9 is_stmt 0              @ c:/Keil_v5\ARM\PACK\Keil\STM32L5xx_DFP\1.3.0\Drivers\STM32L5xx_HAL_Driver\Src\stm32l5xx_hal_rcc.c:1338:9
	lsls	r0, r0, #28
	bmi	.LBB4_6
.Ltmp370:
@ %bb.5:
	@DEBUG_VALUE: HAL_RCC_GetSysClockFreq:sysclk_source <- $r2
	@DEBUG_VALUE: HAL_RCC_GetSysClockFreq:msirange <- 0
	@DEBUG_VALUE: HAL_RCC_GetSysClockFreq:sysclockfreq <- 0
	.loc	5 1341 18 is_stmt 1             @ c:/Keil_v5\ARM\PACK\Keil\STM32L5xx_DFP\1.3.0\Drivers\STM32L5xx_HAL_Driver\Src\stm32l5xx_hal_rcc.c:1341:18
	ldr.w	r0, [r1, #136]
	.loc	5 1341 56 is_stmt 0             @ c:/Keil_v5\ARM\PACK\Keil\STM32L5xx_DFP\1.3.0\Drivers\STM32L5xx_HAL_Driver\Src\stm32l5xx_hal_rcc.c:1341:56
	lsrs	r0, r0, #8
.Ltmp371:
	@DEBUG_VALUE: HAL_RCC_GetSysClockFreq:msirange <- [DW_OP_constu 15, DW_OP_and, DW_OP_stack_value] $r0
	.loc	5 0 56                          @ c:/Keil_v5\ARM\PACK\Keil\STM32L5xx_DFP\1.3.0\Drivers\STM32L5xx_HAL_Driver\Src\stm32l5xx_hal_rcc.c:0:56
	b	.LBB4_7
.Ltmp372:
	.p2align	2
.LBB4_6:
	@DEBUG_VALUE: HAL_RCC_GetSysClockFreq:sysclk_source <- $r2
	@DEBUG_VALUE: HAL_RCC_GetSysClockFreq:msirange <- 0
	@DEBUG_VALUE: HAL_RCC_GetSysClockFreq:sysclockfreq <- 0
	.loc	5 1346 18 is_stmt 1             @ c:/Keil_v5\ARM\PACK\Keil\STM32L5xx_DFP\1.3.0\Drivers\STM32L5xx_HAL_Driver\Src\stm32l5xx_hal_rcc.c:1346:18
	ldr	r0, [r1, #-12]
	.loc	5 1346 53 is_stmt 0             @ c:/Keil_v5\ARM\PACK\Keil\STM32L5xx_DFP\1.3.0\Drivers\STM32L5xx_HAL_Driver\Src\stm32l5xx_hal_rcc.c:1346:53
	lsrs	r0, r0, #4
.Ltmp373:
	@DEBUG_VALUE: HAL_RCC_GetSysClockFreq:msirange <- [DW_OP_constu 15, DW_OP_and, DW_OP_stack_value] $r0
.LBB4_7:
	@DEBUG_VALUE: HAL_RCC_GetSysClockFreq:sysclk_source <- $r2
	@DEBUG_VALUE: HAL_RCC_GetSysClockFreq:msirange <- [DW_OP_constu 15, DW_OP_and, DW_OP_stack_value] $r0
	@DEBUG_VALUE: HAL_RCC_GetSysClockFreq:sysclockfreq <- 0
	.loc	5 1349 16 is_stmt 1             @ c:/Keil_v5\ARM\PACK\Keil\STM32L5xx_DFP\1.3.0\Drivers\STM32L5xx_HAL_Driver\Src\stm32l5xx_hal_rcc.c:1349:16
	movw	r3, :lower16:MSIRangeTable
.Ltmp374:
	.loc	5 0 0 is_stmt 0                 @ c:/Keil_v5\ARM\PACK\Keil\STM32L5xx_DFP\1.3.0\Drivers\STM32L5xx_HAL_Driver\Src\stm32l5xx_hal_rcc.c:0:0
	and	r0, r0, #15
.Ltmp375:
	@DEBUG_VALUE: HAL_RCC_GetSysClockFreq:msirange <- $r0
	.loc	5 1349 16                       @ c:/Keil_v5\ARM\PACK\Keil\STM32L5xx_DFP\1.3.0\Drivers\STM32L5xx_HAL_Driver\Src\stm32l5xx_hal_rcc.c:1349:16
	movt	r3, :upper16:MSIRangeTable
	ldr.w	r3, [r3, r0, lsl #2]
.Ltmp376:
	@DEBUG_VALUE: HAL_RCC_GetSysClockFreq:msirange <- $r3
	.loc	5 1351 9 is_stmt 1              @ c:/Keil_v5\ARM\PACK\Keil\STM32L5xx_DFP\1.3.0\Drivers\STM32L5xx_HAL_Driver\Src\stm32l5xx_hal_rcc.c:1351:9
	cmp	r2, #0
	mov	r0, r3
	it	ne
	movne	r0, #0
.Ltmp377:
.LBB4_8:
	@DEBUG_VALUE: HAL_RCC_GetSysClockFreq:sysclk_source <- $r2
	@DEBUG_VALUE: HAL_RCC_GetSysClockFreq:sysclockfreq <- 0
	@DEBUG_VALUE: HAL_RCC_GetSysClockFreq:msirange <- $r3
	@DEBUG_VALUE: HAL_RCC_GetSysClockFreq:sysclockfreq <- $r0
	.loc	5 1372 7                        @ c:/Keil_v5\ARM\PACK\Keil\STM32L5xx_DFP\1.3.0\Drivers\STM32L5xx_HAL_Driver\Src\stm32l5xx_hal_rcc.c:1372:7
	cmp	r2, #12
	@DEBUG_VALUE: HAL_RCC_GetSysClockFreq:sysclockfreq <- $r0
	.loc	5 1401 3                        @ c:/Keil_v5\ARM\PACK\Keil\STM32L5xx_DFP\1.3.0\Drivers\STM32L5xx_HAL_Driver\Src\stm32l5xx_hal_rcc.c:1401:3
	it	ne
	bxne	lr
.Ltmp378:
.LBB4_9:
	@DEBUG_VALUE: HAL_RCC_GetSysClockFreq:msirange <- $r3
	@DEBUG_VALUE: HAL_RCC_GetSysClockFreq:sysclk_source <- $r2
	@DEBUG_VALUE: HAL_RCC_GetSysClockFreq:sysclockfreq <- $r0
	.loc	5 1379 23                       @ c:/Keil_v5\ARM\PACK\Keil\STM32L5xx_DFP\1.3.0\Drivers\STM32L5xx_HAL_Driver\Src\stm32l5xx_hal_rcc.c:1379:23
	ldr	r0, [r1]
.Ltmp379:
	@DEBUG_VALUE: HAL_RCC_GetSysClockFreq:pllsource <- [DW_OP_constu 3, DW_OP_and, DW_OP_stack_value] $r0
	.loc	5 1380 19                       @ c:/Keil_v5\ARM\PACK\Keil\STM32L5xx_DFP\1.3.0\Drivers\STM32L5xx_HAL_Driver\Src\stm32l5xx_hal_rcc.c:1380:19
	ldr	r2, [r1]
.Ltmp380:
	.loc	5 1382 5                        @ c:/Keil_v5\ARM\PACK\Keil\STM32L5xx_DFP\1.3.0\Drivers\STM32L5xx_HAL_Driver\Src\stm32l5xx_hal_rcc.c:1382:5
	lsls	r0, r0, #30
.Ltmp381:
	.loc	5 0 5 is_stmt 0                 @ c:/Keil_v5\ARM\PACK\Keil\STM32L5xx_DFP\1.3.0\Drivers\STM32L5xx_HAL_Driver\Src\stm32l5xx_hal_rcc.c:0:5
	movw	r0, #9216
	.loc	5 1380 47 is_stmt 1             @ c:/Keil_v5\ARM\PACK\Keil\STM32L5xx_DFP\1.3.0\Drivers\STM32L5xx_HAL_Driver\Src\stm32l5xx_hal_rcc.c:1380:47
	ubfx	r2, r2, #4, #4
	movt	r0, #244
	.loc	5 1382 5                        @ c:/Keil_v5\ARM\PACK\Keil\STM32L5xx_DFP\1.3.0\Drivers\STM32L5xx_HAL_Driver\Src\stm32l5xx_hal_rcc.c:1382:5
	it	pl
	movpl	r0, r3
.Ltmp382:
	.loc	5 0 0 is_stmt 0                 @ c:/Keil_v5\ARM\PACK\Keil\STM32L5xx_DFP\1.3.0\Drivers\STM32L5xx_HAL_Driver\Src\stm32l5xx_hal_rcc.c:0:0
	ldr	r3, [r1]
.Ltmp383:
	.loc	5 1380 72 is_stmt 1             @ c:/Keil_v5\ARM\PACK\Keil\STM32L5xx_DFP\1.3.0\Drivers\STM32L5xx_HAL_Driver\Src\stm32l5xx_hal_rcc.c:1380:72
	adds	r2, #1
.Ltmp384:
	@DEBUG_VALUE: HAL_RCC_GetSysClockFreq:pllm <- $r2
	.loc	5 1397 20                       @ c:/Keil_v5\ARM\PACK\Keil\STM32L5xx_DFP\1.3.0\Drivers\STM32L5xx_HAL_Driver\Src\stm32l5xx_hal_rcc.c:1397:20
	ldr	r1, [r1]
.Ltmp385:
	.loc	5 0 0 is_stmt 0                 @ c:/Keil_v5\ARM\PACK\Keil\STM32L5xx_DFP\1.3.0\Drivers\STM32L5xx_HAL_Driver\Src\stm32l5xx_hal_rcc.c:0:0
	udiv	r0, r0, r2
	ubfx	r2, r3, #8, #7
.Ltmp386:
	.loc	5 1397 79                       @ c:/Keil_v5\ARM\PACK\Keil\STM32L5xx_DFP\1.3.0\Drivers\STM32L5xx_HAL_Driver\Src\stm32l5xx_hal_rcc.c:1397:79
	ubfx	r1, r1, #25, #2
.Ltmp387:
	.loc	5 0 0                           @ c:/Keil_v5\ARM\PACK\Keil\STM32L5xx_DFP\1.3.0\Drivers\STM32L5xx_HAL_Driver\Src\stm32l5xx_hal_rcc.c:0:0
	mul	r0, r2, r0
.Ltmp388:
	@DEBUG_VALUE: HAL_RCC_GetSysClockFreq:pllvco <- $r0
	movs	r2, #2
.Ltmp389:
	.loc	5 1397 79                       @ c:/Keil_v5\ARM\PACK\Keil\STM32L5xx_DFP\1.3.0\Drivers\STM32L5xx_HAL_Driver\Src\stm32l5xx_hal_rcc.c:1397:79
	add.w	r1, r2, r1, lsl #1
.Ltmp390:
	@DEBUG_VALUE: HAL_RCC_GetSysClockFreq:pllr <- $r1
	.loc	5 1398 27 is_stmt 1             @ c:/Keil_v5\ARM\PACK\Keil\STM32L5xx_DFP\1.3.0\Drivers\STM32L5xx_HAL_Driver\Src\stm32l5xx_hal_rcc.c:1398:27
	udiv	r0, r0, r1
.Ltmp391:
	@DEBUG_VALUE: HAL_RCC_GetSysClockFreq:sysclockfreq <- $r0
	@DEBUG_VALUE: HAL_RCC_GetSysClockFreq:sysclockfreq <- $r0
	.loc	5 1401 3                        @ c:/Keil_v5\ARM\PACK\Keil\STM32L5xx_DFP\1.3.0\Drivers\STM32L5xx_HAL_Driver\Src\stm32l5xx_hal_rcc.c:1401:3
	bx	lr
.Ltmp392:
	.p2align	2
.LBB4_10:
	@DEBUG_VALUE: HAL_RCC_GetSysClockFreq:sysclk_source <- $r2
	@DEBUG_VALUE: HAL_RCC_GetSysClockFreq:msirange <- 0
	@DEBUG_VALUE: HAL_RCC_GetSysClockFreq:sysclockfreq <- 0
	.loc	5 0 3 is_stmt 0                 @ c:/Keil_v5\ARM\PACK\Keil\STM32L5xx_DFP\1.3.0\Drivers\STM32L5xx_HAL_Driver\Src\stm32l5xx_hal_rcc.c:0:3
	movs	r0, #0
	movs	r3, #0
	b	.LBB4_8
.Ltmp393:
.Lfunc_end4:
	.size	HAL_RCC_GetSysClockFreq, .Lfunc_end4-HAL_RCC_GetSysClockFreq
	.cfi_endproc
	.cantunwind
	.fnend
                                        @ -- End function
	.section	.text.HAL_RCC_MCOConfig,"ax",%progbits
	.hidden	HAL_RCC_MCOConfig               @ -- Begin function HAL_RCC_MCOConfig
	.globl	HAL_RCC_MCOConfig
	.p2align	2
	.type	HAL_RCC_MCOConfig,%function
	.code	16                              @ @HAL_RCC_MCOConfig
	.thumb_func
HAL_RCC_MCOConfig:
.Lfunc_begin5:
	.loc	5 1269 0 is_stmt 1              @ c:/Keil_v5\ARM\PACK\Keil\STM32L5xx_DFP\1.3.0\Drivers\STM32L5xx_HAL_Driver\Src\stm32l5xx_hal_rcc.c:1269:0
	.fnstart
	.cfi_startproc
@ %bb.0:
	@DEBUG_VALUE: HAL_RCC_MCOConfig:RCC_MCOx <- $r0
	@DEBUG_VALUE: HAL_RCC_MCOConfig:RCC_MCOSource <- $r1
	@DEBUG_VALUE: HAL_RCC_MCOConfig:RCC_MCODiv <- $r2
	.save	{r4, r5, r6, lr}
	push	{r4, r5, r6, lr}
	.cfi_def_cfa_offset 16
	.cfi_offset lr, -4
	.cfi_offset r6, -8
	.cfi_offset r5, -12
	.cfi_offset r4, -16
	.pad	#24
	sub	sp, #24
	.cfi_def_cfa_offset 40
	movw	r6, #4172
	movt	r6, #16386
.Ltmp394:
	.loc	5 1277 3 prologue_end           @ c:/Keil_v5\ARM\PACK\Keil\STM32L5xx_DFP\1.3.0\Drivers\STM32L5xx_HAL_Driver\Src\stm32l5xx_hal_rcc.c:1277:3
	ldr	r0, [r6]
.Ltmp395:
	@DEBUG_VALUE: HAL_RCC_MCOConfig:RCC_MCOx <- [DW_OP_LLVM_entry_value 1] $r0
	.loc	5 0 3 is_stmt 0                 @ c:/Keil_v5\ARM\PACK\Keil\STM32L5xx_DFP\1.3.0\Drivers\STM32L5xx_HAL_Driver\Src\stm32l5xx_hal_rcc.c:0:3
	mov	r5, r1
.Ltmp396:
	@DEBUG_VALUE: HAL_RCC_MCOConfig:RCC_MCOSource <- $r5
	@DEBUG_VALUE: HAL_RCC_MCOConfig:RCC_MCOSource <- $r5
	.loc	5 1277 3                        @ c:/Keil_v5\ARM\PACK\Keil\STM32L5xx_DFP\1.3.0\Drivers\STM32L5xx_HAL_Driver\Src\stm32l5xx_hal_rcc.c:1277:3
	orr	r0, r0, #1
	str	r0, [r6]
	ldr	r0, [r6]
	add	r1, sp, #4
	and	r0, r0, #1
	str	r0, [sp, #4]
	ldr	r0, [sp, #4]
	mov.w	r0, #256
.Ltmp397:
	.loc	5 1280 23 is_stmt 1             @ c:/Keil_v5\ARM\PACK\Keil\STM32L5xx_DFP\1.3.0\Drivers\STM32L5xx_HAL_Driver\Src\stm32l5xx_hal_rcc.c:1280:23
	str	r0, [sp, #4]
	movs	r0, #2
	.loc	5 1281 24                       @ c:/Keil_v5\ARM\PACK\Keil\STM32L5xx_DFP\1.3.0\Drivers\STM32L5xx_HAL_Driver\Src\stm32l5xx_hal_rcc.c:1281:24
	str	r0, [sp, #8]
	.loc	5 1282 25                       @ c:/Keil_v5\ARM\PACK\Keil\STM32L5xx_DFP\1.3.0\Drivers\STM32L5xx_HAL_Driver\Src\stm32l5xx_hal_rcc.c:1282:25
	str	r0, [sp, #16]
	movs	r0, #0
	.loc	5 1283 24                       @ c:/Keil_v5\ARM\PACK\Keil\STM32L5xx_DFP\1.3.0\Drivers\STM32L5xx_HAL_Driver\Src\stm32l5xx_hal_rcc.c:1283:24
	str	r0, [sp, #12]
	.loc	5 1284 29                       @ c:/Keil_v5\ARM\PACK\Keil\STM32L5xx_DFP\1.3.0\Drivers\STM32L5xx_HAL_Driver\Src\stm32l5xx_hal_rcc.c:1284:29
	str	r0, [sp, #20]
	movs	r0, #0
	movt	r0, #16898
	mov	r4, r2
.Ltmp398:
	@DEBUG_VALUE: HAL_RCC_MCOConfig:RCC_MCODiv <- $r4
	@DEBUG_VALUE: HAL_RCC_MCOConfig:RCC_MCODiv <- $r4
	.loc	5 1285 3                        @ c:/Keil_v5\ARM\PACK\Keil\STM32L5xx_DFP\1.3.0\Drivers\STM32L5xx_HAL_Driver\Src\stm32l5xx_hal_rcc.c:1285:3
	bl	HAL_GPIO_Init
	.loc	5 1288 3                        @ c:/Keil_v5\ARM\PACK\Keil\STM32L5xx_DFP\1.3.0\Drivers\STM32L5xx_HAL_Driver\Src\stm32l5xx_hal_rcc.c:1288:3
	ldr	r0, [r6, #-68]
	orr.w	r1, r4, r5
	bic	r0, r0, #2130706432
	orrs	r0, r1
	str	r0, [r6, #-68]
	.loc	5 1289 1                        @ c:/Keil_v5\ARM\PACK\Keil\STM32L5xx_DFP\1.3.0\Drivers\STM32L5xx_HAL_Driver\Src\stm32l5xx_hal_rcc.c:1289:1
	add	sp, #24
	pop	{r4, r5, r6, pc}
.Ltmp399:
.Lfunc_end5:
	.size	HAL_RCC_MCOConfig, .Lfunc_end5-HAL_RCC_MCOConfig
	.cfi_endproc
	.cantunwind
	.fnend
                                        @ -- End function
	.section	.text.HAL_RCC_GetPCLK1Freq,"ax",%progbits
	.hidden	HAL_RCC_GetPCLK1Freq            @ -- Begin function HAL_RCC_GetPCLK1Freq
	.globl	HAL_RCC_GetPCLK1Freq
	.p2align	2
	.type	HAL_RCC_GetPCLK1Freq,%function
	.code	16                              @ @HAL_RCC_GetPCLK1Freq
	.thumb_func
HAL_RCC_GetPCLK1Freq:
.Lfunc_begin6:
	.loc	5 1422 0                        @ c:/Keil_v5\ARM\PACK\Keil\STM32L5xx_DFP\1.3.0\Drivers\STM32L5xx_HAL_Driver\Src\stm32l5xx_hal_rcc.c:1422:0
	.fnstart
	.cfi_startproc
@ %bb.0:
	.save	{r7, lr}
	push	{r7, lr}
	.cfi_def_cfa_offset 8
	.cfi_offset lr, -4
	.cfi_offset r7, -8
.Ltmp400:
	.loc	5 1412 11 prologue_end          @ c:/Keil_v5\ARM\PACK\Keil\STM32L5xx_DFP\1.3.0\Drivers\STM32L5xx_HAL_Driver\Src\stm32l5xx_hal_rcc.c:1412:11
	bl	HAL_RCC_GetSysClockFreq
	movw	r1, #4104
	movt	r1, #16386
	.loc	5 1412 60 is_stmt 0             @ c:/Keil_v5\ARM\PACK\Keil\STM32L5xx_DFP\1.3.0\Drivers\STM32L5xx_HAL_Driver\Src\stm32l5xx_hal_rcc.c:1412:60
	ldr	r2, [r1]
.Ltmp401:
	.loc	5 1424 56 is_stmt 1             @ c:/Keil_v5\ARM\PACK\Keil\STM32L5xx_DFP\1.3.0\Drivers\STM32L5xx_HAL_Driver\Src\stm32l5xx_hal_rcc.c:1424:56
	ldr	r1, [r1]
.Ltmp402:
	.loc	5 1412 82                       @ c:/Keil_v5\ARM\PACK\Keil\STM32L5xx_DFP\1.3.0\Drivers\STM32L5xx_HAL_Driver\Src\stm32l5xx_hal_rcc.c:1412:82
	ubfx	r2, r2, #4, #4
	.loc	5 1412 40 is_stmt 0             @ c:/Keil_v5\ARM\PACK\Keil\STM32L5xx_DFP\1.3.0\Drivers\STM32L5xx_HAL_Driver\Src\stm32l5xx_hal_rcc.c:1412:40
	movw	r3, :lower16:AHBPrescTable
	movt	r3, :upper16:AHBPrescTable
.Ltmp403:
	.loc	5 1424 79 is_stmt 1             @ c:/Keil_v5\ARM\PACK\Keil\STM32L5xx_DFP\1.3.0\Drivers\STM32L5xx_HAL_Driver\Src\stm32l5xx_hal_rcc.c:1424:79
	ubfx	r1, r1, #8, #3
.Ltmp404:
	.loc	5 1412 40                       @ c:/Keil_v5\ARM\PACK\Keil\STM32L5xx_DFP\1.3.0\Drivers\STM32L5xx_HAL_Driver\Src\stm32l5xx_hal_rcc.c:1412:40
	ldrb	r2, [r3, r2]
.Ltmp405:
	.loc	5 1424 36                       @ c:/Keil_v5\ARM\PACK\Keil\STM32L5xx_DFP\1.3.0\Drivers\STM32L5xx_HAL_Driver\Src\stm32l5xx_hal_rcc.c:1424:36
	movw	r3, :lower16:APBPrescTable
	movt	r3, :upper16:APBPrescTable
	ldrb	r1, [r3, r1]
.Ltmp406:
	.loc	5 1412 37                       @ c:/Keil_v5\ARM\PACK\Keil\STM32L5xx_DFP\1.3.0\Drivers\STM32L5xx_HAL_Driver\Src\stm32l5xx_hal_rcc.c:1412:37
	lsrs	r0, r2
.Ltmp407:
	.loc	5 1424 33                       @ c:/Keil_v5\ARM\PACK\Keil\STM32L5xx_DFP\1.3.0\Drivers\STM32L5xx_HAL_Driver\Src\stm32l5xx_hal_rcc.c:1424:33
	lsrs	r0, r1
	.loc	5 1424 3 is_stmt 0              @ c:/Keil_v5\ARM\PACK\Keil\STM32L5xx_DFP\1.3.0\Drivers\STM32L5xx_HAL_Driver\Src\stm32l5xx_hal_rcc.c:1424:3
	pop	{r7, pc}
.Ltmp408:
.Lfunc_end6:
	.size	HAL_RCC_GetPCLK1Freq, .Lfunc_end6-HAL_RCC_GetPCLK1Freq
	.cfi_endproc
	.cantunwind
	.fnend
                                        @ -- End function
	.section	.text.HAL_RCC_GetPCLK2Freq,"ax",%progbits
	.hidden	HAL_RCC_GetPCLK2Freq            @ -- Begin function HAL_RCC_GetPCLK2Freq
	.globl	HAL_RCC_GetPCLK2Freq
	.p2align	2
	.type	HAL_RCC_GetPCLK2Freq,%function
	.code	16                              @ @HAL_RCC_GetPCLK2Freq
	.thumb_func
HAL_RCC_GetPCLK2Freq:
.Lfunc_begin7:
	.loc	5 1434 0 is_stmt 1              @ c:/Keil_v5\ARM\PACK\Keil\STM32L5xx_DFP\1.3.0\Drivers\STM32L5xx_HAL_Driver\Src\stm32l5xx_hal_rcc.c:1434:0
	.fnstart
	.cfi_startproc
@ %bb.0:
	.save	{r7, lr}
	push	{r7, lr}
	.cfi_def_cfa_offset 8
	.cfi_offset lr, -4
	.cfi_offset r7, -8
.Ltmp409:
	.loc	5 1412 11 prologue_end          @ c:/Keil_v5\ARM\PACK\Keil\STM32L5xx_DFP\1.3.0\Drivers\STM32L5xx_HAL_Driver\Src\stm32l5xx_hal_rcc.c:1412:11
	bl	HAL_RCC_GetSysClockFreq
	movw	r1, #4104
	movt	r1, #16386
	.loc	5 1412 60 is_stmt 0             @ c:/Keil_v5\ARM\PACK\Keil\STM32L5xx_DFP\1.3.0\Drivers\STM32L5xx_HAL_Driver\Src\stm32l5xx_hal_rcc.c:1412:60
	ldr	r2, [r1]
.Ltmp410:
	.loc	5 1436 56 is_stmt 1             @ c:/Keil_v5\ARM\PACK\Keil\STM32L5xx_DFP\1.3.0\Drivers\STM32L5xx_HAL_Driver\Src\stm32l5xx_hal_rcc.c:1436:56
	ldr	r1, [r1]
.Ltmp411:
	.loc	5 1412 82                       @ c:/Keil_v5\ARM\PACK\Keil\STM32L5xx_DFP\1.3.0\Drivers\STM32L5xx_HAL_Driver\Src\stm32l5xx_hal_rcc.c:1412:82
	ubfx	r2, r2, #4, #4
	.loc	5 1412 40 is_stmt 0             @ c:/Keil_v5\ARM\PACK\Keil\STM32L5xx_DFP\1.3.0\Drivers\STM32L5xx_HAL_Driver\Src\stm32l5xx_hal_rcc.c:1412:40
	movw	r3, :lower16:AHBPrescTable
	movt	r3, :upper16:AHBPrescTable
.Ltmp412:
	.loc	5 1436 79 is_stmt 1             @ c:/Keil_v5\ARM\PACK\Keil\STM32L5xx_DFP\1.3.0\Drivers\STM32L5xx_HAL_Driver\Src\stm32l5xx_hal_rcc.c:1436:79
	ubfx	r1, r1, #11, #3
.Ltmp413:
	.loc	5 1412 40                       @ c:/Keil_v5\ARM\PACK\Keil\STM32L5xx_DFP\1.3.0\Drivers\STM32L5xx_HAL_Driver\Src\stm32l5xx_hal_rcc.c:1412:40
	ldrb	r2, [r3, r2]
.Ltmp414:
	.loc	5 1436 36                       @ c:/Keil_v5\ARM\PACK\Keil\STM32L5xx_DFP\1.3.0\Drivers\STM32L5xx_HAL_Driver\Src\stm32l5xx_hal_rcc.c:1436:36
	movw	r3, :lower16:APBPrescTable
	movt	r3, :upper16:APBPrescTable
	ldrb	r1, [r3, r1]
.Ltmp415:
	.loc	5 1412 37                       @ c:/Keil_v5\ARM\PACK\Keil\STM32L5xx_DFP\1.3.0\Drivers\STM32L5xx_HAL_Driver\Src\stm32l5xx_hal_rcc.c:1412:37
	lsrs	r0, r2
.Ltmp416:
	.loc	5 1436 33                       @ c:/Keil_v5\ARM\PACK\Keil\STM32L5xx_DFP\1.3.0\Drivers\STM32L5xx_HAL_Driver\Src\stm32l5xx_hal_rcc.c:1436:33
	lsrs	r0, r1
	.loc	5 1436 3 is_stmt 0              @ c:/Keil_v5\ARM\PACK\Keil\STM32L5xx_DFP\1.3.0\Drivers\STM32L5xx_HAL_Driver\Src\stm32l5xx_hal_rcc.c:1436:3
	pop	{r7, pc}
.Ltmp417:
.Lfunc_end7:
	.size	HAL_RCC_GetPCLK2Freq, .Lfunc_end7-HAL_RCC_GetPCLK2Freq
	.cfi_endproc
	.cantunwind
	.fnend
                                        @ -- End function
	.section	.text.HAL_RCC_GetOscConfig,"ax",%progbits
	.hidden	HAL_RCC_GetOscConfig            @ -- Begin function HAL_RCC_GetOscConfig
	.globl	HAL_RCC_GetOscConfig
	.p2align	2
	.type	HAL_RCC_GetOscConfig,%function
	.code	16                              @ @HAL_RCC_GetOscConfig
	.thumb_func
HAL_RCC_GetOscConfig:
.Lfunc_begin8:
	.loc	5 1447 0 is_stmt 1              @ c:/Keil_v5\ARM\PACK\Keil\STM32L5xx_DFP\1.3.0\Drivers\STM32L5xx_HAL_Driver\Src\stm32l5xx_hal_rcc.c:1447:0
	.fnstart
	.cfi_startproc
@ %bb.0:
	@DEBUG_VALUE: HAL_RCC_GetOscConfig:RCC_OscInitStruct <- $r0
	movs	r2, #63
	movw	r1, #4096
	movt	r1, #16386
	@DEBUG_VALUE: HAL_RCC_GetOscConfig:RCC_OscInitStruct <- $r0
.Ltmp418:
	.loc	5 1452 37 prologue_end          @ c:/Keil_v5\ARM\PACK\Keil\STM32L5xx_DFP\1.3.0\Drivers\STM32L5xx_HAL_Driver\Src\stm32l5xx_hal_rcc.c:1452:37
	str	r2, [r0]
.Ltmp419:
	.loc	5 1456 13                       @ c:/Keil_v5\ARM\PACK\Keil\STM32L5xx_DFP\1.3.0\Drivers\STM32L5xx_HAL_Driver\Src\stm32l5xx_hal_rcc.c:1456:13
	ldr	r2, [r1]
.Ltmp420:
	.loc	5 1456 7 is_stmt 0              @ c:/Keil_v5\ARM\PACK\Keil\STM32L5xx_DFP\1.3.0\Drivers\STM32L5xx_HAL_Driver\Src\stm32l5xx_hal_rcc.c:1456:7
	lsls	r2, r2, #13
	bmi	.LBB8_2
.Ltmp421:
@ %bb.1:
	@DEBUG_VALUE: HAL_RCC_GetOscConfig:RCC_OscInitStruct <- $r0
	.loc	5 1460 18 is_stmt 1             @ c:/Keil_v5\ARM\PACK\Keil\STM32L5xx_DFP\1.3.0\Drivers\STM32L5xx_HAL_Driver\Src\stm32l5xx_hal_rcc.c:1460:18
	ldr	r2, [r1]
.Ltmp422:
	.loc	5 1460 12 is_stmt 0             @ c:/Keil_v5\ARM\PACK\Keil\STM32L5xx_DFP\1.3.0\Drivers\STM32L5xx_HAL_Driver\Src\stm32l5xx_hal_rcc.c:1460:12
	lsls	r2, r2, #15
	ite	pl
	movpl	r2, #0
	movmi.w	r2, #65536
	b	.LBB8_3
.Ltmp423:
	.p2align	2
.LBB8_2:
	@DEBUG_VALUE: HAL_RCC_GetOscConfig:RCC_OscInitStruct <- $r0
	.loc	5 0 12                          @ c:/Keil_v5\ARM\PACK\Keil\STM32L5xx_DFP\1.3.0\Drivers\STM32L5xx_HAL_Driver\Src\stm32l5xx_hal_rcc.c:0:12
	mov.w	r2, #327680
.Ltmp424:
.LBB8_3:
	@DEBUG_VALUE: HAL_RCC_GetOscConfig:RCC_OscInitStruct <- $r0
	str	r2, [r0, #4]
.Ltmp425:
	.loc	5 1470 13 is_stmt 1             @ c:/Keil_v5\ARM\PACK\Keil\STM32L5xx_DFP\1.3.0\Drivers\STM32L5xx_HAL_Driver\Src\stm32l5xx_hal_rcc.c:1470:13
	ldr	r2, [r1]
	.loc	5 1470 16 is_stmt 0             @ c:/Keil_v5\ARM\PACK\Keil\STM32L5xx_DFP\1.3.0\Drivers\STM32L5xx_HAL_Driver\Src\stm32l5xx_hal_rcc.c:1470:16
	and	r2, r2, #1
.Ltmp426:
	.loc	5 1476 33 is_stmt 1             @ c:/Keil_v5\ARM\PACK\Keil\STM32L5xx_DFP\1.3.0\Drivers\STM32L5xx_HAL_Driver\Src\stm32l5xx_hal_rcc.c:1476:33
	str	r2, [r0, #28]
.Ltmp427:
	.loc	5 1479 61                       @ c:/Keil_v5\ARM\PACK\Keil\STM32L5xx_DFP\1.3.0\Drivers\STM32L5xx_HAL_Driver\Src\stm32l5xx_hal_rcc.c:1479:61
	ldr	r2, [r1, #4]
	.loc	5 1479 88 is_stmt 0             @ c:/Keil_v5\ARM\PACK\Keil\STM32L5xx_DFP\1.3.0\Drivers\STM32L5xx_HAL_Driver\Src\stm32l5xx_hal_rcc.c:1479:88
	ubfx	r2, r2, #8, #8
	.loc	5 1479 42                       @ c:/Keil_v5\ARM\PACK\Keil\STM32L5xx_DFP\1.3.0\Drivers\STM32L5xx_HAL_Driver\Src\stm32l5xx_hal_rcc.c:1479:42
	str	r2, [r0, #32]
	.loc	5 1480 55 is_stmt 1             @ c:/Keil_v5\ARM\PACK\Keil\STM32L5xx_DFP\1.3.0\Drivers\STM32L5xx_HAL_Driver\Src\stm32l5xx_hal_rcc.c:1480:55
	ldr	r2, [r1]
	.loc	5 1480 58 is_stmt 0             @ c:/Keil_v5\ARM\PACK\Keil\STM32L5xx_DFP\1.3.0\Drivers\STM32L5xx_HAL_Driver\Src\stm32l5xx_hal_rcc.c:1480:58
	and	r2, r2, #240
	.loc	5 1480 36                       @ c:/Keil_v5\ARM\PACK\Keil\STM32L5xx_DFP\1.3.0\Drivers\STM32L5xx_HAL_Driver\Src\stm32l5xx_hal_rcc.c:1480:36
	str	r2, [r0, #36]
.Ltmp428:
	.loc	5 1483 13 is_stmt 1             @ c:/Keil_v5\ARM\PACK\Keil\STM32L5xx_DFP\1.3.0\Drivers\STM32L5xx_HAL_Driver\Src\stm32l5xx_hal_rcc.c:1483:13
	ldr	r2, [r1]
	.loc	5 1483 16 is_stmt 0             @ c:/Keil_v5\ARM\PACK\Keil\STM32L5xx_DFP\1.3.0\Drivers\STM32L5xx_HAL_Driver\Src\stm32l5xx_hal_rcc.c:1483:16
	and	r2, r2, #256
.Ltmp429:
	.loc	5 1489 33 is_stmt 1             @ c:/Keil_v5\ARM\PACK\Keil\STM32L5xx_DFP\1.3.0\Drivers\STM32L5xx_HAL_Driver\Src\stm32l5xx_hal_rcc.c:1489:33
	str	r2, [r0, #12]
.Ltmp430:
	.loc	5 1492 61                       @ c:/Keil_v5\ARM\PACK\Keil\STM32L5xx_DFP\1.3.0\Drivers\STM32L5xx_HAL_Driver\Src\stm32l5xx_hal_rcc.c:1492:61
	ldr	r2, [r1, #4]
	.loc	5 1492 88 is_stmt 0             @ c:/Keil_v5\ARM\PACK\Keil\STM32L5xx_DFP\1.3.0\Drivers\STM32L5xx_HAL_Driver\Src\stm32l5xx_hal_rcc.c:1492:88
	ubfx	r2, r2, #24, #7
	.loc	5 1492 42                       @ c:/Keil_v5\ARM\PACK\Keil\STM32L5xx_DFP\1.3.0\Drivers\STM32L5xx_HAL_Driver\Src\stm32l5xx_hal_rcc.c:1492:42
	str	r2, [r0, #16]
.Ltmp431:
	.loc	5 1495 13 is_stmt 1             @ c:/Keil_v5\ARM\PACK\Keil\STM32L5xx_DFP\1.3.0\Drivers\STM32L5xx_HAL_Driver\Src\stm32l5xx_hal_rcc.c:1495:13
	ldr.w	r3, [r1, #144]
	.loc	5 0 0 is_stmt 0                 @ c:/Keil_v5\ARM\PACK\Keil\STM32L5xx_DFP\1.3.0\Drivers\STM32L5xx_HAL_Driver\Src\stm32l5xx_hal_rcc.c:0:0
	ldr.w	r2, [r1, #144]
.Ltmp432:
	.loc	5 1495 7                        @ c:/Keil_v5\ARM\PACK\Keil\STM32L5xx_DFP\1.3.0\Drivers\STM32L5xx_HAL_Driver\Src\stm32l5xx_hal_rcc.c:1495:7
	lsls	r3, r3, #29
	bmi	.LBB8_6
.Ltmp433:
@ %bb.4:
	@DEBUG_VALUE: HAL_RCC_GetOscConfig:RCC_OscInitStruct <- $r0
	.loc	5 1506 12 is_stmt 1             @ c:/Keil_v5\ARM\PACK\Keil\STM32L5xx_DFP\1.3.0\Drivers\STM32L5xx_HAL_Driver\Src\stm32l5xx_hal_rcc.c:1506:12
	lsls	r2, r2, #31
	bne	.LBB8_7
.Ltmp434:
@ %bb.5:
	@DEBUG_VALUE: HAL_RCC_GetOscConfig:RCC_OscInitStruct <- $r0
	.loc	5 0 12 is_stmt 0                @ c:/Keil_v5\ARM\PACK\Keil\STM32L5xx_DFP\1.3.0\Drivers\STM32L5xx_HAL_Driver\Src\stm32l5xx_hal_rcc.c:0:12
	movs	r2, #0
.Ltmp435:
	.loc	5 1519 33 is_stmt 1             @ c:/Keil_v5\ARM\PACK\Keil\STM32L5xx_DFP\1.3.0\Drivers\STM32L5xx_HAL_Driver\Src\stm32l5xx_hal_rcc.c:1519:33
	str	r2, [r0, #8]
	b	.LBB8_8
.Ltmp436:
	.p2align	2
.LBB8_6:
	@DEBUG_VALUE: HAL_RCC_GetOscConfig:RCC_OscInitStruct <- $r0
	.loc	5 1497 9                        @ c:/Keil_v5\ARM\PACK\Keil\STM32L5xx_DFP\1.3.0\Drivers\STM32L5xx_HAL_Driver\Src\stm32l5xx_hal_rcc.c:1497:9
	lsls	r2, r2, #24
	ite	pl
	movpl	r2, #5
	movmi	r2, #133
.Ltmp437:
	.loc	5 1499 35                       @ c:/Keil_v5\ARM\PACK\Keil\STM32L5xx_DFP\1.3.0\Drivers\STM32L5xx_HAL_Driver\Src\stm32l5xx_hal_rcc.c:1499:35
	str	r2, [r0, #8]
	b	.LBB8_8
.Ltmp438:
	.p2align	2
.LBB8_7:
	@DEBUG_VALUE: HAL_RCC_GetOscConfig:RCC_OscInitStruct <- $r0
	.loc	5 1508 15                       @ c:/Keil_v5\ARM\PACK\Keil\STM32L5xx_DFP\1.3.0\Drivers\STM32L5xx_HAL_Driver\Src\stm32l5xx_hal_rcc.c:1508:15
	ldr.w	r2, [r1, #144]
.Ltmp439:
	.loc	5 1508 9 is_stmt 0              @ c:/Keil_v5\ARM\PACK\Keil\STM32L5xx_DFP\1.3.0\Drivers\STM32L5xx_HAL_Driver\Src\stm32l5xx_hal_rcc.c:1508:9
	lsls	r2, r2, #24
	ite	pl
	movpl	r2, #1
	movmi	r2, #129
.Ltmp440:
	.loc	5 1510 35 is_stmt 1             @ c:/Keil_v5\ARM\PACK\Keil\STM32L5xx_DFP\1.3.0\Drivers\STM32L5xx_HAL_Driver\Src\stm32l5xx_hal_rcc.c:1510:35
	str	r2, [r0, #8]
.Ltmp441:
.LBB8_8:
	@DEBUG_VALUE: HAL_RCC_GetOscConfig:RCC_OscInitStruct <- $r0
	.loc	5 1523 13                       @ c:/Keil_v5\ARM\PACK\Keil\STM32L5xx_DFP\1.3.0\Drivers\STM32L5xx_HAL_Driver\Src\stm32l5xx_hal_rcc.c:1523:13
	ldr.w	r2, [r1, #148]
	movs	r3, #2
	.loc	5 1523 17 is_stmt 0             @ c:/Keil_v5\ARM\PACK\Keil\STM32L5xx_DFP\1.3.0\Drivers\STM32L5xx_HAL_Driver\Src\stm32l5xx_hal_rcc.c:1523:17
	and	r2, r2, #1
.Ltmp442:
	.loc	5 1529 33 is_stmt 1             @ c:/Keil_v5\ARM\PACK\Keil\STM32L5xx_DFP\1.3.0\Drivers\STM32L5xx_HAL_Driver\Src\stm32l5xx_hal_rcc.c:1529:33
	str	r2, [r0, #20]
.Ltmp443:
	.loc	5 1532 13                       @ c:/Keil_v5\ARM\PACK\Keil\STM32L5xx_DFP\1.3.0\Drivers\STM32L5xx_HAL_Driver\Src\stm32l5xx_hal_rcc.c:1532:13
	ldr.w	r2, [r1, #148]
	.loc	5 1532 17 is_stmt 0             @ c:/Keil_v5\ARM\PACK\Keil\STM32L5xx_DFP\1.3.0\Drivers\STM32L5xx_HAL_Driver\Src\stm32l5xx_hal_rcc.c:1532:17
	and	r2, r2, #16
.Ltmp444:
	.loc	5 1538 31 is_stmt 1             @ c:/Keil_v5\ARM\PACK\Keil\STM32L5xx_DFP\1.3.0\Drivers\STM32L5xx_HAL_Driver\Src\stm32l5xx_hal_rcc.c:1538:31
	str	r2, [r0, #24]
.Ltmp445:
	.loc	5 1542 13                       @ c:/Keil_v5\ARM\PACK\Keil\STM32L5xx_DFP\1.3.0\Drivers\STM32L5xx_HAL_Driver\Src\stm32l5xx_hal_rcc.c:1542:13
	ldr.w	r2, [r1, #152]
	.loc	5 1542 19 is_stmt 0             @ c:/Keil_v5\ARM\PACK\Keil\STM32L5xx_DFP\1.3.0\Drivers\STM32L5xx_HAL_Driver\Src\stm32l5xx_hal_rcc.c:1542:19
	and	r2, r2, #1
.Ltmp446:
	.loc	5 1548 35 is_stmt 1             @ c:/Keil_v5\ARM\PACK\Keil\STM32L5xx_DFP\1.3.0\Drivers\STM32L5xx_HAL_Driver\Src\stm32l5xx_hal_rcc.c:1548:35
	str	r2, [r0, #40]
.Ltmp447:
	.loc	5 1552 13                       @ c:/Keil_v5\ARM\PACK\Keil\STM32L5xx_DFP\1.3.0\Drivers\STM32L5xx_HAL_Driver\Src\stm32l5xx_hal_rcc.c:1552:13
	ldr	r2, [r1]
.Ltmp448:
	.loc	5 1552 7 is_stmt 0              @ c:/Keil_v5\ARM\PACK\Keil\STM32L5xx_DFP\1.3.0\Drivers\STM32L5xx_HAL_Driver\Src\stm32l5xx_hal_rcc.c:1552:7
	lsls	r2, r2, #7
	mov.w	r2, #2
	it	pl
	movpl	r2, #1
.Ltmp449:
	.loc	5 1558 37 is_stmt 1             @ c:/Keil_v5\ARM\PACK\Keil\STM32L5xx_DFP\1.3.0\Drivers\STM32L5xx_HAL_Driver\Src\stm32l5xx_hal_rcc.c:1558:37
	str	r2, [r0, #44]
.Ltmp450:
	.loc	5 1560 54                       @ c:/Keil_v5\ARM\PACK\Keil\STM32L5xx_DFP\1.3.0\Drivers\STM32L5xx_HAL_Driver\Src\stm32l5xx_hal_rcc.c:1560:54
	ldr	r2, [r1, #12]
	.loc	5 1560 62 is_stmt 0             @ c:/Keil_v5\ARM\PACK\Keil\STM32L5xx_DFP\1.3.0\Drivers\STM32L5xx_HAL_Driver\Src\stm32l5xx_hal_rcc.c:1560:62
	and	r2, r2, #3
	.loc	5 1560 36                       @ c:/Keil_v5\ARM\PACK\Keil\STM32L5xx_DFP\1.3.0\Drivers\STM32L5xx_HAL_Driver\Src\stm32l5xx_hal_rcc.c:1560:36
	str	r2, [r0, #48]
	.loc	5 1561 51 is_stmt 1             @ c:/Keil_v5\ARM\PACK\Keil\STM32L5xx_DFP\1.3.0\Drivers\STM32L5xx_HAL_Driver\Src\stm32l5xx_hal_rcc.c:1561:51
	ldr	r2, [r1, #12]
	.loc	5 1561 79 is_stmt 0             @ c:/Keil_v5\ARM\PACK\Keil\STM32L5xx_DFP\1.3.0\Drivers\STM32L5xx_HAL_Driver\Src\stm32l5xx_hal_rcc.c:1561:79
	ubfx	r2, r2, #4, #4
	.loc	5 1561 104                      @ c:/Keil_v5\ARM\PACK\Keil\STM32L5xx_DFP\1.3.0\Drivers\STM32L5xx_HAL_Driver\Src\stm32l5xx_hal_rcc.c:1561:104
	adds	r2, #1
	.loc	5 1561 31                       @ c:/Keil_v5\ARM\PACK\Keil\STM32L5xx_DFP\1.3.0\Drivers\STM32L5xx_HAL_Driver\Src\stm32l5xx_hal_rcc.c:1561:31
	str	r2, [r0, #52]
	.loc	5 1562 50 is_stmt 1             @ c:/Keil_v5\ARM\PACK\Keil\STM32L5xx_DFP\1.3.0\Drivers\STM32L5xx_HAL_Driver\Src\stm32l5xx_hal_rcc.c:1562:50
	ldr	r2, [r1, #12]
	.loc	5 1562 78 is_stmt 0             @ c:/Keil_v5\ARM\PACK\Keil\STM32L5xx_DFP\1.3.0\Drivers\STM32L5xx_HAL_Driver\Src\stm32l5xx_hal_rcc.c:1562:78
	ubfx	r2, r2, #8, #7
	.loc	5 1562 31                       @ c:/Keil_v5\ARM\PACK\Keil\STM32L5xx_DFP\1.3.0\Drivers\STM32L5xx_HAL_Driver\Src\stm32l5xx_hal_rcc.c:1562:31
	str	r2, [r0, #56]
	.loc	5 1563 52 is_stmt 1             @ c:/Keil_v5\ARM\PACK\Keil\STM32L5xx_DFP\1.3.0\Drivers\STM32L5xx_HAL_Driver\Src\stm32l5xx_hal_rcc.c:1563:52
	ldr	r2, [r1, #12]
	.loc	5 1563 111 is_stmt 0            @ c:/Keil_v5\ARM\PACK\Keil\STM32L5xx_DFP\1.3.0\Drivers\STM32L5xx_HAL_Driver\Src\stm32l5xx_hal_rcc.c:1563:111
	ubfx	r2, r2, #21, #2
	add.w	r2, r3, r2, lsl #1
	.loc	5 1563 31                       @ c:/Keil_v5\ARM\PACK\Keil\STM32L5xx_DFP\1.3.0\Drivers\STM32L5xx_HAL_Driver\Src\stm32l5xx_hal_rcc.c:1563:31
	str	r2, [r0, #64]
	.loc	5 1564 52 is_stmt 1             @ c:/Keil_v5\ARM\PACK\Keil\STM32L5xx_DFP\1.3.0\Drivers\STM32L5xx_HAL_Driver\Src\stm32l5xx_hal_rcc.c:1564:52
	ldr	r2, [r1, #12]
	.loc	5 1564 111 is_stmt 0            @ c:/Keil_v5\ARM\PACK\Keil\STM32L5xx_DFP\1.3.0\Drivers\STM32L5xx_HAL_Driver\Src\stm32l5xx_hal_rcc.c:1564:111
	ubfx	r2, r2, #25, #2
	add.w	r2, r3, r2, lsl #1
	.loc	5 1564 31                       @ c:/Keil_v5\ARM\PACK\Keil\STM32L5xx_DFP\1.3.0\Drivers\STM32L5xx_HAL_Driver\Src\stm32l5xx_hal_rcc.c:1564:31
	str	r2, [r0, #68]
	.loc	5 1565 50 is_stmt 1             @ c:/Keil_v5\ARM\PACK\Keil\STM32L5xx_DFP\1.3.0\Drivers\STM32L5xx_HAL_Driver\Src\stm32l5xx_hal_rcc.c:1565:50
	ldr	r1, [r1, #12]
	.loc	5 1565 81 is_stmt 0             @ c:/Keil_v5\ARM\PACK\Keil\STM32L5xx_DFP\1.3.0\Drivers\STM32L5xx_HAL_Driver\Src\stm32l5xx_hal_rcc.c:1565:81
	lsrs	r1, r1, #27
	.loc	5 1565 31                       @ c:/Keil_v5\ARM\PACK\Keil\STM32L5xx_DFP\1.3.0\Drivers\STM32L5xx_HAL_Driver\Src\stm32l5xx_hal_rcc.c:1565:31
	str	r1, [r0, #60]
	.loc	5 1566 1 is_stmt 1              @ c:/Keil_v5\ARM\PACK\Keil\STM32L5xx_DFP\1.3.0\Drivers\STM32L5xx_HAL_Driver\Src\stm32l5xx_hal_rcc.c:1566:1
	bx	lr
.Ltmp451:
.Lfunc_end8:
	.size	HAL_RCC_GetOscConfig, .Lfunc_end8-HAL_RCC_GetOscConfig
	.cfi_endproc
	.cantunwind
	.fnend
                                        @ -- End function
	.section	.text.HAL_RCC_GetClockConfig,"ax",%progbits
	.hidden	HAL_RCC_GetClockConfig          @ -- Begin function HAL_RCC_GetClockConfig
	.globl	HAL_RCC_GetClockConfig
	.p2align	2
	.type	HAL_RCC_GetClockConfig,%function
	.code	16                              @ @HAL_RCC_GetClockConfig
	.thumb_func
HAL_RCC_GetClockConfig:
.Lfunc_begin9:
	.loc	5 1577 0                        @ c:/Keil_v5\ARM\PACK\Keil\STM32L5xx_DFP\1.3.0\Drivers\STM32L5xx_HAL_Driver\Src\stm32l5xx_hal_rcc.c:1577:0
	.fnstart
	.cfi_startproc
@ %bb.0:
	@DEBUG_VALUE: HAL_RCC_GetClockConfig:RCC_ClkInitStruct <- $r0
	@DEBUG_VALUE: HAL_RCC_GetClockConfig:pFLatency <- $r1
	movs	r2, #15
	@DEBUG_VALUE: HAL_RCC_GetClockConfig:RCC_ClkInitStruct <- $r0
.Ltmp452:
	.loc	5 1583 32 prologue_end          @ c:/Keil_v5\ARM\PACK\Keil\STM32L5xx_DFP\1.3.0\Drivers\STM32L5xx_HAL_Driver\Src\stm32l5xx_hal_rcc.c:1583:32
	str	r2, [r0]
	movw	r2, #4104
	movt	r2, #16386
	.loc	5 1586 53                       @ c:/Keil_v5\ARM\PACK\Keil\STM32L5xx_DFP\1.3.0\Drivers\STM32L5xx_HAL_Driver\Src\stm32l5xx_hal_rcc.c:1586:53
	ldr	r3, [r2]
	.loc	5 1586 58 is_stmt 0             @ c:/Keil_v5\ARM\PACK\Keil\STM32L5xx_DFP\1.3.0\Drivers\STM32L5xx_HAL_Driver\Src\stm32l5xx_hal_rcc.c:1586:58
	and	r3, r3, #3
	.loc	5 1586 35                       @ c:/Keil_v5\ARM\PACK\Keil\STM32L5xx_DFP\1.3.0\Drivers\STM32L5xx_HAL_Driver\Src\stm32l5xx_hal_rcc.c:1586:35
	str	r3, [r0, #4]
	.loc	5 1589 54 is_stmt 1             @ c:/Keil_v5\ARM\PACK\Keil\STM32L5xx_DFP\1.3.0\Drivers\STM32L5xx_HAL_Driver\Src\stm32l5xx_hal_rcc.c:1589:54
	ldr	r3, [r2]
	.loc	5 1589 59 is_stmt 0             @ c:/Keil_v5\ARM\PACK\Keil\STM32L5xx_DFP\1.3.0\Drivers\STM32L5xx_HAL_Driver\Src\stm32l5xx_hal_rcc.c:1589:59
	and	r3, r3, #240
	.loc	5 1589 36                       @ c:/Keil_v5\ARM\PACK\Keil\STM32L5xx_DFP\1.3.0\Drivers\STM32L5xx_HAL_Driver\Src\stm32l5xx_hal_rcc.c:1589:36
	str	r3, [r0, #8]
	.loc	5 1592 55 is_stmt 1             @ c:/Keil_v5\ARM\PACK\Keil\STM32L5xx_DFP\1.3.0\Drivers\STM32L5xx_HAL_Driver\Src\stm32l5xx_hal_rcc.c:1592:55
	ldr	r3, [r2]
	.loc	5 1592 60 is_stmt 0             @ c:/Keil_v5\ARM\PACK\Keil\STM32L5xx_DFP\1.3.0\Drivers\STM32L5xx_HAL_Driver\Src\stm32l5xx_hal_rcc.c:1592:60
	and	r3, r3, #1792
	.loc	5 1592 37                       @ c:/Keil_v5\ARM\PACK\Keil\STM32L5xx_DFP\1.3.0\Drivers\STM32L5xx_HAL_Driver\Src\stm32l5xx_hal_rcc.c:1592:37
	str	r3, [r0, #12]
	.loc	5 1595 56 is_stmt 1             @ c:/Keil_v5\ARM\PACK\Keil\STM32L5xx_DFP\1.3.0\Drivers\STM32L5xx_HAL_Driver\Src\stm32l5xx_hal_rcc.c:1595:56
	ldr	r2, [r2]
	mov.w	r3, #1792
	.loc	5 1595 79 is_stmt 0             @ c:/Keil_v5\ARM\PACK\Keil\STM32L5xx_DFP\1.3.0\Drivers\STM32L5xx_HAL_Driver\Src\stm32l5xx_hal_rcc.c:1595:79
	and.w	r2, r3, r2, lsr #3
	.loc	5 1595 37                       @ c:/Keil_v5\ARM\PACK\Keil\STM32L5xx_DFP\1.3.0\Drivers\STM32L5xx_HAL_Driver\Src\stm32l5xx_hal_rcc.c:1595:37
	str	r2, [r0, #16]
	movw	r0, #8192
.Ltmp453:
	@DEBUG_VALUE: HAL_RCC_GetClockConfig:RCC_ClkInitStruct <- [DW_OP_LLVM_entry_value 1] $r0
	.loc	5 0 37                          @ c:/Keil_v5\ARM\PACK\Keil\STM32L5xx_DFP\1.3.0\Drivers\STM32L5xx_HAL_Driver\Src\stm32l5xx_hal_rcc.c:0:37
	movt	r0, #16386
	.loc	5 1598 34 is_stmt 1             @ c:/Keil_v5\ARM\PACK\Keil\STM32L5xx_DFP\1.3.0\Drivers\STM32L5xx_HAL_Driver\Src\stm32l5xx_hal_rcc.c:1598:34
	ldr	r0, [r0]
	@DEBUG_VALUE: HAL_RCC_GetClockConfig:pFLatency <- $r1
	.loc	5 1598 38 is_stmt 0             @ c:/Keil_v5\ARM\PACK\Keil\STM32L5xx_DFP\1.3.0\Drivers\STM32L5xx_HAL_Driver\Src\stm32l5xx_hal_rcc.c:1598:38
	and	r0, r0, #15
	.loc	5 1598 14                       @ c:/Keil_v5\ARM\PACK\Keil\STM32L5xx_DFP\1.3.0\Drivers\STM32L5xx_HAL_Driver\Src\stm32l5xx_hal_rcc.c:1598:14
	str	r0, [r1]
	.loc	5 1599 1 is_stmt 1              @ c:/Keil_v5\ARM\PACK\Keil\STM32L5xx_DFP\1.3.0\Drivers\STM32L5xx_HAL_Driver\Src\stm32l5xx_hal_rcc.c:1599:1
	bx	lr
.Ltmp454:
.Lfunc_end9:
	.size	HAL_RCC_GetClockConfig, .Lfunc_end9-HAL_RCC_GetClockConfig
	.cfi_endproc
	.cantunwind
	.fnend
                                        @ -- End function
	.section	.text.HAL_RCC_EnableCSS,"ax",%progbits
	.hidden	HAL_RCC_EnableCSS               @ -- Begin function HAL_RCC_EnableCSS
	.globl	HAL_RCC_EnableCSS
	.p2align	2
	.type	HAL_RCC_EnableCSS,%function
	.code	16                              @ @HAL_RCC_EnableCSS
	.thumb_func
HAL_RCC_EnableCSS:
.Lfunc_begin10:
	.loc	5 1612 0                        @ c:/Keil_v5\ARM\PACK\Keil\STM32L5xx_DFP\1.3.0\Drivers\STM32L5xx_HAL_Driver\Src\stm32l5xx_hal_rcc.c:1612:0
	.fnstart
	.cfi_startproc
@ %bb.0:
	movw	r0, #4096
	movt	r0, #16386
.Ltmp455:
	.loc	5 1613 3 prologue_end           @ c:/Keil_v5\ARM\PACK\Keil\STM32L5xx_DFP\1.3.0\Drivers\STM32L5xx_HAL_Driver\Src\stm32l5xx_hal_rcc.c:1613:3
	ldr	r1, [r0]
	orr	r1, r1, #524288
	str	r1, [r0]
	.loc	5 1614 1                        @ c:/Keil_v5\ARM\PACK\Keil\STM32L5xx_DFP\1.3.0\Drivers\STM32L5xx_HAL_Driver\Src\stm32l5xx_hal_rcc.c:1614:1
	bx	lr
.Ltmp456:
.Lfunc_end10:
	.size	HAL_RCC_EnableCSS, .Lfunc_end10-HAL_RCC_EnableCSS
	.cfi_endproc
	.cantunwind
	.fnend
                                        @ -- End function
	.section	.text.HAL_RCC_NMI_IRQHandler,"ax",%progbits
	.hidden	HAL_RCC_NMI_IRQHandler          @ -- Begin function HAL_RCC_NMI_IRQHandler
	.globl	HAL_RCC_NMI_IRQHandler
	.p2align	2
	.type	HAL_RCC_NMI_IRQHandler,%function
	.code	16                              @ @HAL_RCC_NMI_IRQHandler
	.thumb_func
HAL_RCC_NMI_IRQHandler:
.Lfunc_begin11:
	.loc	5 1622 0                        @ c:/Keil_v5\ARM\PACK\Keil\STM32L5xx_DFP\1.3.0\Drivers\STM32L5xx_HAL_Driver\Src\stm32l5xx_hal_rcc.c:1622:0
	.fnstart
	.cfi_startproc
@ %bb.0:
	.save	{r4, lr}
	push	{r4, lr}
	.cfi_def_cfa_offset 8
	.cfi_offset lr, -4
	.cfi_offset r4, -8
	movw	r4, #4124
	movt	r4, #16386
.Ltmp457:
	.loc	5 1624 7 prologue_end           @ c:/Keil_v5\ARM\PACK\Keil\STM32L5xx_DFP\1.3.0\Drivers\STM32L5xx_HAL_Driver\Src\stm32l5xx_hal_rcc.c:1624:7
	ldr	r0, [r4]
.Ltmp458:
	.loc	5 1624 7 is_stmt 0              @ c:/Keil_v5\ARM\PACK\Keil\STM32L5xx_DFP\1.3.0\Drivers\STM32L5xx_HAL_Driver\Src\stm32l5xx_hal_rcc.c:1624:7
	lsls	r0, r0, #23
	.loc	5 1632 1 is_stmt 1              @ c:/Keil_v5\ARM\PACK\Keil\STM32L5xx_DFP\1.3.0\Drivers\STM32L5xx_HAL_Driver\Src\stm32l5xx_hal_rcc.c:1632:1
	it	pl
	poppl	{r4, pc}
.LBB11_1:
.Ltmp459:
	.loc	5 1627 5                        @ c:/Keil_v5\ARM\PACK\Keil\STM32L5xx_DFP\1.3.0\Drivers\STM32L5xx_HAL_Driver\Src\stm32l5xx_hal_rcc.c:1627:5
	bl	HAL_RCC_CSSCallback
	mov.w	r0, #256
	.loc	5 1630 5                        @ c:/Keil_v5\ARM\PACK\Keil\STM32L5xx_DFP\1.3.0\Drivers\STM32L5xx_HAL_Driver\Src\stm32l5xx_hal_rcc.c:1630:5
	str	r0, [r4, #4]
.Ltmp460:
	.loc	5 1632 1                        @ c:/Keil_v5\ARM\PACK\Keil\STM32L5xx_DFP\1.3.0\Drivers\STM32L5xx_HAL_Driver\Src\stm32l5xx_hal_rcc.c:1632:1
	pop	{r4, pc}
.Ltmp461:
.Lfunc_end11:
	.size	HAL_RCC_NMI_IRQHandler, .Lfunc_end11-HAL_RCC_NMI_IRQHandler
	.cfi_endproc
	.cantunwind
	.fnend
                                        @ -- End function
	.section	.text.HAL_RCC_CSSCallback,"ax",%progbits
	.hidden	HAL_RCC_CSSCallback             @ -- Begin function HAL_RCC_CSSCallback
	.weak	HAL_RCC_CSSCallback
	.p2align	2
	.type	HAL_RCC_CSSCallback,%function
	.code	16                              @ @HAL_RCC_CSSCallback
	.thumb_func
HAL_RCC_CSSCallback:
.Lfunc_begin12:
	.loc	5 1639 0                        @ c:/Keil_v5\ARM\PACK\Keil\STM32L5xx_DFP\1.3.0\Drivers\STM32L5xx_HAL_Driver\Src\stm32l5xx_hal_rcc.c:1639:0
	.fnstart
	.cfi_startproc
@ %bb.0:
	.loc	5 1643 1 prologue_end           @ c:/Keil_v5\ARM\PACK\Keil\STM32L5xx_DFP\1.3.0\Drivers\STM32L5xx_HAL_Driver\Src\stm32l5xx_hal_rcc.c:1643:1
	bx	lr
.Ltmp462:
.Lfunc_end12:
	.size	HAL_RCC_CSSCallback, .Lfunc_end12-HAL_RCC_CSSCallback
	.cfi_endproc
	.cantunwind
	.fnend
                                        @ -- End function
	.section	.text.HAL_RCC_ConfigAttributes,"ax",%progbits
	.hidden	HAL_RCC_ConfigAttributes        @ -- Begin function HAL_RCC_ConfigAttributes
	.globl	HAL_RCC_ConfigAttributes
	.p2align	2
	.type	HAL_RCC_ConfigAttributes,%function
	.code	16                              @ @HAL_RCC_ConfigAttributes
	.thumb_func
HAL_RCC_ConfigAttributes:
.Lfunc_begin13:
	.loc	5 1678 0                        @ c:/Keil_v5\ARM\PACK\Keil\STM32L5xx_DFP\1.3.0\Drivers\STM32L5xx_HAL_Driver\Src\stm32l5xx_hal_rcc.c:1678:0
	.fnstart
	.cfi_startproc
@ %bb.0:
	@DEBUG_VALUE: HAL_RCC_ConfigAttributes:Item <- $r0
	@DEBUG_VALUE: HAL_RCC_ConfigAttributes:Attributes <- $r1
	movw	r0, #514
.Ltmp463:
	@DEBUG_VALUE: HAL_RCC_ConfigAttributes:Item <- [DW_OP_LLVM_entry_value 1] $r0
	@DEBUG_VALUE: HAL_RCC_ConfigAttributes:Attributes <- $r1
	.loc	5 1684 19 prologue_end          @ c:/Keil_v5\ARM\PACK\Keil\STM32L5xx_DFP\1.3.0\Drivers\STM32L5xx_HAL_Driver\Src\stm32l5xx_hal_rcc.c:1684:19
	and.w	r2, r1, r0
.Ltmp464:
	.loc	5 1684 7 is_stmt 0              @ c:/Keil_v5\ARM\PACK\Keil\STM32L5xx_DFP\1.3.0\Drivers\STM32L5xx_HAL_Driver\Src\stm32l5xx_hal_rcc.c:1684:7
	cmp	r2, r0
	movw	r0, #4096
	movt	r0, #16386
	bne	.LBB13_2
.Ltmp465:
@ %bb.1:
	@DEBUG_VALUE: HAL_RCC_ConfigAttributes:Attributes <- $r1
	@DEBUG_VALUE: HAL_RCC_ConfigAttributes:Item <- [DW_OP_LLVM_entry_value 1] $r0
	.loc	5 1686 5 is_stmt 1              @ c:/Keil_v5\ARM\PACK\Keil\STM32L5xx_DFP\1.3.0\Drivers\STM32L5xx_HAL_Driver\Src\stm32l5xx_hal_rcc.c:1686:5
	ldr	r1, [r0]
.Ltmp466:
	@DEBUG_VALUE: HAL_RCC_ConfigAttributes:Attributes <- [DW_OP_LLVM_entry_value 1] $r1
	orr	r1, r1, #-2147483648
.Ltmp467:
	.loc	5 0 0 is_stmt 0                 @ c:/Keil_v5\ARM\PACK\Keil\STM32L5xx_DFP\1.3.0\Drivers\STM32L5xx_HAL_Driver\Src\stm32l5xx_hal_rcc.c:0:0
	str	r1, [r0]
.Ltmp468:
	.loc	5 1714 1 is_stmt 1              @ c:/Keil_v5\ARM\PACK\Keil\STM32L5xx_DFP\1.3.0\Drivers\STM32L5xx_HAL_Driver\Src\stm32l5xx_hal_rcc.c:1714:1
	bx	lr
.Ltmp469:
	.p2align	2
.LBB13_2:
	@DEBUG_VALUE: HAL_RCC_ConfigAttributes:Attributes <- $r1
	@DEBUG_VALUE: HAL_RCC_ConfigAttributes:Item <- [DW_OP_LLVM_entry_value 1] $r0
	.loc	5 1688 12                       @ c:/Keil_v5\ARM\PACK\Keil\STM32L5xx_DFP\1.3.0\Drivers\STM32L5xx_HAL_Driver\Src\stm32l5xx_hal_rcc.c:1688:12
	lsls	r1, r1, #22
.Ltmp470:
	@DEBUG_VALUE: HAL_RCC_ConfigAttributes:Attributes <- [DW_OP_LLVM_entry_value 1] $r1
	.loc	5 1714 1                        @ c:/Keil_v5\ARM\PACK\Keil\STM32L5xx_DFP\1.3.0\Drivers\STM32L5xx_HAL_Driver\Src\stm32l5xx_hal_rcc.c:1714:1
	it	pl
	bxpl	lr
.Ltmp471:
.LBB13_3:
	@DEBUG_VALUE: HAL_RCC_ConfigAttributes:Attributes <- [DW_OP_LLVM_entry_value 1] $r1
	@DEBUG_VALUE: HAL_RCC_ConfigAttributes:Item <- [DW_OP_LLVM_entry_value 1] $r0
	.loc	5 1690 5                        @ c:/Keil_v5\ARM\PACK\Keil\STM32L5xx_DFP\1.3.0\Drivers\STM32L5xx_HAL_Driver\Src\stm32l5xx_hal_rcc.c:1690:5
	ldr	r1, [r0]
	bic	r1, r1, #-2147483648
.Ltmp472:
	.loc	5 0 0 is_stmt 0                 @ c:/Keil_v5\ARM\PACK\Keil\STM32L5xx_DFP\1.3.0\Drivers\STM32L5xx_HAL_Driver\Src\stm32l5xx_hal_rcc.c:0:0
	str	r1, [r0]
.Ltmp473:
	.loc	5 1714 1 is_stmt 1              @ c:/Keil_v5\ARM\PACK\Keil\STM32L5xx_DFP\1.3.0\Drivers\STM32L5xx_HAL_Driver\Src\stm32l5xx_hal_rcc.c:1714:1
	bx	lr
.Ltmp474:
.Lfunc_end13:
	.size	HAL_RCC_ConfigAttributes, .Lfunc_end13-HAL_RCC_ConfigAttributes
	.cfi_endproc
	.cantunwind
	.fnend
                                        @ -- End function
	.section	.text.HAL_RCC_GetConfigAttributes,"ax",%progbits
	.hidden	HAL_RCC_GetConfigAttributes     @ -- Begin function HAL_RCC_GetConfigAttributes
	.globl	HAL_RCC_GetConfigAttributes
	.p2align	2
	.type	HAL_RCC_GetConfigAttributes,%function
	.code	16                              @ @HAL_RCC_GetConfigAttributes
	.thumb_func
HAL_RCC_GetConfigAttributes:
.Lfunc_begin14:
	.loc	5 1725 0                        @ c:/Keil_v5\ARM\PACK\Keil\STM32L5xx_DFP\1.3.0\Drivers\STM32L5xx_HAL_Driver\Src\stm32l5xx_hal_rcc.c:1725:0
	.fnstart
	.cfi_startproc
@ %bb.0:
	@DEBUG_VALUE: HAL_RCC_GetConfigAttributes:Item <- $r0
	@DEBUG_VALUE: HAL_RCC_GetConfigAttributes:pAttributes <- $r1
	@DEBUG_VALUE: HAL_RCC_GetConfigAttributes:pAttributes <- $r1
	.loc	5 1729 7 prologue_end           @ c:/Keil_v5\ARM\PACK\Keil\STM32L5xx_DFP\1.3.0\Drivers\STM32L5xx_HAL_Driver\Src\stm32l5xx_hal_rcc.c:1729:7
	cmp	r1, #0
	itt	eq
	moveq	r0, #1
.Ltmp475:
	@DEBUG_VALUE: HAL_RCC_GetConfigAttributes:Item <- [DW_OP_LLVM_entry_value 1] $r0
	.loc	5 1765 1                        @ c:/Keil_v5\ARM\PACK\Keil\STM32L5xx_DFP\1.3.0\Drivers\STM32L5xx_HAL_Driver\Src\stm32l5xx_hal_rcc.c:1765:1
	bxeq	lr
.Ltmp476:
.LBB14_1:
	@DEBUG_VALUE: HAL_RCC_GetConfigAttributes:pAttributes <- $r1
	@DEBUG_VALUE: HAL_RCC_GetConfigAttributes:Item <- [DW_OP_LLVM_entry_value 1] $r0
	.loc	5 0 1 is_stmt 0                 @ c:/Keil_v5\ARM\PACK\Keil\STM32L5xx_DFP\1.3.0\Drivers\STM32L5xx_HAL_Driver\Src\stm32l5xx_hal_rcc.c:0:1
	movw	r0, #4096
	movt	r0, #16386
.Ltmp477:
	.loc	5 1738 7 is_stmt 1              @ c:/Keil_v5\ARM\PACK\Keil\STM32L5xx_DFP\1.3.0\Drivers\STM32L5xx_HAL_Driver\Src\stm32l5xx_hal_rcc.c:1738:7
	ldr	r0, [r0]
	movw	r2, #514
.Ltmp478:
	.loc	5 1738 7 is_stmt 0              @ c:/Keil_v5\ARM\PACK\Keil\STM32L5xx_DFP\1.3.0\Drivers\STM32L5xx_HAL_Driver\Src\stm32l5xx_hal_rcc.c:1738:7
	cmp.w	r0, #-1
	it	gt
	movgt.w	r2, #512
.Ltmp479:
	@DEBUG_VALUE: HAL_RCC_GetConfigAttributes:attributes <- $r2
	.loc	5 0 7                           @ c:/Keil_v5\ARM\PACK\Keil\STM32L5xx_DFP\1.3.0\Drivers\STM32L5xx_HAL_Driver\Src\stm32l5xx_hal_rcc.c:0:7
	movs	r0, #0
	.loc	5 1762 16 is_stmt 1             @ c:/Keil_v5\ARM\PACK\Keil\STM32L5xx_DFP\1.3.0\Drivers\STM32L5xx_HAL_Driver\Src\stm32l5xx_hal_rcc.c:1762:16
	str	r2, [r1]
	.loc	5 1765 1                        @ c:/Keil_v5\ARM\PACK\Keil\STM32L5xx_DFP\1.3.0\Drivers\STM32L5xx_HAL_Driver\Src\stm32l5xx_hal_rcc.c:1765:1
	bx	lr
.Ltmp480:
.Lfunc_end14:
	.size	HAL_RCC_GetConfigAttributes, .Lfunc_end14-HAL_RCC_GetConfigAttributes
	.cfi_endproc
	.cantunwind
	.fnend
                                        @ -- End function
	.file	6 "c:/Keil_v5\\ARM\\PACK\\Keil\\STM32L5xx_DFP\\1.3.0\\Drivers\\STM32L5xx_HAL_Driver\\Inc" "stm32l5xx_hal_rcc.h"
	.file	7 "c:/Keil_v5\\ARM\\PACK\\Keil\\STM32L5xx_DFP\\1.3.0\\Drivers\\STM32L5xx_HAL_Driver\\Inc" "stm32l5xx_hal_gpio.h"
	.section	".note.GNU-stack","",%progbits
	.eabi_attribute	30, 2	@ Tag_ABI_optimization_goals
	.ARM_attribute	16, 1	@ Tag_AV_eba