	.text
	.syntax unified
	.eabi_attribute	67, "2.09"	@ Tag_conformance
	.cpu	cortex-m33
	.eabi_attribute	6, 17	@ Tag_CPU_arch
	.eabi_attribute	7, 77	@ Tag_CPU_arch_profile
	.eabi_attribute	8, 0	@ Tag_ARM_ISA_use
	.eabi_attribute	9, 3	@ Tag_THUMB_ISA_use
	.fpu	fpv5-sp-d16
	.eabi_attribute	27, 1	@ Tag_ABI_HardFP_use
	.eabi_attribute	36, 1	@ Tag_FP_HP_extension
	.eabi_attribute	46, 1	@ Tag_DSP_extension
	.eabi_attribute	34, 1	@ Tag_CPU_unaligned_access
	.eabi_attribute	17, 1	@ Tag_ABI_PCS_GOT_use
	.eabi_attribute	20, 2	@ Tag_ABI_FP_denormal
	.eabi_attribute	21, 0	@ Tag_ABI_FP_exceptions
	.eabi_attribute	23, 1	@ Tag_ABI_FP_number_model
	.eabi_attribute	24, 1	@ Tag_ABI_align_needed
	.eabi_attribute	25, 1	@ Tag_ABI_align_preserved
	.eabi_attribute	28, 1	@ Tag_ABI_VFP_args
	.eabi_attribute	38, 1	@ Tag_ABI_FP_16bit_format
	.eabi_attribute	18, 2	@ Tag_ABI_PCS_wchar_t
	.eabi_attribute	26, 1	@ Tag_ABI_enum_size
	.eabi_attribute	14, 0	@ Tag_ABI_PCS_R9_use
	.file	"stm32l5xx_hal_usart_ex.c"
	.file	1 "c:/Keil_v5\\ARM\\PACK\\Keil\\STM32L5xx_DFP\\1.3.0\\Drivers\\STM32L5xx_HAL_Driver\\Inc" "stm32l5xx_hal_def.h"
	.file	2 "c:/Keil_v5\\ARM\\PACK\\Keil\\STM32L5xx_DFP\\1.3.0\\Drivers\\STM32L5xx_HAL_Driver\\Inc" "stm32l5xx_hal_dma.h"
	.file	3 "c:/Keil_v5\\ARM\\PACK\\Keil\\STM32L5xx_DFP\\1.3.0\\Drivers\\STM32L5xx_HAL_Driver\\Inc" "stm32l5xx_hal_usart.h"
	.file	4 "c:\\Keil_v5\\ARM\\ARMCLANG\\Bin\\..\\include" "stdint.h"
	.section	.text.HAL_USARTEx_RxFifoFullCallback,"ax",%progbits
	.hidden	HAL_USARTEx_RxFifoFullCallback  @ -- Begin function HAL_USARTEx_RxFifoFullCallback
	.weak	HAL_USARTEx_RxFifoFullCallback
	.p2align	2
	.type	HAL_USARTEx_RxFifoFullCallback,%function
	.code	16                              @ @HAL_USARTEx_RxFifoFullCallback
	.thumb_func
HAL_USARTEx_RxFifoFullCallback:
.Lfunc_begin0:
	.file	5 "c:/Keil_v5\\ARM\\PACK\\Keil\\STM32L5xx_DFP\\1.3.0\\Drivers\\STM32L5xx_HAL_Driver\\Src" "stm32l5xx_hal_usart_ex.c"
	.loc	5 110 0                         @ c:/Keil_v5\ARM\PACK\Keil\STM32L5xx_DFP\1.3.0\Drivers\STM32L5xx_HAL_Driver\Src\stm32l5xx_hal_usart_ex.c:110:0
	.fnstart
	.cfi_sections .debug_frame
	.cfi_startproc
@ %bb.0:
	@DEBUG_VALUE: HAL_USARTEx_RxFifoFullCallback:husart <- $r0
	.loc	5 117 1 prologue_end            @ c:/Keil_v5\ARM\PACK\Keil\STM32L5xx_DFP\1.3.0\Drivers\STM32L5xx_HAL_Driver\Src\stm32l5xx_hal_usart_ex.c:117:1
	bx	lr
.Ltmp0:
.Lfunc_end0:
	.size	HAL_USARTEx_RxFifoFullCallback, .Lfunc_end0-HAL_USARTEx_RxFifoFullCallback
	.cfi_endproc
	.cantunwind
	.fnend
                                        @ -- End function
	.section	.text.HAL_USARTEx_TxFifoEmptyCallback,"ax",%progbits
	.hidden	HAL_USARTEx_TxFifoEmptyCallback @ -- Begin function HAL_USARTEx_TxFifoEmptyCallback
	.weak	HAL_USARTEx_TxFifoEmptyCallback
	.p2align	2
	.type	HAL_USARTEx_TxFifoEmptyCallback,%function
	.code	16                              @ @HAL_USARTEx_TxFifoEmptyCallback
	.thumb_func
HAL_USARTEx_TxFifoEmptyCallback:
.Lfunc_begin1:
	.loc	5 125 0                         @ c:/Keil_v5\ARM\PACK\Keil\STM32L5xx_DFP\1.3.0\Drivers\STM32L5xx_HAL_Driver\Src\stm32l5xx_hal_usart_ex.c:125:0
	.fnstart
	.cfi_startproc
@ %bb.0:
	@DEBUG_VALUE: HAL_USARTEx_TxFifoEmptyCallback:husart <- $r0
	.loc	5 132 1 prologue_end            @ c:/Keil_v5\ARM\PACK\Keil\STM32L5xx_DFP\1.3.0\Drivers\STM32L5xx_HAL_Driver\Src\stm32l5xx_hal_usart_ex.c:132:1
	bx	lr
.Ltmp1:
.Lfunc_end1:
	.size	HAL_USARTEx_TxFifoEmptyCallback, .Lfunc_end1-HAL_USARTEx_TxFifoEmptyCallback
	.cfi_endproc
	.cantunwind
	.fnend
                                        @ -- End function
	.section	.text.HAL_USARTEx_EnableSlaveMode,"ax",%progbits
	.hidden	HAL_USARTEx_EnableSlaveMode     @ -- Begin function HAL_USARTEx_EnableSlaveMode
	.globl	HAL_USARTEx_EnableSlaveMode
	.p2align	2
	.type	HAL_USARTEx_EnableSlaveMode,%function
	.code	16                              @ @HAL_USARTEx_EnableSlaveMode
	.thumb_func
HAL_USARTEx_EnableSlaveMode:
.Lfunc_begin2:
	.loc	5 175 0                         @ c:/Keil_v5\ARM\PACK\Keil\STM32L5xx_DFP\1.3.0\Drivers\STM32L5xx_HAL_Driver\Src\stm32l5xx_hal_usart_ex.c:175:0
	.fnstart
	.cfi_startproc
@ %bb.0:
	@DEBUG_VALUE: HAL_USARTEx_EnableSlaveMode:husart <- $r0
	@DEBUG_VALUE: HAL_USARTEx_EnableSlaveMode:husart <- $r0
	.loc	5 182 3 prologue_end            @ c:/Keil_v5\ARM\PACK\Keil\STM32L5xx_DFP\1.3.0\Drivers\STM32L5xx_HAL_Driver\Src\stm32l5xx_hal_usart_ex.c:182:3
	ldrb.w	r1, [r0, #88]
.Ltmp2:
	.loc	5 182 3 is_stmt 0               @ c:/Keil_v5\ARM\PACK\Keil\STM32L5xx_DFP\1.3.0\Drivers\STM32L5xx_HAL_Driver\Src\stm32l5xx_hal_usart_ex.c:182:3
	cmp	r1, #1
	mov.w	r1, #2
	beq	.LBB2_2
.Ltmp3:
@ %bb.1:
	@DEBUG_VALUE: HAL_USARTEx_EnableSlaveMode:husart <- $r0
	.loc	5 184 17 is_stmt 1              @ c:/Keil_v5\ARM\PACK\Keil\STM32L5xx_DFP\1.3.0\Drivers\STM32L5xx_HAL_Driver\Src\stm32l5xx_hal_usart_ex.c:184:17
	strb.w	r1, [r0, #89]
	.loc	5 187 12                        @ c:/Keil_v5\ARM\PACK\Keil\STM32L5xx_DFP\1.3.0\Drivers\STM32L5xx_HAL_Driver\Src\stm32l5xx_hal_usart_ex.c:187:12
	ldr	r1, [r0]
	ldr	r2, [r1]
.Ltmp4:
	@DEBUG_VALUE: HAL_USARTEx_EnableSlaveMode:tmpcr1 <- $r2
	.loc	5 190 3                         @ c:/Keil_v5\ARM\PACK\Keil\STM32L5xx_DFP\1.3.0\Drivers\STM32L5xx_HAL_Driver\Src\stm32l5xx_hal_usart_ex.c:190:3
	ldr	r3, [r1]
	bic	r3, r3, #1
	str	r3, [r1]
	.loc	5 195 3                         @ c:/Keil_v5\ARM\PACK\Keil\STM32L5xx_DFP\1.3.0\Drivers\STM32L5xx_HAL_Driver\Src\stm32l5xx_hal_usart_ex.c:195:3
	ldr	r3, [r1, #4]
	bic	r3, r3, #18432
	str	r3, [r1, #4]
	.loc	5 196 3                         @ c:/Keil_v5\ARM\PACK\Keil\STM32L5xx_DFP\1.3.0\Drivers\STM32L5xx_HAL_Driver\Src\stm32l5xx_hal_usart_ex.c:196:3
	ldr	r3, [r1, #8]
	bic	r3, r3, #42
	str	r3, [r1, #8]
	.loc	5 199 3                         @ c:/Keil_v5\ARM\PACK\Keil\STM32L5xx_DFP\1.3.0\Drivers\STM32L5xx_HAL_Driver\Src\stm32l5xx_hal_usart_ex.c:199:3
	ldr	r3, [r1, #4]
	orr	r3, r3, #1
	str	r3, [r1, #4]
	.loc	5 202 3                         @ c:/Keil_v5\ARM\PACK\Keil\STM32L5xx_DFP\1.3.0\Drivers\STM32L5xx_HAL_Driver\Src\stm32l5xx_hal_usart_ex.c:202:3
	str	r2, [r1]
	movs	r2, #1
.Ltmp5:
	.loc	5 204 21                        @ c:/Keil_v5\ARM\PACK\Keil\STM32L5xx_DFP\1.3.0\Drivers\STM32L5xx_HAL_Driver\Src\stm32l5xx_hal_usart_ex.c:204:21
	str	r2, [r0, #64]
	.loc	5 206 17                        @ c:/Keil_v5\ARM\PACK\Keil\STM32L5xx_DFP\1.3.0\Drivers\STM32L5xx_HAL_Driver\Src\stm32l5xx_hal_usart_ex.c:206:17
	strb.w	r2, [r0, #89]
	.loc	5 209 3                         @ c:/Keil_v5\ARM\PACK\Keil\STM32L5xx_DFP\1.3.0\Drivers\STM32L5xx_HAL_Driver\Src\stm32l5xx_hal_usart_ex.c:209:3
	ldr	r2, [r1]
	orr	r2, r2, #1
	str	r2, [r1]
	movs	r1, #0
.Ltmp6:
	.loc	5 212 3                         @ c:/Keil_v5\ARM\PACK\Keil\STM32L5xx_DFP\1.3.0\Drivers\STM32L5xx_HAL_Driver\Src\stm32l5xx_hal_usart_ex.c:212:3
	strb.w	r1, [r0, #88]
.Ltmp7:
.LBB2_2:
	@DEBUG_VALUE: HAL_USARTEx_EnableSlaveMode:husart <- $r0
	.loc	5 215 1                         @ c:/Keil_v5\ARM\PACK\Keil\STM32L5xx_DFP\1.3.0\Drivers\STM32L5xx_HAL_Driver\Src\stm32l5xx_hal_usart_ex.c:215:1
	mov	r0, r1
.Ltmp8:
	@DEBUG_VALUE: HAL_USARTEx_EnableSlaveMode:husart <- [DW_OP_LLVM_entry_value 1] $r0
	bx	lr
.Ltmp9:
.Lfunc_end2:
	.size	HAL_USARTEx_EnableSlaveMode, .Lfunc_end2-HAL_USARTEx_EnableSlaveMode
	.cfi_endproc
	.cantunwind
	.fnend
                                        @ -- End function
	.section	.text.HAL_USARTEx_DisableSlaveMode,"ax",%progbits
	.hidden	HAL_USARTEx_DisableSlaveMode    @ -- Begin function HAL_USARTEx_DisableSlaveMode
	.globl	HAL_USARTEx_DisableSlaveMode
	.p2align	2
	.type	HAL_USARTEx_DisableSlaveMode,%function
	.code	16                              @ @HAL_USARTEx_DisableSlaveMode
	.thumb_func
HAL_USARTEx_DisableSlaveMode:
.Lfunc_begin3:
	.loc	5 223 0                         @ c:/Keil_v5\ARM\PACK\Keil\STM32L5xx_DFP\1.3.0\Drivers\STM32L5xx_HAL_Driver\Src\stm32l5xx_hal_usart_ex.c:223:0
	.fnstart
	.cfi_startproc
@ %bb.0:
	@DEBUG_VALUE: HAL_USARTEx_DisableSlaveMode:husart <- $r0
	@DEBUG_VALUE: HAL_USARTEx_DisableSlaveMode:husart <- $r0
	.loc	5 230 3 prologue_end            @ c:/Keil_v5\ARM\PACK\Keil\STM32L5xx_DFP\1.3.0\Drivers\STM32L5xx_HAL_Driver\Src\stm32l5xx_hal_usart_ex.c:230:3
	ldrb.w	r1, [r0, #88]
.Ltmp10:
	.loc	5 230 3 is_stmt 0               @ c:/Keil_v5\ARM\PACK\Keil\STM32L5xx_DFP\1.3.0\Drivers\STM32L5xx_HAL_Driver\Src\stm32l5xx_hal_usart_ex.c:230:3
	cmp	r1, #1
	mov.w	r1, #2
	beq	.LBB3_2
.Ltmp11:
@ %bb.1:
	@DEBUG_VALUE: HAL_USARTEx_DisableSlaveMode:husart <- $r0
	.loc	5 232 17 is_stmt 1              @ c:/Keil_v5\ARM\PACK\Keil\STM32L5xx_DFP\1.3.0\Drivers\STM32L5xx_HAL_Driver\Src\stm32l5xx_hal_usart_ex.c:232:17
	strb.w	r1, [r0, #89]
	.loc	5 235 12                        @ c:/Keil_v5\ARM\PACK\Keil\STM32L5xx_DFP\1.3.0\Drivers\STM32L5xx_HAL_Driver\Src\stm32l5xx_hal_usart_ex.c:235:12
	ldr	r1, [r0]
	ldr	r2, [r1]
.Ltmp12:
	@DEBUG_VALUE: HAL_USARTEx_DisableSlaveMode:tmpcr1 <- $r2
	.loc	5 238 3                         @ c:/Keil_v5\ARM\PACK\Keil\STM32L5xx_DFP\1.3.0\Drivers\STM32L5xx_HAL_Driver\Src\stm32l5xx_hal_usart_ex.c:238:3
	ldr	r3, [r1]
	bic	r3, r3, #1
	str	r3, [r1]
	.loc	5 241 3                         @ c:/Keil_v5\ARM\PACK\Keil\STM32L5xx_DFP\1.3.0\Drivers\STM32L5xx_HAL_Driver\Src\stm32l5xx_hal_usart_ex.c:241:3
	ldr	r3, [r1, #4]
	bic	r3, r3, #1
	str	r3, [r1, #4]
	.loc	5 244 3                         @ c:/Keil_v5\ARM\PACK\Keil\STM32L5xx_DFP\1.3.0\Drivers\STM32L5xx_HAL_Driver\Src\stm32l5xx_hal_usart_ex.c:244:3
	str	r2, [r1]
	movs	r1, #0
	movs	r2, #1
.Ltmp13:
	.loc	5 246 21                        @ c:/Keil_v5\ARM\PACK\Keil\STM32L5xx_DFP\1.3.0\Drivers\STM32L5xx_HAL_Driver\Src\stm32l5xx_hal_usart_ex.c:246:21
	str	r1, [r0, #64]
	.loc	5 248 17                        @ c:/Keil_v5\ARM\PACK\Keil\STM32L5xx_DFP\1.3.0\Drivers\STM32L5xx_HAL_Driver\Src\stm32l5xx_hal_usart_ex.c:248:17
	strb.w	r2, [r0, #89]
.Ltmp14:
	.loc	5 251 3                         @ c:/Keil_v5\ARM\PACK\Keil\STM32L5xx_DFP\1.3.0\Drivers\STM32L5xx_HAL_Driver\Src\stm32l5xx_hal_usart_ex.c:251:3
	strb.w	r1, [r0, #88]
.Ltmp15:
.LBB3_2:
	@DEBUG_VALUE: HAL_USARTEx_DisableSlaveMode:husart <- $r0
	.loc	5 254 1                         @ c:/Keil_v5\ARM\PACK\Keil\STM32L5xx_DFP\1.3.0\Drivers\STM32L5xx_HAL_Driver\Src\stm32l5xx_hal_usart_ex.c:254:1
	mov	r0, r1
.Ltmp16:
	@DEBUG_VALUE: HAL_USARTEx_DisableSlaveMode:husart <- [DW_OP_LLVM_entry_value 1] $r0
	bx	lr
.Ltmp17:
.Lfunc_end3:
	.size	HAL_USARTEx_DisableSlaveMode, .Lfunc_end3-HAL_USARTEx_DisableSlaveMode
	.cfi_endproc
	.cantunwind
	.fnend
                                        @ -- End function
	.section	.text.HAL_USARTEx_ConfigNSS,"ax",%progbits
	.hidden	HAL_USARTEx_ConfigNSS           @ -- Begin function HAL_USARTEx_ConfigNSS
	.globl	HAL_USARTEx_ConfigNSS
	.p2align	2
	.type	HAL_USARTEx_ConfigNSS,%function
	.code	16                              @ @HAL_USARTEx_ConfigNSS
	.thumb_func
HAL_USARTEx_ConfigNSS:
.Lfunc_begin4:
	.loc	5 271 0                         @ c:/Keil_v5\ARM\PACK\Keil\STM32L5xx_DFP\1.3.0\Drivers\STM32L5xx_HAL_Driver\Src\stm32l5xx_hal_usart_ex.c:271:0
	.fnstart
	.cfi_startproc
@ %bb.0:
	@DEBUG_VALUE: HAL_USARTEx_ConfigNSS:husart <- $r0
	@DEBUG_VALUE: HAL_USARTEx_ConfigNSS:husart <- $r0
	@DEBUG_VALUE: HAL_USARTEx_ConfigNSS:NSSConfig <- $r1
	.loc	5 279 3 prologue_end            @ c:/Keil_v5\ARM\PACK\Keil\STM32L5xx_DFP\1.3.0\Drivers\STM32L5xx_HAL_Driver\Src\stm32l5xx_hal_usart_ex.c:279:3
	ldrb.w	r2, [r0, #88]
.Ltmp18:
	@DEBUG_VALUE: HAL_USARTEx_ConfigNSS:NSSConfig <- $r1
	.loc	5 279 3 is_stmt 0               @ c:/Keil_v5\ARM\PACK\Keil\STM32L5xx_DFP\1.3.0\Drivers\STM32L5xx_HAL_Driver\Src\stm32l5xx_hal_usart_ex.c:279:3
	cmp	r2, #1
	mov.w	r2, #2
	beq	.LBB4_2
.Ltmp19:
@ %bb.1:
	@DEBUG_VALUE: HAL_USARTEx_ConfigNSS:NSSConfig <- $r1
	@DEBUG_VALUE: HAL_USARTEx_ConfigNSS:husart <- $r0
	.loc	5 281 17 is_stmt 1              @ c:/Keil_v5\ARM\PACK\Keil\STM32L5xx_DFP\1.3.0\Drivers\STM32L5xx_HAL_Driver\Src\stm32l5xx_hal_usart_ex.c:281:17
	strb.w	r2, [r0, #89]
	.loc	5 284 12                        @ c:/Keil_v5\ARM\PACK\Keil\STM32L5xx_DFP\1.3.0\Drivers\STM32L5xx_HAL_Driver\Src\stm32l5xx_hal_usart_ex.c:284:12
	ldr	r2, [r0]
	ldr.w	r12, [r2]
.Ltmp20:
	@DEBUG_VALUE: HAL_USARTEx_ConfigNSS:tmpcr1 <- $r12
	.loc	5 287 3                         @ c:/Keil_v5\ARM\PACK\Keil\STM32L5xx_DFP\1.3.0\Drivers\STM32L5xx_HAL_Driver\Src\stm32l5xx_hal_usart_ex.c:287:3
	ldr	r3, [r2]
	bic	r3, r3, #1
	str	r3, [r2]
	.loc	5 290 3                         @ c:/Keil_v5\ARM\PACK\Keil\STM32L5xx_DFP\1.3.0\Drivers\STM32L5xx_HAL_Driver\Src\stm32l5xx_hal_usart_ex.c:290:3
	ldr	r3, [r2, #4]
	bic	r3, r3, #8
	orrs	r1, r3
.Ltmp21:
	@DEBUG_VALUE: HAL_USARTEx_ConfigNSS:NSSConfig <- [DW_OP_LLVM_entry_value 1] $r1
	str	r1, [r2, #4]
	.loc	5 293 3                         @ c:/Keil_v5\ARM\PACK\Keil\STM32L5xx_DFP\1.3.0\Drivers\STM32L5xx_HAL_Driver\Src\stm32l5xx_hal_usart_ex.c:293:3
	str.w	r12, [r2]
	movs	r1, #1
	movs	r2, #0
	.loc	5 295 17                        @ c:/Keil_v5\ARM\PACK\Keil\STM32L5xx_DFP\1.3.0\Drivers\STM32L5xx_HAL_Driver\Src\stm32l5xx_hal_usart_ex.c:295:17
	strb.w	r1, [r0, #89]
.Ltmp22:
	.loc	5 298 3                         @ c:/Keil_v5\ARM\PACK\Keil\STM32L5xx_DFP\1.3.0\Drivers\STM32L5xx_HAL_Driver\Src\stm32l5xx_hal_usart_ex.c:298:3
	strb.w	r2, [r0, #88]
.Ltmp23:
.LBB4_2:
	@DEBUG_VALUE: HAL_USARTEx_ConfigNSS:husart <- $r0
	.loc	5 301 1                         @ c:/Keil_v5\ARM\PACK\Keil\STM32L5xx_DFP\1.3.0\Drivers\STM32L5xx_HAL_Driver\Src\stm32l5xx_hal_usart_ex.c:301:1
	mov	r0, r2
.Ltmp24:
	@DEBUG_VALUE: HAL_USARTEx_ConfigNSS:husart <- [DW_OP_LLVM_entry_value 1] $r0
	bx	lr
.Ltmp25:
.Lfunc_end4:
	.size	HAL_USARTEx_ConfigNSS, .Lfunc_end4-HAL_USARTEx_ConfigNSS
	.cfi_endproc
	.cantunwind
	.fnend
                                        @ -- End function
	.section	.text.HAL_USARTEx_EnableFifoMode,"ax",%progbits
	.hidden	HAL_USARTEx_EnableFifoMode      @ -- Begin function HAL_USARTEx_EnableFifoMode
	.globl	HAL_USARTEx_EnableFifoMode
	.p2align	2
	.type	HAL_USARTEx_EnableFifoMode,%function
	.code	16                              @ @HAL_USARTEx_EnableFifoMode
	.thumb_func
HAL_USARTEx_EnableFifoMode:
.Lfunc_begin5:
	.loc	5 309 0                         @ c:/Keil_v5\ARM\PACK\Keil\STM32L5xx_DFP\1.3.0\Drivers\STM32L5xx_HAL_Driver\Src\stm32l5xx_hal_usart_ex.c:309:0
	.fnstart
	.cfi_startproc
@ %bb.0:
	@DEBUG_VALUE: HAL_USARTEx_EnableFifoMode:husart <- $r0
	@DEBUG_VALUE: HAL_USARTEx_EnableFifoMode:husart <- $r0
	.save	{r7, lr}
	push	{r7, lr}
	.cfi_def_cfa_offset 8
	.cfi_offset lr, -4
	.cfi_offset r7, -8
.Ltmp26:
	.loc	5 316 3 prologue_end            @ c:/Keil_v5\ARM\PACK\Keil\STM32L5xx_DFP\1.3.0\Drivers\STM32L5xx_HAL_Driver\Src\stm32l5xx_hal_usart_ex.c:316:3
	ldrb.w	r1, [r0, #88]
.Ltmp27:
	.loc	5 316 3 is_stmt 0               @ c:/Keil_v5\ARM\PACK\Keil\STM32L5xx_DFP\1.3.0\Drivers\STM32L5xx_HAL_Driver\Src\stm32l5xx_hal_usart_ex.c:316:3
	cmp	r1, #1
	mov.w	r1, #2
	beq	.LBB5_2
.Ltmp28:
@ %bb.1:
	@DEBUG_VALUE: HAL_USARTEx_EnableFifoMode:husart <- $r0
	.loc	5 318 17 is_stmt 1              @ c:/Keil_v5\ARM\PACK\Keil\STM32L5xx_DFP\1.3.0\Drivers\STM32L5xx_HAL_Driver\Src\stm32l5xx_hal_usart_ex.c:318:17
	strb.w	r1, [r0, #89]
	.loc	5 321 12                        @ c:/Keil_v5\ARM\PACK\Keil\STM32L5xx_DFP\1.3.0\Drivers\STM32L5xx_HAL_Driver\Src\stm32l5xx_hal_usart_ex.c:321:12
	ldr	r1, [r0]
.Ltmp29:
	.loc	5 522 60                        @ c:/Keil_v5\ARM\PACK\Keil\STM32L5xx_DFP\1.3.0\Drivers\STM32L5xx_HAL_Driver\Src\stm32l5xx_hal_usart_ex.c:522:60
	movw	r12, :lower16:.L__const.USARTEx_SetNbDataToProcess.numerator
.Ltmp30:
	.loc	5 321 12                        @ c:/Keil_v5\ARM\PACK\Keil\STM32L5xx_DFP\1.3.0\Drivers\STM32L5xx_HAL_Driver\Src\stm32l5xx_hal_usart_ex.c:321:12
	ldr	r2, [r1]
.Ltmp31:
	@DEBUG_VALUE: HAL_USARTEx_EnableFifoMode:tmpcr1 <- $r2
	.loc	5 324 3                         @ c:/Keil_v5\ARM\PACK\Keil\STM32L5xx_DFP\1.3.0\Drivers\STM32L5xx_HAL_Driver\Src\stm32l5xx_hal_usart_ex.c:324:3
	ldr	r3, [r1]
	.loc	5 327 3                         @ c:/Keil_v5\ARM\PACK\Keil\STM32L5xx_DFP\1.3.0\Drivers\STM32L5xx_HAL_Driver\Src\stm32l5xx_hal_usart_ex.c:327:3
	orr	r2, r2, #536870912
.Ltmp32:
	@DEBUG_VALUE: HAL_USARTEx_EnableFifoMode:tmpcr1 <- $r2
	.loc	5 324 3                         @ c:/Keil_v5\ARM\PACK\Keil\STM32L5xx_DFP\1.3.0\Drivers\STM32L5xx_HAL_Driver\Src\stm32l5xx_hal_usart_ex.c:324:3
	bic	r3, r3, #1
	str	r3, [r1]
	mov.w	r3, #536870912
	.loc	5 328 20                        @ c:/Keil_v5\ARM\PACK\Keil\STM32L5xx_DFP\1.3.0\Drivers\STM32L5xx_HAL_Driver\Src\stm32l5xx_hal_usart_ex.c:328:20
	str	r3, [r0, #68]
	.loc	5 331 3                         @ c:/Keil_v5\ARM\PACK\Keil\STM32L5xx_DFP\1.3.0\Drivers\STM32L5xx_HAL_Driver\Src\stm32l5xx_hal_usart_ex.c:331:3
	str	r2, [r1]
.Ltmp33:
	@DEBUG_VALUE: USARTEx_SetNbDataToProcess:tx_fifo_depth <- 8
	@DEBUG_VALUE: USARTEx_SetNbDataToProcess:rx_fifo_depth <- 8
	@DEBUG_VALUE: USARTEx_SetNbDataToProcess:husart <- $r0
	.loc	5 518 36                        @ c:/Keil_v5\ARM\PACK\Keil\STM32L5xx_DFP\1.3.0\Drivers\STM32L5xx_HAL_Driver\Src\stm32l5xx_hal_usart_ex.c:518:36
	ldr	r2, [r1, #8]
.Ltmp34:
	.loc	5 520 36                        @ c:/Keil_v5\ARM\PACK\Keil\STM32L5xx_DFP\1.3.0\Drivers\STM32L5xx_HAL_Driver\Src\stm32l5xx_hal_usart_ex.c:520:36
	ldr	r1, [r1, #8]
	.loc	5 522 60                        @ c:/Keil_v5\ARM\PACK\Keil\STM32L5xx_DFP\1.3.0\Drivers\STM32L5xx_HAL_Driver\Src\stm32l5xx_hal_usart_ex.c:522:60
	movt	r12, :upper16:.L__const.USARTEx_SetNbDataToProcess.numerator
	.loc	5 521 64                        @ c:/Keil_v5\ARM\PACK\Keil\STM32L5xx_DFP\1.3.0\Drivers\STM32L5xx_HAL_Driver\Src\stm32l5xx_hal_usart_ex.c:521:64
	lsrs	r1, r1, #29
.Ltmp35:
	@DEBUG_VALUE: USARTEx_SetNbDataToProcess:tx_fifo_threshold <- $r1
	.loc	5 523 43                        @ c:/Keil_v5\ARM\PACK\Keil\STM32L5xx_DFP\1.3.0\Drivers\STM32L5xx_HAL_Driver\Src\stm32l5xx_hal_usart_ex.c:523:43
	movw	lr, :lower16:.L__const.USARTEx_SetNbDataToProcess.denominator
	.loc	5 522 60                        @ c:/Keil_v5\ARM\PACK\Keil\STM32L5xx_DFP\1.3.0\Drivers\STM32L5xx_HAL_Driver\Src\stm32l5xx_hal_usart_ex.c:522:60
	ldrb.w	r3, [r12, r1]
	.loc	5 523 43                        @ c:/Keil_v5\ARM\PACK\Keil\STM32L5xx_DFP\1.3.0\Drivers\STM32L5xx_HAL_Driver\Src\stm32l5xx_hal_usart_ex.c:523:43
	movt	lr, :upper16:.L__const.USARTEx_SetNbDataToProcess.denominator
	.loc	5 518 25                        @ c:/Keil_v5\ARM\PACK\Keil\STM32L5xx_DFP\1.3.0\Drivers\STM32L5xx_HAL_Driver\Src\stm32l5xx_hal_usart_ex.c:518:25
	ubfx	r2, r2, #25, #3
.Ltmp36:
	@DEBUG_VALUE: USARTEx_SetNbDataToProcess:rx_fifo_threshold <- [DW_OP_LLVM_convert 32 7, DW_OP_LLVM_convert 8 7, DW_OP_constu 7, DW_OP_and, DW_OP_stack_value] undef
	.loc	5 523 43                        @ c:/Keil_v5\ARM\PACK\Keil\STM32L5xx_DFP\1.3.0\Drivers\STM32L5xx_HAL_Driver\Src\stm32l5xx_hal_usart_ex.c:523:43
	ldrb.w	r1, [lr, r1]
.Ltmp37:
	.loc	5 522 58                        @ c:/Keil_v5\ARM\PACK\Keil\STM32L5xx_DFP\1.3.0\Drivers\STM32L5xx_HAL_Driver\Src\stm32l5xx_hal_usart_ex.c:522:58
	lsls	r3, r3, #3
	.loc	5 522 90 is_stmt 0              @ c:/Keil_v5\ARM\PACK\Keil\STM32L5xx_DFP\1.3.0\Drivers\STM32L5xx_HAL_Driver\Src\stm32l5xx_hal_usart_ex.c:522:90
	udiv	r1, r3, r1
	.loc	5 524 60 is_stmt 1              @ c:/Keil_v5\ARM\PACK\Keil\STM32L5xx_DFP\1.3.0\Drivers\STM32L5xx_HAL_Driver\Src\stm32l5xx_hal_usart_ex.c:524:60
	ldrb.w	r3, [r12, r2]
	.loc	5 525 43                        @ c:/Keil_v5\ARM\PACK\Keil\STM32L5xx_DFP\1.3.0\Drivers\STM32L5xx_HAL_Driver\Src\stm32l5xx_hal_usart_ex.c:525:43
	ldrb.w	r2, [lr, r2]
	.loc	5 524 58                        @ c:/Keil_v5\ARM\PACK\Keil\STM32L5xx_DFP\1.3.0\Drivers\STM32L5xx_HAL_Driver\Src\stm32l5xx_hal_usart_ex.c:524:58
	lsls	r3, r3, #3
	.loc	5 524 90 is_stmt 0              @ c:/Keil_v5\ARM\PACK\Keil\STM32L5xx_DFP\1.3.0\Drivers\STM32L5xx_HAL_Driver\Src\stm32l5xx_hal_usart_ex.c:524:90
	udiv	r2, r3, r2
.Ltmp38:
	.loc	5 511 31 is_stmt 1              @ c:/Keil_v5\ARM\PACK\Keil\STM32L5xx_DFP\1.3.0\Drivers\STM32L5xx_HAL_Driver\Src\stm32l5xx_hal_usart_ex.c:511:31
	strh	r1, [r0, #60]
	movs	r1, #1
	.loc	5 512 31                        @ c:/Keil_v5\ARM\PACK\Keil\STM32L5xx_DFP\1.3.0\Drivers\STM32L5xx_HAL_Driver\Src\stm32l5xx_hal_usart_ex.c:512:31
	strh	r2, [r0, #58]
.Ltmp39:
	.loc	5 336 17                        @ c:/Keil_v5\ARM\PACK\Keil\STM32L5xx_DFP\1.3.0\Drivers\STM32L5xx_HAL_Driver\Src\stm32l5xx_hal_usart_ex.c:336:17
	strb.w	r1, [r0, #89]
	movs	r1, #0
.Ltmp40:
	.loc	5 339 3                         @ c:/Keil_v5\ARM\PACK\Keil\STM32L5xx_DFP\1.3.0\Drivers\STM32L5xx_HAL_Driver\Src\stm32l5xx_hal_usart_ex.c:339:3
	strb.w	r1, [r0, #88]
.Ltmp41:
.LBB5_2:
	@DEBUG_VALUE: HAL_USARTEx_EnableFifoMode:husart <- $r0
	.loc	5 342 1                         @ c:/Keil_v5\ARM\PACK\Keil\STM32L5xx_DFP\1.3.0\Drivers\STM32L5xx_HAL_Driver\Src\stm32l5xx_hal_usart_ex.c:342:1
	mov	r0, r1
.Ltmp42:
	@DEBUG_VALUE: HAL_USARTEx_EnableFifoMode:husart <- [DW_OP_LLVM_entry_value 1] $r0
	pop	{r7, pc}
.Ltmp43:
.Lfunc_end5:
	.size	HAL_USARTEx_EnableFifoMode, .Lfunc_end5-HAL_USARTEx_EnableFifoMode
	.cfi_endproc
	.file	6 "c:/Keil_v5\\ARM\\PACK\\Keil\\STM32L5xx_DFP\\1.3.0\\Drivers\\CMSIS\\Device\\ST\\STM32L5xx\\Include" "stm32l552xx.h"
	.cantunwind
	.fnend
                                        @ -- End function
	.section	.text.HAL_USARTEx_DisableFifoMode,"ax",%progbits
	.hidden	HAL_USARTEx_DisableFifoMode     @ -- Begin function HAL_USARTEx_DisableFifoMode
	.globl	HAL_USARTEx_DisableFifoMode
	.p2align	2
	.type	HAL_USARTEx_DisableFifoMode,%function
	.code	16                              @ @HAL_USARTEx_DisableFifoMode
	.thumb_func
HAL_USARTEx_DisableFifoMode:
.Lfunc_begin6:
	.loc	5 350 0                         @ c:/Keil_v5\ARM\PACK\Keil\STM32L5xx_DFP\1.3.0\Drivers\STM32L5xx_HAL_Driver\Src\stm32l5xx_hal_usart_ex.c:350:0
	.fnstart
	.cfi_startproc
@ %bb.0:
	@DEBUG_VALUE: HAL_USARTEx_DisableFifoMode:husart <- $r0
	@DEBUG_VALUE: HAL_USARTEx_DisableFifoMode:husart <- $r0
	.loc	5 357 3 prologue_end            @ c:/Keil_v5\ARM\PACK\Keil\STM32L5xx_DFP\1.3.0\Drivers\STM32L5xx_HAL_Driver\Src\stm32l5xx_hal_usart_ex.c:357:3
	ldrb.w	r1, [r0, #88]
.Ltmp44:
	.loc	5 357 3 is_stmt 0               @ c:/Keil_v5\ARM\PACK\Keil\STM32L5xx_DFP\1.3.0\Drivers\STM32L5xx_HAL_Driver\Src\stm32l5xx_hal_usart_ex.c:357:3
	cmp	r1, #1
	mov.w	r1, #2
	beq	.LBB6_2
.Ltmp45:
@ %bb.1:
	@DEBUG_VALUE: HAL_USARTEx_DisableFifoMode:husart <- $r0
	.loc	5 359 17 is_stmt 1              @ c:/Keil_v5\ARM\PACK\Keil\STM32L5xx_DFP\1.3.0\Drivers\STM32L5xx_HAL_Driver\Src\stm32l5xx_hal_usart_ex.c:359:17
	strb.w	r1, [r0, #89]
	.loc	5 362 12                        @ c:/Keil_v5\ARM\PACK\Keil\STM32L5xx_DFP\1.3.0\Drivers\STM32L5xx_HAL_Driver\Src\stm32l5xx_hal_usart_ex.c:362:12
	ldr	r2, [r0]
	ldr	r1, [r2]
.Ltmp46:
	@DEBUG_VALUE: HAL_USARTEx_DisableFifoMode:tmpcr1 <- $r1
	.loc	5 365 3                         @ c:/Keil_v5\ARM\PACK\Keil\STM32L5xx_DFP\1.3.0\Drivers\STM32L5xx_HAL_Driver\Src\stm32l5xx_hal_usart_ex.c:365:3
	ldr	r3, [r2]
	bic	r3, r3, #1
	str	r3, [r2]
	.loc	5 368 3                         @ c:/Keil_v5\ARM\PACK\Keil\STM32L5xx_DFP\1.3.0\Drivers\STM32L5xx_HAL_Driver\Src\stm32l5xx_hal_usart_ex.c:368:3
	bic	r3, r1, #536870912
.Ltmp47:
	@DEBUG_VALUE: HAL_USARTEx_DisableFifoMode:tmpcr1 <- $r3
	.loc	5 0 3 is_stmt 0                 @ c:/Keil_v5\ARM\PACK\Keil\STM32L5xx_DFP\1.3.0\Drivers\STM32L5xx_HAL_Driver\Src\stm32l5xx_hal_usart_ex.c:0:3
	movs	r1, #0
	.loc	5 369 20 is_stmt 1              @ c:/Keil_v5\ARM\PACK\Keil\STM32L5xx_DFP\1.3.0\Drivers\STM32L5xx_HAL_Driver\Src\stm32l5xx_hal_usart_ex.c:369:20
	str	r1, [r0, #68]
	.loc	5 372 3                         @ c:/Keil_v5\ARM\PACK\Keil\STM32L5xx_DFP\1.3.0\Drivers\STM32L5xx_HAL_Driver\Src\stm32l5xx_hal_usart_ex.c:372:3
	str	r3, [r2]
	movs	r2, #1
	.loc	5 374 17                        @ c:/Keil_v5\ARM\PACK\Keil\STM32L5xx_DFP\1.3.0\Drivers\STM32L5xx_HAL_Driver\Src\stm32l5xx_hal_usart_ex.c:374:17
	strb.w	r2, [r0, #89]
.Ltmp48:
	.loc	5 377 3                         @ c:/Keil_v5\ARM\PACK\Keil\STM32L5xx_DFP\1.3.0\Drivers\STM32L5xx_HAL_Driver\Src\stm32l5xx_hal_usart_ex.c:377:3
	strb.w	r1, [r0, #88]
.Ltmp49:
.LBB6_2:
	@DEBUG_VALUE: HAL_USARTEx_DisableFifoMode:husart <- $r0
	.loc	5 380 1                         @ c:/Keil_v5\ARM\PACK\Keil\STM32L5xx_DFP\1.3.0\Drivers\STM32L5xx_HAL_Driver\Src\stm32l5xx_hal_usart_ex.c:380:1
	mov	r0, r1
.Ltmp50:
	@DEBUG_VALUE: HAL_USARTEx_DisableFifoMode:husart <- [DW_OP_LLVM_entry_value 1] $r0
	bx	lr
.Ltmp51:
.Lfunc_end6:
	.size	HAL_USARTEx_DisableFifoMode, .Lfunc_end6-HAL_USARTEx_DisableFifoMode
	.cfi_endproc
	.cantunwind
	.fnend
                                        @ -- End function
	.section	.text.HAL_USARTEx_SetTxFifoThreshold,"ax",%progbits
	.hidden	HAL_USARTEx_SetTxFifoThreshold  @ -- Begin function HAL_USARTEx_SetTxFifoThreshold
	.globl	HAL_USARTEx_SetTxFifoThreshold
	.p2align	2
	.type	HAL_USARTEx_SetTxFifoThreshold,%function
	.code	16                              @ @HAL_USARTEx_SetTxFifoThreshold
	.thumb_func
HAL_USARTEx_SetTxFifoThreshold:
.Lfunc_begin7:
	.loc	5 396 0                         @ c:/Keil_v5\ARM\PACK\Keil\STM32L5xx_DFP\1.3.0\Drivers\STM32L5xx_HAL_Driver\Src\stm32l5xx_hal_usart_ex.c:396:0
	.fnstart
	.cfi_startproc
@ %bb.0:
	@DEBUG_VALUE: HAL_USARTEx_SetTxFifoThreshold:husart <- $r0
	@DEBUG_VALUE: HAL_USARTEx_SetTxFifoThreshold:husart <- $r0
	@DEBUG_VALUE: HAL_USARTEx_SetTxFifoThreshold:Threshold <- $r1
	.save	{r4, r5, r6, lr}
	push	{r4, r5, r6, lr}
	.cfi_def_cfa_offset 16
	.cfi_offset lr, -4
	.cfi_offset r6, -8
	.cfi_offset r5, -12
	.cfi_offset r4, -16
.Ltmp52:
	.loc	5 404 3 prologue_end            @ c:/Keil_v5\ARM\PACK\Keil\STM32L5xx_DFP\1.3.0\Drivers\STM32L5xx_HAL_Driver\Src\stm32l5xx_hal_usart_ex.c:404:3
	ldrb.w	r2, [r0, #88]
.Ltmp53:
	@DEBUG_VALUE: HAL_USARTEx_SetTxFifoThreshold:Threshold <- $r1
	.loc	5 404 3 is_stmt 0               @ c:/Keil_v5\ARM\PACK\Keil\STM32L5xx_DFP\1.3.0\Drivers\STM32L5xx_HAL_Driver\Src\stm32l5xx_hal_usart_ex.c:404:3
	cmp	r2, #1
	mov.w	r2, #2
	beq	.LBB7_5
.Ltmp54:
@ %bb.1:
	@DEBUG_VALUE: HAL_USARTEx_SetTxFifoThreshold:Threshold <- $r1
	@DEBUG_VALUE: HAL_USARTEx_SetTxFifoThreshold:husart <- $r0
	.loc	5 406 17 is_stmt 1              @ c:/Keil_v5\ARM\PACK\Keil\STM32L5xx_DFP\1.3.0\Drivers\STM32L5xx_HAL_Driver\Src\stm32l5xx_hal_usart_ex.c:406:17
	strb.w	r2, [r0, #89]
	.loc	5 409 12                        @ c:/Keil_v5\ARM\PACK\Keil\STM32L5xx_DFP\1.3.0\Drivers\STM32L5xx_HAL_Driver\Src\stm32l5xx_hal_usart_ex.c:409:12
	ldr	r2, [r0]
.Ltmp55:
	@DEBUG_VALUE: USARTEx_SetNbDataToProcess:husart <- $r0
	.loc	5 509 15                        @ c:/Keil_v5\ARM\PACK\Keil\STM32L5xx_DFP\1.3.0\Drivers\STM32L5xx_HAL_Driver\Src\stm32l5xx_hal_usart_ex.c:509:15
	ldr.w	r12, [r0, #68]
.Ltmp56:
	.loc	5 409 12                        @ c:/Keil_v5\ARM\PACK\Keil\STM32L5xx_DFP\1.3.0\Drivers\STM32L5xx_HAL_Driver\Src\stm32l5xx_hal_usart_ex.c:409:12
	ldr.w	lr, [r2]
.Ltmp57:
	@DEBUG_VALUE: HAL_USARTEx_SetTxFifoThreshold:tmpcr1 <- $lr
	.loc	5 412 3                         @ c:/Keil_v5\ARM\PACK\Keil\STM32L5xx_DFP\1.3.0\Drivers\STM32L5xx_HAL_Driver\Src\stm32l5xx_hal_usart_ex.c:412:3
	ldr	r3, [r2]
.Ltmp58:
	.loc	5 509 7                         @ c:/Keil_v5\ARM\PACK\Keil\STM32L5xx_DFP\1.3.0\Drivers\STM32L5xx_HAL_Driver\Src\stm32l5xx_hal_usart_ex.c:509:7
	cmp.w	r12, #0
.Ltmp59:
	@DEBUG_VALUE: USARTEx_SetNbDataToProcess:husart <- $r0
	.loc	5 412 3                         @ c:/Keil_v5\ARM\PACK\Keil\STM32L5xx_DFP\1.3.0\Drivers\STM32L5xx_HAL_Driver\Src\stm32l5xx_hal_usart_ex.c:412:3
	bic	r3, r3, #1
	str	r3, [r2]
	.loc	5 415 3                         @ c:/Keil_v5\ARM\PACK\Keil\STM32L5xx_DFP\1.3.0\Drivers\STM32L5xx_HAL_Driver\Src\stm32l5xx_hal_usart_ex.c:415:3
	ldr	r3, [r2, #8]
	mov.w	r12, #1
	bic	r3, r3, #-536870912
	orr.w	r1, r1, r3
.Ltmp60:
	@DEBUG_VALUE: HAL_USARTEx_SetTxFifoThreshold:Threshold <- [DW_OP_LLVM_entry_value 1] $r1
	str	r1, [r2, #8]
.Ltmp61:
	.loc	5 509 7                         @ c:/Keil_v5\ARM\PACK\Keil\STM32L5xx_DFP\1.3.0\Drivers\STM32L5xx_HAL_Driver\Src\stm32l5xx_hal_usart_ex.c:509:7
	beq	.LBB7_3
.Ltmp62:
@ %bb.2:
	@DEBUG_VALUE: USARTEx_SetNbDataToProcess:husart <- $r0
	@DEBUG_VALUE: HAL_USARTEx_SetTxFifoThreshold:husart <- $r0
	@DEBUG_VALUE: HAL_USARTEx_SetTxFifoThreshold:tmpcr1 <- $lr
	@DEBUG_VALUE: HAL_USARTEx_SetTxFifoThreshold:Threshold <- [DW_OP_LLVM_entry_value 1] $r1
	@DEBUG_VALUE: USARTEx_SetNbDataToProcess:rx_fifo_depth <- 8
	@DEBUG_VALUE: USARTEx_SetNbDataToProcess:tx_fifo_depth <- 8
	.loc	5 518 36                        @ c:/Keil_v5\ARM\PACK\Keil\STM32L5xx_DFP\1.3.0\Drivers\STM32L5xx_HAL_Driver\Src\stm32l5xx_hal_usart_ex.c:518:36
	ldr	r1, [r2, #8]
	.loc	5 520 36                        @ c:/Keil_v5\ARM\PACK\Keil\STM32L5xx_DFP\1.3.0\Drivers\STM32L5xx_HAL_Driver\Src\stm32l5xx_hal_usart_ex.c:520:36
	ldr	r3, [r2, #8]
	.loc	5 518 25                        @ c:/Keil_v5\ARM\PACK\Keil\STM32L5xx_DFP\1.3.0\Drivers\STM32L5xx_HAL_Driver\Src\stm32l5xx_hal_usart_ex.c:518:25
	ubfx	r4, r1, #25, #3
.Ltmp63:
	@DEBUG_VALUE: USARTEx_SetNbDataToProcess:rx_fifo_threshold <- [DW_OP_LLVM_convert 32 7, DW_OP_LLVM_convert 8 7, DW_OP_constu 7, DW_OP_and, DW_OP_stack_value] undef
	.loc	5 521 64                        @ c:/Keil_v5\ARM\PACK\Keil\STM32L5xx_DFP\1.3.0\Drivers\STM32L5xx_HAL_Driver\Src\stm32l5xx_hal_usart_ex.c:521:64
	lsrs	r1, r3, #29
.Ltmp64:
	@DEBUG_VALUE: USARTEx_SetNbDataToProcess:tx_fifo_threshold <- $r1
	.loc	5 522 60                        @ c:/Keil_v5\ARM\PACK\Keil\STM32L5xx_DFP\1.3.0\Drivers\STM32L5xx_HAL_Driver\Src\stm32l5xx_hal_usart_ex.c:522:60
	movw	r3, :lower16:.L__const.USARTEx_SetNbDataToProcess.numerator
	movt	r3, :upper16:.L__const.USARTEx_SetNbDataToProcess.numerator
	.loc	5 523 43                        @ c:/Keil_v5\ARM\PACK\Keil\STM32L5xx_DFP\1.3.0\Drivers\STM32L5xx_HAL_Driver\Src\stm32l5xx_hal_usart_ex.c:523:43
	movw	r6, :lower16:.L__const.USARTEx_SetNbDataToProcess.denominator
	.loc	5 522 60                        @ c:/Keil_v5\ARM\PACK\Keil\STM32L5xx_DFP\1.3.0\Drivers\STM32L5xx_HAL_Driver\Src\stm32l5xx_hal_usart_ex.c:522:60
	ldrb	r5, [r3, r1]
	.loc	5 523 43                        @ c:/Keil_v5\ARM\PACK\Keil\STM32L5xx_DFP\1.3.0\Drivers\STM32L5xx_HAL_Driver\Src\stm32l5xx_hal_usart_ex.c:523:43
	movt	r6, :upper16:.L__const.USARTEx_SetNbDataToProcess.denominator
	.loc	5 524 60                        @ c:/Keil_v5\ARM\PACK\Keil\STM32L5xx_DFP\1.3.0\Drivers\STM32L5xx_HAL_Driver\Src\stm32l5xx_hal_usart_ex.c:524:60
	ldrb	r3, [r3, r4]
	.loc	5 523 43                        @ c:/Keil_v5\ARM\PACK\Keil\STM32L5xx_DFP\1.3.0\Drivers\STM32L5xx_HAL_Driver\Src\stm32l5xx_hal_usart_ex.c:523:43
	ldrb	r1, [r6, r1]
.Ltmp65:
	.loc	5 525 43                        @ c:/Keil_v5\ARM\PACK\Keil\STM32L5xx_DFP\1.3.0\Drivers\STM32L5xx_HAL_Driver\Src\stm32l5xx_hal_usart_ex.c:525:43
	ldrb	r4, [r6, r4]
	.loc	5 522 58                        @ c:/Keil_v5\ARM\PACK\Keil\STM32L5xx_DFP\1.3.0\Drivers\STM32L5xx_HAL_Driver\Src\stm32l5xx_hal_usart_ex.c:522:58
	lsls	r5, r5, #3
	.loc	5 524 58                        @ c:/Keil_v5\ARM\PACK\Keil\STM32L5xx_DFP\1.3.0\Drivers\STM32L5xx_HAL_Driver\Src\stm32l5xx_hal_usart_ex.c:524:58
	lsls	r3, r3, #3
	.loc	5 522 90                        @ c:/Keil_v5\ARM\PACK\Keil\STM32L5xx_DFP\1.3.0\Drivers\STM32L5xx_HAL_Driver\Src\stm32l5xx_hal_usart_ex.c:522:90
	udiv	r1, r5, r1
	.loc	5 524 90                        @ c:/Keil_v5\ARM\PACK\Keil\STM32L5xx_DFP\1.3.0\Drivers\STM32L5xx_HAL_Driver\Src\stm32l5xx_hal_usart_ex.c:524:90
	udiv	r3, r3, r4
	b	.LBB7_4
.Ltmp66:
	.p2align	2
.LBB7_3:
	@DEBUG_VALUE: USARTEx_SetNbDataToProcess:husart <- $r0
	@DEBUG_VALUE: HAL_USARTEx_SetTxFifoThreshold:husart <- $r0
	@DEBUG_VALUE: HAL_USARTEx_SetTxFifoThreshold:tmpcr1 <- $lr
	@DEBUG_VALUE: HAL_USARTEx_SetTxFifoThreshold:Threshold <- [DW_OP_LLVM_entry_value 1] $r1
	.loc	5 0 0 is_stmt 0                 @ c:/Keil_v5\ARM\PACK\Keil\STM32L5xx_DFP\1.3.0\Drivers\STM32L5xx_HAL_Driver\Src\stm32l5xx_hal_usart_ex.c:0:0
	movs	r1, #1
	movs	r3, #1
.Ltmp67:
.LBB7_4:
	@DEBUG_VALUE: USARTEx_SetNbDataToProcess:husart <- $r0
	@DEBUG_VALUE: HAL_USARTEx_SetTxFifoThreshold:husart <- $r0
	@DEBUG_VALUE: HAL_USARTEx_SetTxFifoThreshold:tmpcr1 <- $lr
	@DEBUG_VALUE: HAL_USARTEx_SetTxFifoThreshold:Threshold <- [DW_OP_LLVM_entry_value 1] $r1
	.loc	5 511 31 is_stmt 1              @ c:/Keil_v5\ARM\PACK\Keil\STM32L5xx_DFP\1.3.0\Drivers\STM32L5xx_HAL_Driver\Src\stm32l5xx_hal_usart_ex.c:511:31
	strh	r1, [r0, #60]
	.loc	5 512 31                        @ c:/Keil_v5\ARM\PACK\Keil\STM32L5xx_DFP\1.3.0\Drivers\STM32L5xx_HAL_Driver\Src\stm32l5xx_hal_usart_ex.c:512:31
	strh	r3, [r0, #58]
.Ltmp68:
	.loc	5 421 3                         @ c:/Keil_v5\ARM\PACK\Keil\STM32L5xx_DFP\1.3.0\Drivers\STM32L5xx_HAL_Driver\Src\stm32l5xx_hal_usart_ex.c:421:3
	str.w	lr, [r2]
	movs	r2, #0
	.loc	5 423 17                        @ c:/Keil_v5\ARM\PACK\Keil\STM32L5xx_DFP\1.3.0\Drivers\STM32L5xx_HAL_Driver\Src\stm32l5xx_hal_usart_ex.c:423:17
	strb.w	r12, [r0, #89]
.Ltmp69:
	.loc	5 426 3                         @ c:/Keil_v5\ARM\PACK\Keil\STM32L5xx_DFP\1.3.0\Drivers\STM32L5xx_HAL_Driver\Src\stm32l5xx_hal_usart_ex.c:426:3
	strb.w	r2, [r0, #88]
.Ltmp70:
.LBB7_5:
	@DEBUG_VALUE: HAL_USARTEx_SetTxFifoThreshold:husart <- $r0
	.loc	5 429 1                         @ c:/Keil_v5\ARM\PACK\Keil\STM32L5xx_DFP\1.3.0\Drivers\STM32L5xx_HAL_Driver\Src\stm32l5xx_hal_usart_ex.c:429:1
	mov	r0, r2
.Ltmp71:
	@DEBUG_VALUE: HAL_USARTEx_SetTxFifoThreshold:husart <- [DW_OP_LLVM_entry_value 1] $r0
	pop	{r4, r5, r6, pc}
.Ltmp72:
.Lfunc_end7:
	.size	HAL_USARTEx_SetTxFifoThreshold, .Lfunc_end7-HAL_USARTEx_SetTxFifoThreshold
	.cfi_endproc
	.cantunwind
	.fnend
                                        @ -- End function
	.section	.text.HAL_USARTEx_SetRxFifoThreshold,"ax",%progbits
	.hidden	HAL_USARTEx_SetRxFifoThreshold  @ -- Begin function HAL_USARTEx_SetRxFifoThreshold
	.globl	HAL_USARTEx_SetRxFifoThreshold
	.p2align	2
	.type	HAL_USARTEx_SetRxFifoThreshold,%function
	.code	16                              @ @HAL_USARTEx_SetRxFifoThreshold
	.thumb_func
HAL_USARTEx_SetRxFifoThreshold:
.Lfunc_begin8:
	.loc	5 445 0                         @ c:/Keil_v5\ARM\PACK\Keil\STM32L5xx_DFP\1.3.0\Drivers\STM32L5xx_HAL_Driver\Src\stm32l5xx_hal_usart_ex.c:445:0
	.fnstart
	.cfi_startproc
@ %bb.0:
	@DEBUG_VALUE: HAL_USARTEx_SetRxFifoThreshold:husart <- $r0
	@DEBUG_VALUE: HAL_USARTEx_SetRxFifoThreshold:husart <- $r0
	@DEBUG_VALUE: HAL_USARTEx_SetRxFifoThreshold:Threshold <- $r1
	.save	{r4, r5, r6, lr}
	push	{r4, r5, r6, lr}
	.cfi_def_cfa_offset 16
	.cfi_offset lr, -4
	.cfi_offset r6, -8
	.cfi_offset r5, -12
	.cfi_offset r4, -16
.Ltmp73:
	.loc	5 453 3 prologue_end            @ c:/Keil_v5\ARM\PACK\Keil\STM32L5xx_DFP\1.3.0\Drivers\STM32L5xx_HAL_Driver\Src\stm32l5xx_hal_usart_ex.c:453:3
	ldrb.w	r2, [r0, #88]
.Ltmp74:
	@DEBUG_VALUE: HAL_USARTEx_SetRxFifoThreshold:Threshold <- $r1
	.loc	5 453 3 is_stmt 0               @ c:/Keil_v5\ARM\PACK\Keil\STM32L5xx_DFP\1.3.0\Drivers\STM32L5xx_HAL_Driver\Src\stm32l5xx_hal_usart_ex.c:453:3
	cmp	r2, #1
	mov.w	r2, #2
	beq	.LBB8_5
.Ltmp75:
@ %bb.1:
	@DEBUG_VALUE: HAL_USARTEx_SetRxFifoThreshold:Threshold <- $r1
	@DEBUG_VALUE: HAL_USARTEx_SetRxFifoThreshold:husart <- $r0
	.loc	5 455 17 is_stmt 1              @ c:/Keil_v5\ARM\PACK\Keil\STM32L5xx_DFP\1.3.0\Drivers\STM32L5xx_HAL_Driver\Src\stm32l5xx_hal_usart_ex.c:455:17
	strb.w	r2, [r0, #89]
	.loc	5 458 12                        @ c:/Keil_v5\ARM\PACK\Keil\STM32L5xx_DFP\1.3.0\Drivers\STM32L5xx_HAL_Driver\Src\stm32l5xx_hal_usart_ex.c:458:12
	ldr	r2, [r0]
.Ltmp76:
	@DEBUG_VALUE: USARTEx_SetNbDataToProcess:husart <- $r0
	.loc	5 509 15                        @ c:/Keil_v5\ARM\PACK\Keil\STM32L5xx_DFP\1.3.0\Drivers\STM32L5xx_HAL_Driver\Src\stm32l5xx_hal_usart_ex.c:509:15
	ldr.w	r12, [r0, #68]
.Ltmp77:
	.loc	5 458 12                        @ c:/Keil_v5\ARM\PACK\Keil\STM32L5xx_DFP\1.3.0\Drivers\STM32L5xx_HAL_Driver\Src\stm32l5xx_hal_usart_ex.c:458:12
	ldr.w	lr, [r2]
.Ltmp78:
	@DEBUG_VALUE: HAL_USARTEx_SetRxFifoThreshold:tmpcr1 <- $lr
	.loc	5 461 3                         @ c:/Keil_v5\ARM\PACK\Keil\STM32L5xx_DFP\1.3.0\Drivers\STM32L5xx_HAL_Driver\Src\stm32l5xx_hal_usart_ex.c:461:3
	ldr	r3, [r2]
.Ltmp79:
	.loc	5 509 7                         @ c:/Keil_v5\ARM\PACK\Keil\STM32L5xx_DFP\1.3.0\Drivers\STM32L5xx_HAL_Driver\Src\stm32l5xx_hal_usart_ex.c:509:7
	cmp.w	r12, #0
.Ltmp80:
	@DEBUG_VALUE: USARTEx_SetNbDataToProcess:husart <- $r0
	.loc	5 461 3                         @ c:/Keil_v5\ARM\PACK\Keil\STM32L5xx_DFP\1.3.0\Drivers\STM32L5xx_HAL_Driver\Src\stm32l5xx_hal_usart_ex.c:461:3
	bic	r3, r3, #1
	str	r3, [r2]
	.loc	5 464 3                         @ c:/Keil_v5\ARM\PACK\Keil\STM32L5xx_DFP\1.3.0\Drivers\STM32L5xx_HAL_Driver\Src\stm32l5xx_hal_usart_ex.c:464:3
	ldr	r3, [r2, #8]
	mov.w	r12, #1
	bic	r3, r3, #234881024
	orr.w	r1, r1, r3
.Ltmp81:
	@DEBUG_VALUE: HAL_USARTEx_SetRxFifoThreshold:Threshold <- [DW_OP_LLVM_entry_value 1] $r1
	str	r1, [r2, #8]
.Ltmp82:
	.loc	5 509 7                         @ c:/Keil_v5\ARM\PACK\Keil\STM32L5xx_DFP\1.3.0\Drivers\STM32L5xx_HAL_Driver\Src\stm32l5xx_hal_usart_ex.c:509:7
	beq	.LBB8_3
.Ltmp83:
@ %bb.2:
	@DEBUG_VALUE: USARTEx_SetNbDataToProcess:husart <- $r0
	@DEBUG_VALUE: HAL_USARTEx_SetRxFifoThreshold:husart <- $r0
	@DEBUG_VALUE: HAL_USARTEx_SetRxFifoThreshold:tmpcr1 <- $lr
	@DEBUG_VALUE: HAL_USARTEx_SetRxFifoThreshold:Threshold <- [DW_OP_LLVM_entry_value 1] $r1
	@DEBUG_VALUE: USARTEx_SetNbDataToProcess:rx_fifo_depth <- 8
	@DEBUG_VALUE: USARTEx_SetNbDataToProcess:tx_fifo_depth <- 8
	.loc	5 518 36                        @ c:/Keil_v5\ARM\PACK\Keil\STM32L5xx_DFP\1.3.0\Drivers\STM32L5xx_HAL_Driver\Src\stm32l5xx_hal_usart_ex.c:518:36
	ldr	r1, [r2, #8]
	.loc	5 520 36                        @ c:/Keil_v5\ARM\PACK\Keil\STM32L5xx_DFP\1.3.0\Drivers\STM32L5xx_HAL_Driver\Src\stm32l5xx_hal_usart_ex.c:520:36
	ldr	r3, [r2, #8]
	.loc	5 518 25                        @ c:/Keil_v5\ARM\PACK\Keil\STM32L5xx_DFP\1.3.0\Drivers\STM32L5xx_HAL_Driver\Src\stm32l5xx_hal_usart_ex.c:518:25
	ubfx	r4, r1, #25, #3
.Ltmp84:
	@DEBUG_VALUE: USARTEx_SetNbDataToProcess:rx_fifo_threshold <- [DW_OP_LLVM_convert 32 7, DW_OP_LLVM_convert 8 7, DW_OP_constu 7, DW_OP_and, DW_OP_stack_value] undef
	.loc	5 521 64                        @ c:/Keil_v5\ARM\PACK\Keil\STM32L5xx_DFP\1.3.0\Drivers\STM32L5xx_HAL_Driver\Src\stm32l5xx_hal_usart_ex.c:521:64
	lsrs	r1, r3, #29
.Ltmp85:
	@DEBUG_VALUE: USARTEx_SetNbDataToProcess:tx_fifo_threshold <- $r1
	.loc	5 522 60                        @ c:/Keil_v5\ARM\PACK\Keil\STM32L5xx_DFP\1.3.0\Drivers\STM32L5xx_HAL_Driver\Src\stm32l5xx_hal_usart_ex.c:522:60
	movw	r3, :lower16:.L__const.USARTEx_SetNbDataToProcess.numerator
	movt	r3, :upper16:.L__const.USARTEx_SetNbDataToProcess.numerator
	.loc	5 523 43                        @ c:/Keil_v5\ARM\PACK\Keil\STM32L5xx_DFP\1.3.0\Drivers\STM32L5xx_HAL_Driver\Src\stm32l5xx_hal_usart_ex.c:523:43
	movw	r6, :lower16:.L__const.USARTEx_SetNbDataToProcess.denominator
	.loc	5 522 60                        @ c:/Keil_v5\ARM\PACK\Keil\STM32L5xx_DFP\1.3.0\Drivers\STM32L5xx_HAL_Driver\Src\stm32l5xx_hal_usart_ex.c:522:60
	ldrb	r5, [r3, r1]
	.loc	5 523 43                        @ c:/Keil_v5\ARM\PACK\Keil\STM32L5xx_DFP\1.3.0\Drivers\STM32L5xx_HAL_Driver\Src\stm32l5xx_hal_usart_ex.c:523:43
	movt	r6, :upper16:.L__const.USARTEx_SetNbDataToProcess.denominator
	.loc	5 524 60                        @ c:/Keil_v5\ARM\PACK\Keil\STM32L5xx_DFP\1.3.0\Drivers\STM32L5xx_HAL_Driver\Src\stm32l5xx_hal_usart_ex.c:524:60
	ldrb	r3, [r3, r4]
	.loc	5 523 43                        @ c:/Keil_v5\ARM\PACK\Keil\STM32L5xx_DFP\1.3.0\Drivers\STM32L5xx_HAL_Driver\Src\stm32l5xx_hal_usart_ex.c:523:43
	ldrb	r1, [r6, r1]
.Ltmp86:
	.loc	5 525 43                        @ c:/Keil_v5\ARM\PACK\Keil\STM32L5xx_DFP\1.3.0\Drivers\STM32L5xx_HAL_Driver\Src\stm32l5xx_hal_usart_ex.c:525:43
	ldrb	r4, [r6, r4]
	.loc	5 522 58                        @ c:/Keil_v5\ARM\PACK\Keil\STM32L5xx_DFP\1.3.0\Drivers\STM32L5xx_HAL_Driver\Src\stm32l5xx_hal_usart_ex.c:522:58
	lsls	r5, r5, #3
	.loc	5 524 58                        @ c:/Keil_v5\ARM\PACK\Keil\STM32L5xx_DFP\1.3.0\Drivers\STM32L5xx_HAL_Driver\Src\stm32l5xx_hal_usart_ex.c:524:58
	lsls	r3, r3, #3
	.loc	5 522 90                        @ c:/Keil_v5\ARM\PACK\Keil\STM32L5xx_DFP\1.3.0\Drivers\STM32L5xx_HAL_Driver\Src\stm32l5xx_hal_usart_ex.c:522:90
	udiv	r1, r5, r1
	.loc	5 524 90                        @ c:/Keil_v5\ARM\PACK\Keil\STM32L5xx_DFP\1.3.0\Drivers\STM32L5xx_HAL_Driver\Src\stm32l5xx_hal_usart_ex.c:524:90
	udiv	r3, r3, r4
	b	.LBB8_4
.Ltmp87:
	.p2align	2
.LBB8_3:
	@DEBUG_VALUE: USARTEx_SetNbDataToProcess:husart <- $r0
	@DEBUG_VALUE: HAL_USARTEx_SetRxFifoThreshold:husart <- $r0
	@DEBUG_VALUE: HAL_USARTEx_SetRxFifoThreshold:tmpcr1 <- $lr
	@DEBUG_VALUE: HAL_USARTEx_SetRxFifoThreshold:Threshold <- [DW_OP_LLVM_entry_value 1] $r1
	.loc	5 0 0 is_stmt 0                 @ c:/Keil_v5\ARM\PACK\Keil\STM32L5xx_DFP\1.3.0\Drivers\STM32L5xx_HAL_Driver\Src\stm32l5xx_hal_usart_ex.c:0:0
	movs	r1, #1
	movs	r3, #1
.Ltmp88:
.LBB8_4:
	@DEBUG_VALUE: USARTEx_SetNbDataToProcess:husart <- $r0
	@DEBUG_VALUE: HAL_USARTEx_SetRxFifoThreshold:husart <- $r0
	@DEBUG_VALUE: HAL_USARTEx_SetRxFifoThreshold:tmpcr1 <- $lr
	@DEBUG_VALUE: HAL_USARTEx_SetRxFifoThreshold:Threshold <- [DW_OP_LLVM_entry_value 1] $r1
	.loc	5 511 31 is_stmt 1              @ c:/Keil_v5\ARM\PACK\Keil\STM32L5xx_DFP\1.3.0\Drivers\STM32L5xx_HAL_Driver\Src\stm32l5xx_hal_usart_ex.c:511:31
	strh	r1, [r0, #60]
	.loc	5 512 31                        @ c:/Keil_v5\ARM\PACK\Keil\STM32L5xx_DFP\1.3.0\Drivers\STM32L5xx_HAL_Driver\Src\stm32l5xx_hal_usart_ex.c:512:31
	strh	r3, [r0, #58]
.Ltmp89:
	.loc	5 470 3                         @ c:/Keil_v5\ARM\PACK\Keil\STM32L5xx_DFP\1.3.0\Drivers\STM32L5xx_HAL_Driver\Src\stm32l5xx_hal_usart_ex.c:470:3
	str.w	lr, [r2]
	movs	r2, #0
	.loc	5 472 17                        @ c:/Keil_v5\ARM\PACK\Keil\STM32L5xx_DFP\1.3.0\Drivers\STM32L5xx_HAL_Driver\Src\stm32l5xx_hal_usart_ex.c:472:17
	strb.w	r12, [r0, #89]
.Ltmp90:
	.loc	5 475 3                         @ c:/Keil_v5\ARM\PACK\Keil\STM32L5xx_DFP\1.3.0\Drivers\STM32L5xx_HAL_Driver\Src\stm32l5xx_hal_usart_ex.c:475:3
	strb.w	r2, [r0, #88]
.Ltmp91:
.LBB8_5:
	@DEBUG_VALUE: HAL_USARTEx_SetRxFifoThreshold:husart <- $r0
	.loc	5 478 1                         @ c:/Keil_v5\ARM\PACK\Keil\STM32L5xx_DFP\1.3.0\Drivers\STM32L5xx_HAL_Driver\Src\stm32l5xx_hal_usart_ex.c:478:1
	mov	r0, r2
.Ltmp92:
	@DEBUG_VALUE: HAL_USARTEx_SetRxFifoThreshold:husart <- [DW_OP_LLVM_entry_value 1] $r0
	pop	{r4, r5, r6, pc}
.Ltmp93:
.Lfunc_end8:
	.size	HAL_USARTEx_SetRxFifoThreshold, .Lfunc_end8-HAL_USARTEx_SetRxFifoThreshold
	.cfi_endproc
	.cantunwind
	.fnend
                                        @ -- End function
	.type	.L__const.USARTEx_SetNbDataToProcess.numerator,%object @ @__const.USARTEx_SetNbDataToProcess.numerator
	.section	.rodata.cst8,"aM",%progbits,8
.L__const.USARTEx_SetNbDataToProcess.numerator:
	.asciz	"\001\001\001\003\007\001\000"
	.size	.L__const.USARTEx_SetNbDataToProcess.numerator, 8

	.type	.L__const.USARTEx_SetNbDataToProcess.denominator,%object @ @__const.USARTEx_SetNbDataToProcess.denominator
.L__const.USARTEx_SetNbDataToProcess.denominator:
	.ascii	"\b\004\002\004\b\001\001\001"
	.size	.L__const.USARTEx_SetNbDataToProcess.denominator, 8

	.section	".note.GNU-stack","",%progbits
	.eabi_attribute	30, 2	@ Tag_ABI_optimization_goals
	.ARM_attribute	16, 1	@ Tag_AV_eba