	.text
	.syntax unified
	.eabi_attribute	67, "2.09"	@ Tag_conformance
	.cpu	cortex-m33
	.eabi_attribute	6, 17	@ Tag_CPU_arch
	.eabi_attribute	7, 77	@ Tag_CPU_arch_profile
	.eabi_attribute	8, 0	@ Tag_ARM_ISA_use
	.eabi_attribute	9, 3	@ Tag_THUMB_ISA_use
	.fpu	fpv5-sp-d16
	.eabi_attribute	27, 1	@ Tag_ABI_HardFP_use
	.eabi_attribute	36, 1	@ Tag_FP_HP_extension
	.eabi_attribute	46, 1	@ Tag_DSP_extension
	.eabi_attribute	34, 1	@ Tag_CPU_unaligned_access
	.eabi_attribute	17, 1	@ Tag_ABI_PCS_GOT_use
	.eabi_attribute	20, 2	@ Tag_ABI_FP_denormal
	.eabi_attribute	21, 0	@ Tag_ABI_FP_exceptions
	.eabi_attribute	23, 1	@ Tag_ABI_FP_number_model
	.eabi_attribute	24, 1	@ Tag_ABI_align_needed
	.eabi_attribute	25, 1	@ Tag_ABI_align_preserved
	.eabi_attribute	28, 1	@ Tag_ABI_VFP_args
	.eabi_attribute	38, 1	@ Tag_ABI_FP_16bit_format
	.eabi_attribute	18, 2	@ Tag_ABI_PCS_wchar_t
	.eabi_attribute	26, 1	@ Tag_ABI_enum_size
	.eabi_attribute	14, 0	@ Tag_ABI_PCS_R9_use
	.file	"stm32l5xx_hal_uart_ex.c"
	.file	1 "c:/Keil_v5\\ARM\\PACK\\Keil\\STM32L5xx_DFP\\1.3.0\\Drivers\\STM32L5xx_HAL_Driver\\Inc" "stm32l5xx_hal_def.h"
	.file	2 "c:/Keil_v5\\ARM\\PACK\\Keil\\STM32L5xx_DFP\\1.3.0\\Drivers\\STM32L5xx_HAL_Driver\\Inc" "stm32l5xx_hal_dma.h"
	.file	3 "c:/Keil_v5\\ARM\\PACK\\Keil\\STM32L5xx_DFP\\1.3.0\\Drivers\\CMSIS\\Device\\ST\\STM32L5xx\\Include" "stm32l5xx.h"
	.file	4 "c:\\Keil_v5\\ARM\\ARMCLANG\\Bin\\..\\include" "stdint.h"
	.section	.text.HAL_RS485Ex_Init,"ax",%progbits
	.hidden	HAL_RS485Ex_Init                @ -- Begin function HAL_RS485Ex_Init
	.globl	HAL_RS485Ex_Init
	.p2align	2
	.type	HAL_RS485Ex_Init,%function
	.code	16                              @ @HAL_RS485Ex_Init
	.thumb_func
HAL_RS485Ex_Init:
.Lfunc_begin0:
	.file	5 "c:/Keil_v5\\ARM\\PACK\\Keil\\STM32L5xx_DFP\\1.3.0\\Drivers\\STM32L5xx_HAL_Driver\\Src" "stm32l5xx_hal_uart_ex.c"
	.loc	5 168 0                         @ c:/Keil_v5\ARM\PACK\Keil\STM32L5xx_DFP\1.3.0\Drivers\STM32L5xx_HAL_Driver\Src\stm32l5xx_hal_uart_ex.c:168:0
	.fnstart
	.cfi_sections .debug_frame
	.cfi_startproc
@ %bb.0:
	@DEBUG_VALUE: HAL_RS485Ex_Init:huart <- $r0
	@DEBUG_VALUE: HAL_RS485Ex_Init:Polarity <- $r1
	@DEBUG_VALUE: HAL_RS485Ex_Init:AssertionTime <- $r2
	@DEBUG_VALUE: HAL_RS485Ex_Init:DeassertionTime <- $r3
	@DEBUG_VALUE: HAL_RS485Ex_Init:DeassertionTime <- $r3
	@DEBUG_VALUE: HAL_RS485Ex_Init:AssertionTime <- $r2
	@DEBUG_VALUE: HAL_RS485Ex_Init:huart <- $r0
	.save	{r4, r5, r6, r7, lr}
	push	{r4, r5, r6, r7, lr}
	.cfi_def_cfa_offset 20
	.cfi_offset lr, -4
	.cfi_offset r7, -8
	.cfi_offset r6, -12
	.cfi_offset r5, -16
	.cfi_offset r4, -20
	.pad	#4
	sub	sp, #4
	.cfi_def_cfa_offset 24
	@DEBUG_VALUE: HAL_RS485Ex_Init:Polarity <- $r1
.Ltmp0:
	.loc	5 172 7 prologue_end            @ c:/Keil_v5\ARM\PACK\Keil\STM32L5xx_DFP\1.3.0\Drivers\STM32L5xx_HAL_Driver\Src\stm32l5xx_hal_uart_ex.c:172:7
	cbz	r0, .LBB0_4
.Ltmp1:
@ %bb.1:
	@DEBUG_VALUE: HAL_RS485Ex_Init:DeassertionTime <- $r3
	@DEBUG_VALUE: HAL_RS485Ex_Init:AssertionTime <- $r2
	@DEBUG_VALUE: HAL_RS485Ex_Init:Polarity <- $r1
	@DEBUG_VALUE: HAL_RS485Ex_Init:huart <- $r0
	.loc	5 0 7 is_stmt 0                 @ c:/Keil_v5\ARM\PACK\Keil\STM32L5xx_DFP\1.3.0\Drivers\STM32L5xx_HAL_Driver\Src\stm32l5xx_hal_uart_ex.c:0:7
	mov	r4, r0
.Ltmp2:
	@DEBUG_VALUE: HAL_RS485Ex_Init:huart <- $r4
	.loc	5 188 14 is_stmt 1              @ c:/Keil_v5\ARM\PACK\Keil\STM32L5xx_DFP\1.3.0\Drivers\STM32L5xx_HAL_Driver\Src\stm32l5xx_hal_uart_ex.c:188:14
	ldr.w	r0, [r0, #132]
	mov	r6, r3
.Ltmp3:
	@DEBUG_VALUE: HAL_RS485Ex_Init:DeassertionTime <- $r6
	@DEBUG_VALUE: HAL_RS485Ex_Init:DeassertionTime <- $r6
	.loc	5 0 14 is_stmt 0                @ c:/Keil_v5\ARM\PACK\Keil\STM32L5xx_DFP\1.3.0\Drivers\STM32L5xx_HAL_Driver\Src\stm32l5xx_hal_uart_ex.c:0:14
	mov	r5, r2
.Ltmp4:
	@DEBUG_VALUE: HAL_RS485Ex_Init:AssertionTime <- $r5
	@DEBUG_VALUE: HAL_RS485Ex_Init:AssertionTime <- $r5
	mov	r7, r1
.Ltmp5:
	@DEBUG_VALUE: HAL_RS485Ex_Init:Polarity <- $r7
	@DEBUG_VALUE: HAL_RS485Ex_Init:Polarity <- $r7
	.loc	5 188 7                         @ c:/Keil_v5\ARM\PACK\Keil\STM32L5xx_DFP\1.3.0\Drivers\STM32L5xx_HAL_Driver\Src\stm32l5xx_hal_uart_ex.c:188:7
	cbnz	r0, .LBB0_3
.Ltmp6:
@ %bb.2:
	@DEBUG_VALUE: HAL_RS485Ex_Init:Polarity <- $r7
	@DEBUG_VALUE: HAL_RS485Ex_Init:DeassertionTime <- $r6
	@DEBUG_VALUE: HAL_RS485Ex_Init:AssertionTime <- $r5
	@DEBUG_VALUE: HAL_RS485Ex_Init:huart <- $r4
	.loc	5 0 7                           @ c:/Keil_v5\ARM\PACK\Keil\STM32L5xx_DFP\1.3.0\Drivers\STM32L5xx_HAL_Driver\Src\stm32l5xx_hal_uart_ex.c:0:7
	movs	r0, #0
.Ltmp7:
	.loc	5 191 17 is_stmt 1              @ c:/Keil_v5\ARM\PACK\Keil\STM32L5xx_DFP\1.3.0\Drivers\STM32L5xx_HAL_Driver\Src\stm32l5xx_hal_uart_ex.c:191:17
	strb.w	r0, [r4, #128]
	.loc	5 205 5                         @ c:/Keil_v5\ARM\PACK\Keil\STM32L5xx_DFP\1.3.0\Drivers\STM32L5xx_HAL_Driver\Src\stm32l5xx_hal_uart_ex.c:205:5
	mov	r0, r4
	bl	HAL_UART_MspInit
.Ltmp8:
.LBB0_3:
	@DEBUG_VALUE: HAL_RS485Ex_Init:Polarity <- $r7
	@DEBUG_VALUE: HAL_RS485Ex_Init:DeassertionTime <- $r6
	@DEBUG_VALUE: HAL_RS485Ex_Init:AssertionTime <- $r5
	@DEBUG_VALUE: HAL_RS485Ex_Init:huart <- $r4
	.loc	5 0 5 is_stmt 0                 @ c:/Keil_v5\ARM\PACK\Keil\STM32L5xx_DFP\1.3.0\Drivers\STM32L5xx_HAL_Driver\Src\stm32l5xx_hal_uart_ex.c:0:5
	movs	r0, #36
	.loc	5 209 17 is_stmt 1              @ c:/Keil_v5\ARM\PACK\Keil\STM32L5xx_DFP\1.3.0\Drivers\STM32L5xx_HAL_Driver\Src\stm32l5xx_hal_uart_ex.c:209:17
	str.w	r0, [r4, #132]
	.loc	5 212 3                         @ c:/Keil_v5\ARM\PACK\Keil\STM32L5xx_DFP\1.3.0\Drivers\STM32L5xx_HAL_Driver\Src\stm32l5xx_hal_uart_ex.c:212:3
	ldr	r0, [r4]
	ldr	r1, [r0]
	bic	r1, r1, #1
	str	r1, [r0]
.Ltmp9:
	.loc	5 215 7                         @ c:/Keil_v5\ARM\PACK\Keil\STM32L5xx_DFP\1.3.0\Drivers\STM32L5xx_HAL_Driver\Src\stm32l5xx_hal_uart_ex.c:215:7
	mov	r0, r4
	bl	UART_SetConfig
.Ltmp10:
	.loc	5 215 7 is_stmt 0               @ c:/Keil_v5\ARM\PACK\Keil\STM32L5xx_DFP\1.3.0\Drivers\STM32L5xx_HAL_Driver\Src\stm32l5xx_hal_uart_ex.c:215:7
	cmp	r0, #1
	bne	.LBB0_5
.Ltmp11:
.LBB0_4:
	.loc	5 241 1 is_stmt 1               @ c:/Keil_v5\ARM\PACK\Keil\STM32L5xx_DFP\1.3.0\Drivers\STM32L5xx_HAL_Driver\Src\stm32l5xx_hal_uart_ex.c:241:1
	movs	r0, #1
	add	sp, #4
	pop	{r4, r5, r6, r7, pc}
	.p2align	2
.LBB0_5:
.Ltmp12:
	@DEBUG_VALUE: HAL_RS485Ex_Init:Polarity <- $r7
	@DEBUG_VALUE: HAL_RS485Ex_Init:DeassertionTime <- $r6
	@DEBUG_VALUE: HAL_RS485Ex_Init:AssertionTime <- $r5
	@DEBUG_VALUE: HAL_RS485Ex_Init:huart <- $r4
	.loc	5 220 27                        @ c:/Keil_v5\ARM\PACK\Keil\STM32L5xx_DFP\1.3.0\Drivers\STM32L5xx_HAL_Driver\Src\stm32l5xx_hal_uart_ex.c:220:27
	ldr	r0, [r4, #40]
.Ltmp13:
	.loc	5 220 7 is_stmt 0               @ c:/Keil_v5\ARM\PACK\Keil\STM32L5xx_DFP\1.3.0\Drivers\STM32L5xx_HAL_Driver\Src\stm32l5xx_hal_uart_ex.c:220:7
	cmp	r0, #0
.Ltmp14:
	.loc	5 222 5 is_stmt 1               @ c:/Keil_v5\ARM\PACK\Keil\STM32L5xx_DFP\1.3.0\Drivers\STM32L5xx_HAL_Driver\Src\stm32l5xx_hal_uart_ex.c:222:5
	itt	ne
	movne	r0, r4
	blne	UART_AdvFeatureConfig
.Ltmp15:
	.loc	5 226 3                         @ c:/Keil_v5\ARM\PACK\Keil\STM32L5xx_DFP\1.3.0\Drivers\STM32L5xx_HAL_Driver\Src\stm32l5xx_hal_uart_ex.c:226:3
	ldr	r1, [r4]
	ldr	r0, [r1, #8]
	orr	r0, r0, #16384
	str	r0, [r1, #8]
	.loc	5 229 3                         @ c:/Keil_v5\ARM\PACK\Keil\STM32L5xx_DFP\1.3.0\Drivers\STM32L5xx_HAL_Driver\Src\stm32l5xx_hal_uart_ex.c:229:3
	ldr	r0, [r1, #8]
	bic	r0, r0, #32768
	orrs	r0, r7
	str	r0, [r1, #8]
.Ltmp16:
	@DEBUG_VALUE: HAL_RS485Ex_Init:temp <- undef
	.loc	5 233 28                        @ c:/Keil_v5\ARM\PACK\Keil\STM32L5xx_DFP\1.3.0\Drivers\STM32L5xx_HAL_Driver\Src\stm32l5xx_hal_uart_ex.c:233:28
	lsls	r0, r6, #16
	.loc	5 234 3                         @ c:/Keil_v5\ARM\PACK\Keil\STM32L5xx_DFP\1.3.0\Drivers\STM32L5xx_HAL_Driver\Src\stm32l5xx_hal_uart_ex.c:234:3
	ldr	r2, [r1]
	.loc	5 233 8                         @ c:/Keil_v5\ARM\PACK\Keil\STM32L5xx_DFP\1.3.0\Drivers\STM32L5xx_HAL_Driver\Src\stm32l5xx_hal_uart_ex.c:233:8
	orr.w	r0, r0, r5, lsl #21
.Ltmp17:
	@DEBUG_VALUE: HAL_RS485Ex_Init:temp <- $r0
	.loc	5 234 3                         @ c:/Keil_v5\ARM\PACK\Keil\STM32L5xx_DFP\1.3.0\Drivers\STM32L5xx_HAL_Driver\Src\stm32l5xx_hal_uart_ex.c:234:3
	bfc	r2, #16, #10
	orrs	r0, r2
.Ltmp18:
	str	r0, [r1]
	.loc	5 237 3                         @ c:/Keil_v5\ARM\PACK\Keil\STM32L5xx_DFP\1.3.0\Drivers\STM32L5xx_HAL_Driver\Src\stm32l5xx_hal_uart_ex.c:237:3
	ldr	r0, [r1]
	orr	r2, r0, #1
	.loc	5 240 11                        @ c:/Keil_v5\ARM\PACK\Keil\STM32L5xx_DFP\1.3.0\Drivers\STM32L5xx_HAL_Driver\Src\stm32l5xx_hal_uart_ex.c:240:11
	mov	r0, r4
	.loc	5 237 3                         @ c:/Keil_v5\ARM\PACK\Keil\STM32L5xx_DFP\1.3.0\Drivers\STM32L5xx_HAL_Driver\Src\stm32l5xx_hal_uart_ex.c:237:3
	str	r2, [r1]
	.loc	5 240 11                        @ c:/Keil_v5\ARM\PACK\Keil\STM32L5xx_DFP\1.3.0\Drivers\STM32L5xx_HAL_Driver\Src\stm32l5xx_hal_uart_ex.c:240:11
	add	sp, #4
	pop.w	{r4, r5, r6, r7, lr}
.Ltmp19:
	@DEBUG_VALUE: HAL_RS485Ex_Init:Polarity <- [DW_OP_LLVM_entry_value 1] $r1
	@DEBUG_VALUE: HAL_RS485Ex_Init:DeassertionTime <- [DW_OP_LLVM_entry_value 1] $r3
	@DEBUG_VALUE: HAL_RS485Ex_Init:AssertionTime <- [DW_OP_LLVM_entry_value 1] $r2
	@DEBUG_VALUE: HAL_RS485Ex_Init:huart <- [DW_OP_LLVM_entry_value 1] $r0
	b	UART_CheckIdleState
.Ltmp20:
.Lfunc_end0:
	.size	HAL_RS485Ex_Init, .Lfunc_end0-HAL_RS485Ex_Init
	.cfi_endproc
	.cantunwind
	.fnend
                                        @ -- End function
	.section	.text.HAL_UARTEx_WakeupCallback,"ax",%progbits
	.hidden	HAL_UARTEx_WakeupCallback       @ -- Begin function HAL_UARTEx_WakeupCallback
	.weak	HAL_UARTEx_WakeupCallback
	.p2align	2
	.type	HAL_UARTEx_WakeupCallback,%function
	.code	16                              @ @HAL_UARTEx_WakeupCallback
	.thumb_func
HAL_UARTEx_WakeupCallback:
.Lfunc_begin1:
	.loc	5 273 0                         @ c:/Keil_v5\ARM\PACK\Keil\STM32L5xx_DFP\1.3.0\Drivers\STM32L5xx_HAL_Driver\Src\stm32l5xx_hal_uart_ex.c:273:0
	.fnstart
	.cfi_startproc
@ %bb.0:
	@DEBUG_VALUE: HAL_UARTEx_WakeupCallback:huart <- $r0
	.loc	5 280 1 prologue_end            @ c:/Keil_v5\ARM\PACK\Keil\STM32L5xx_DFP\1.3.0\Drivers\STM32L5xx_HAL_Driver\Src\stm32l5xx_hal_uart_ex.c:280:1
	bx	lr
.Ltmp21:
.Lfunc_end1:
	.size	HAL_UARTEx_WakeupCallback, .Lfunc_end1-HAL_UARTEx_WakeupCallback
	.cfi_endproc
	.cantunwind
	.fnend
                                        @ -- End function
	.section	.text.HAL_UARTEx_RxFifoFullCallback,"ax",%progbits
	.hidden	HAL_UARTEx_RxFifoFullCallback   @ -- Begin function HAL_UARTEx_RxFifoFullCallback
	.weak	HAL_UARTEx_RxFifoFullCallback
	.p2align	2
	.type	HAL_UARTEx_RxFifoFullCallback,%function
	.code	16                              @ @HAL_UARTEx_RxFifoFullCallback
	.thumb_func
HAL_UARTEx_RxFifoFullCallback:
.Lfunc_begin2:
	.loc	5 288 0                         @ c:/Keil_v5\ARM\PACK\Keil\STM32L5xx_DFP\1.3.0\Drivers\STM32L5xx_HAL_Driver\Src\stm32l5xx_hal_uart_ex.c:288:0
	.fnstart
	.cfi_startproc
@ %bb.0:
	@DEBUG_VALUE: HAL_UARTEx_RxFifoFullCallback:huart <- $r0
	.loc	5 295 1 prologue_end            @ c:/Keil_v5\ARM\PACK\Keil\STM32L5xx_DFP\1.3.0\Drivers\STM32L5xx_HAL_Driver\Src\stm32l5xx_hal_uart_ex.c:295:1
	bx	lr
.Ltmp22:
.Lfunc_end2:
	.size	HAL_UARTEx_RxFifoFullCallback, .Lfunc_end2-HAL_UARTEx_RxFifoFullCallback
	.cfi_endproc
	.cantunwind
	.fnend
                                        @ -- End function
	.section	.text.HAL_UARTEx_TxFifoEmptyCallback,"ax",%progbits
	.hidden	HAL_UARTEx_TxFifoEmptyCallback  @ -- Begin function HAL_UARTEx_TxFifoEmptyCallback
	.weak	HAL_UARTEx_TxFifoEmptyCallback
	.p2align	2
	.type	HAL_UARTEx_TxFifoEmptyCallback,%function
	.code	16                              @ @HAL_UARTEx_TxFifoEmptyCallback
	.thumb_func
HAL_UARTEx_TxFifoEmptyCallback:
.Lfunc_begin3:
	.loc	5 303 0                         @ c:/Keil_v5\ARM\PACK\Keil\STM32L5xx_DFP\1.3.0\Drivers\STM32L5xx_HAL_Driver\Src\stm32l5xx_hal_uart_ex.c:303:0
	.fnstart
	.cfi_startproc
@ %bb.0:
	@DEBUG_VALUE: HAL_UARTEx_TxFifoEmptyCallback:huart <- $r0
	.loc	5 310 1 prologue_end            @ c:/Keil_v5\ARM\PACK\Keil\STM32L5xx_DFP\1.3.0\Drivers\STM32L5xx_HAL_Driver\Src\stm32l5xx_hal_uart_ex.c:310:1
	bx	lr
.Ltmp23:
.Lfunc_end3:
	.size	HAL_UARTEx_TxFifoEmptyCallback, .Lfunc_end3-HAL_UARTEx_TxFifoEmptyCallback
	.cfi_endproc
	.cantunwind
	.fnend
                                        @ -- End function
	.section	.text.HAL_MultiProcessorEx_AddressLength_Set,"ax",%progbits
	.hidden	HAL_MultiProcessorEx_AddressLength_Set @ -- Begin function HAL_MultiProcessorEx_AddressLength_Set
	.globl	HAL_MultiProcessorEx_AddressLength_Set
	.p2align	2
	.type	HAL_MultiProcessorEx_AddressLength_Set,%function
	.code	16                              @ @HAL_MultiProcessorEx_AddressLength_Set
	.thumb_func
HAL_MultiProcessorEx_AddressLength_Set:
.Lfunc_begin4:
	.loc	5 388 0                         @ c:/Keil_v5\ARM\PACK\Keil\STM32L5xx_DFP\1.3.0\Drivers\STM32L5xx_HAL_Driver\Src\stm32l5xx_hal_uart_ex.c:388:0
	.fnstart
	.cfi_startproc
@ %bb.0:
	@DEBUG_VALUE: HAL_MultiProcessorEx_AddressLength_Set:huart <- $r0
	@DEBUG_VALUE: HAL_MultiProcessorEx_AddressLength_Set:huart <- $r0
	@DEBUG_VALUE: HAL_MultiProcessorEx_AddressLength_Set:AddressLength <- $r1
	.loc	5 390 7 prologue_end            @ c:/Keil_v5\ARM\PACK\Keil\STM32L5xx_DFP\1.3.0\Drivers\STM32L5xx_HAL_Driver\Src\stm32l5xx_hal_uart_ex.c:390:7
	cmp	r0, #0
	@DEBUG_VALUE: HAL_MultiProcessorEx_AddressLength_Set:AddressLength <- $r1
	.loc	5 411 1                         @ c:/Keil_v5\ARM\PACK\Keil\STM32L5xx_DFP\1.3.0\Drivers\STM32L5xx_HAL_Driver\Src\stm32l5xx_hal_uart_ex.c:411:1
	itt	eq
	moveq	r0, #1
.Ltmp24:
	@DEBUG_VALUE: HAL_MultiProcessorEx_AddressLength_Set:huart <- [DW_OP_LLVM_entry_value 1] $r0
	bxeq	lr
.Ltmp25:
.LBB4_1:
	@DEBUG_VALUE: HAL_MultiProcessorEx_AddressLength_Set:AddressLength <- $r1
	@DEBUG_VALUE: HAL_MultiProcessorEx_AddressLength_Set:huart <- [DW_OP_LLVM_entry_value 1] $r0
	.loc	5 0 1 is_stmt 0                 @ c:/Keil_v5\ARM\PACK\Keil\STM32L5xx_DFP\1.3.0\Drivers\STM32L5xx_HAL_Driver\Src\stm32l5xx_hal_uart_ex.c:0:1
	movs	r2, #36
	.loc	5 398 17 is_stmt 1              @ c:/Keil_v5\ARM\PACK\Keil\STM32L5xx_DFP\1.3.0\Drivers\STM32L5xx_HAL_Driver\Src\stm32l5xx_hal_uart_ex.c:398:17
	str.w	r2, [r0, #132]
	.loc	5 401 3                         @ c:/Keil_v5\ARM\PACK\Keil\STM32L5xx_DFP\1.3.0\Drivers\STM32L5xx_HAL_Driver\Src\stm32l5xx_hal_uart_ex.c:401:3
	ldr	r2, [r0]
	ldr	r3, [r2]
	bic	r3, r3, #1
	str	r3, [r2]
	.loc	5 404 3                         @ c:/Keil_v5\ARM\PACK\Keil\STM32L5xx_DFP\1.3.0\Drivers\STM32L5xx_HAL_Driver\Src\stm32l5xx_hal_uart_ex.c:404:3
	ldr	r3, [r2, #4]
	bic	r3, r3, #16
	orrs	r1, r3
.Ltmp26:
	@DEBUG_VALUE: HAL_MultiProcessorEx_AddressLength_Set:AddressLength <- [DW_OP_LLVM_entry_value 1] $r1
	str	r1, [r2, #4]
	.loc	5 407 3                         @ c:/Keil_v5\ARM\PACK\Keil\STM32L5xx_DFP\1.3.0\Drivers\STM32L5xx_HAL_Driver\Src\stm32l5xx_hal_uart_ex.c:407:3
	ldr	r1, [r2]
	orr	r1, r1, #1
	str	r1, [r2]
	.loc	5 410 11                        @ c:/Keil_v5\ARM\PACK\Keil\STM32L5xx_DFP\1.3.0\Drivers\STM32L5xx_HAL_Driver\Src\stm32l5xx_hal_uart_ex.c:410:11
	b	UART_CheckIdleState
.Ltmp27:
.Lfunc_end4:
	.size	HAL_MultiProcessorEx_AddressLength_Set, .Lfunc_end4-HAL_MultiProcessorEx_AddressLength_Set
	.cfi_endproc
	.cantunwind
	.fnend
                                        @ -- End function
	.section	.text.HAL_UARTEx_StopModeWakeUpSourceConfig,"ax",%progbits
	.hidden	HAL_UARTEx_StopModeWakeUpSourceConfig @ -- Begin function HAL_UARTEx_StopModeWakeUpSourceConfig
	.globl	HAL_UARTEx_StopModeWakeUpSourceConfig
	.p2align	2
	.type	HAL_UARTEx_StopModeWakeUpSourceConfig,%function
	.code	16                              @ @HAL_UARTEx_StopModeWakeUpSourceConfig
	.thumb_func
HAL_UARTEx_StopModeWakeUpSourceConfig:
.Lfunc_begin5:
	.loc	5 426 0                         @ c:/Keil_v5\ARM\PACK\Keil\STM32L5xx_DFP\1.3.0\Drivers\STM32L5xx_HAL_Driver\Src\stm32l5xx_hal_uart_ex.c:426:0
	.fnstart
	.cfi_startproc
@ %bb.0:
	@DEBUG_VALUE: HAL_UARTEx_StopModeWakeUpSourceConfig:huart <- $r0
	.save	{r4, r5, r7, lr}
	push	{r4, r5, r7, lr}
	.cfi_def_cfa_offset 16
	.cfi_offset lr, -4
	.cfi_offset r7, -8
	.cfi_offset r5, -12
	.cfi_offset r4, -16
	.pad	#8
	sub	sp, #8
	.cfi_def_cfa_offset 24
	mov	r4, r0
.Ltmp28:
	@DEBUG_VALUE: HAL_UARTEx_StopModeWakeUpSourceConfig:status <- 0
	@DEBUG_VALUE: HAL_UARTEx_StopModeWakeUpSourceConfig:WakeUpSelection <- [DW_OP_LLVM_fragment 32 32] undef
	@DEBUG_VALUE: HAL_UARTEx_StopModeWakeUpSourceConfig:WakeUpSelection <- [DW_OP_LLVM_fragment 0 32] undef
	@DEBUG_VALUE: HAL_UARTEx_StopModeWakeUpSourceConfig:huart <- $r4
	.loc	5 436 3 prologue_end            @ c:/Keil_v5\ARM\PACK\Keil\STM32L5xx_DFP\1.3.0\Drivers\STM32L5xx_HAL_Driver\Src\stm32l5xx_hal_uart_ex.c:436:3
	ldrb.w	r0, [r0, #128]
.Ltmp29:
	.loc	5 436 3 is_stmt 0               @ c:/Keil_v5\ARM\PACK\Keil\STM32L5xx_DFP\1.3.0\Drivers\STM32L5xx_HAL_Driver\Src\stm32l5xx_hal_uart_ex.c:436:3
	cmp	r0, #1
	ittt	eq
	moveq	r0, #2
.Ltmp30:
	.loc	5 472 1 is_stmt 1               @ c:/Keil_v5\ARM\PACK\Keil\STM32L5xx_DFP\1.3.0\Drivers\STM32L5xx_HAL_Driver\Src\stm32l5xx_hal_uart_ex.c:472:1
	addeq	sp, #8
	popeq	{r4, r5, r7, pc}
.Ltmp31:
.LBB5_1:
	@DEBUG_VALUE: HAL_UARTEx_StopModeWakeUpSourceConfig:status <- 0
	.loc	5 0 1 is_stmt 0                 @ c:/Keil_v5\ARM\PACK\Keil\STM32L5xx_DFP\1.3.0\Drivers\STM32L5xx_HAL_Driver\Src\stm32l5xx_hal_uart_ex.c:0:1
	movs	r0, #1
.Ltmp32:
	.loc	5 436 3 is_stmt 1               @ c:/Keil_v5\ARM\PACK\Keil\STM32L5xx_DFP\1.3.0\Drivers\STM32L5xx_HAL_Driver\Src\stm32l5xx_hal_uart_ex.c:436:3
	strb.w	r0, [r4, #128]
	movs	r0, #36
.Ltmp33:
	.loc	5 438 17                        @ c:/Keil_v5\ARM\PACK\Keil\STM32L5xx_DFP\1.3.0\Drivers\STM32L5xx_HAL_Driver\Src\stm32l5xx_hal_uart_ex.c:438:17
	str.w	r0, [r4, #132]
	.loc	5 441 3                         @ c:/Keil_v5\ARM\PACK\Keil\STM32L5xx_DFP\1.3.0\Drivers\STM32L5xx_HAL_Driver\Src\stm32l5xx_hal_uart_ex.c:441:3
	ldr	r0, [r4]
	ldr	r3, [r0]
	bic	r3, r3, #1
	str	r3, [r0]
	.loc	5 444 3                         @ c:/Keil_v5\ARM\PACK\Keil\STM32L5xx_DFP\1.3.0\Drivers\STM32L5xx_HAL_Driver\Src\stm32l5xx_hal_uart_ex.c:444:3
	ldr	r3, [r0, #8]
	bic	r3, r3, #3145728
	orr.w	r3, r3, r1
	str	r3, [r0, #8]
	.loc	5 446 7                         @ c:/Keil_v5\ARM\PACK\Keil\STM32L5xx_DFP\1.3.0\Drivers\STM32L5xx_HAL_Driver\Src\stm32l5xx_hal_uart_ex.c:446:7
	cbnz	r1, .LBB5_3
.Ltmp34:
@ %bb.2:
	@DEBUG_VALUE: HAL_UARTEx_StopModeWakeUpSourceConfig:status <- 0
	@DEBUG_VALUE: UARTEx_Wakeup_AddressConfig:WakeUpSelection <- [DW_OP_LLVM_fragment 0 32] undef
	@DEBUG_VALUE: UARTEx_Wakeup_AddressConfig:WakeUpSelection <- [DW_OP_LLVM_convert 32 7, DW_OP_LLVM_convert 16 7, DW_OP_stack_value, DW_OP_LLVM_fragment 32 16] $r2
	@DEBUG_VALUE: UARTEx_Wakeup_AddressConfig:WakeUpSelection <- [DW_OP_constu 16, DW_OP_shr, DW_OP_LLVM_convert 32 7, DW_OP_LLVM_convert 8 7, DW_OP_stack_value, DW_OP_LLVM_fragment 48 8] $r2
	@DEBUG_VALUE: UARTEx_Wakeup_AddressConfig:WakeUpSelection <- [DW_OP_constu 24, DW_OP_shr, DW_OP_LLVM_convert 32 7, DW_OP_LLVM_convert 8 7, DW_OP_stack_value, DW_OP_LLVM_fragment 56 8] $r2
	@DEBUG_VALUE: UARTEx_Wakeup_AddressConfig:huart <- undef
	.loc	5 961 3                         @ c:/Keil_v5\ARM\PACK\Keil\STM32L5xx_DFP\1.3.0\Drivers\STM32L5xx_HAL_Driver\Src\stm32l5xx_hal_uart_ex.c:961:3
	ldr	r1, [r0, #4]
	uxth	r3, r2
	bic	r1, r1, #16
	orrs	r1, r3
	str	r1, [r0, #4]
	.loc	5 964 3                         @ c:/Keil_v5\ARM\PACK\Keil\STM32L5xx_DFP\1.3.0\Drivers\STM32L5xx_HAL_Driver\Src\stm32l5xx_hal_uart_ex.c:964:3
	ldr	r1, [r0, #4]
	ubfx	r2, r2, #16, #8
.Ltmp35:
	bfi	r1, r2, #24, #8
	str	r1, [r0, #4]
.Ltmp36:
.LBB5_3:
	@DEBUG_VALUE: HAL_UARTEx_StopModeWakeUpSourceConfig:status <- 0
	.loc	5 452 3                         @ c:/Keil_v5\ARM\PACK\Keil\STM32L5xx_DFP\1.3.0\Drivers\STM32L5xx_HAL_Driver\Src\stm32l5xx_hal_uart_ex.c:452:3
	ldr	r1, [r0]
	orr	r1, r1, #1
	str	r1, [r0]
	.loc	5 455 15                        @ c:/Keil_v5\ARM\PACK\Keil\STM32L5xx_DFP\1.3.0\Drivers\STM32L5xx_HAL_Driver\Src\stm32l5xx_hal_uart_ex.c:455:15
	bl	HAL_GetTick
	mov	r3, r0
.Ltmp37:
	@DEBUG_VALUE: HAL_UARTEx_StopModeWakeUpSourceConfig:tickstart <- $r3
	.loc	5 0 15 is_stmt 0                @ c:/Keil_v5\ARM\PACK\Keil\STM32L5xx_DFP\1.3.0\Drivers\STM32L5xx_HAL_Driver\Src\stm32l5xx_hal_uart_ex.c:0:15
	mvn	r0, #-33554432
.Ltmp38:
	.loc	5 458 7 is_stmt 1               @ c:/Keil_v5\ARM\PACK\Keil\STM32L5xx_DFP\1.3.0\Drivers\STM32L5xx_HAL_Driver\Src\stm32l5xx_hal_uart_ex.c:458:7
	str	r0, [sp]
	mov	r0, r4
	mov.w	r1, #4194304
	movs	r2, #0
	movs	r5, #0
	bl	UART_WaitOnFlagUntilTimeout
.Ltmp39:
	.loc	5 458 7 is_stmt 0               @ c:/Keil_v5\ARM\PACK\Keil\STM32L5xx_DFP\1.3.0\Drivers\STM32L5xx_HAL_Driver\Src\stm32l5xx_hal_uart_ex.c:458:7
	cbz	r0, .LBB5_5
.Ltmp40:
@ %bb.4:
	@DEBUG_VALUE: HAL_UARTEx_StopModeWakeUpSourceConfig:status <- 0
	.loc	5 0 7                           @ c:/Keil_v5\ARM\PACK\Keil\STM32L5xx_DFP\1.3.0\Drivers\STM32L5xx_HAL_Driver\Src\stm32l5xx_hal_uart_ex.c:0:7
	movs	r0, #3
.Ltmp41:
	@DEBUG_VALUE: HAL_UARTEx_StopModeWakeUpSourceConfig:status <- $r0
	.loc	5 469 3 is_stmt 1               @ c:/Keil_v5\ARM\PACK\Keil\STM32L5xx_DFP\1.3.0\Drivers\STM32L5xx_HAL_Driver\Src\stm32l5xx_hal_uart_ex.c:469:3
	strb.w	r5, [r4, #128]
.Ltmp42:
	.loc	5 472 1                         @ c:/Keil_v5\ARM\PACK\Keil\STM32L5xx_DFP\1.3.0\Drivers\STM32L5xx_HAL_Driver\Src\stm32l5xx_hal_uart_ex.c:472:1
	add	sp, #8
	pop	{r4, r5, r7, pc}
.Ltmp43:
	.p2align	2
.LBB5_5:
	@DEBUG_VALUE: HAL_UARTEx_StopModeWakeUpSourceConfig:status <- 0
	.loc	5 0 1 is_stmt 0                 @ c:/Keil_v5\ARM\PACK\Keil\STM32L5xx_DFP\1.3.0\Drivers\STM32L5xx_HAL_Driver\Src\stm32l5xx_hal_uart_ex.c:0:1
	movs	r0, #32
.Ltmp44:
	.loc	5 465 19 is_stmt 1              @ c:/Keil_v5\ARM\PACK\Keil\STM32L5xx_DFP\1.3.0\Drivers\STM32L5xx_HAL_Driver\Src\stm32l5xx_hal_uart_ex.c:465:19
	str.w	r0, [r4, #132]
	movs	r0, #0
.Ltmp45:
	@DEBUG_VALUE: HAL_UARTEx_StopModeWakeUpSourceConfig:status <- $r0
	.loc	5 469 3                         @ c:/Keil_v5\ARM\PACK\Keil\STM32L5xx_DFP\1.3.0\Drivers\STM32L5xx_HAL_Driver\Src\stm32l5xx_hal_uart_ex.c:469:3
	strb.w	r5, [r4, #128]
.Ltmp46:
	.loc	5 472 1                         @ c:/Keil_v5\ARM\PACK\Keil\STM32L5xx_DFP\1.3.0\Drivers\STM32L5xx_HAL_Driver\Src\stm32l5xx_hal_uart_ex.c:472:1
	add	sp, #8
	pop	{r4, r5, r7, pc}
.Ltmp47:
.Lfunc_end5:
	.size	HAL_UARTEx_StopModeWakeUpSourceConfig, .Lfunc_end5-HAL_UARTEx_StopModeWakeUpSourceConfig
	.cfi_endproc
	.file	6 "c:/Keil_v5\\ARM\\PACK\\Keil\\STM32L5xx_DFP\\1.3.0\\Drivers\\CMSIS\\Device\\ST\\STM32L5xx\\Include" "stm32l552xx.h"
	.file	7 "c:/Keil_v5\\ARM\\PACK\\Keil\\STM32L5xx_DFP\\1.3.0\\Drivers\\STM32L5xx_HAL_Driver\\Inc" "stm32l5xx_hal_uart.h"
	.file	8 "c:/Keil_v5\\ARM\\PACK\\Keil\\STM32L5xx_DFP\\1.3.0\\Drivers\\STM32L5xx_HAL_Driver\\Inc" "stm32l5xx_hal_uart_ex.h"
	.cantunwind
	.fnend
                                        @ -- End function
	.section	.text.HAL_UARTEx_EnableStopMode,"ax",%progbits
	.hidden	HAL_UARTEx_EnableStopMode       @ -- Begin function HAL_UARTEx_EnableStopMode
	.globl	HAL_UARTEx_EnableStopMode
	.p2align	2
	.type	HAL_UARTEx_EnableStopMode,%function
	.code	16                              @ @HAL_UARTEx_EnableStopMode
	.thumb_func
HAL_UARTEx_EnableStopMode:
.Lfunc_begin6:
	.loc	5 481 0                         @ c:/Keil_v5\ARM\PACK\Keil\STM32L5xx_DFP\1.3.0\Drivers\STM32L5xx_HAL_Driver\Src\stm32l5xx_hal_uart_ex.c:481:0
	.fnstart
	.cfi_startproc
@ %bb.0:
	@DEBUG_VALUE: HAL_UARTEx_EnableStopMode:huart <- $r0
	@DEBUG_VALUE: HAL_UARTEx_EnableStopMode:huart <- $r0
	.loc	5 483 3 prologue_end            @ c:/Keil_v5\ARM\PACK\Keil\STM32L5xx_DFP\1.3.0\Drivers\STM32L5xx_HAL_Driver\Src\stm32l5xx_hal_uart_ex.c:483:3
	ldrb.w	r1, [r0, #128]
.Ltmp48:
	.loc	5 483 3 is_stmt 0               @ c:/Keil_v5\ARM\PACK\Keil\STM32L5xx_DFP\1.3.0\Drivers\STM32L5xx_HAL_Driver\Src\stm32l5xx_hal_uart_ex.c:483:3
	cmp	r1, #1
	itt	eq
	moveq	r0, #2
.Ltmp49:
	@DEBUG_VALUE: HAL_UARTEx_EnableStopMode:huart <- [DW_OP_LLVM_entry_value 1] $r0
	.loc	5 492 1 is_stmt 1               @ c:/Keil_v5\ARM\PACK\Keil\STM32L5xx_DFP\1.3.0\Drivers\STM32L5xx_HAL_Driver\Src\stm32l5xx_hal_uart_ex.c:492:1
	bxeq	lr
.Ltmp50:
.LBB6_1:
	@DEBUG_VALUE: HAL_UARTEx_EnableStopMode:huart <- [DW_OP_LLVM_entry_value 1] $r0
	.loc	5 486 3                         @ c:/Keil_v5\ARM\PACK\Keil\STM32L5xx_DFP\1.3.0\Drivers\STM32L5xx_HAL_Driver\Src\stm32l5xx_hal_uart_ex.c:486:3
	ldr	r1, [r0]
	ldr	r2, [r1]
	orr	r2, r2, #2
	str	r2, [r1]
	movs	r1, #0
.Ltmp51:
	.loc	5 489 3                         @ c:/Keil_v5\ARM\PACK\Keil\STM32L5xx_DFP\1.3.0\Drivers\STM32L5xx_HAL_Driver\Src\stm32l5xx_hal_uart_ex.c:489:3
	strb.w	r1, [r0, #128]
.Ltmp52:
	.loc	5 492 1                         @ c:/Keil_v5\ARM\PACK\Keil\STM32L5xx_DFP\1.3.0\Drivers\STM32L5xx_HAL_Driver\Src\stm32l5xx_hal_uart_ex.c:492:1
	mov	r0, r1
	bx	lr
.Ltmp53:
.Lfunc_end6:
	.size	HAL_UARTEx_EnableStopMode, .Lfunc_end6-HAL_UARTEx_EnableStopMode
	.cfi_endproc
	.cantunwind
	.fnend
                                        @ -- End function
	.section	.text.HAL_UARTEx_DisableStopMode,"ax",%progbits
	.hidden	HAL_UARTEx_DisableStopMode      @ -- Begin function HAL_UARTEx_DisableStopMode
	.globl	HAL_UARTEx_DisableStopMode
	.p2align	2
	.type	HAL_UARTEx_DisableStopMode,%function
	.code	16                              @ @HAL_UARTEx_DisableStopMode
	.thumb_func
HAL_UARTEx_DisableStopMode:
.Lfunc_begin7:
	.loc	5 500 0                         @ c:/Keil_v5\ARM\PACK\Keil\STM32L5xx_DFP\1.3.0\Drivers\STM32L5xx_HAL_Driver\Src\stm32l5xx_hal_uart_ex.c:500:0
	.fnstart
	.cfi_startproc
@ %bb.0:
	@DEBUG_VALUE: HAL_UARTEx_DisableStopMode:huart <- $r0
	@DEBUG_VALUE: HAL_UARTEx_DisableStopMode:huart <- $r0
	.loc	5 502 3 prologue_end            @ c:/Keil_v5\ARM\PACK\Keil\STM32L5xx_DFP\1.3.0\Drivers\STM32L5xx_HAL_Driver\Src\stm32l5xx_hal_uart_ex.c:502:3
	ldrb.w	r1, [r0, #128]
.Ltmp54:
	.loc	5 502 3 is_stmt 0               @ c:/Keil_v5\ARM\PACK\Keil\STM32L5xx_DFP\1.3.0\Drivers\STM32L5xx_HAL_Driver\Src\stm32l5xx_hal_uart_ex.c:502:3
	cmp	r1, #1
	itt	eq
	moveq	r0, #2
.Ltmp55:
	@DEBUG_VALUE: HAL_UARTEx_DisableStopMode:huart <- [DW_OP_LLVM_entry_value 1] $r0
	.loc	5 511 1 is_stmt 1               @ c:/Keil_v5\ARM\PACK\Keil\STM32L5xx_DFP\1.3.0\Drivers\STM32L5xx_HAL_Driver\Src\stm32l5xx_hal_uart_ex.c:511:1
	bxeq	lr
.Ltmp56:
.LBB7_1:
	@DEBUG_VALUE: HAL_UARTEx_DisableStopMode:huart <- [DW_OP_LLVM_entry_value 1] $r0
	.loc	5 505 3                         @ c:/Keil_v5\ARM\PACK\Keil\STM32L5xx_DFP\1.3.0\Drivers\STM32L5xx_HAL_Driver\Src\stm32l5xx_hal_uart_ex.c:505:3
	ldr	r1, [r0]
	ldr	r2, [r1]
	bic	r2, r2, #2
	str	r2, [r1]
	movs	r1, #0
.Ltmp57:
	.loc	5 508 3                         @ c:/Keil_v5\ARM\PACK\Keil\STM32L5xx_DFP\1.3.0\Drivers\STM32L5xx_HAL_Driver\Src\stm32l5xx_hal_uart_ex.c:508:3
	strb.w	r1, [r0, #128]
.Ltmp58:
	.loc	5 511 1                         @ c:/Keil_v5\ARM\PACK\Keil\STM32L5xx_DFP\1.3.0\Drivers\STM32L5xx_HAL_Driver\Src\stm32l5xx_hal_uart_ex.c:511:1
	mov	r0, r1
	bx	lr
.Ltmp59:
.Lfunc_end7:
	.size	HAL_UARTEx_DisableStopMode, .Lfunc_end7-HAL_UARTEx_DisableStopMode
	.cfi_endproc
	.cantunwind
	.fnend
                                        @ -- End function
	.section	.text.HAL_UARTEx_EnableFifoMode,"ax",%progbits
	.hidden	HAL_UARTEx_EnableFifoMode       @ -- Begin function HAL_UARTEx_EnableFifoMode
	.globl	HAL_UARTEx_EnableFifoMode
	.p2align	2
	.type	HAL_UARTEx_EnableFifoMode,%function
	.code	16                              @ @HAL_UARTEx_EnableFifoMode
	.thumb_func
HAL_UARTEx_EnableFifoMode:
.Lfunc_begin8:
	.loc	5 519 0                         @ c:/Keil_v5\ARM\PACK\Keil\STM32L5xx_DFP\1.3.0\Drivers\STM32L5xx_HAL_Driver\Src\stm32l5xx_hal_uart_ex.c:519:0
	.fnstart
	.cfi_startproc
@ %bb.0:
	@DEBUG_VALUE: HAL_UARTEx_EnableFifoMode:huart <- $r0
	@DEBUG_VALUE: HAL_UARTEx_EnableFifoMode:huart <- $r0
	.save	{r7, lr}
	push	{r7, lr}
	.cfi_def_cfa_offset 8
	.cfi_offset lr, -4
	.cfi_offset r7, -8
.Ltmp60:
	.loc	5 526 3 prologue_end            @ c:/Keil_v5\ARM\PACK\Keil\STM32L5xx_DFP\1.3.0\Drivers\STM32L5xx_HAL_Driver\Src\stm32l5xx_hal_uart_ex.c:526:3
	ldrb.w	r1, [r0, #128]
.Ltmp61:
	.loc	5 526 3 is_stmt 0               @ c:/Keil_v5\ARM\PACK\Keil\STM32L5xx_DFP\1.3.0\Drivers\STM32L5xx_HAL_Driver\Src\stm32l5xx_hal_uart_ex.c:526:3
	cmp	r1, #1
	itt	eq
	moveq	r0, #2
.Ltmp62:
	@DEBUG_VALUE: HAL_UARTEx_EnableFifoMode:huart <- [DW_OP_LLVM_entry_value 1] $r0
	.loc	5 552 1 is_stmt 1               @ c:/Keil_v5\ARM\PACK\Keil\STM32L5xx_DFP\1.3.0\Drivers\STM32L5xx_HAL_Driver\Src\stm32l5xx_hal_uart_ex.c:552:1
	popeq	{r7, pc}
.Ltmp63:
.LBB8_1:
	@DEBUG_VALUE: HAL_UARTEx_EnableFifoMode:huart <- [DW_OP_LLVM_entry_value 1] $r0
	.loc	5 0 1 is_stmt 0                 @ c:/Keil_v5\ARM\PACK\Keil\STM32L5xx_DFP\1.3.0\Drivers\STM32L5xx_HAL_Driver\Src\stm32l5xx_hal_uart_ex.c:0:1
	movs	r1, #36
	.loc	5 528 17 is_stmt 1              @ c:/Keil_v5\ARM\PACK\Keil\STM32L5xx_DFP\1.3.0\Drivers\STM32L5xx_HAL_Driver\Src\stm32l5xx_hal_uart_ex.c:528:17
	str.w	r1, [r0, #132]
	.loc	5 531 12                        @ c:/Keil_v5\ARM\PACK\Keil\STM32L5xx_DFP\1.3.0\Drivers\STM32L5xx_HAL_Driver\Src\stm32l5xx_hal_uart_ex.c:531:12
	ldr	r1, [r0]
.Ltmp64:
	.loc	5 994 59                        @ c:/Keil_v5\ARM\PACK\Keil\STM32L5xx_DFP\1.3.0\Drivers\STM32L5xx_HAL_Driver\Src\stm32l5xx_hal_uart_ex.c:994:59
	movw	r12, :lower16:.L__const.UARTEx_SetNbDataToProcess.numerator
.Ltmp65:
	.loc	5 531 12                        @ c:/Keil_v5\ARM\PACK\Keil\STM32L5xx_DFP\1.3.0\Drivers\STM32L5xx_HAL_Driver\Src\stm32l5xx_hal_uart_ex.c:531:12
	ldr	r2, [r1]
.Ltmp66:
	@DEBUG_VALUE: HAL_UARTEx_EnableFifoMode:tmpcr1 <- $r2
	.loc	5 534 3                         @ c:/Keil_v5\ARM\PACK\Keil\STM32L5xx_DFP\1.3.0\Drivers\STM32L5xx_HAL_Driver\Src\stm32l5xx_hal_uart_ex.c:534:3
	ldr	r3, [r1]
	.loc	5 537 3                         @ c:/Keil_v5\ARM\PACK\Keil\STM32L5xx_DFP\1.3.0\Drivers\STM32L5xx_HAL_Driver\Src\stm32l5xx_hal_uart_ex.c:537:3
	orr	r2, r2, #536870912
.Ltmp67:
	@DEBUG_VALUE: HAL_UARTEx_EnableFifoMode:tmpcr1 <- $r2
	.loc	5 534 3                         @ c:/Keil_v5\ARM\PACK\Keil\STM32L5xx_DFP\1.3.0\Drivers\STM32L5xx_HAL_Driver\Src\stm32l5xx_hal_uart_ex.c:534:3
	bic	r3, r3, #1
	str	r3, [r1]
	mov.w	r3, #536870912
	.loc	5 538 19                        @ c:/Keil_v5\ARM\PACK\Keil\STM32L5xx_DFP\1.3.0\Drivers\STM32L5xx_HAL_Driver\Src\stm32l5xx_hal_uart_ex.c:538:19
	str	r3, [r0, #100]
	.loc	5 541 3                         @ c:/Keil_v5\ARM\PACK\Keil\STM32L5xx_DFP\1.3.0\Drivers\STM32L5xx_HAL_Driver\Src\stm32l5xx_hal_uart_ex.c:541:3
	str	r2, [r1]
.Ltmp68:
	@DEBUG_VALUE: UARTEx_SetNbDataToProcess:tx_fifo_depth <- 8
	@DEBUG_VALUE: UARTEx_SetNbDataToProcess:rx_fifo_depth <- 8
	@DEBUG_VALUE: UARTEx_SetNbDataToProcess:huart <- $r0
	.loc	5 992 35                        @ c:/Keil_v5\ARM\PACK\Keil\STM32L5xx_DFP\1.3.0\Drivers\STM32L5xx_HAL_Driver\Src\stm32l5xx_hal_uart_ex.c:992:35
	ldr	r2, [r1, #8]
.Ltmp69:
	.loc	5 993 35                        @ c:/Keil_v5\ARM\PACK\Keil\STM32L5xx_DFP\1.3.0\Drivers\STM32L5xx_HAL_Driver\Src\stm32l5xx_hal_uart_ex.c:993:35
	ldr	r1, [r1, #8]
	.loc	5 994 59                        @ c:/Keil_v5\ARM\PACK\Keil\STM32L5xx_DFP\1.3.0\Drivers\STM32L5xx_HAL_Driver\Src\stm32l5xx_hal_uart_ex.c:994:59
	movt	r12, :upper16:.L__const.UARTEx_SetNbDataToProcess.numerator
	.loc	5 993 85                        @ c:/Keil_v5\ARM\PACK\Keil\STM32L5xx_DFP\1.3.0\Drivers\STM32L5xx_HAL_Driver\Src\stm32l5xx_hal_uart_ex.c:993:85
	lsrs	r1, r1, #29
.Ltmp70:
	@DEBUG_VALUE: UARTEx_SetNbDataToProcess:tx_fifo_threshold <- $r1
	.loc	5 994 101                       @ c:/Keil_v5\ARM\PACK\Keil\STM32L5xx_DFP\1.3.0\Drivers\STM32L5xx_HAL_Driver\Src\stm32l5xx_hal_uart_ex.c:994:101
	movw	lr, :lower16:.L__const.UARTEx_SetNbDataToProcess.denominator
	.loc	5 994 59 is_stmt 0              @ c:/Keil_v5\ARM\PACK\Keil\STM32L5xx_DFP\1.3.0\Drivers\STM32L5xx_HAL_Driver\Src\stm32l5xx_hal_uart_ex.c:994:59
	ldrb.w	r3, [r12, r1]
	.loc	5 994 101                       @ c:/Keil_v5\ARM\PACK\Keil\STM32L5xx_DFP\1.3.0\Drivers\STM32L5xx_HAL_Driver\Src\stm32l5xx_hal_uart_ex.c:994:101
	movt	lr, :upper16:.L__const.UARTEx_SetNbDataToProcess.denominator
	.loc	5 992 25 is_stmt 1              @ c:/Keil_v5\ARM\PACK\Keil\STM32L5xx_DFP\1.3.0\Drivers\STM32L5xx_HAL_Driver\Src\stm32l5xx_hal_uart_ex.c:992:25
	ubfx	r2, r2, #25, #3
.Ltmp71:
	@DEBUG_VALUE: UARTEx_SetNbDataToProcess:rx_fifo_threshold <- [DW_OP_LLVM_convert 32 7, DW_OP_LLVM_convert 8 7, DW_OP_constu 7, DW_OP_and, DW_OP_stack_value] undef
	.loc	5 994 101                       @ c:/Keil_v5\ARM\PACK\Keil\STM32L5xx_DFP\1.3.0\Drivers\STM32L5xx_HAL_Driver\Src\stm32l5xx_hal_uart_ex.c:994:101
	ldrb.w	r1, [lr, r1]
.Ltmp72:
	.loc	5 994 57 is_stmt 0              @ c:/Keil_v5\ARM\PACK\Keil\STM32L5xx_DFP\1.3.0\Drivers\STM32L5xx_HAL_Driver\Src\stm32l5xx_hal_uart_ex.c:994:57
	lsls	r3, r3, #3
	.loc	5 994 89                        @ c:/Keil_v5\ARM\PACK\Keil\STM32L5xx_DFP\1.3.0\Drivers\STM32L5xx_HAL_Driver\Src\stm32l5xx_hal_uart_ex.c:994:89
	udiv	r1, r3, r1
	.loc	5 995 59 is_stmt 1              @ c:/Keil_v5\ARM\PACK\Keil\STM32L5xx_DFP\1.3.0\Drivers\STM32L5xx_HAL_Driver\Src\stm32l5xx_hal_uart_ex.c:995:59
	ldrb.w	r3, [r12, r2]
	.loc	5 995 101 is_stmt 0             @ c:/Keil_v5\ARM\PACK\Keil\STM32L5xx_DFP\1.3.0\Drivers\STM32L5xx_HAL_Driver\Src\stm32l5xx_hal_uart_ex.c:995:101
	ldrb.w	r2, [lr, r2]
	.loc	5 995 57                        @ c:/Keil_v5\ARM\PACK\Keil\STM32L5xx_DFP\1.3.0\Drivers\STM32L5xx_HAL_Driver\Src\stm32l5xx_hal_uart_ex.c:995:57
	lsls	r3, r3, #3
	.loc	5 995 89                        @ c:/Keil_v5\ARM\PACK\Keil\STM32L5xx_DFP\1.3.0\Drivers\STM32L5xx_HAL_Driver\Src\stm32l5xx_hal_uart_ex.c:995:89
	udiv	r2, r3, r2
.Ltmp73:
	.loc	5 985 30 is_stmt 1              @ c:/Keil_v5\ARM\PACK\Keil\STM32L5xx_DFP\1.3.0\Drivers\STM32L5xx_HAL_Driver\Src\stm32l5xx_hal_uart_ex.c:985:30
	strh.w	r1, [r0, #106]
	movs	r1, #32
	.loc	5 986 30                        @ c:/Keil_v5\ARM\PACK\Keil\STM32L5xx_DFP\1.3.0\Drivers\STM32L5xx_HAL_Driver\Src\stm32l5xx_hal_uart_ex.c:986:30
	strh.w	r2, [r0, #104]
.Ltmp74:
	.loc	5 546 17                        @ c:/Keil_v5\ARM\PACK\Keil\STM32L5xx_DFP\1.3.0\Drivers\STM32L5xx_HAL_Driver\Src\stm32l5xx_hal_uart_ex.c:546:17
	str.w	r1, [r0, #132]
	movs	r1, #0
.Ltmp75:
	.loc	5 549 3                         @ c:/Keil_v5\ARM\PACK\Keil\STM32L5xx_DFP\1.3.0\Drivers\STM32L5xx_HAL_Driver\Src\stm32l5xx_hal_uart_ex.c:549:3
	strb.w	r1, [r0, #128]
.Ltmp76:
	.loc	5 552 1                         @ c:/Keil_v5\ARM\PACK\Keil\STM32L5xx_DFP\1.3.0\Drivers\STM32L5xx_HAL_Driver\Src\stm32l5xx_hal_uart_ex.c:552:1
	mov	r0, r1
.Ltmp77:
	pop	{r7, pc}
.Ltmp78:
.Lfunc_end8:
	.size	HAL_UARTEx_EnableFifoMode, .Lfunc_end8-HAL_UARTEx_EnableFifoMode
	.cfi_endproc
	.cantunwind
	.fnend
                                        @ -- End function
	.section	.text.HAL_UARTEx_DisableFifoMode,"ax",%progbits
	.hidden	HAL_UARTEx_DisableFifoMode      @ -- Begin function HAL_UARTEx_DisableFifoMode
	.globl	HAL_UARTEx_DisableFifoMode
	.p2align	2
	.type	HAL_UARTEx_DisableFifoMode,%function
	.code	16                              @ @HAL_UARTEx_DisableFifoMode
	.thumb_func
HAL_UARTEx_DisableFifoMode:
.Lfunc_begin9:
	.loc	5 560 0                         @ c:/Keil_v5\ARM\PACK\Keil\STM32L5xx_DFP\1.3.0\Drivers\STM32L5xx_HAL_Driver\Src\stm32l5xx_hal_uart_ex.c:560:0
	.fnstart
	.cfi_startproc
@ %bb.0:
	@DEBUG_VALUE: HAL_UARTEx_DisableFifoMode:huart <- $r0
	@DEBUG_VALUE: HAL_UARTEx_DisableFifoMode:huart <- $r0
	.loc	5 567 3 prologue_end            @ c:/Keil_v5\ARM\PACK\Keil\STM32L5xx_DFP\1.3.0\Drivers\STM32L5xx_HAL_Driver\Src\stm32l5xx_hal_uart_ex.c:567:3
	ldrb.w	r1, [r0, #128]
.Ltmp79:
	.loc	5 567 3 is_stmt 0               @ c:/Keil_v5\ARM\PACK\Keil\STM32L5xx_DFP\1.3.0\Drivers\STM32L5xx_HAL_Driver\Src\stm32l5xx_hal_uart_ex.c:567:3
	cmp	r1, #1
	itt	eq
	moveq	r0, #2
.Ltmp80:
	@DEBUG_VALUE: HAL_UARTEx_DisableFifoMode:huart <- [DW_OP_LLVM_entry_value 1] $r0
	.loc	5 590 1 is_stmt 1               @ c:/Keil_v5\ARM\PACK\Keil\STM32L5xx_DFP\1.3.0\Drivers\STM32L5xx_HAL_Driver\Src\stm32l5xx_hal_uart_ex.c:590:1
	bxeq	lr
.Ltmp81:
.LBB9_1:
	@DEBUG_VALUE: HAL_UARTEx_DisableFifoMode:huart <- [DW_OP_LLVM_entry_value 1] $r0
	.loc	5 0 1 is_stmt 0                 @ c:/Keil_v5\ARM\PACK\Keil\STM32L5xx_DFP\1.3.0\Drivers\STM32L5xx_HAL_Driver\Src\stm32l5xx_hal_uart_ex.c:0:1
	movs	r1, #36
	.loc	5 569 17 is_stmt 1              @ c:/Keil_v5\ARM\PACK\Keil\STM32L5xx_DFP\1.3.0\Drivers\STM32L5xx_HAL_Driver\Src\stm32l5xx_hal_uart_ex.c:569:17
	str.w	r1, [r0, #132]
	.loc	5 572 12                        @ c:/Keil_v5\ARM\PACK\Keil\STM32L5xx_DFP\1.3.0\Drivers\STM32L5xx_HAL_Driver\Src\stm32l5xx_hal_uart_ex.c:572:12
	ldr	r2, [r0]
	ldr	r1, [r2]
.Ltmp82:
	@DEBUG_VALUE: HAL_UARTEx_DisableFifoMode:tmpcr1 <- $r1
	.loc	5 575 3                         @ c:/Keil_v5\ARM\PACK\Keil\STM32L5xx_DFP\1.3.0\Drivers\STM32L5xx_HAL_Driver\Src\stm32l5xx_hal_uart_ex.c:575:3
	ldr	r3, [r2]
	bic	r3, r3, #1
	str	r3, [r2]
	.loc	5 578 3                         @ c:/Keil_v5\ARM\PACK\Keil\STM32L5xx_DFP\1.3.0\Drivers\STM32L5xx_HAL_Driver\Src\stm32l5xx_hal_uart_ex.c:578:3
	bic	r3, r1, #536870912
.Ltmp83:
	@DEBUG_VALUE: HAL_UARTEx_DisableFifoMode:tmpcr1 <- $r3
	.loc	5 0 3 is_stmt 0                 @ c:/Keil_v5\ARM\PACK\Keil\STM32L5xx_DFP\1.3.0\Drivers\STM32L5xx_HAL_Driver\Src\stm32l5xx_hal_uart_ex.c:0:3
	movs	r1, #0
	.loc	5 579 19 is_stmt 1              @ c:/Keil_v5\ARM\PACK\Keil\STM32L5xx_DFP\1.3.0\Drivers\STM32L5xx_HAL_Driver\Src\stm32l5xx_hal_uart_ex.c:579:19
	str	r1, [r0, #100]
	.loc	5 582 3                         @ c:/Keil_v5\ARM\PACK\Keil\STM32L5xx_DFP\1.3.0\Drivers\STM32L5xx_HAL_Driver\Src\stm32l5xx_hal_uart_ex.c:582:3
	str	r3, [r2]
	movs	r2, #32
	.loc	5 584 17                        @ c:/Keil_v5\ARM\PACK\Keil\STM32L5xx_DFP\1.3.0\Drivers\STM32L5xx_HAL_Driver\Src\stm32l5xx_hal_uart_ex.c:584:17
	str.w	r2, [r0, #132]
.Ltmp84:
	.loc	5 587 3                         @ c:/Keil_v5\ARM\PACK\Keil\STM32L5xx_DFP\1.3.0\Drivers\STM32L5xx_HAL_Driver\Src\stm32l5xx_hal_uart_ex.c:587:3
	strb.w	r1, [r0, #128]
.Ltmp85:
	.loc	5 590 1                         @ c:/Keil_v5\ARM\PACK\Keil\STM32L5xx_DFP\1.3.0\Drivers\STM32L5xx_HAL_Driver\Src\stm32l5xx_hal_uart_ex.c:590:1
	mov	r0, r1
	bx	lr
.Ltmp86:
.Lfunc_end9:
	.size	HAL_UARTEx_DisableFifoMode, .Lfunc_end9-HAL_UARTEx_DisableFifoMode
	.cfi_endproc
	.cantunwind
	.fnend
                                        @ -- End function
	.section	.text.HAL_UARTEx_SetTxFifoThreshold,"ax",%progbits
	.hidden	HAL_UARTEx_SetTxFifoThreshold   @ -- Begin function HAL_UARTEx_SetTxFifoThreshold
	.globl	HAL_UARTEx_SetTxFifoThreshold
	.p2align	2
	.type	HAL_UARTEx_SetTxFifoThreshold,%function
	.code	16                              @ @HAL_UARTEx_SetTxFifoThreshold
	.thumb_func
HAL_UARTEx_SetTxFifoThreshold:
.Lfunc_begin10:
	.loc	5 606 0                         @ c:/Keil_v5\ARM\PACK\Keil\STM32L5xx_DFP\1.3.0\Drivers\STM32L5xx_HAL_Driver\Src\stm32l5xx_hal_uart_ex.c:606:0
	.fnstart
	.cfi_startproc
@ %bb.0:
	@DEBUG_VALUE: HAL_UARTEx_SetTxFifoThreshold:huart <- $r0
	@DEBUG_VALUE: HAL_UARTEx_SetTxFifoThreshold:huart <- $r0
	@DEBUG_VALUE: HAL_UARTEx_SetTxFifoThreshold:Threshold <- $r1
	.save	{r4, r5, r7, lr}
	push	{r4, r5, r7, lr}
	.cfi_def_cfa_offset 16
	.cfi_offset lr, -4
	.cfi_offset r7, -8
	.cfi_offset r5, -12
	.cfi_offset r4, -16
.Ltmp87:
	.loc	5 614 3 prologue_end            @ c:/Keil_v5\ARM\PACK\Keil\STM32L5xx_DFP\1.3.0\Drivers\STM32L5xx_HAL_Driver\Src\stm32l5xx_hal_uart_ex.c:614:3
	ldrb.w	r2, [r0, #128]
.Ltmp88:
	.loc	5 614 3 is_stmt 0               @ c:/Keil_v5\ARM\PACK\Keil\STM32L5xx_DFP\1.3.0\Drivers\STM32L5xx_HAL_Driver\Src\stm32l5xx_hal_uart_ex.c:614:3
	cmp	r2, #1
	@DEBUG_VALUE: HAL_UARTEx_SetTxFifoThreshold:Threshold <- $r1
	itt	eq
	moveq	r0, #2
.Ltmp89:
	@DEBUG_VALUE: HAL_UARTEx_SetTxFifoThreshold:huart <- [DW_OP_LLVM_entry_value 1] $r0
	.loc	5 639 1 is_stmt 1               @ c:/Keil_v5\ARM\PACK\Keil\STM32L5xx_DFP\1.3.0\Drivers\STM32L5xx_HAL_Driver\Src\stm32l5xx_hal_uart_ex.c:639:1
	popeq	{r4, r5, r7, pc}
.Ltmp90:
.LBB10_1:
	@DEBUG_VALUE: HAL_UARTEx_SetTxFifoThreshold:Threshold <- $r1
	@DEBUG_VALUE: HAL_UARTEx_SetTxFifoThreshold:huart <- [DW_OP_LLVM_entry_value 1] $r0
	.loc	5 0 1 is_stmt 0                 @ c:/Keil_v5\ARM\PACK\Keil\STM32L5xx_DFP\1.3.0\Drivers\STM32L5xx_HAL_Driver\Src\stm32l5xx_hal_uart_ex.c:0:1
	movs	r2, #36
	.loc	5 616 17 is_stmt 1              @ c:/Keil_v5\ARM\PACK\Keil\STM32L5xx_DFP\1.3.0\Drivers\STM32L5xx_HAL_Driver\Src\stm32l5xx_hal_uart_ex.c:616:17
	str.w	r2, [r0, #132]
	.loc	5 619 12                        @ c:/Keil_v5\ARM\PACK\Keil\STM32L5xx_DFP\1.3.0\Drivers\STM32L5xx_HAL_Driver\Src\stm32l5xx_hal_uart_ex.c:619:12
	ldr	r2, [r0]
.Ltmp91:
	@DEBUG_VALUE: UARTEx_SetNbDataToProcess:huart <- $r0
	.loc	5 983 14                        @ c:/Keil_v5\ARM\PACK\Keil\STM32L5xx_DFP\1.3.0\Drivers\STM32L5xx_HAL_Driver\Src\stm32l5xx_hal_uart_ex.c:983:14
	ldr.w	lr, [r0, #100]
.Ltmp92:
	.loc	5 619 12                        @ c:/Keil_v5\ARM\PACK\Keil\STM32L5xx_DFP\1.3.0\Drivers\STM32L5xx_HAL_Driver\Src\stm32l5xx_hal_uart_ex.c:619:12
	ldr.w	r12, [r2]
.Ltmp93:
	@DEBUG_VALUE: HAL_UARTEx_SetTxFifoThreshold:tmpcr1 <- $r12
	.loc	5 622 3                         @ c:/Keil_v5\ARM\PACK\Keil\STM32L5xx_DFP\1.3.0\Drivers\STM32L5xx_HAL_Driver\Src\stm32l5xx_hal_uart_ex.c:622:3
	ldr	r3, [r2]
.Ltmp94:
	.loc	5 983 7                         @ c:/Keil_v5\ARM\PACK\Keil\STM32L5xx_DFP\1.3.0\Drivers\STM32L5xx_HAL_Driver\Src\stm32l5xx_hal_uart_ex.c:983:7
	cmp.w	lr, #0
.Ltmp95:
	@DEBUG_VALUE: UARTEx_SetNbDataToProcess:huart <- $r0
	.loc	5 622 3                         @ c:/Keil_v5\ARM\PACK\Keil\STM32L5xx_DFP\1.3.0\Drivers\STM32L5xx_HAL_Driver\Src\stm32l5xx_hal_uart_ex.c:622:3
	bic	r3, r3, #1
	str	r3, [r2]
	.loc	5 625 3                         @ c:/Keil_v5\ARM\PACK\Keil\STM32L5xx_DFP\1.3.0\Drivers\STM32L5xx_HAL_Driver\Src\stm32l5xx_hal_uart_ex.c:625:3
	ldr	r3, [r2, #8]
	bic	r3, r3, #-536870912
	orr.w	r1, r1, r3
.Ltmp96:
	@DEBUG_VALUE: HAL_UARTEx_SetTxFifoThreshold:Threshold <- [DW_OP_LLVM_entry_value 1] $r1
	str	r1, [r2, #8]
	@DEBUG_VALUE: UARTEx_SetNbDataToProcess:huart <- $r0
.Ltmp97:
	.loc	5 983 7                         @ c:/Keil_v5\ARM\PACK\Keil\STM32L5xx_DFP\1.3.0\Drivers\STM32L5xx_HAL_Driver\Src\stm32l5xx_hal_uart_ex.c:983:7
	beq	.LBB10_3
.Ltmp98:
@ %bb.2:
	@DEBUG_VALUE: HAL_UARTEx_SetTxFifoThreshold:tmpcr1 <- $r12
	@DEBUG_VALUE: UARTEx_SetNbDataToProcess:huart <- $r0
	@DEBUG_VALUE: HAL_UARTEx_SetTxFifoThreshold:Threshold <- [DW_OP_LLVM_entry_value 1] $r1
	@DEBUG_VALUE: HAL_UARTEx_SetTxFifoThreshold:huart <- [DW_OP_LLVM_entry_value 1] $r0
	@DEBUG_VALUE: UARTEx_SetNbDataToProcess:rx_fifo_depth <- 8
	@DEBUG_VALUE: UARTEx_SetNbDataToProcess:tx_fifo_depth <- 8
	.loc	5 992 35                        @ c:/Keil_v5\ARM\PACK\Keil\STM32L5xx_DFP\1.3.0\Drivers\STM32L5xx_HAL_Driver\Src\stm32l5xx_hal_uart_ex.c:992:35
	ldr	r3, [r2, #8]
	.loc	5 993 35                        @ c:/Keil_v5\ARM\PACK\Keil\STM32L5xx_DFP\1.3.0\Drivers\STM32L5xx_HAL_Driver\Src\stm32l5xx_hal_uart_ex.c:993:35
	ldr	r1, [r2, #8]
	.loc	5 994 59                        @ c:/Keil_v5\ARM\PACK\Keil\STM32L5xx_DFP\1.3.0\Drivers\STM32L5xx_HAL_Driver\Src\stm32l5xx_hal_uart_ex.c:994:59
	movw	lr, :lower16:.L__const.UARTEx_SetNbDataToProcess.numerator
	.loc	5 993 85                        @ c:/Keil_v5\ARM\PACK\Keil\STM32L5xx_DFP\1.3.0\Drivers\STM32L5xx_HAL_Driver\Src\stm32l5xx_hal_uart_ex.c:993:85
	lsrs	r1, r1, #29
.Ltmp99:
	@DEBUG_VALUE: UARTEx_SetNbDataToProcess:tx_fifo_threshold <- $r1
	.loc	5 994 59                        @ c:/Keil_v5\ARM\PACK\Keil\STM32L5xx_DFP\1.3.0\Drivers\STM32L5xx_HAL_Driver\Src\stm32l5xx_hal_uart_ex.c:994:59
	movt	lr, :upper16:.L__const.UARTEx_SetNbDataToProcess.numerator
	.loc	5 994 101 is_stmt 0             @ c:/Keil_v5\ARM\PACK\Keil\STM32L5xx_DFP\1.3.0\Drivers\STM32L5xx_HAL_Driver\Src\stm32l5xx_hal_uart_ex.c:994:101
	movw	r5, :lower16:.L__const.UARTEx_SetNbDataToProcess.denominator
	.loc	5 994 59                        @ c:/Keil_v5\ARM\PACK\Keil\STM32L5xx_DFP\1.3.0\Drivers\STM32L5xx_HAL_Driver\Src\stm32l5xx_hal_uart_ex.c:994:59
	ldrb.w	r4, [lr, r1]
	.loc	5 994 101                       @ c:/Keil_v5\ARM\PACK\Keil\STM32L5xx_DFP\1.3.0\Drivers\STM32L5xx_HAL_Driver\Src\stm32l5xx_hal_uart_ex.c:994:101
	movt	r5, :upper16:.L__const.UARTEx_SetNbDataToProcess.denominator
	.loc	5 992 25 is_stmt 1              @ c:/Keil_v5\ARM\PACK\Keil\STM32L5xx_DFP\1.3.0\Drivers\STM32L5xx_HAL_Driver\Src\stm32l5xx_hal_uart_ex.c:992:25
	ubfx	r3, r3, #25, #3
.Ltmp100:
	@DEBUG_VALUE: UARTEx_SetNbDataToProcess:rx_fifo_threshold <- [DW_OP_LLVM_convert 32 7, DW_OP_LLVM_convert 8 7, DW_OP_constu 7, DW_OP_and, DW_OP_stack_value] undef
	.loc	5 994 101                       @ c:/Keil_v5\ARM\PACK\Keil\STM32L5xx_DFP\1.3.0\Drivers\STM32L5xx_HAL_Driver\Src\stm32l5xx_hal_uart_ex.c:994:101
	ldrb	r1, [r5, r1]
.Ltmp101:
	.loc	5 994 57 is_stmt 0              @ c:/Keil_v5\ARM\PACK\Keil\STM32L5xx_DFP\1.3.0\Drivers\STM32L5xx_HAL_Driver\Src\stm32l5xx_hal_uart_ex.c:994:57
	lsls	r4, r4, #3
	.loc	5 994 89                        @ c:/Keil_v5\ARM\PACK\Keil\STM32L5xx_DFP\1.3.0\Drivers\STM32L5xx_HAL_Driver\Src\stm32l5xx_hal_uart_ex.c:994:89
	udiv	r1, r4, r1
	.loc	5 995 59 is_stmt 1              @ c:/Keil_v5\ARM\PACK\Keil\STM32L5xx_DFP\1.3.0\Drivers\STM32L5xx_HAL_Driver\Src\stm32l5xx_hal_uart_ex.c:995:59
	ldrb.w	r4, [lr, r3]
	.loc	5 995 101 is_stmt 0             @ c:/Keil_v5\ARM\PACK\Keil\STM32L5xx_DFP\1.3.0\Drivers\STM32L5xx_HAL_Driver\Src\stm32l5xx_hal_uart_ex.c:995:101
	ldrb	r3, [r5, r3]
	.loc	5 995 57                        @ c:/Keil_v5\ARM\PACK\Keil\STM32L5xx_DFP\1.3.0\Drivers\STM32L5xx_HAL_Driver\Src\stm32l5xx_hal_uart_ex.c:995:57
	lsls	r5, r4, #3
	.loc	5 995 89                        @ c:/Keil_v5\ARM\PACK\Keil\STM32L5xx_DFP\1.3.0\Drivers\STM32L5xx_HAL_Driver\Src\stm32l5xx_hal_uart_ex.c:995:89
	udiv	r3, r5, r3
	b	.LBB10_4
.Ltmp102:
	.p2align	2
.LBB10_3:
	@DEBUG_VALUE: HAL_UARTEx_SetTxFifoThreshold:tmpcr1 <- $r12
	@DEBUG_VALUE: UARTEx_SetNbDataToProcess:huart <- $r0
	@DEBUG_VALUE: HAL_UARTEx_SetTxFifoThreshold:Threshold <- [DW_OP_LLVM_entry_value 1] $r1
	@DEBUG_VALUE: HAL_UARTEx_SetTxFifoThreshold:huart <- [DW_OP_LLVM_entry_value 1] $r0
	.loc	5 0 89                          @ c:/Keil_v5\ARM\PACK\Keil\STM32L5xx_DFP\1.3.0\Drivers\STM32L5xx_HAL_Driver\Src\stm32l5xx_hal_uart_ex.c:0:89
	movs	r1, #1
	movs	r3, #1
.Ltmp103:
.LBB10_4:
	@DEBUG_VALUE: HAL_UARTEx_SetTxFifoThreshold:tmpcr1 <- $r12
	@DEBUG_VALUE: UARTEx_SetNbDataToProcess:huart <- $r0
	@DEBUG_VALUE: HAL_UARTEx_SetTxFifoThreshold:Threshold <- [DW_OP_LLVM_entry_value 1] $r1
	@DEBUG_VALUE: HAL_UARTEx_SetTxFifoThreshold:huart <- [DW_OP_LLVM_entry_value 1] $r0
	.loc	5 985 30 is_stmt 1              @ c:/Keil_v5\ARM\PACK\Keil\STM32L5xx_DFP\1.3.0\Drivers\STM32L5xx_HAL_Driver\Src\stm32l5xx_hal_uart_ex.c:985:30
	strh.w	r1, [r0, #106]
	movs	r1, #32
	.loc	5 986 30                        @ c:/Keil_v5\ARM\PACK\Keil\STM32L5xx_DFP\1.3.0\Drivers\STM32L5xx_HAL_Driver\Src\stm32l5xx_hal_uart_ex.c:986:30
	strh.w	r3, [r0, #104]
.Ltmp104:
	.loc	5 631 3                         @ c:/Keil_v5\ARM\PACK\Keil\STM32L5xx_DFP\1.3.0\Drivers\STM32L5xx_HAL_Driver\Src\stm32l5xx_hal_uart_ex.c:631:3
	str.w	r12, [r2]
	.loc	5 633 17                        @ c:/Keil_v5\ARM\PACK\Keil\STM32L5xx_DFP\1.3.0\Drivers\STM32L5xx_HAL_Driver\Src\stm32l5xx_hal_uart_ex.c:633:17
	str.w	r1, [r0, #132]
	movs	r1, #0
.Ltmp105:
	.loc	5 636 3                         @ c:/Keil_v5\ARM\PACK\Keil\STM32L5xx_DFP\1.3.0\Drivers\STM32L5xx_HAL_Driver\Src\stm32l5xx_hal_uart_ex.c:636:3
	strb.w	r1, [r0, #128]
.Ltmp106:
	.loc	5 639 1                         @ c:/Keil_v5\ARM\PACK\Keil\STM32L5xx_DFP\1.3.0\Drivers\STM32L5xx_HAL_Driver\Src\stm32l5xx_hal_uart_ex.c:639:1
	mov	r0, r1
.Ltmp107:
	pop	{r4, r5, r7, pc}
.Ltmp108:
.Lfunc_end10:
	.size	HAL_UARTEx_SetTxFifoThreshold, .Lfunc_end10-HAL_UARTEx_SetTxFifoThreshold
	.cfi_endproc
	.cantunwind
	.fnend
                                        @ -- End function
	.section	.text.HAL_UARTEx_SetRxFifoThreshold,"ax",%progbits
	.hidden	HAL_UARTEx_SetRxFifoThreshold   @ -- Begin function HAL_UARTEx_SetRxFifoThreshold
	.globl	HAL_UARTEx_SetRxFifoThreshold
	.p2align	2
	.type	HAL_UARTEx_SetRxFifoThreshold,%function
	.code	16                              @ @HAL_UARTEx_SetRxFifoThreshold
	.thumb_func
HAL_UARTEx_SetRxFifoThreshold:
.Lfunc_begin11:
	.loc	5 655 0                         @ c:/Keil_v5\ARM\PACK\Keil\STM32L5xx_DFP\1.3.0\Drivers\STM32L5xx_HAL_Driver\Src\stm32l5xx_hal_uart_ex.c:655:0
	.fnstart
	.cfi_startproc
@ %bb.0:
	@DEBUG_VALUE: HAL_UARTEx_SetRxFifoThreshold:huart <- $r0
	@DEBUG_VALUE: HAL_UARTEx_SetRxFifoThreshold:huart <- $r0
	@DEBUG_VALUE: HAL_UARTEx_SetRxFifoThreshold:Threshold <- $r1
	.save	{r4, r5, r7, lr}
	push	{r4, r5, r7, lr}
	.cfi_def_cfa_offset 16
	.cfi_offset lr, -4
	.cfi_offset r7, -8
	.cfi_offset r5, -12
	.cfi_offset r4, -16
.Ltmp109:
	.loc	5 663 3 prologue_end            @ c:/Keil_v5\ARM\PACK\Keil\STM32L5xx_DFP\1.3.0\Drivers\STM32L5xx_HAL_Driver\Src\stm32l5xx_hal_uart_ex.c:663:3
	ldrb.w	r2, [r0, #128]
.Ltmp110:
	.loc	5 663 3 is_stmt 0               @ c:/Keil_v5\ARM\PACK\Keil\STM32L5xx_DFP\1.3.0\Drivers\STM32L5xx_HAL_Driver\Src\stm32l5xx_hal_uart_ex.c:663:3
	cmp	r2, #1
	@DEBUG_VALUE: HAL_UARTEx_SetRxFifoThreshold:Threshold <- $r1
	itt	eq
	moveq	r0, #2
.Ltmp111:
	@DEBUG_VALUE: HAL_UARTEx_SetRxFifoThreshold:huart <- [DW_OP_LLVM_entry_value 1] $r0
	.loc	5 688 1 is_stmt 1               @ c:/Keil_v5\ARM\PACK\Keil\STM32L5xx_DFP\1.3.0\Drivers\STM32L5xx_HAL_Driver\Src\stm32l5xx_hal_uart_ex.c:688:1
	popeq	{r4, r5, r7, pc}
.Ltmp112:
.LBB11_1:
	@DEBUG_VALUE: HAL_UARTEx_SetRxFifoThreshold:Threshold <- $r1
	@DEBUG_VALUE: HAL_UARTEx_SetRxFifoThreshold:huart <- [DW_OP_LLVM_entry_value 1] $r0
	.loc	5 0 1 is_stmt 0                 @ c:/Keil_v5\ARM\PACK\Keil\STM32L5xx_DFP\1.3.0\Drivers\STM32L5xx_HAL_Driver\Src\stm32l5xx_hal_uart_ex.c:0:1
	movs	r2, #36
	.loc	5 665 17 is_stmt 1              @ c:/Keil_v5\ARM\PACK\Keil\STM32L5xx_DFP\1.3.0\Drivers\STM32L5xx_HAL_Driver\Src\stm32l5xx_hal_uart_ex.c:665:17
	str.w	r2, [r0, #132]
	.loc	5 668 12                        @ c:/Keil_v5\ARM\PACK\Keil\STM32L5xx_DFP\1.3.0\Drivers\STM32L5xx_HAL_Driver\Src\stm32l5xx_hal_uart_ex.c:668:12
	ldr	r2, [r0]
.Ltmp113:
	@DEBUG_VALUE: UARTEx_SetNbDataToProcess:huart <- $r0
	.loc	5 983 14                        @ c:/Keil_v5\ARM\PACK\Keil\STM32L5xx_DFP\1.3.0\Drivers\STM32L5xx_HAL_Driver\Src\stm32l5xx_hal_uart_ex.c:983:14
	ldr.w	lr, [r0, #100]
.Ltmp114:
	.loc	5 668 12                        @ c:/Keil_v5\ARM\PACK\Keil\STM32L5xx_DFP\1.3.0\Drivers\STM32L5xx_HAL_Driver\Src\stm32l5xx_hal_uart_ex.c:668:12
	ldr.w	r12, [r2]
.Ltmp115:
	@DEBUG_VALUE: HAL_UARTEx_SetRxFifoThreshold:tmpcr1 <- $r12
	.loc	5 671 3                         @ c:/Keil_v5\ARM\PACK\Keil\STM32L5xx_DFP\1.3.0\Drivers\STM32L5xx_HAL_Driver\Src\stm32l5xx_hal_uart_ex.c:671:3
	ldr	r3, [r2]
.Ltmp116:
	.loc	5 983 7                         @ c:/Keil_v5\ARM\PACK\Keil\STM32L5xx_DFP\1.3.0\Drivers\STM32L5xx_HAL_Driver\Src\stm32l5xx_hal_uart_ex.c:983:7
	cmp.w	lr, #0
.Ltmp117:
	@DEBUG_VALUE: UARTEx_SetNbDataToProcess:huart <- $r0
	.loc	5 671 3                         @ c:/Keil_v5\ARM\PACK\Keil\STM32L5xx_DFP\1.3.0\Drivers\STM32L5xx_HAL_Driver\Src\stm32l5xx_hal_uart_ex.c:671:3
	bic	r3, r3, #1
	str	r3, [r2]
	.loc	5 674 3                         @ c:/Keil_v5\ARM\PACK\Keil\STM32L5xx_DFP\1.3.0\Drivers\STM32L5xx_HAL_Driver\Src\stm32l5xx_hal_uart_ex.c:674:3
	ldr	r3, [r2, #8]
	bic	r3, r3, #234881024
	orr.w	r1, r1, r3
.Ltmp118:
	@DEBUG_VALUE: HAL_UARTEx_SetRxFifoThreshold:Threshold <- [DW_OP_LLVM_entry_value 1] $r1
	str	r1, [r2, #8]
	@DEBUG_VALUE: UARTEx_SetNbDataToProcess:huart <- $r0
.Ltmp119:
	.loc	5 983 7                         @ c:/Keil_v5\ARM\PACK\Keil\STM32L5xx_DFP\1.3.0\Drivers\STM32L5xx_HAL_Driver\Src\stm32l5xx_hal_uart_ex.c:983:7
	beq	.LBB11_3
.Ltmp120:
@ %bb.2:
	@DEBUG_VALUE: HAL_UARTEx_SetRxFifoThreshold:tmpcr1 <- $r12
	@DEBUG_VALUE: UARTEx_SetNbDataToProcess:huart <- $r0
	@DEBUG_VALUE: HAL_UARTEx_SetRxFifoThreshold:Threshold <- [DW_OP_LLVM_entry_value 1] $r1
	@DEBUG_VALUE: HAL_UARTEx_SetRxFifoThreshold:huart <- [DW_OP_LLVM_entry_value 1] $r0
	@DEBUG_VALUE: UARTEx_SetNbDataToProcess:rx_fifo_depth <- 8
	@DEBUG_VALUE: UARTEx_SetNbDataToProcess:tx_fifo_depth <- 8
	.loc	5 992 35                        @ c:/Keil_v5\ARM\PACK\Keil\STM32L5xx_DFP\1.3.0\Drivers\STM32L5xx_HAL_Driver\Src\stm32l5xx_hal_uart_ex.c:992:35
	ldr	r3, [r2, #8]
	.loc	5 993 35                        @ c:/Keil_v5\ARM\PACK\Keil\STM32L5xx_DFP\1.3.0\Drivers\STM32L5xx_HAL_Driver\Src\stm32l5xx_hal_uart_ex.c:993:35
	ldr	r1, [r2, #8]
	.loc	5 994 59                        @ c:/Keil_v5\ARM\PACK\Keil\STM32L5xx_DFP\1.3.0\Drivers\STM32L5xx_HAL_Driver\Src\stm32l5xx_hal_uart_ex.c:994:59
	movw	lr, :lower16:.L__const.UARTEx_SetNbDataToProcess.numerator
	.loc	5 993 85                        @ c:/Keil_v5\ARM\PACK\Keil\STM32L5xx_DFP\1.3.0\Drivers\STM32L5xx_HAL_Driver\Src\stm32l5xx_hal_uart_ex.c:993:85
	lsrs	r1, r1, #29
.Ltmp121:
	@DEBUG_VALUE: UARTEx_SetNbDataToProcess:tx_fifo_threshold <- $r1
	.loc	5 994 59                        @ c:/Keil_v5\ARM\PACK\Keil\STM32L5xx_DFP\1.3.0\Drivers\STM32L5xx_HAL_Driver\Src\stm32l5xx_hal_uart_ex.c:994:59
	movt	lr, :upper16:.L__const.UARTEx_SetNbDataToProcess.numerator
	.loc	5 994 101 is_stmt 0             @ c:/Keil_v5\ARM\PACK\Keil\STM32L5xx_DFP\1.3.0\Drivers\STM32L5xx_HAL_Driver\Src\stm32l5xx_hal_uart_ex.c:994:101
	movw	r5, :lower16:.L__const.UARTEx_SetNbDataToProcess.denominator
	.loc	5 994 59                        @ c:/Keil_v5\ARM\PACK\Keil\STM32L5xx_DFP\1.3.0\Drivers\STM32L5xx_HAL_Driver\Src\stm32l5xx_hal_uart_ex.c:994:59
	ldrb.w	r4, [lr, r1]
	.loc	5 994 101                       @ c:/Keil_v5\ARM\PACK\Keil\STM32L5xx_DFP\1.3.0\Drivers\STM32L5xx_HAL_Driver\Src\stm32l5xx_hal_uart_ex.c:994:101
	movt	r5, :upper16:.L__const.UARTEx_SetNbDataToProcess.denominator
	.loc	5 992 25 is_stmt 1              @ c:/Keil_v5\ARM\PACK\Keil\STM32L5xx_DFP\1.3.0\Drivers\STM32L5xx_HAL_Driver\Src\stm32l5xx_hal_uart_ex.c:992:25
	ubfx	r3, r3, #25, #3
.Ltmp122:
	@DEBUG_VALUE: UARTEx_SetNbDataToProcess:rx_fifo_threshold <- [DW_OP_LLVM_convert 32 7, DW_OP_LLVM_convert 8 7, DW_OP_constu 7, DW_OP_and, DW_OP_stack_value] undef
	.loc	5 994 101                       @ c:/Keil_v5\ARM\PACK\Keil\STM32L5xx_DFP\1.3.0\Drivers\STM32L5xx_HAL_Driver\Src\stm32l5xx_hal_uart_ex.c:994:101
	ldrb	r1, [r5, r1]
.Ltmp123:
	.loc	5 994 57 is_stmt 0              @ c:/Keil_v5\ARM\PACK\Keil\STM32L5xx_DFP\1.3.0\Drivers\STM32L5xx_HAL_Driver\Src\stm32l5xx_hal_uart_ex.c:994:57
	lsls	r4, r4, #3
	.loc	5 994 89                        @ c:/Keil_v5\ARM\PACK\Keil\STM32L5xx_DFP\1.3.0\Drivers\STM32L5xx_HAL_Driver\Src\stm32l5xx_hal_uart_ex.c:994:89
	udiv	r1, r4, r1
	.loc	5 995 59 is_stmt 1              @ c:/Keil_v5\ARM\PACK\Keil\STM32L5xx_DFP\1.3.0\Drivers\STM32L5xx_HAL_Driver\Src\stm32l5xx_hal_uart_ex.c:995:59
	ldrb.w	r4, [lr, r3]
	.loc	5 995 101 is_stmt 0             @ c:/Keil_v5\ARM\PACK\Keil\STM32L5xx_DFP\1.3.0\Drivers\STM32L5xx_HAL_Driver\Src\stm32l5xx_hal_uart_ex.c:995:101
	ldrb	r3, [r5, r3]
	.loc	5 995 57                        @ c:/Keil_v5\ARM\PACK\Keil\STM32L5xx_DFP\1.3.0\Drivers\STM32L5xx_HAL_Driver\Src\stm32l5xx_hal_uart_ex.c:995:57
	lsls	r5, r4, #3
	.loc	5 995 89                        @ c:/Keil_v5\ARM\PACK\Keil\STM32L5xx_DFP\1.3.0\Drivers\STM32L5xx_HAL_Driver\Src\stm32l5xx_hal_uart_ex.c:995:89
	udiv	r3, r5, r3
	b	.LBB11_4
.Ltmp124:
	.p2align	2
.LBB11_3:
	@DEBUG_VALUE: HAL_UARTEx_SetRxFifoThreshold:tmpcr1 <- $r12
	@DEBUG_VALUE: UARTEx_SetNbDataToProcess:huart <- $r0
	@DEBUG_VALUE: HAL_UARTEx_SetRxFifoThreshold:Threshold <- [DW_OP_LLVM_entry_value 1] $r1
	@DEBUG_VALUE: HAL_UARTEx_SetRxFifoThreshold:huart <- [DW_OP_LLVM_entry_value 1] $r0
	.loc	5 0 89                          @ c:/Keil_v5\ARM\PACK\Keil\STM32L5xx_DFP\1.3.0\Drivers\STM32L5xx_HAL_Driver\Src\stm32l5xx_hal_uart_ex.c:0:89
	movs	r1, #1
	movs	r3, #1
.Ltmp125:
.LBB11_4:
	@DEBUG_VALUE: HAL_UARTEx_SetRxFifoThreshold:tmpcr1 <- $r12
	@DEBUG_VALUE: UARTEx_SetNbDataToProcess:huart <- $r0
	@DEBUG_VALUE: HAL_UARTEx_SetRxFifoThreshold:Threshold <- [DW_OP_LLVM_entry_value 1] $r1
	@DEBUG_VALUE: HAL_UARTEx_SetRxFifoThreshold:huart <- [DW_OP_LLVM_entry_value 1] $r0
	.loc	5 985 30 is_stmt 1              @ c:/Keil_v5\ARM\PACK\Keil\STM32L5xx_DFP\1.3.0\Drivers\STM32L5xx_HAL_Driver\Src\stm32l5xx_hal_uart_ex.c:985:30
	strh.w	r1, [r0, #106]
	movs	r1, #32
	.loc	5 986 30                        @ c:/Keil_v5\ARM\PACK\Keil\STM32L5xx_DFP\1.3.0\Drivers\STM32L5xx_HAL_Driver\Src\stm32l5xx_hal_uart_ex.c:986:30
	strh.w	r3, [r0, #104]
.Ltmp126:
	.loc	5 680 3                         @ c:/Keil_v5\ARM\PACK\Keil\STM32L5xx_DFP\1.3.0\Drivers\STM32L5xx_HAL_Driver\Src\stm32l5xx_hal_uart_ex.c:680:3
	str.w	r12, [r2]
	.loc	5 682 17                        @ c:/Keil_v5\ARM\PACK\Keil\STM32L5xx_DFP\1.3.0\Drivers\STM32L5xx_HAL_Driver\Src\stm32l5xx_hal_uart_ex.c:682:17
	str.w	r1, [r0, #132]
	movs	r1, #0
.Ltmp127:
	.loc	5 685 3                         @ c:/Keil_v5\ARM\PACK\Keil\STM32L5xx_DFP\1.3.0\Drivers\STM32L5xx_HAL_Driver\Src\stm32l5xx_hal_uart_ex.c:685:3
	strb.w	r1, [r0, #128]
.Ltmp128:
	.loc	5 688 1                         @ c:/Keil_v5\ARM\PACK\Keil\STM32L5xx_DFP\1.3.0\Drivers\STM32L5xx_HAL_Driver\Src\stm32l5xx_hal_uart_ex.c:688:1
	mov	r0, r1
.Ltmp129:
	pop	{r4, r5, r7, pc}
.Ltmp130:
.Lfunc_end11:
	.size	HAL_UARTEx_SetRxFifoThreshold, .Lfunc_end11-HAL_UARTEx_SetRxFifoThreshold
	.cfi_endproc
	.cantunwind
	.fnend
                                        @ -- End function
	.section	.text.HAL_UARTEx_ReceiveToIdle,"ax",%progbits
	.hidden	HAL_UARTEx_ReceiveToIdle        @ -- Begin function HAL_UARTEx_ReceiveToIdle
	.globl	HAL_UARTEx_ReceiveToIdle
	.p2align	2
	.type	HAL_UARTEx_ReceiveToIdle,%function
	.code	16                              @ @HAL_UARTEx_ReceiveToIdle
	.thumb_func
HAL_UARTEx_ReceiveToIdle:
.Lfunc_begin12:
	.loc	5 710 0                         @ c:/Keil_v5\ARM\PACK\Keil\STM32L5xx_DFP\1.3.0\Drivers\STM32L5xx_HAL_Driver\Src\stm32l5xx_hal_uart_ex.c:710:0
	.fnstart
	.cfi_startproc
@ %bb.0:
	@DEBUG_VALUE: HAL_UARTEx_ReceiveToIdle:huart <- $r0
	@DEBUG_VALUE: HAL_UARTEx_ReceiveToIdle:pData <- $r1
	@DEBUG_VALUE: HAL_UARTEx_ReceiveToIdle:Size <- $r2
	@DEBUG_VALUE: HAL_UARTEx_ReceiveToIdle:RxLen <- $r3
	.save	{r4, r5, r6, r7, r8, r9, r10, r11, lr}
	push.w	{r4, r5, r6, r7, r8, r9, r10, r11, lr}
	.cfi_def_cfa_offset 36
	.cfi_offset lr, -4
	.cfi_offset r11, -8
	.cfi_offset r10, -12
	.cfi_offset r9, -16
	.cfi_offset r8, -20
	.cfi_offset r7, -24
	.cfi_offset r6, -28
	.cfi_offset r5, -32
	.cfi_offset r4, -36
	.pad	#4
	sub	sp, #4
	.cfi_def_cfa_offset 40
	mov	r4, r0
.Ltmp131:
	@DEBUG_VALUE: HAL_UARTEx_ReceiveToIdle:Timeout <- [DW_OP_plus_uconst 40] [$sp+0]
	@DEBUG_VALUE: HAL_UARTEx_ReceiveToIdle:RxLen <- $r3
	@DEBUG_VALUE: HAL_UARTEx_ReceiveToIdle:Size <- undef
	@DEBUG_VALUE: HAL_UARTEx_ReceiveToIdle:huart <- $r4
	.loc	5 717 14 prologue_end           @ c:/Keil_v5\ARM\PACK\Keil\STM32L5xx_DFP\1.3.0\Drivers\STM32L5xx_HAL_Driver\Src\stm32l5xx_hal_uart_ex.c:717:14
	ldr.w	r0, [r0, #136]
.Ltmp132:
	@DEBUG_VALUE: HAL_UARTEx_ReceiveToIdle:Size <- $r2
	.loc	5 717 7 is_stmt 0               @ c:/Keil_v5\ARM\PACK\Keil\STM32L5xx_DFP\1.3.0\Drivers\STM32L5xx_HAL_Driver\Src\stm32l5xx_hal_uart_ex.c:717:7
	cmp	r0, #32
	@DEBUG_VALUE: HAL_UARTEx_ReceiveToIdle:pData <- $r1
	bne	.LBB12_4
.Ltmp133:
@ %bb.1:
	@DEBUG_VALUE: HAL_UARTEx_ReceiveToIdle:huart <- $r4
	@DEBUG_VALUE: HAL_UARTEx_ReceiveToIdle:RxLen <- $r3
	@DEBUG_VALUE: HAL_UARTEx_ReceiveToIdle:Size <- $r2
	@DEBUG_VALUE: HAL_UARTEx_ReceiveToIdle:pData <- $r1
	@DEBUG_VALUE: HAL_UARTEx_ReceiveToIdle:Timeout <- [DW_OP_plus_uconst 40] [$sp+0]
	@DEBUG_VALUE: HAL_UARTEx_ReceiveToIdle:RxLen <- $r3
	@DEBUG_VALUE: HAL_UARTEx_ReceiveToIdle:Size <- $r2
	.loc	5 0 7                           @ c:/Keil_v5\ARM\PACK\Keil\STM32L5xx_DFP\1.3.0\Drivers\STM32L5xx_HAL_Driver\Src\stm32l5xx_hal_uart_ex.c:0:7
	mov	r6, r1
.Ltmp134:
	@DEBUG_VALUE: HAL_UARTEx_ReceiveToIdle:pData <- $r6
	@DEBUG_VALUE: HAL_UARTEx_ReceiveToIdle:Size <- $r2
	.loc	5 719 25 is_stmt 1              @ c:/Keil_v5\ARM\PACK\Keil\STM32L5xx_DFP\1.3.0\Drivers\STM32L5xx_HAL_Driver\Src\stm32l5xx_hal_uart_ex.c:719:25
	cmp	r1, #0
	mov.w	r0, #1
	@DEBUG_VALUE: HAL_UARTEx_ReceiveToIdle:RxLen <- $r3
	itt	ne
	movne	r7, r2
.Ltmp135:
	@DEBUG_VALUE: HAL_UARTEx_ReceiveToIdle:Size <- $r7
	@DEBUG_VALUE: HAL_UARTEx_ReceiveToIdle:Size <- $r7
	@DEBUG_VALUE: HAL_UARTEx_ReceiveToIdle:Size <- $r7
	cmpne	r2, #0
	bne	.LBB12_3
.Ltmp136:
@ %bb.2:
	@DEBUG_VALUE: HAL_UARTEx_ReceiveToIdle:Size <- $r7
	@DEBUG_VALUE: HAL_UARTEx_ReceiveToIdle:pData <- $r6
	@DEBUG_VALUE: HAL_UARTEx_ReceiveToIdle:huart <- $r4
	@DEBUG_VALUE: HAL_UARTEx_ReceiveToIdle:RxLen <- $r3
	@DEBUG_VALUE: HAL_UARTEx_ReceiveToIdle:Timeout <- [DW_OP_plus_uconst 40] [$sp+0]
	.loc	5 817 1                         @ c:/Keil_v5\ARM\PACK\Keil\STM32L5xx_DFP\1.3.0\Drivers\STM32L5xx_HAL_Driver\Src\stm32l5xx_hal_uart_ex.c:817:1
	add	sp, #4
	pop.w	{r4, r5, r6, r7, r8, r9, r10, r11, pc}
.Ltmp137:
	.p2align	2
.LBB12_3:
	@DEBUG_VALUE: HAL_UARTEx_ReceiveToIdle:Size <- $r7
	@DEBUG_VALUE: HAL_UARTEx_ReceiveToIdle:pData <- $r6
	@DEBUG_VALUE: HAL_UARTEx_ReceiveToIdle:huart <- $r4
	@DEBUG_VALUE: HAL_UARTEx_ReceiveToIdle:RxLen <- $r3
	@DEBUG_VALUE: HAL_UARTEx_ReceiveToIdle:Timeout <- [DW_OP_plus_uconst 40] [$sp+0]
	@DEBUG_VALUE: HAL_UARTEx_ReceiveToIdle:RxLen <- $r3
	@DEBUG_VALUE: HAL_UARTEx_ReceiveToIdle:Size <- $r7
	.loc	5 724 5                         @ c:/Keil_v5\ARM\PACK\Keil\STM32L5xx_DFP\1.3.0\Drivers\STM32L5xx_HAL_Driver\Src\stm32l5xx_hal_uart_ex.c:724:5
	ldrb.w	r0, [r4, #128]
.Ltmp138:
	.loc	5 724 5 is_stmt 0               @ c:/Keil_v5\ARM\PACK\Keil\STM32L5xx_DFP\1.3.0\Drivers\STM32L5xx_HAL_Driver\Src\stm32l5xx_hal_uart_ex.c:724:5
	cmp	r0, #1
	bne	.LBB12_5
.Ltmp139:
.LBB12_4:
	@DEBUG_VALUE: HAL_UARTEx_ReceiveToIdle:huart <- $r4
	@DEBUG_VALUE: HAL_UARTEx_ReceiveToIdle:RxLen <- $r3
	@DEBUG_VALUE: HAL_UARTEx_ReceiveToIdle:Timeout <- [DW_OP_plus_uconst 40] [$sp+0]
	.loc	5 0 5                           @ c:/Keil_v5\ARM\PACK\Keil\STM32L5xx_DFP\1.3.0\Drivers\STM32L5xx_HAL_Driver\Src\stm32l5xx_hal_uart_ex.c:0:5
	movs	r0, #2
	.loc	5 817 1 is_stmt 1               @ c:/Keil_v5\ARM\PACK\Keil\STM32L5xx_DFP\1.3.0\Drivers\STM32L5xx_HAL_Driver\Src\stm32l5xx_hal_uart_ex.c:817:1
	add	sp, #4
	pop.w	{r4, r5, r6, r7, r8, r9, r10, r11, pc}
.Ltmp140:
	.p2align	2
.LBB12_5:
	@DEBUG_VALUE: HAL_UARTEx_ReceiveToIdle:Size <- $r7
	@DEBUG_VALUE: HAL_UARTEx_ReceiveToIdle:pData <- $r6
	@DEBUG_VALUE: HAL_UARTEx_ReceiveToIdle:huart <- $r4
	@DEBUG_VALUE: HAL_UARTEx_ReceiveToIdle:RxLen <- $r3
	@DEBUG_VALUE: HAL_UARTEx_ReceiveToIdle:Timeout <- [DW_OP_plus_uconst 40] [$sp+0]
	.loc	5 0 1 is_stmt 0                 @ c:/Keil_v5\ARM\PACK\Keil\STM32L5xx_DFP\1.3.0\Drivers\STM32L5xx_HAL_Driver\Src\stm32l5xx_hal_uart_ex.c:0:1
	movs	r0, #1
	movs	r1, #0
.Ltmp141:
	.loc	5 724 5 is_stmt 1               @ c:/Keil_v5\ARM\PACK\Keil\STM32L5xx_DFP\1.3.0\Drivers\STM32L5xx_HAL_Driver\Src\stm32l5xx_hal_uart_ex.c:724:5
	strb.w	r0, [r4, #128]
.Ltmp142:
	.loc	5 726 22                        @ c:/Keil_v5\ARM\PACK\Keil\STM32L5xx_DFP\1.3.0\Drivers\STM32L5xx_HAL_Driver\Src\stm32l5xx_hal_uart_ex.c:726:22
	str.w	r1, [r4, #140]
	movs	r1, #34
	mov	r5, r3
.Ltmp143:
	@DEBUG_VALUE: HAL_UARTEx_ReceiveToIdle:RxLen <- $r5
	@DEBUG_VALUE: HAL_UARTEx_ReceiveToIdle:RxLen <- $r5
	@DEBUG_VALUE: HAL_UARTEx_ReceiveToIdle:Size <- $r7
	.loc	5 727 20                        @ c:/Keil_v5\ARM\PACK\Keil\STM32L5xx_DFP\1.3.0\Drivers\STM32L5xx_HAL_Driver\Src\stm32l5xx_hal_uart_ex.c:727:20
	str.w	r1, [r4, #136]
	.loc	5 728 26                        @ c:/Keil_v5\ARM\PACK\Keil\STM32L5xx_DFP\1.3.0\Drivers\STM32L5xx_HAL_Driver\Src\stm32l5xx_hal_uart_ex.c:728:26
	str	r0, [r4, #108]
	.loc	5 731 17                        @ c:/Keil_v5\ARM\PACK\Keil\STM32L5xx_DFP\1.3.0\Drivers\STM32L5xx_HAL_Driver\Src\stm32l5xx_hal_uart_ex.c:731:17
	bl	HAL_GetTick
	.loc	5 733 24                        @ c:/Keil_v5\ARM\PACK\Keil\STM32L5xx_DFP\1.3.0\Drivers\STM32L5xx_HAL_Driver\Src\stm32l5xx_hal_uart_ex.c:733:24
	strh.w	r7, [r4, #92]
	.loc	5 734 24                        @ c:/Keil_v5\ARM\PACK\Keil\STM32L5xx_DFP\1.3.0\Drivers\STM32L5xx_HAL_Driver\Src\stm32l5xx_hal_uart_ex.c:734:24
	strh.w	r7, [r4, #94]
.Ltmp144:
	.loc	5 737 5                         @ c:/Keil_v5\ARM\PACK\Keil\STM32L5xx_DFP\1.3.0\Drivers\STM32L5xx_HAL_Driver\Src\stm32l5xx_hal_uart_ex.c:737:5
	ldr	r1, [r4, #8]
.Ltmp145:
	.loc	5 731 17                        @ c:/Keil_v5\ARM\PACK\Keil\STM32L5xx_DFP\1.3.0\Drivers\STM32L5xx_HAL_Driver\Src\stm32l5xx_hal_uart_ex.c:731:17
	mov	r8, r0
.Ltmp146:
	@DEBUG_VALUE: HAL_UARTEx_ReceiveToIdle:tickstart <- $r8
	.loc	5 737 5                         @ c:/Keil_v5\ARM\PACK\Keil\STM32L5xx_DFP\1.3.0\Drivers\STM32L5xx_HAL_Driver\Src\stm32l5xx_hal_uart_ex.c:737:5
	cbz	r1, .LBB12_9
.Ltmp147:
@ %bb.6:
	@DEBUG_VALUE: HAL_UARTEx_ReceiveToIdle:tickstart <- $r8
	@DEBUG_VALUE: HAL_UARTEx_ReceiveToIdle:Size <- $r7
	@DEBUG_VALUE: HAL_UARTEx_ReceiveToIdle:pData <- $r6
	@DEBUG_VALUE: HAL_UARTEx_ReceiveToIdle:RxLen <- $r5
	@DEBUG_VALUE: HAL_UARTEx_ReceiveToIdle:huart <- $r4
	@DEBUG_VALUE: HAL_UARTEx_ReceiveToIdle:Timeout <- [DW_OP_plus_uconst 40] [$sp+0]
	cmp.w	r1, #268435456
	beq	.LBB12_11
.Ltmp148:
@ %bb.7:
	@DEBUG_VALUE: HAL_UARTEx_ReceiveToIdle:tickstart <- $r8
	@DEBUG_VALUE: HAL_UARTEx_ReceiveToIdle:Size <- $r7
	@DEBUG_VALUE: HAL_UARTEx_ReceiveToIdle:pData <- $r6
	@DEBUG_VALUE: HAL_UARTEx_ReceiveToIdle:RxLen <- $r5
	@DEBUG_VALUE: HAL_UARTEx_ReceiveToIdle:huart <- $r4
	@DEBUG_VALUE: HAL_UARTEx_ReceiveToIdle:Timeout <- [DW_OP_plus_uconst 40] [$sp+0]
	cmp.w	r1, #4096
	bne	.LBB12_13
.Ltmp149:
@ %bb.8:
	@DEBUG_VALUE: HAL_UARTEx_ReceiveToIdle:tickstart <- $r8
	@DEBUG_VALUE: HAL_UARTEx_ReceiveToIdle:Size <- $r7
	@DEBUG_VALUE: HAL_UARTEx_ReceiveToIdle:pData <- $r6
	@DEBUG_VALUE: HAL_UARTEx_ReceiveToIdle:RxLen <- $r5
	@DEBUG_VALUE: HAL_UARTEx_ReceiveToIdle:huart <- $r4
	@DEBUG_VALUE: HAL_UARTEx_ReceiveToIdle:Timeout <- [DW_OP_plus_uconst 40] [$sp+0]
	.loc	5 737 5 is_stmt 0               @ c:/Keil_v5\ARM\PACK\Keil\STM32L5xx_DFP\1.3.0\Drivers\STM32L5xx_HAL_Driver\Src\stm32l5xx_hal_uart_ex.c:737:5
	ldr	r0, [r4, #16]
	movs	r7, #255
.Ltmp150:
	.loc	5 737 5                         @ c:/Keil_v5\ARM\PACK\Keil\STM32L5xx_DFP\1.3.0\Drivers\STM32L5xx_HAL_Driver\Src\stm32l5xx_hal_uart_ex.c:737:5
	cmp	r0, #0
	mov	r1, r0
	it	ne
	movne	r1, r6
	it	eq
	movweq	r7, #511
.Ltmp151:
	.loc	5 737 5                         @ c:/Keil_v5\ARM\PACK\Keil\STM32L5xx_DFP\1.3.0\Drivers\STM32L5xx_HAL_Driver\Src\stm32l5xx_hal_uart_ex.c:737:5
	strh.w	r7, [r4, #96]
.Ltmp152:
	@DEBUG_VALUE: HAL_UARTEx_ReceiveToIdle:uhMask <- undef
	.loc	5 741 9 is_stmt 1               @ c:/Keil_v5\ARM\PACK\Keil\STM32L5xx_DFP\1.3.0\Drivers\STM32L5xx_HAL_Driver\Src\stm32l5xx_hal_uart_ex.c:741:9
	cmp	r0, #0
	it	ne
	movne	r6, #0
.Ltmp153:
	@DEBUG_VALUE: HAL_UARTEx_ReceiveToIdle:pData <- [DW_OP_LLVM_entry_value 1] $r1
	.loc	5 0 0 is_stmt 0                 @ c:/Keil_v5\ARM\PACK\Keil\STM32L5xx_DFP\1.3.0\Drivers\STM32L5xx_HAL_Driver\Src\stm32l5xx_hal_uart_ex.c:0:0
	mov	r9, r6
	mov	r6, r1
	b	.LBB12_16
.Ltmp154:
	.p2align	2
.LBB12_9:
	@DEBUG_VALUE: HAL_UARTEx_ReceiveToIdle:tickstart <- $r8
	@DEBUG_VALUE: HAL_UARTEx_ReceiveToIdle:Size <- $r7
	@DEBUG_VALUE: HAL_UARTEx_ReceiveToIdle:pData <- $r6
	@DEBUG_VALUE: HAL_UARTEx_ReceiveToIdle:RxLen <- $r5
	@DEBUG_VALUE: HAL_UARTEx_ReceiveToIdle:huart <- $r4
	@DEBUG_VALUE: HAL_UARTEx_ReceiveToIdle:Timeout <- [DW_OP_plus_uconst 40] [$sp+0]
	.loc	5 737 5 is_stmt 1               @ c:/Keil_v5\ARM\PACK\Keil\STM32L5xx_DFP\1.3.0\Drivers\STM32L5xx_HAL_Driver\Src\stm32l5xx_hal_uart_ex.c:737:5
	ldr	r0, [r4, #16]
.Ltmp155:
	.loc	5 737 5 is_stmt 0               @ c:/Keil_v5\ARM\PACK\Keil\STM32L5xx_DFP\1.3.0\Drivers\STM32L5xx_HAL_Driver\Src\stm32l5xx_hal_uart_ex.c:737:5
	cbnz	r0, .LBB12_14
.Ltmp156:
@ %bb.10:
	@DEBUG_VALUE: HAL_UARTEx_ReceiveToIdle:tickstart <- $r8
	@DEBUG_VALUE: HAL_UARTEx_ReceiveToIdle:Size <- $r7
	@DEBUG_VALUE: HAL_UARTEx_ReceiveToIdle:pData <- $r6
	@DEBUG_VALUE: HAL_UARTEx_ReceiveToIdle:RxLen <- $r5
	@DEBUG_VALUE: HAL_UARTEx_ReceiveToIdle:huart <- $r4
	@DEBUG_VALUE: HAL_UARTEx_ReceiveToIdle:Timeout <- [DW_OP_plus_uconst 40] [$sp+0]
	.loc	5 0 5                           @ c:/Keil_v5\ARM\PACK\Keil\STM32L5xx_DFP\1.3.0\Drivers\STM32L5xx_HAL_Driver\Src\stm32l5xx_hal_uart_ex.c:0:5
	movs	r7, #255
.Ltmp157:
	b	.LBB12_15
.Ltmp158:
	.p2align	2
.LBB12_11:
	@DEBUG_VALUE: HAL_UARTEx_ReceiveToIdle:tickstart <- $r8
	@DEBUG_VALUE: HAL_UARTEx_ReceiveToIdle:Size <- $r7
	@DEBUG_VALUE: HAL_UARTEx_ReceiveToIdle:pData <- $r6
	@DEBUG_VALUE: HAL_UARTEx_ReceiveToIdle:RxLen <- $r5
	@DEBUG_VALUE: HAL_UARTEx_ReceiveToIdle:huart <- $r4
	@DEBUG_VALUE: HAL_UARTEx_ReceiveToIdle:Timeout <- [DW_OP_plus_uconst 40] [$sp+0]
	.loc	5 737 5                         @ c:/Keil_v5\ARM\PACK\Keil\STM32L5xx_DFP\1.3.0\Drivers\STM32L5xx_HAL_Driver\Src\stm32l5xx_hal_uart_ex.c:737:5
	ldr	r0, [r4, #16]
.Ltmp159:
	.loc	5 737 5                         @ c:/Keil_v5\ARM\PACK\Keil\STM32L5xx_DFP\1.3.0\Drivers\STM32L5xx_HAL_Driver\Src\stm32l5xx_hal_uart_ex.c:737:5
	cbz	r0, .LBB12_14
.Ltmp160:
@ %bb.12:
	@DEBUG_VALUE: HAL_UARTEx_ReceiveToIdle:tickstart <- $r8
	@DEBUG_VALUE: HAL_UARTEx_ReceiveToIdle:Size <- $r7
	@DEBUG_VALUE: HAL_UARTEx_ReceiveToIdle:pData <- $r6
	@DEBUG_VALUE: HAL_UARTEx_ReceiveToIdle:RxLen <- $r5
	@DEBUG_VALUE: HAL_UARTEx_ReceiveToIdle:huart <- $r4
	@DEBUG_VALUE: HAL_UARTEx_ReceiveToIdle:Timeout <- [DW_OP_plus_uconst 40] [$sp+0]
	.loc	5 0 5                           @ c:/Keil_v5\ARM\PACK\Keil\STM32L5xx_DFP\1.3.0\Drivers\STM32L5xx_HAL_Driver\Src\stm32l5xx_hal_uart_ex.c:0:5
	movs	r7, #63
.Ltmp161:
	b	.LBB12_15
.Ltmp162:
	.p2align	2
.LBB12_13:
	@DEBUG_VALUE: HAL_UARTEx_ReceiveToIdle:tickstart <- $r8
	@DEBUG_VALUE: HAL_UARTEx_ReceiveToIdle:Size <- $r7
	@DEBUG_VALUE: HAL_UARTEx_ReceiveToIdle:pData <- $r6
	@DEBUG_VALUE: HAL_UARTEx_ReceiveToIdle:RxLen <- $r5
	@DEBUG_VALUE: HAL_UARTEx_ReceiveToIdle:huart <- $r4
	@DEBUG_VALUE: HAL_UARTEx_ReceiveToIdle:Timeout <- [DW_OP_plus_uconst 40] [$sp+0]
	movs	r7, #0
.Ltmp163:
	b	.LBB12_15
.Ltmp164:
	.p2align	2
.LBB12_14:
	@DEBUG_VALUE: HAL_UARTEx_ReceiveToIdle:tickstart <- $r8
	@DEBUG_VALUE: HAL_UARTEx_ReceiveToIdle:Size <- $r7
	@DEBUG_VALUE: HAL_UARTEx_ReceiveToIdle:pData <- $r6
	@DEBUG_VALUE: HAL_UARTEx_ReceiveToIdle:RxLen <- $r5
	@DEBUG_VALUE: HAL_UARTEx_ReceiveToIdle:huart <- $r4
	@DEBUG_VALUE: HAL_UARTEx_ReceiveToIdle:Timeout <- [DW_OP_plus_uconst 40] [$sp+0]
	movs	r7, #127
.Ltmp165:
.LBB12_15:
	@DEBUG_VALUE: HAL_UARTEx_ReceiveToIdle:tickstart <- $r8
	@DEBUG_VALUE: HAL_UARTEx_ReceiveToIdle:pData <- $r6
	@DEBUG_VALUE: HAL_UARTEx_ReceiveToIdle:RxLen <- $r5
	@DEBUG_VALUE: HAL_UARTEx_ReceiveToIdle:huart <- $r4
	@DEBUG_VALUE: HAL_UARTEx_ReceiveToIdle:Timeout <- [DW_OP_plus_uconst 40] [$sp+0]
	mov.w	r9, #0
	strh.w	r7, [r4, #96]
.Ltmp166:
	@DEBUG_VALUE: HAL_UARTEx_ReceiveToIdle:uhMask <- undef
.LBB12_16:
	@DEBUG_VALUE: HAL_UARTEx_ReceiveToIdle:tickstart <- $r8
	@DEBUG_VALUE: HAL_UARTEx_ReceiveToIdle:RxLen <- $r5
	@DEBUG_VALUE: HAL_UARTEx_ReceiveToIdle:huart <- $r4
	@DEBUG_VALUE: HAL_UARTEx_ReceiveToIdle:Timeout <- [DW_OP_plus_uconst 40] [$sp+0]
	@DEBUG_VALUE: HAL_UARTEx_ReceiveToIdle:pdata8bits <- $r6
	@DEBUG_VALUE: HAL_UARTEx_ReceiveToIdle:pdata16bits <- $r9
	movs	r0, #0
.Ltmp167:
	.loc	5 752 5 is_stmt 1               @ c:/Keil_v5\ARM\PACK\Keil\STM32L5xx_DFP\1.3.0\Drivers\STM32L5xx_HAL_Driver\Src\stm32l5xx_hal_uart_ex.c:752:5
	strb.w	r0, [r4, #128]
.Ltmp168:
	.loc	5 755 12                        @ c:/Keil_v5\ARM\PACK\Keil\STM32L5xx_DFP\1.3.0\Drivers\STM32L5xx_HAL_Driver\Src\stm32l5xx_hal_uart_ex.c:755:12
	strh	r0, [r5]
	.loc	5 758 19                        @ c:/Keil_v5\ARM\PACK\Keil\STM32L5xx_DFP\1.3.0\Drivers\STM32L5xx_HAL_Driver\Src\stm32l5xx_hal_uart_ex.c:758:19
	ldrh.w	r0, [r4, #94]
	.loc	5 758 5 is_stmt 0               @ c:/Keil_v5\ARM\PACK\Keil\STM32L5xx_DFP\1.3.0\Drivers\STM32L5xx_HAL_Driver\Src\stm32l5xx_hal_uart_ex.c:758:5
	cmp	r0, #0
	beq	.LBB12_41
.Ltmp169:
@ %bb.17:
	@DEBUG_VALUE: HAL_UARTEx_ReceiveToIdle:pdata16bits <- $r9
	@DEBUG_VALUE: HAL_UARTEx_ReceiveToIdle:tickstart <- $r8
	@DEBUG_VALUE: HAL_UARTEx_ReceiveToIdle:pdata8bits <- $r6
	@DEBUG_VALUE: HAL_UARTEx_ReceiveToIdle:RxLen <- $r5
	@DEBUG_VALUE: HAL_UARTEx_ReceiveToIdle:huart <- $r4
	@DEBUG_VALUE: HAL_UARTEx_ReceiveToIdle:Timeout <- [DW_OP_plus_uconst 40] [$sp+0]
	.loc	5 0 5                           @ c:/Keil_v5\ARM\PACK\Keil\STM32L5xx_DFP\1.3.0\Drivers\STM32L5xx_HAL_Driver\Src\stm32l5xx_hal_uart_ex.c:0:5
	ldr.w	r10, [sp, #40]
	.loc	5 758 5                         @ c:/Keil_v5\ARM\PACK\Keil\STM32L5xx_DFP\1.3.0\Drivers\STM32L5xx_HAL_Driver\Src\stm32l5xx_hal_uart_ex.c:758:5
	cmp.w	r10, #0
	beq	.LBB12_28
.Ltmp170:
@ %bb.18:
	@DEBUG_VALUE: HAL_UARTEx_ReceiveToIdle:pdata16bits <- $r9
	@DEBUG_VALUE: HAL_UARTEx_ReceiveToIdle:tickstart <- $r8
	@DEBUG_VALUE: HAL_UARTEx_ReceiveToIdle:pdata8bits <- $r6
	@DEBUG_VALUE: HAL_UARTEx_ReceiveToIdle:RxLen <- $r5
	@DEBUG_VALUE: HAL_UARTEx_ReceiveToIdle:huart <- $r4
	@DEBUG_VALUE: HAL_UARTEx_ReceiveToIdle:Timeout <- [DW_OP_plus_uconst 40] [$sp+0]
	adds.w	r0, r10, #1
	bne	.LBB12_31
.Ltmp171:
@ %bb.19:
	@DEBUG_VALUE: HAL_UARTEx_ReceiveToIdle:pdata16bits <- $r9
	@DEBUG_VALUE: HAL_UARTEx_ReceiveToIdle:tickstart <- $r8
	@DEBUG_VALUE: HAL_UARTEx_ReceiveToIdle:pdata8bits <- $r6
	@DEBUG_VALUE: HAL_UARTEx_ReceiveToIdle:RxLen <- $r5
	@DEBUG_VALUE: HAL_UARTEx_ReceiveToIdle:huart <- $r4
	@DEBUG_VALUE: HAL_UARTEx_ReceiveToIdle:Timeout <- [DW_OP_plus_uconst 40] [$sp+0]
	.loc	5 0 5                           @ c:/Keil_v5\ARM\PACK\Keil\STM32L5xx_DFP\1.3.0\Drivers\STM32L5xx_HAL_Driver\Src\stm32l5xx_hal_uart_ex.c:0:5
	movs	r0, #16
	b	.LBB12_23
.Ltmp172:
	.p2align	2
.LBB12_20:                              @   in Loop: Header=BB12_23 Depth=1
	@DEBUG_VALUE: HAL_UARTEx_ReceiveToIdle:pdata16bits <- $r9
	@DEBUG_VALUE: HAL_UARTEx_ReceiveToIdle:tickstart <- $r8
	@DEBUG_VALUE: HAL_UARTEx_ReceiveToIdle:pdata8bits <- $r6
	@DEBUG_VALUE: HAL_UARTEx_ReceiveToIdle:RxLen <- $r5
	@DEBUG_VALUE: HAL_UARTEx_ReceiveToIdle:huart <- $r4
	@DEBUG_VALUE: HAL_UARTEx_ReceiveToIdle:Timeout <- [DW_OP_plus_uconst 40] [$sp+0]
	.loc	5 781 26 is_stmt 1              @ c:/Keil_v5\ARM\PACK\Keil\STM32L5xx_DFP\1.3.0\Drivers\STM32L5xx_HAL_Driver\Src\stm32l5xx_hal_uart_ex.c:781:26
	ands	r1, r7
	.loc	5 781 24 is_stmt 0              @ c:/Keil_v5\ARM\PACK\Keil\STM32L5xx_DFP\1.3.0\Drivers\STM32L5xx_HAL_Driver\Src\stm32l5xx_hal_uart_ex.c:781:24
	strh	r1, [r9], #2
.Ltmp173:
	.loc	5 0 24                          @ c:/Keil_v5\ARM\PACK\Keil\STM32L5xx_DFP\1.3.0\Drivers\STM32L5xx_HAL_Driver\Src\stm32l5xx_hal_uart_ex.c:0:24
	movs	r6, #0
.Ltmp174:
	@DEBUG_VALUE: HAL_UARTEx_ReceiveToIdle:pdata16bits <- $r9
.LBB12_21:                              @   in Loop: Header=BB12_23 Depth=1
	@DEBUG_VALUE: HAL_UARTEx_ReceiveToIdle:pdata16bits <- $r9
	@DEBUG_VALUE: HAL_UARTEx_ReceiveToIdle:tickstart <- $r8
	@DEBUG_VALUE: HAL_UARTEx_ReceiveToIdle:RxLen <- $r5
	@DEBUG_VALUE: HAL_UARTEx_ReceiveToIdle:huart <- $r4
	@DEBUG_VALUE: HAL_UARTEx_ReceiveToIdle:Timeout <- [DW_OP_plus_uconst 40] [$sp+0]
	@DEBUG_VALUE: HAL_UARTEx_ReceiveToIdle:pdata8bits <- $r6
	@DEBUG_VALUE: HAL_UARTEx_ReceiveToIdle:pdata16bits <- $r9
	.loc	5 790 16 is_stmt 1              @ c:/Keil_v5\ARM\PACK\Keil\STM32L5xx_DFP\1.3.0\Drivers\STM32L5xx_HAL_Driver\Src\stm32l5xx_hal_uart_ex.c:790:16
	ldrh	r1, [r5]
	adds	r1, #1
	strh	r1, [r5]
	.loc	5 791 27                        @ c:/Keil_v5\ARM\PACK\Keil\STM32L5xx_DFP\1.3.0\Drivers\STM32L5xx_HAL_Driver\Src\stm32l5xx_hal_uart_ex.c:791:27
	ldrh.w	r1, [r4, #94]
	subs	r1, #1
	strh.w	r1, [r4, #94]
.Ltmp175:
.LBB12_22:                              @   in Loop: Header=BB12_23 Depth=1
	@DEBUG_VALUE: HAL_UARTEx_ReceiveToIdle:pdata16bits <- $r9
	@DEBUG_VALUE: HAL_UARTEx_ReceiveToIdle:tickstart <- $r8
	@DEBUG_VALUE: HAL_UARTEx_ReceiveToIdle:pdata8bits <- $r6
	@DEBUG_VALUE: HAL_UARTEx_ReceiveToIdle:RxLen <- $r5
	@DEBUG_VALUE: HAL_UARTEx_ReceiveToIdle:huart <- $r4
	@DEBUG_VALUE: HAL_UARTEx_ReceiveToIdle:Timeout <- [DW_OP_plus_uconst 40] [$sp+0]
	@DEBUG_VALUE: HAL_UARTEx_ReceiveToIdle:pdata8bits <- $r6
	@DEBUG_VALUE: HAL_UARTEx_ReceiveToIdle:pdata16bits <- $r9
	.loc	5 758 19                        @ c:/Keil_v5\ARM\PACK\Keil\STM32L5xx_DFP\1.3.0\Drivers\STM32L5xx_HAL_Driver\Src\stm32l5xx_hal_uart_ex.c:758:19
	ldrh.w	r1, [r4, #94]
	.loc	5 758 5 is_stmt 0               @ c:/Keil_v5\ARM\PACK\Keil\STM32L5xx_DFP\1.3.0\Drivers\STM32L5xx_HAL_Driver\Src\stm32l5xx_hal_uart_ex.c:758:5
	cmp	r1, #0
	beq	.LBB12_41
.Ltmp176:
.LBB12_23:                              @ =>This Inner Loop Header: Depth=1
	@DEBUG_VALUE: HAL_UARTEx_ReceiveToIdle:pdata16bits <- $r9
	@DEBUG_VALUE: HAL_UARTEx_ReceiveToIdle:tickstart <- $r8
	@DEBUG_VALUE: HAL_UARTEx_ReceiveToIdle:pdata8bits <- $r6
	@DEBUG_VALUE: HAL_UARTEx_ReceiveToIdle:RxLen <- $r5
	@DEBUG_VALUE: HAL_UARTEx_ReceiveToIdle:huart <- $r4
	@DEBUG_VALUE: HAL_UARTEx_ReceiveToIdle:Timeout <- [DW_OP_plus_uconst 40] [$sp+0]
	@DEBUG_VALUE: HAL_UARTEx_ReceiveToIdle:pdata8bits <- $r6
	@DEBUG_VALUE: HAL_UARTEx_ReceiveToIdle:pdata16bits <- $r9
	.loc	5 761 11 is_stmt 1              @ c:/Keil_v5\ARM\PACK\Keil\STM32L5xx_DFP\1.3.0\Drivers\STM32L5xx_HAL_Driver\Src\stm32l5xx_hal_uart_ex.c:761:11
	ldr	r1, [r4]
	ldr	r2, [r1, #28]
.Ltmp177:
	.loc	5 761 11 is_stmt 0              @ c:/Keil_v5\ARM\PACK\Keil\STM32L5xx_DFP\1.3.0\Drivers\STM32L5xx_HAL_Driver\Src\stm32l5xx_hal_uart_ex.c:761:11
	lsls	r2, r2, #27
	bpl	.LBB12_25
.Ltmp178:
@ %bb.24:                               @   in Loop: Header=BB12_23 Depth=1
	@DEBUG_VALUE: HAL_UARTEx_ReceiveToIdle:pdata16bits <- $r9
	@DEBUG_VALUE: HAL_UARTEx_ReceiveToIdle:tickstart <- $r8
	@DEBUG_VALUE: HAL_UARTEx_ReceiveToIdle:pdata8bits <- $r6
	@DEBUG_VALUE: HAL_UARTEx_ReceiveToIdle:RxLen <- $r5
	@DEBUG_VALUE: HAL_UARTEx_ReceiveToIdle:huart <- $r4
	@DEBUG_VALUE: HAL_UARTEx_ReceiveToIdle:Timeout <- [DW_OP_plus_uconst 40] [$sp+0]
	.loc	5 764 9 is_stmt 1               @ c:/Keil_v5\ARM\PACK\Keil\STM32L5xx_DFP\1.3.0\Drivers\STM32L5xx_HAL_Driver\Src\stm32l5xx_hal_uart_ex.c:764:9
	str	r0, [r1, #32]
.Ltmp179:
	.loc	5 768 13                        @ c:/Keil_v5\ARM\PACK\Keil\STM32L5xx_DFP\1.3.0\Drivers\STM32L5xx_HAL_Driver\Src\stm32l5xx_hal_uart_ex.c:768:13
	ldrh	r2, [r5]
.Ltmp180:
	.loc	5 768 13 is_stmt 0              @ c:/Keil_v5\ARM\PACK\Keil\STM32L5xx_DFP\1.3.0\Drivers\STM32L5xx_HAL_Driver\Src\stm32l5xx_hal_uart_ex.c:768:13
	cmp	r2, #0
	bne	.LBB12_42
.Ltmp181:
.LBB12_25:                              @   in Loop: Header=BB12_23 Depth=1
	@DEBUG_VALUE: HAL_UARTEx_ReceiveToIdle:pdata16bits <- $r9
	@DEBUG_VALUE: HAL_UARTEx_ReceiveToIdle:tickstart <- $r8
	@DEBUG_VALUE: HAL_UARTEx_ReceiveToIdle:pdata8bits <- $r6
	@DEBUG_VALUE: HAL_UARTEx_ReceiveToIdle:RxLen <- $r5
	@DEBUG_VALUE: HAL_UARTEx_ReceiveToIdle:huart <- $r4
	@DEBUG_VALUE: HAL_UARTEx_ReceiveToIdle:Timeout <- [DW_OP_plus_uconst 40] [$sp+0]
	.loc	5 777 11 is_stmt 1              @ c:/Keil_v5\ARM\PACK\Keil\STM32L5xx_DFP\1.3.0\Drivers\STM32L5xx_HAL_Driver\Src\stm32l5xx_hal_uart_ex.c:777:11
	ldr	r2, [r1, #28]
.Ltmp182:
	.loc	5 777 11 is_stmt 0              @ c:/Keil_v5\ARM\PACK\Keil\STM32L5xx_DFP\1.3.0\Drivers\STM32L5xx_HAL_Driver\Src\stm32l5xx_hal_uart_ex.c:777:11
	lsls	r2, r2, #26
	bpl	.LBB12_22
.Ltmp183:
@ %bb.26:                               @   in Loop: Header=BB12_23 Depth=1
	@DEBUG_VALUE: HAL_UARTEx_ReceiveToIdle:pdata16bits <- $r9
	@DEBUG_VALUE: HAL_UARTEx_ReceiveToIdle:tickstart <- $r8
	@DEBUG_VALUE: HAL_UARTEx_ReceiveToIdle:pdata8bits <- $r6
	@DEBUG_VALUE: HAL_UARTEx_ReceiveToIdle:RxLen <- $r5
	@DEBUG_VALUE: HAL_UARTEx_ReceiveToIdle:huart <- $r4
	@DEBUG_VALUE: HAL_UARTEx_ReceiveToIdle:Timeout <- [DW_OP_plus_uconst 40] [$sp+0]
	.loc	5 0 0                           @ c:/Keil_v5\ARM\PACK\Keil\STM32L5xx_DFP\1.3.0\Drivers\STM32L5xx_HAL_Driver\Src\stm32l5xx_hal_uart_ex.c:0:0
	ldr	r1, [r1, #36]
.Ltmp184:
	.loc	5 779 13 is_stmt 1              @ c:/Keil_v5\ARM\PACK\Keil\STM32L5xx_DFP\1.3.0\Drivers\STM32L5xx_HAL_Driver\Src\stm32l5xx_hal_uart_ex.c:779:13
	cmp	r6, #0
	beq	.LBB12_20
.Ltmp185:
@ %bb.27:                               @   in Loop: Header=BB12_23 Depth=1
	@DEBUG_VALUE: HAL_UARTEx_ReceiveToIdle:pdata16bits <- $r9
	@DEBUG_VALUE: HAL_UARTEx_ReceiveToIdle:tickstart <- $r8
	@DEBUG_VALUE: HAL_UARTEx_ReceiveToIdle:pdata8bits <- $r6
	@DEBUG_VALUE: HAL_UARTEx_ReceiveToIdle:RxLen <- $r5
	@DEBUG_VALUE: HAL_UARTEx_ReceiveToIdle:huart <- $r4
	@DEBUG_VALUE: HAL_UARTEx_ReceiveToIdle:Timeout <- [DW_OP_plus_uconst 40] [$sp+0]
	.loc	5 786 56                        @ c:/Keil_v5\ARM\PACK\Keil\STM32L5xx_DFP\1.3.0\Drivers\STM32L5xx_HAL_Driver\Src\stm32l5xx_hal_uart_ex.c:786:56
	ands	r1, r7
	.loc	5 786 23 is_stmt 0              @ c:/Keil_v5\ARM\PACK\Keil\STM32L5xx_DFP\1.3.0\Drivers\STM32L5xx_HAL_Driver\Src\stm32l5xx_hal_uart_ex.c:786:23
	strb	r1, [r6], #1
.Ltmp186:
	@DEBUG_VALUE: HAL_UARTEx_ReceiveToIdle:pdata8bits <- $r6
	.loc	5 0 23                          @ c:/Keil_v5\ARM\PACK\Keil\STM32L5xx_DFP\1.3.0\Drivers\STM32L5xx_HAL_Driver\Src\stm32l5xx_hal_uart_ex.c:0:23
	b	.LBB12_21
.Ltmp187:
	.p2align	2
.LBB12_28:
	@DEBUG_VALUE: HAL_UARTEx_ReceiveToIdle:pdata16bits <- $r9
	@DEBUG_VALUE: HAL_UARTEx_ReceiveToIdle:tickstart <- $r8
	@DEBUG_VALUE: HAL_UARTEx_ReceiveToIdle:pdata8bits <- $r6
	@DEBUG_VALUE: HAL_UARTEx_ReceiveToIdle:RxLen <- $r5
	@DEBUG_VALUE: HAL_UARTEx_ReceiveToIdle:huart <- $r4
	@DEBUG_VALUE: HAL_UARTEx_ReceiveToIdle:Timeout <- [DW_OP_plus_uconst 40] [$sp+0]
	@DEBUG_VALUE: HAL_UARTEx_ReceiveToIdle:pdata8bits <- $r6
	@DEBUG_VALUE: HAL_UARTEx_ReceiveToIdle:pdata16bits <- $r9
	.loc	5 761 11 is_stmt 1              @ c:/Keil_v5\ARM\PACK\Keil\STM32L5xx_DFP\1.3.0\Drivers\STM32L5xx_HAL_Driver\Src\stm32l5xx_hal_uart_ex.c:761:11
	ldr	r0, [r4]
	ldr	r1, [r0, #28]
.Ltmp188:
	.loc	5 761 11 is_stmt 0              @ c:/Keil_v5\ARM\PACK\Keil\STM32L5xx_DFP\1.3.0\Drivers\STM32L5xx_HAL_Driver\Src\stm32l5xx_hal_uart_ex.c:761:11
	lsls	r1, r1, #27
	itt	mi
	movmi	r1, #16
.Ltmp189:
	.loc	5 764 9 is_stmt 1               @ c:/Keil_v5\ARM\PACK\Keil\STM32L5xx_DFP\1.3.0\Drivers\STM32L5xx_HAL_Driver\Src\stm32l5xx_hal_uart_ex.c:764:9
	strmi	r1, [r0, #32]
.Ltmp190:
	.loc	5 777 11                        @ c:/Keil_v5\ARM\PACK\Keil\STM32L5xx_DFP\1.3.0\Drivers\STM32L5xx_HAL_Driver\Src\stm32l5xx_hal_uart_ex.c:777:11
	ldr	r1, [r0, #28]
.Ltmp191:
	.loc	5 777 11 is_stmt 0              @ c:/Keil_v5\ARM\PACK\Keil\STM32L5xx_DFP\1.3.0\Drivers\STM32L5xx_HAL_Driver\Src\stm32l5xx_hal_uart_ex.c:777:11
	lsls	r1, r1, #26
	bpl	.LBB12_45
.Ltmp192:
@ %bb.29:
	@DEBUG_VALUE: HAL_UARTEx_ReceiveToIdle:pdata16bits <- $r9
	@DEBUG_VALUE: HAL_UARTEx_ReceiveToIdle:tickstart <- $r8
	@DEBUG_VALUE: HAL_UARTEx_ReceiveToIdle:pdata8bits <- $r6
	@DEBUG_VALUE: HAL_UARTEx_ReceiveToIdle:RxLen <- $r5
	@DEBUG_VALUE: HAL_UARTEx_ReceiveToIdle:huart <- $r4
	@DEBUG_VALUE: HAL_UARTEx_ReceiveToIdle:Timeout <- [DW_OP_plus_uconst 40] [$sp+0]
	.loc	5 0 0                           @ c:/Keil_v5\ARM\PACK\Keil\STM32L5xx_DFP\1.3.0\Drivers\STM32L5xx_HAL_Driver\Src\stm32l5xx_hal_uart_ex.c:0:0
	ldr	r0, [r0, #36]
.Ltmp193:
	.loc	5 779 13 is_stmt 1              @ c:/Keil_v5\ARM\PACK\Keil\STM32L5xx_DFP\1.3.0\Drivers\STM32L5xx_HAL_Driver\Src\stm32l5xx_hal_uart_ex.c:779:13
	cbz	r6, .LBB12_43
.Ltmp194:
@ %bb.30:
	@DEBUG_VALUE: HAL_UARTEx_ReceiveToIdle:pdata16bits <- $r9
	@DEBUG_VALUE: HAL_UARTEx_ReceiveToIdle:tickstart <- $r8
	@DEBUG_VALUE: HAL_UARTEx_ReceiveToIdle:pdata8bits <- $r6
	@DEBUG_VALUE: HAL_UARTEx_ReceiveToIdle:RxLen <- $r5
	@DEBUG_VALUE: HAL_UARTEx_ReceiveToIdle:huart <- $r4
	@DEBUG_VALUE: HAL_UARTEx_ReceiveToIdle:Timeout <- [DW_OP_plus_uconst 40] [$sp+0]
	.loc	5 786 56                        @ c:/Keil_v5\ARM\PACK\Keil\STM32L5xx_DFP\1.3.0\Drivers\STM32L5xx_HAL_Driver\Src\stm32l5xx_hal_uart_ex.c:786:56
	ands	r0, r7
	.loc	5 786 23 is_stmt 0              @ c:/Keil_v5\ARM\PACK\Keil\STM32L5xx_DFP\1.3.0\Drivers\STM32L5xx_HAL_Driver\Src\stm32l5xx_hal_uart_ex.c:786:23
	strb	r0, [r6]
.Ltmp195:
	@DEBUG_VALUE: HAL_UARTEx_ReceiveToIdle:pdata8bits <- [DW_OP_plus_uconst 1, DW_OP_stack_value] undef
	.loc	5 0 23                          @ c:/Keil_v5\ARM\PACK\Keil\STM32L5xx_DFP\1.3.0\Drivers\STM32L5xx_HAL_Driver\Src\stm32l5xx_hal_uart_ex.c:0:23
	b	.LBB12_44
.Ltmp196:
	.p2align	2
.LBB12_31:
	@DEBUG_VALUE: HAL_UARTEx_ReceiveToIdle:pdata16bits <- $r9
	@DEBUG_VALUE: HAL_UARTEx_ReceiveToIdle:tickstart <- $r8
	@DEBUG_VALUE: HAL_UARTEx_ReceiveToIdle:pdata8bits <- $r6
	@DEBUG_VALUE: HAL_UARTEx_ReceiveToIdle:RxLen <- $r5
	@DEBUG_VALUE: HAL_UARTEx_ReceiveToIdle:huart <- $r4
	@DEBUG_VALUE: HAL_UARTEx_ReceiveToIdle:Timeout <- [DW_OP_plus_uconst 40] [$sp+0]
	mov.w	r11, #16
.Ltmp197:
	.p2align	2
.LBB12_32:                              @ =>This Inner Loop Header: Depth=1
	@DEBUG_VALUE: HAL_UARTEx_ReceiveToIdle:pdata16bits <- $r9
	@DEBUG_VALUE: HAL_UARTEx_ReceiveToIdle:tickstart <- $r8
	@DEBUG_VALUE: HAL_UARTEx_ReceiveToIdle:pdata8bits <- $r6
	@DEBUG_VALUE: HAL_UARTEx_ReceiveToIdle:RxLen <- $r5
	@DEBUG_VALUE: HAL_UARTEx_ReceiveToIdle:huart <- $r4
	@DEBUG_VALUE: HAL_UARTEx_ReceiveToIdle:Timeout <- [DW_OP_plus_uconst 40] [$sp+0]
	@DEBUG_VALUE: HAL_UARTEx_ReceiveToIdle:pdata8bits <- $r6
	@DEBUG_VALUE: HAL_UARTEx_ReceiveToIdle:pdata16bits <- $r9
	.loc	5 761 11 is_stmt 1              @ c:/Keil_v5\ARM\PACK\Keil\STM32L5xx_DFP\1.3.0\Drivers\STM32L5xx_HAL_Driver\Src\stm32l5xx_hal_uart_ex.c:761:11
	ldr	r0, [r4]
	ldr	r1, [r0, #28]
.Ltmp198:
	.loc	5 761 11 is_stmt 0              @ c:/Keil_v5\ARM\PACK\Keil\STM32L5xx_DFP\1.3.0\Drivers\STM32L5xx_HAL_Driver\Src\stm32l5xx_hal_uart_ex.c:761:11
	lsls	r1, r1, #27
	bpl	.LBB12_34
.Ltmp199:
@ %bb.33:                               @   in Loop: Header=BB12_32 Depth=1
	@DEBUG_VALUE: HAL_UARTEx_ReceiveToIdle:pdata16bits <- $r9
	@DEBUG_VALUE: HAL_UARTEx_ReceiveToIdle:tickstart <- $r8
	@DEBUG_VALUE: HAL_UARTEx_ReceiveToIdle:pdata8bits <- $r6
	@DEBUG_VALUE: HAL_UARTEx_ReceiveToIdle:RxLen <- $r5
	@DEBUG_VALUE: HAL_UARTEx_ReceiveToIdle:huart <- $r4
	@DEBUG_VALUE: HAL_UARTEx_ReceiveToIdle:Timeout <- [DW_OP_plus_uconst 40] [$sp+0]
	.loc	5 764 9 is_stmt 1               @ c:/Keil_v5\ARM\PACK\Keil\STM32L5xx_DFP\1.3.0\Drivers\STM32L5xx_HAL_Driver\Src\stm32l5xx_hal_uart_ex.c:764:9
	str.w	r11, [r0, #32]
.Ltmp200:
	.loc	5 768 13                        @ c:/Keil_v5\ARM\PACK\Keil\STM32L5xx_DFP\1.3.0\Drivers\STM32L5xx_HAL_Driver\Src\stm32l5xx_hal_uart_ex.c:768:13
	ldrh	r1, [r5]
.Ltmp201:
	.loc	5 768 13 is_stmt 0              @ c:/Keil_v5\ARM\PACK\Keil\STM32L5xx_DFP\1.3.0\Drivers\STM32L5xx_HAL_Driver\Src\stm32l5xx_hal_uart_ex.c:768:13
	cbnz	r1, .LBB12_42
.Ltmp202:
.LBB12_34:                              @   in Loop: Header=BB12_32 Depth=1
	@DEBUG_VALUE: HAL_UARTEx_ReceiveToIdle:pdata16bits <- $r9
	@DEBUG_VALUE: HAL_UARTEx_ReceiveToIdle:tickstart <- $r8
	@DEBUG_VALUE: HAL_UARTEx_ReceiveToIdle:pdata8bits <- $r6
	@DEBUG_VALUE: HAL_UARTEx_ReceiveToIdle:RxLen <- $r5
	@DEBUG_VALUE: HAL_UARTEx_ReceiveToIdle:huart <- $r4
	@DEBUG_VALUE: HAL_UARTEx_ReceiveToIdle:Timeout <- [DW_OP_plus_uconst 40] [$sp+0]
	.loc	5 777 11 is_stmt 1              @ c:/Keil_v5\ARM\PACK\Keil\STM32L5xx_DFP\1.3.0\Drivers\STM32L5xx_HAL_Driver\Src\stm32l5xx_hal_uart_ex.c:777:11
	ldr	r1, [r0, #28]
.Ltmp203:
	.loc	5 777 11 is_stmt 0              @ c:/Keil_v5\ARM\PACK\Keil\STM32L5xx_DFP\1.3.0\Drivers\STM32L5xx_HAL_Driver\Src\stm32l5xx_hal_uart_ex.c:777:11
	lsls	r1, r1, #26
	bpl	.LBB12_39
.Ltmp204:
@ %bb.35:                               @   in Loop: Header=BB12_32 Depth=1
	@DEBUG_VALUE: HAL_UARTEx_ReceiveToIdle:pdata16bits <- $r9
	@DEBUG_VALUE: HAL_UARTEx_ReceiveToIdle:tickstart <- $r8
	@DEBUG_VALUE: HAL_UARTEx_ReceiveToIdle:pdata8bits <- $r6
	@DEBUG_VALUE: HAL_UARTEx_ReceiveToIdle:RxLen <- $r5
	@DEBUG_VALUE: HAL_UARTEx_ReceiveToIdle:huart <- $r4
	@DEBUG_VALUE: HAL_UARTEx_ReceiveToIdle:Timeout <- [DW_OP_plus_uconst 40] [$sp+0]
	.loc	5 0 0                           @ c:/Keil_v5\ARM\PACK\Keil\STM32L5xx_DFP\1.3.0\Drivers\STM32L5xx_HAL_Driver\Src\stm32l5xx_hal_uart_ex.c:0:0
	ldr	r0, [r0, #36]
.Ltmp205:
	.loc	5 779 13 is_stmt 1              @ c:/Keil_v5\ARM\PACK\Keil\STM32L5xx_DFP\1.3.0\Drivers\STM32L5xx_HAL_Driver\Src\stm32l5xx_hal_uart_ex.c:779:13
	cbz	r6, .LBB12_37
.Ltmp206:
@ %bb.36:                               @   in Loop: Header=BB12_32 Depth=1
	@DEBUG_VALUE: HAL_UARTEx_ReceiveToIdle:pdata16bits <- $r9
	@DEBUG_VALUE: HAL_UARTEx_ReceiveToIdle:tickstart <- $r8
	@DEBUG_VALUE: HAL_UARTEx_ReceiveToIdle:pdata8bits <- $r6
	@DEBUG_VALUE: HAL_UARTEx_ReceiveToIdle:RxLen <- $r5
	@DEBUG_VALUE: HAL_UARTEx_ReceiveToIdle:huart <- $r4
	@DEBUG_VALUE: HAL_UARTEx_ReceiveToIdle:Timeout <- [DW_OP_plus_uconst 40] [$sp+0]
	.loc	5 786 56                        @ c:/Keil_v5\ARM\PACK\Keil\STM32L5xx_DFP\1.3.0\Drivers\STM32L5xx_HAL_Driver\Src\stm32l5xx_hal_uart_ex.c:786:56
	ands	r0, r7
	.loc	5 786 23 is_stmt 0              @ c:/Keil_v5\ARM\PACK\Keil\STM32L5xx_DFP\1.3.0\Drivers\STM32L5xx_HAL_Driver\Src\stm32l5xx_hal_uart_ex.c:786:23
	strb	r0, [r6], #1
.Ltmp207:
	@DEBUG_VALUE: HAL_UARTEx_ReceiveToIdle:pdata8bits <- $r6
	.loc	5 0 23                          @ c:/Keil_v5\ARM\PACK\Keil\STM32L5xx_DFP\1.3.0\Drivers\STM32L5xx_HAL_Driver\Src\stm32l5xx_hal_uart_ex.c:0:23
	b	.LBB12_38
.Ltmp208:
	.p2align	2
.LBB12_37:                              @   in Loop: Header=BB12_32 Depth=1
	@DEBUG_VALUE: HAL_UARTEx_ReceiveToIdle:pdata16bits <- $r9
	@DEBUG_VALUE: HAL_UARTEx_ReceiveToIdle:tickstart <- $r8
	@DEBUG_VALUE: HAL_UARTEx_ReceiveToIdle:pdata8bits <- $r6
	@DEBUG_VALUE: HAL_UARTEx_ReceiveToIdle:RxLen <- $r5
	@DEBUG_VALUE: HAL_UARTEx_ReceiveToIdle:huart <- $r4
	@DEBUG_VALUE: HAL_UARTEx_ReceiveToIdle:Timeout <- [DW_OP_plus_uconst 40] [$sp+0]
	.loc	5 781 26 is_stmt 1              @ c:/Keil_v5\ARM\PACK\Keil\STM32L5xx_DFP\1.3.0\Drivers\STM32L5xx_HAL_Driver\Src\stm32l5xx_hal_uart_ex.c:781:26
	ands	r0, r7
	.loc	5 781 24 is_stmt 0              @ c:/Keil_v5\ARM\PACK\Keil\STM32L5xx_DFP\1.3.0\Drivers\STM32L5xx_HAL_Driver\Src\stm32l5xx_hal_uart_ex.c:781:24
	strh	r0, [r9], #2
.Ltmp209:
	.loc	5 0 24                          @ c:/Keil_v5\ARM\PACK\Keil\STM32L5xx_DFP\1.3.0\Drivers\STM32L5xx_HAL_Driver\Src\stm32l5xx_hal_uart_ex.c:0:24
	movs	r6, #0
.Ltmp210:
	@DEBUG_VALUE: HAL_UARTEx_ReceiveToIdle:pdata16bits <- $r9
.LBB12_38:                              @   in Loop: Header=BB12_32 Depth=1
	@DEBUG_VALUE: HAL_UARTEx_ReceiveToIdle:pdata16bits <- $r9
	@DEBUG_VALUE: HAL_UARTEx_ReceiveToIdle:tickstart <- $r8
	@DEBUG_VALUE: HAL_UARTEx_ReceiveToIdle:RxLen <- $r5
	@DEBUG_VALUE: HAL_UARTEx_ReceiveToIdle:huart <- $r4
	@DEBUG_VALUE: HAL_UARTEx_ReceiveToIdle:Timeout <- [DW_OP_plus_uconst 40] [$sp+0]
	@DEBUG_VALUE: HAL_UARTEx_ReceiveToIdle:pdata8bits <- $r6
	@DEBUG_VALUE: HAL_UARTEx_ReceiveToIdle:pdata16bits <- $r9
	.loc	5 790 16 is_stmt 1              @ c:/Keil_v5\ARM\PACK\Keil\STM32L5xx_DFP\1.3.0\Drivers\STM32L5xx_HAL_Driver\Src\stm32l5xx_hal_uart_ex.c:790:16
	ldrh	r0, [r5]
	adds	r0, #1
	strh	r0, [r5]
	.loc	5 791 27                        @ c:/Keil_v5\ARM\PACK\Keil\STM32L5xx_DFP\1.3.0\Drivers\STM32L5xx_HAL_Driver\Src\stm32l5xx_hal_uart_ex.c:791:27
	ldrh.w	r0, [r4, #94]
	subs	r0, #1
	strh.w	r0, [r4, #94]
.Ltmp211:
.LBB12_39:                              @   in Loop: Header=BB12_32 Depth=1
	@DEBUG_VALUE: HAL_UARTEx_ReceiveToIdle:pdata16bits <- $r9
	@DEBUG_VALUE: HAL_UARTEx_ReceiveToIdle:tickstart <- $r8
	@DEBUG_VALUE: HAL_UARTEx_ReceiveToIdle:pdata8bits <- $r6
	@DEBUG_VALUE: HAL_UARTEx_ReceiveToIdle:RxLen <- $r5
	@DEBUG_VALUE: HAL_UARTEx_ReceiveToIdle:huart <- $r4
	@DEBUG_VALUE: HAL_UARTEx_ReceiveToIdle:Timeout <- [DW_OP_plus_uconst 40] [$sp+0]
	@DEBUG_VALUE: HAL_UARTEx_ReceiveToIdle:pdata8bits <- $r6
	@DEBUG_VALUE: HAL_UARTEx_ReceiveToIdle:pdata16bits <- $r9
	.loc	5 797 15                        @ c:/Keil_v5\ARM\PACK\Keil\STM32L5xx_DFP\1.3.0\Drivers\STM32L5xx_HAL_Driver\Src\stm32l5xx_hal_uart_ex.c:797:15
	bl	HAL_GetTick
	.loc	5 797 29 is_stmt 0              @ c:/Keil_v5\ARM\PACK\Keil\STM32L5xx_DFP\1.3.0\Drivers\STM32L5xx_HAL_Driver\Src\stm32l5xx_hal_uart_ex.c:797:29
	sub.w	r0, r0, r8
	.loc	5 797 53                        @ c:/Keil_v5\ARM\PACK\Keil\STM32L5xx_DFP\1.3.0\Drivers\STM32L5xx_HAL_Driver\Src\stm32l5xx_hal_uart_ex.c:797:53
	cmp	r0, r10
	bhi	.LBB12_46
.Ltmp212:
@ %bb.40:                               @   in Loop: Header=BB12_32 Depth=1
	@DEBUG_VALUE: HAL_UARTEx_ReceiveToIdle:pdata16bits <- $r9
	@DEBUG_VALUE: HAL_UARTEx_ReceiveToIdle:tickstart <- $r8
	@DEBUG_VALUE: HAL_UARTEx_ReceiveToIdle:pdata8bits <- $r6
	@DEBUG_VALUE: HAL_UARTEx_ReceiveToIdle:RxLen <- $r5
	@DEBUG_VALUE: HAL_UARTEx_ReceiveToIdle:huart <- $r4
	@DEBUG_VALUE: HAL_UARTEx_ReceiveToIdle:Timeout <- [DW_OP_plus_uconst 40] [$sp+0]
	@DEBUG_VALUE: HAL_UARTEx_ReceiveToIdle:pdata8bits <- $r6
	@DEBUG_VALUE: HAL_UARTEx_ReceiveToIdle:pdata16bits <- $r9
	.loc	5 758 19 is_stmt 1              @ c:/Keil_v5\ARM\PACK\Keil\STM32L5xx_DFP\1.3.0\Drivers\STM32L5xx_HAL_Driver\Src\stm32l5xx_hal_uart_ex.c:758:19
	ldrh.w	r0, [r4, #94]
	.loc	5 758 5 is_stmt 0               @ c:/Keil_v5\ARM\PACK\Keil\STM32L5xx_DFP\1.3.0\Drivers\STM32L5xx_HAL_Driver\Src\stm32l5xx_hal_uart_ex.c:758:5
	cmp	r0, #0
	bne	.LBB12_32
.Ltmp213:
.LBB12_41:
	@DEBUG_VALUE: HAL_UARTEx_ReceiveToIdle:pdata16bits <- $r9
	@DEBUG_VALUE: HAL_UARTEx_ReceiveToIdle:tickstart <- $r8
	@DEBUG_VALUE: HAL_UARTEx_ReceiveToIdle:pdata8bits <- $r6
	@DEBUG_VALUE: HAL_UARTEx_ReceiveToIdle:RxLen <- $r5
	@DEBUG_VALUE: HAL_UARTEx_ReceiveToIdle:huart <- $r4
	@DEBUG_VALUE: HAL_UARTEx_ReceiveToIdle:Timeout <- [DW_OP_plus_uconst 40] [$sp+0]
	.loc	5 807 21 is_stmt 1              @ c:/Keil_v5\ARM\PACK\Keil\STM32L5xx_DFP\1.3.0\Drivers\STM32L5xx_HAL_Driver\Src\stm32l5xx_hal_uart_ex.c:807:21
	ldrh.w	r0, [r4, #92]
	.loc	5 807 41 is_stmt 0              @ c:/Keil_v5\ARM\PACK\Keil\STM32L5xx_DFP\1.3.0\Drivers\STM32L5xx_HAL_Driver\Src\stm32l5xx_hal_uart_ex.c:807:41
	ldrh.w	r1, [r4, #94]
	.loc	5 807 32                        @ c:/Keil_v5\ARM\PACK\Keil\STM32L5xx_DFP\1.3.0\Drivers\STM32L5xx_HAL_Driver\Src\stm32l5xx_hal_uart_ex.c:807:32
	subs	r0, r0, r1
	.loc	5 807 12                        @ c:/Keil_v5\ARM\PACK\Keil\STM32L5xx_DFP\1.3.0\Drivers\STM32L5xx_HAL_Driver\Src\stm32l5xx_hal_uart_ex.c:807:12
	strh	r0, [r5]
.Ltmp214:
.LBB12_42:
	@DEBUG_VALUE: HAL_UARTEx_ReceiveToIdle:pdata16bits <- $r9
	@DEBUG_VALUE: HAL_UARTEx_ReceiveToIdle:tickstart <- $r8
	@DEBUG_VALUE: HAL_UARTEx_ReceiveToIdle:pdata8bits <- $r6
	@DEBUG_VALUE: HAL_UARTEx_ReceiveToIdle:RxLen <- $r5
	@DEBUG_VALUE: HAL_UARTEx_ReceiveToIdle:huart <- $r4
	@DEBUG_VALUE: HAL_UARTEx_ReceiveToIdle:Timeout <- [DW_OP_plus_uconst 40] [$sp+0]
	.loc	5 0 12                          @ c:/Keil_v5\ARM\PACK\Keil\STM32L5xx_DFP\1.3.0\Drivers\STM32L5xx_HAL_Driver\Src\stm32l5xx_hal_uart_ex.c:0:12
	movs	r0, #32
	str.w	r0, [r4, #136]
	movs	r0, #0
.Ltmp215:
	.loc	5 817 1 is_stmt 1               @ c:/Keil_v5\ARM\PACK\Keil\STM32L5xx_DFP\1.3.0\Drivers\STM32L5xx_HAL_Driver\Src\stm32l5xx_hal_uart_ex.c:817:1
	add	sp, #4
	pop.w	{r4, r5, r6, r7, r8, r9, r10, r11, pc}
.Ltmp216:
	.p2align	2
.LBB12_43:
	@DEBUG_VALUE: HAL_UARTEx_ReceiveToIdle:pdata16bits <- $r9
	@DEBUG_VALUE: HAL_UARTEx_ReceiveToIdle:tickstart <- $r8
	@DEBUG_VALUE: HAL_UARTEx_ReceiveToIdle:pdata8bits <- $r6
	@DEBUG_VALUE: HAL_UARTEx_ReceiveToIdle:RxLen <- $r5
	@DEBUG_VALUE: HAL_UARTEx_ReceiveToIdle:huart <- $r4
	@DEBUG_VALUE: HAL_UARTEx_ReceiveToIdle:Timeout <- [DW_OP_plus_uconst 40] [$sp+0]
	.loc	5 781 26                        @ c:/Keil_v5\ARM\PACK\Keil\STM32L5xx_DFP\1.3.0\Drivers\STM32L5xx_HAL_Driver\Src\stm32l5xx_hal_uart_ex.c:781:26
	ands	r0, r7
	.loc	5 781 24 is_stmt 0              @ c:/Keil_v5\ARM\PACK\Keil\STM32L5xx_DFP\1.3.0\Drivers\STM32L5xx_HAL_Driver\Src\stm32l5xx_hal_uart_ex.c:781:24
	strh.w	r0, [r9]
.Ltmp217:
	@DEBUG_VALUE: HAL_UARTEx_ReceiveToIdle:pdata16bits <- [DW_OP_plus_uconst 2, DW_OP_stack_value] undef
.LBB12_44:
	@DEBUG_VALUE: HAL_UARTEx_ReceiveToIdle:tickstart <- $r8
	@DEBUG_VALUE: HAL_UARTEx_ReceiveToIdle:RxLen <- $r5
	@DEBUG_VALUE: HAL_UARTEx_ReceiveToIdle:huart <- $r4
	@DEBUG_VALUE: HAL_UARTEx_ReceiveToIdle:Timeout <- [DW_OP_plus_uconst 40] [$sp+0]
	@DEBUG_VALUE: HAL_UARTEx_ReceiveToIdle:pdata8bits <- undef
	@DEBUG_VALUE: HAL_UARTEx_ReceiveToIdle:pdata16bits <- undef
	.loc	5 790 16 is_stmt 1              @ c:/Keil_v5\ARM\PACK\Keil\STM32L5xx_DFP\1.3.0\Drivers\STM32L5xx_HAL_Driver\Src\stm32l5xx_hal_uart_ex.c:790:16
	ldrh	r0, [r5]
	adds	r0, #1
	strh	r0, [r5]
	.loc	5 791 27                        @ c:/Keil_v5\ARM\PACK\Keil\STM32L5xx_DFP\1.3.0\Drivers\STM32L5xx_HAL_Driver\Src\stm32l5xx_hal_uart_ex.c:791:27
	ldrh.w	r0, [r4, #94]
	subs	r0, #1
	strh.w	r0, [r4, #94]
.Ltmp218:
.LBB12_45:
	@DEBUG_VALUE: HAL_UARTEx_ReceiveToIdle:tickstart <- $r8
	@DEBUG_VALUE: HAL_UARTEx_ReceiveToIdle:RxLen <- $r5
	@DEBUG_VALUE: HAL_UARTEx_ReceiveToIdle:huart <- $r4
	@DEBUG_VALUE: HAL_UARTEx_ReceiveToIdle:Timeout <- [DW_OP_plus_uconst 40] [$sp+0]
	@DEBUG_VALUE: HAL_UARTEx_ReceiveToIdle:pdata8bits <- undef
	@DEBUG_VALUE: HAL_UARTEx_ReceiveToIdle:pdata16bits <- undef
	.loc	5 797 15                        @ c:/Keil_v5\ARM\PACK\Keil\STM32L5xx_DFP\1.3.0\Drivers\STM32L5xx_HAL_Driver\Src\stm32l5xx_hal_uart_ex.c:797:15
	bl	HAL_GetTick
.Ltmp219:
.LBB12_46:
	@DEBUG_VALUE: HAL_UARTEx_ReceiveToIdle:tickstart <- $r8
	@DEBUG_VALUE: HAL_UARTEx_ReceiveToIdle:RxLen <- $r5
	@DEBUG_VALUE: HAL_UARTEx_ReceiveToIdle:huart <- $r4
	@DEBUG_VALUE: HAL_UARTEx_ReceiveToIdle:Timeout <- [DW_OP_plus_uconst 40] [$sp+0]
	.loc	5 0 15 is_stmt 0                @ c:/Keil_v5\ARM\PACK\Keil\STM32L5xx_DFP\1.3.0\Drivers\STM32L5xx_HAL_Driver\Src\stm32l5xx_hal_uart_ex.c:0:15
	movs	r0, #32
.Ltmp220:
	.loc	5 799 26 is_stmt 1              @ c:/Keil_v5\ARM\PACK\Keil\STM32L5xx_DFP\1.3.0\Drivers\STM32L5xx_HAL_Driver\Src\stm32l5xx_hal_uart_ex.c:799:26
	str.w	r0, [r4, #136]
	movs	r0, #3
.Ltmp221:
	.loc	5 817 1                         @ c:/Keil_v5\ARM\PACK\Keil\STM32L5xx_DFP\1.3.0\Drivers\STM32L5xx_HAL_Driver\Src\stm32l5xx_hal_uart_ex.c:817:1
	add	sp, #4
	pop.w	{r4, r5, r6, r7, r8, r9, r10, r11, pc}
.Ltmp222:
.Lfunc_end12:
	.size	HAL_UARTEx_ReceiveToIdle, .Lfunc_end12-HAL_UARTEx_ReceiveToIdle
	.cfi_endproc
	.cantunwind
	.fnend
                                        @ -- End function
	.section	.text.HAL_UARTEx_ReceiveToIdle_IT,"ax",%progbits
	.hidden	HAL_UARTEx_ReceiveToIdle_IT     @ -- Begin function HAL_UARTEx_ReceiveToIdle_IT
	.globl	HAL_UARTEx_ReceiveToIdle_IT
	.p2align	2
	.type	HAL_UARTEx_ReceiveToIdle_IT,%function
	.code	16                              @ @HAL_UARTEx_ReceiveToIdle_IT
	.thumb_func
HAL_UARTEx_ReceiveToIdle_IT:
.Lfunc_begin13:
	.loc	5 833 0                         @ c:/Keil_v5\ARM\PACK\Keil\STM32L5xx_DFP\1.3.0\Drivers\STM32L5xx_HAL_Driver\Src\stm32l5xx_hal_uart_ex.c:833:0
	.fnstart
	.cfi_startproc
@ %bb.0:
	@DEBUG_VALUE: HAL_UARTEx_ReceiveToIdle_IT:huart <- $r0
	@DEBUG_VALUE: HAL_UARTEx_ReceiveToIdle_IT:pData <- $r1
	@DEBUG_VALUE: HAL_UARTEx_ReceiveToIdle_IT:Size <- $r2
	.save	{r4, lr}
	push	{r4, lr}
	.cfi_def_cfa_offset 8
	.cfi_offset lr, -4
	.cfi_offset r4, -8
	mov	r4, r0
.Ltmp223:
	@DEBUG_VALUE: HAL_UARTEx_ReceiveToIdle_IT:Size <- undef
	@DEBUG_VALUE: HAL_UARTEx_ReceiveToIdle_IT:huart <- $r4
	.loc	5 837 14 prologue_end           @ c:/Keil_v5\ARM\PACK\Keil\STM32L5xx_DFP\1.3.0\Drivers\STM32L5xx_HAL_Driver\Src\stm32l5xx_hal_uart_ex.c:837:14
	ldr.w	r0, [r0, #136]
.Ltmp224:
	@DEBUG_VALUE: HAL_UARTEx_ReceiveToIdle_IT:Size <- $r2
	.loc	5 837 7 is_stmt 0               @ c:/Keil_v5\ARM\PACK\Keil\STM32L5xx_DFP\1.3.0\Drivers\STM32L5xx_HAL_Driver\Src\stm32l5xx_hal_uart_ex.c:837:7
	cmp	r0, #32
	@DEBUG_VALUE: HAL_UARTEx_ReceiveToIdle_IT:pData <- $r1
	bne	.LBB13_4
.Ltmp225:
@ %bb.1:
	@DEBUG_VALUE: HAL_UARTEx_ReceiveToIdle_IT:huart <- $r4
	@DEBUG_VALUE: HAL_UARTEx_ReceiveToIdle_IT:Size <- $r2
	@DEBUG_VALUE: HAL_UARTEx_ReceiveToIdle_IT:pData <- $r1
	@DEBUG_VALUE: HAL_UARTEx_ReceiveToIdle_IT:Size <- $r2
	.loc	5 839 25 is_stmt 1              @ c:/Keil_v5\ARM\PACK\Keil\STM32L5xx_DFP\1.3.0\Drivers\STM32L5xx_HAL_Driver\Src\stm32l5xx_hal_uart_ex.c:839:25
	cmp	r1, #0
	mov.w	r0, #1
	@DEBUG_VALUE: HAL_UARTEx_ReceiveToIdle_IT:Size <- $r2
	it	ne
	cmpne	r2, #0
	bne	.LBB13_3
.Ltmp226:
@ %bb.2:
	@DEBUG_VALUE: HAL_UARTEx_ReceiveToIdle_IT:huart <- $r4
	@DEBUG_VALUE: HAL_UARTEx_ReceiveToIdle_IT:Size <- $r2
	@DEBUG_VALUE: HAL_UARTEx_ReceiveToIdle_IT:pData <- $r1
	.loc	5 875 1                         @ c:/Keil_v5\ARM\PACK\Keil\STM32L5xx_DFP\1.3.0\Drivers\STM32L5xx_HAL_Driver\Src\stm32l5xx_hal_uart_ex.c:875:1
	pop	{r4, pc}
.Ltmp227:
	.p2align	2
.LBB13_3:
	@DEBUG_VALUE: HAL_UARTEx_ReceiveToIdle_IT:huart <- $r4
	@DEBUG_VALUE: HAL_UARTEx_ReceiveToIdle_IT:Size <- $r2
	@DEBUG_VALUE: HAL_UARTEx_ReceiveToIdle_IT:pData <- $r1
	@DEBUG_VALUE: HAL_UARTEx_ReceiveToIdle_IT:Size <- $r2
	.loc	5 844 5                         @ c:/Keil_v5\ARM\PACK\Keil\STM32L5xx_DFP\1.3.0\Drivers\STM32L5xx_HAL_Driver\Src\stm32l5xx_hal_uart_ex.c:844:5
	ldrb.w	r0, [r4, #128]
.Ltmp228:
	.loc	5 844 5 is_stmt 0               @ c:/Keil_v5\ARM\PACK\Keil\STM32L5xx_DFP\1.3.0\Drivers\STM32L5xx_HAL_Driver\Src\stm32l5xx_hal_uart_ex.c:844:5
	cmp	r0, #1
	bne	.LBB13_5
.Ltmp229:
.LBB13_4:
	@DEBUG_VALUE: HAL_UARTEx_ReceiveToIdle_IT:huart <- $r4
	@DEBUG_VALUE: HAL_UARTEx_ReceiveToIdle_IT:Size <- $r2
	@DEBUG_VALUE: HAL_UARTEx_ReceiveToIdle_IT:pData <- $r1
	.loc	5 0 5                           @ c:/Keil_v5\ARM\PACK\Keil\STM32L5xx_DFP\1.3.0\Drivers\STM32L5xx_HAL_Driver\Src\stm32l5xx_hal_uart_ex.c:0:5
	movs	r0, #2
	.loc	5 875 1 is_stmt 1               @ c:/Keil_v5\ARM\PACK\Keil\STM32L5xx_DFP\1.3.0\Drivers\STM32L5xx_HAL_Driver\Src\stm32l5xx_hal_uart_ex.c:875:1
	pop	{r4, pc}
.Ltmp230:
	.p2align	2
.LBB13_5:
	@DEBUG_VALUE: HAL_UARTEx_ReceiveToIdle_IT:huart <- $r4
	@DEBUG_VALUE: HAL_UARTEx_ReceiveToIdle_IT:Size <- $r2
	@DEBUG_VALUE: HAL_UARTEx_ReceiveToIdle_IT:pData <- $r1
	@DEBUG_VALUE: HAL_UARTEx_ReceiveToIdle_IT:Size <- $r2
	.loc	5 0 1 is_stmt 0                 @ c:/Keil_v5\ARM\PACK\Keil\STM32L5xx_DFP\1.3.0\Drivers\STM32L5xx_HAL_Driver\Src\stm32l5xx_hal_uart_ex.c:0:1
	movs	r0, #1
.Ltmp231:
	.loc	5 844 5 is_stmt 1               @ c:/Keil_v5\ARM\PACK\Keil\STM32L5xx_DFP\1.3.0\Drivers\STM32L5xx_HAL_Driver\Src\stm32l5xx_hal_uart_ex.c:844:5
	strb.w	r0, [r4, #128]
.Ltmp232:
	.loc	5 847 26                        @ c:/Keil_v5\ARM\PACK\Keil\STM32L5xx_DFP\1.3.0\Drivers\STM32L5xx_HAL_Driver\Src\stm32l5xx_hal_uart_ex.c:847:26
	str	r0, [r4, #108]
	.loc	5 849 15                        @ c:/Keil_v5\ARM\PACK\Keil\STM32L5xx_DFP\1.3.0\Drivers\STM32L5xx_HAL_Driver\Src\stm32l5xx_hal_uart_ex.c:849:15
	mov	r0, r4
	bl	UART_Start_Receive_IT
.Ltmp233:
	@DEBUG_VALUE: HAL_UARTEx_ReceiveToIdle_IT:pData <- [DW_OP_LLVM_entry_value 1] $r1
	@DEBUG_VALUE: HAL_UARTEx_ReceiveToIdle_IT:status <- $r0
	.loc	5 852 9                         @ c:/Keil_v5\ARM\PACK\Keil\STM32L5xx_DFP\1.3.0\Drivers\STM32L5xx_HAL_Driver\Src\stm32l5xx_hal_uart_ex.c:852:9
	cmp	r0, #0
.Ltmp234:
	.loc	5 875 1                         @ c:/Keil_v5\ARM\PACK\Keil\STM32L5xx_DFP\1.3.0\Drivers\STM32L5xx_HAL_Driver\Src\stm32l5xx_hal_uart_ex.c:875:1
	it	ne
	popne	{r4, pc}
.Ltmp235:
.LBB13_6:
	@DEBUG_VALUE: HAL_UARTEx_ReceiveToIdle_IT:status <- $r0
	@DEBUG_VALUE: HAL_UARTEx_ReceiveToIdle_IT:pData <- [DW_OP_LLVM_entry_value 1] $r1
	.loc	5 854 18                        @ c:/Keil_v5\ARM\PACK\Keil\STM32L5xx_DFP\1.3.0\Drivers\STM32L5xx_HAL_Driver\Src\stm32l5xx_hal_uart_ex.c:854:18
	ldr	r0, [r4, #108]
.Ltmp236:
	.loc	5 854 11 is_stmt 0              @ c:/Keil_v5\ARM\PACK\Keil\STM32L5xx_DFP\1.3.0\Drivers\STM32L5xx_HAL_Driver\Src\stm32l5xx_hal_uart_ex.c:854:11
	cmp	r0, #1
	itt	ne
	movne	r0, #1
.Ltmp237:
	.loc	5 875 1 is_stmt 1               @ c:/Keil_v5\ARM\PACK\Keil\STM32L5xx_DFP\1.3.0\Drivers\STM32L5xx_HAL_Driver\Src\stm32l5xx_hal_uart_ex.c:875:1
	popne	{r4, pc}
.Ltmp238:
.LBB13_7:
	@DEBUG_VALUE: HAL_UARTEx_ReceiveToIdle_IT:pData <- [DW_OP_LLVM_entry_value 1] $r1
	.loc	5 856 9                         @ c:/Keil_v5\ARM\PACK\Keil\STM32L5xx_DFP\1.3.0\Drivers\STM32L5xx_HAL_Driver\Src\stm32l5xx_hal_uart_ex.c:856:9
	ldr	r0, [r4]
	movs	r1, #16
	str	r1, [r0, #32]
	.loc	5 857 9                         @ c:/Keil_v5\ARM\PACK\Keil\STM32L5xx_DFP\1.3.0\Drivers\STM32L5xx_HAL_Driver\Src\stm32l5xx_hal_uart_ex.c:857:9
	ldr	r1, [r0]
	orr	r1, r1, #16
	str	r1, [r0]
	movs	r0, #0
.Ltmp239:
	.loc	5 875 1                         @ c:/Keil_v5\ARM\PACK\Keil\STM32L5xx_DFP\1.3.0\Drivers\STM32L5xx_HAL_Driver\Src\stm32l5xx_hal_uart_ex.c:875:1
	pop	{r4, pc}
.Ltmp240:
.Lfunc_end13:
	.size	HAL_UARTEx_ReceiveToIdle_IT, .Lfunc_end13-HAL_UARTEx_ReceiveToIdle_IT
	.cfi_endproc
	.cantunwind
	.fnend
                                        @ -- End function
	.section	.text.HAL_UARTEx_ReceiveToIdle_DMA,"ax",%progbits
	.hidden	HAL_UARTEx_ReceiveToIdle_DMA    @ -- Begin function HAL_UARTEx_ReceiveToIdle_DMA
	.globl	HAL_UARTEx_ReceiveToIdle_DMA
	.p2align	2
	.type	HAL_UARTEx_ReceiveToIdle_DMA,%function
	.code	16                              @ @HAL_UARTEx_ReceiveToIdle_DMA
	.thumb_func
HAL_UARTEx_ReceiveToIdle_DMA:
.Lfunc_begin14:
	.loc	5 894 0                         @ c:/Keil_v5\ARM\PACK\Keil\STM32L5xx_DFP\1.3.0\Drivers\STM32L5xx_HAL_Driver\Src\stm32l5xx_hal_uart_ex.c:894:0
	.fnstart
	.cfi_startproc
@ %bb.0:
	@DEBUG_VALUE: HAL_UARTEx_ReceiveToIdle_DMA:huart <- $r0
	@DEBUG_VALUE: HAL_UARTEx_ReceiveToIdle_DMA:pData <- $r1
	@DEBUG_VALUE: HAL_UARTEx_ReceiveToIdle_DMA:Size <- $r2
	.save	{r4, lr}
	push	{r4, lr}
	.cfi_def_cfa_offset 8
	.cfi_offset lr, -4
	.cfi_offset r4, -8
	mov	r4, r0
.Ltmp241:
	@DEBUG_VALUE: HAL_UARTEx_ReceiveToIdle_DMA:Size <- undef
	@DEBUG_VALUE: HAL_UARTEx_ReceiveToIdle_DMA:huart <- $r4
	.loc	5 898 14 prologue_end           @ c:/Keil_v5\ARM\PACK\Keil\STM32L5xx_DFP\1.3.0\Drivers\STM32L5xx_HAL_Driver\Src\stm32l5xx_hal_uart_ex.c:898:14
	ldr.w	r0, [r0, #136]
.Ltmp242:
	@DEBUG_VALUE: HAL_UARTEx_ReceiveToIdle_DMA:Size <- $r2
	.loc	5 898 7 is_stmt 0               @ c:/Keil_v5\ARM\PACK\Keil\STM32L5xx_DFP\1.3.0\Drivers\STM32L5xx_HAL_Driver\Src\stm32l5xx_hal_uart_ex.c:898:7
	cmp	r0, #32
	@DEBUG_VALUE: HAL_UARTEx_ReceiveToIdle_DMA:pData <- $r1
	bne	.LBB14_4
.Ltmp243:
@ %bb.1:
	@DEBUG_VALUE: HAL_UARTEx_ReceiveToIdle_DMA:huart <- $r4
	@DEBUG_VALUE: HAL_UARTEx_ReceiveToIdle_DMA:Size <- $r2
	@DEBUG_VALUE: HAL_UARTEx_ReceiveToIdle_DMA:pData <- $r1
	@DEBUG_VALUE: HAL_UARTEx_ReceiveToIdle_DMA:Size <- $r2
	.loc	5 900 25 is_stmt 1              @ c:/Keil_v5\ARM\PACK\Keil\STM32L5xx_DFP\1.3.0\Drivers\STM32L5xx_HAL_Driver\Src\stm32l5xx_hal_uart_ex.c:900:25
	cmp	r1, #0
	mov.w	r0, #1
	@DEBUG_VALUE: HAL_UARTEx_ReceiveToIdle_DMA:Size <- $r2
	it	ne
	cmpne	r2, #0
	bne	.LBB14_3
.Ltmp244:
@ %bb.2:
	@DEBUG_VALUE: HAL_UARTEx_ReceiveToIdle_DMA:huart <- $r4
	@DEBUG_VALUE: HAL_UARTEx_ReceiveToIdle_DMA:Size <- $r2
	@DEBUG_VALUE: HAL_UARTEx_ReceiveToIdle_DMA:pData <- $r1
	.loc	5 936 1                         @ c:/Keil_v5\ARM\PACK\Keil\STM32L5xx_DFP\1.3.0\Drivers\STM32L5xx_HAL_Driver\Src\stm32l5xx_hal_uart_ex.c:936:1
	pop	{r4, pc}
.Ltmp245:
	.p2align	2
.LBB14_3:
	@DEBUG_VALUE: HAL_UARTEx_ReceiveToIdle_DMA:huart <- $r4
	@DEBUG_VALUE: HAL_UARTEx_ReceiveToIdle_DMA:Size <- $r2
	@DEBUG_VALUE: HAL_UARTEx_ReceiveToIdle_DMA:pData <- $r1
	@DEBUG_VALUE: HAL_UARTEx_ReceiveToIdle_DMA:Size <- $r2
	.loc	5 905 5                         @ c:/Keil_v5\ARM\PACK\Keil\STM32L5xx_DFP\1.3.0\Drivers\STM32L5xx_HAL_Driver\Src\stm32l5xx_hal_uart_ex.c:905:5
	ldrb.w	r0, [r4, #128]
.Ltmp246:
	.loc	5 905 5 is_stmt 0               @ c:/Keil_v5\ARM\PACK\Keil\STM32L5xx_DFP\1.3.0\Drivers\STM32L5xx_HAL_Driver\Src\stm32l5xx_hal_uart_ex.c:905:5
	cmp	r0, #1
	bne	.LBB14_5
.Ltmp247:
.LBB14_4:
	@DEBUG_VALUE: HAL_UARTEx_ReceiveToIdle_DMA:huart <- $r4
	@DEBUG_VALUE: HAL_UARTEx_ReceiveToIdle_DMA:Size <- $r2
	@DEBUG_VALUE: HAL_UARTEx_ReceiveToIdle_DMA:pData <- $r1
	.loc	5 0 5                           @ c:/Keil_v5\ARM\PACK\Keil\STM32L5xx_DFP\1.3.0\Drivers\STM32L5xx_HAL_Driver\Src\stm32l5xx_hal_uart_ex.c:0:5
	movs	r0, #2
	.loc	5 936 1 is_stmt 1               @ c:/Keil_v5\ARM\PACK\Keil\STM32L5xx_DFP\1.3.0\Drivers\STM32L5xx_HAL_Driver\Src\stm32l5xx_hal_uart_ex.c:936:1
	pop	{r4, pc}
.Ltmp248:
	.p2align	2
.LBB14_5:
	@DEBUG_VALUE: HAL_UARTEx_ReceiveToIdle_DMA:huart <- $r4
	@DEBUG_VALUE: HAL_UARTEx_ReceiveToIdle_DMA:Size <- $r2
	@DEBUG_VALUE: HAL_UARTEx_ReceiveToIdle_DMA:pData <- $r1
	@DEBUG_VALUE: HAL_UARTEx_ReceiveToIdle_DMA:Size <- $r2
	.loc	5 0 1 is_stmt 0                 @ c:/Keil_v5\ARM\PACK\Keil\STM32L5xx_DFP\1.3.0\Drivers\STM32L5xx_HAL_Driver\Src\stm32l5xx_hal_uart_ex.c:0:1
	movs	r0, #1
.Ltmp249:
	.loc	5 905 5 is_stmt 1               @ c:/Keil_v5\ARM\PACK\Keil\STM32L5xx_DFP\1.3.0\Drivers\STM32L5xx_HAL_Driver\Src\stm32l5xx_hal_uart_ex.c:905:5
	strb.w	r0, [r4, #128]
.Ltmp250:
	.loc	5 908 26                        @ c:/Keil_v5\ARM\PACK\Keil\STM32L5xx_DFP\1.3.0\Drivers\STM32L5xx_HAL_Driver\Src\stm32l5xx_hal_uart_ex.c:908:26
	str	r0, [r4, #108]
	.loc	5 910 15                        @ c:/Keil_v5\ARM\PACK\Keil\STM32L5xx_DFP\1.3.0\Drivers\STM32L5xx_HAL_Driver\Src\stm32l5xx_hal_uart_ex.c:910:15
	mov	r0, r4
	bl	UART_Start_Receive_DMA
.Ltmp251:
	@DEBUG_VALUE: HAL_UARTEx_ReceiveToIdle_DMA:pData <- [DW_OP_LLVM_entry_value 1] $r1
	@DEBUG_VALUE: HAL_UARTEx_ReceiveToIdle_DMA:status <- $r0
	.loc	5 913 9                         @ c:/Keil_v5\ARM\PACK\Keil\STM32L5xx_DFP\1.3.0\Drivers\STM32L5xx_HAL_Driver\Src\stm32l5xx_hal_uart_ex.c:913:9
	cmp	r0, #0
.Ltmp252:
	.loc	5 936 1                         @ c:/Keil_v5\ARM\PACK\Keil\STM32L5xx_DFP\1.3.0\Drivers\STM32L5xx_HAL_Driver\Src\stm32l5xx_hal_uart_ex.c:936:1
	it	ne
	popne	{r4, pc}
.Ltmp253:
.LBB14_6:
	@DEBUG_VALUE: HAL_UARTEx_ReceiveToIdle_DMA:status <- $r0
	@DEBUG_VALUE: HAL_UARTEx_ReceiveToIdle_DMA:pData <- [DW_OP_LLVM_entry_value 1] $r1
	.loc	5 915 18                        @ c:/Keil_v5\ARM\PACK\Keil\STM32L5xx_DFP\1.3.0\Drivers\STM32L5xx_HAL_Driver\Src\stm32l5xx_hal_uart_ex.c:915:18
	ldr	r0, [r4, #108]
.Ltmp254:
	.loc	5 915 11 is_stmt 0              @ c:/Keil_v5\ARM\PACK\Keil\STM32L5xx_DFP\1.3.0\Drivers\STM32L5xx_HAL_Driver\Src\stm32l5xx_hal_uart_ex.c:915:11
	cmp	r0, #1
	itt	ne
	movne	r0, #1
.Ltmp255:
	.loc	5 936 1 is_stmt 1               @ c:/Keil_v5\ARM\PACK\Keil\STM32L5xx_DFP\1.3.0\Drivers\STM32L5xx_HAL_Driver\Src\stm32l5xx_hal_uart_ex.c:936:1
	popne	{r4, pc}
.Ltmp256:
.LBB14_7:
	@DEBUG_VALUE: HAL_UARTEx_ReceiveToIdle_DMA:pData <- [DW_OP_LLVM_entry_value 1] $r1
	.loc	5 917 9                         @ c:/Keil_v5\ARM\PACK\Keil\STM32L5xx_DFP\1.3.0\Drivers\STM32L5xx_HAL_Driver\Src\stm32l5xx_hal_uart_ex.c:917:9
	ldr	r0, [r4]
	movs	r1, #16
	str	r1, [r0, #32]
	.loc	5 918 9                         @ c:/Keil_v5\ARM\PACK\Keil\STM32L5xx_DFP\1.3.0\Drivers\STM32L5xx_HAL_Driver\Src\stm32l5xx_hal_uart_ex.c:918:9
	ldr	r1, [r0]
	orr	r1, r1, #16
	str	r1, [r0]
	movs	r0, #0
.Ltmp257:
	.loc	5 936 1                         @ c:/Keil_v5\ARM\PACK\Keil\STM32L5xx_DFP\1.3.0\Drivers\STM32L5xx_HAL_Driver\Src\stm32l5xx_hal_uart_ex.c:936:1
	pop	{r4, pc}
.Ltmp258:
.Lfunc_end14:
	.size	HAL_UARTEx_ReceiveToIdle_DMA, .Lfunc_end14-HAL_UARTEx_ReceiveToIdle_DMA
	.cfi_endproc
	.cantunwind
	.fnend
                                        @ -- End function
	.type	.L__const.UARTEx_SetNbDataToProcess.numerator,%object @ @__const.UARTEx_SetNbDataToProcess.numerator
	.section	.rodata.cst8,"aM",%progbits,8
.L__const.UARTEx_SetNbDataToProcess.numerator:
	.asciz	"\001\001\001\003\007\001\000"
	.size	.L__const.UARTEx_SetNbDataToProcess.numerator, 8

	.type	.L__const.UARTEx_SetNbDataToProcess.denominator,%object @ @__const.UARTEx_SetNbDataToProcess.denominator
.L__const.UARTEx_SetNbDataToProcess.denominator:
	.ascii	"\b\004\002\004\b\001\001\001"
	.size	.L__const.UARTEx_SetNbDataToProcess.denominator, 8

	.section	".note.GNU-stack","",%progbits
	.eabi_attribute	30, 2	@ Tag_ABI_optimization_goals
	.ARM_attribute	16, 1	@ Tag_AV_eba